 nmavatar_d

 Timestamp is 5d6e1e1b (Tue Sep  3 17:02:35 2019)

 Preferred load address is 10000000

 Start         Length     Name                   Class
 0001:00000000 00006f20H .text$di                CODE
 0001:00006f20 000602d0H .text$mn                CODE
 0001:000671f0 00003450H .text$x                 CODE
 0001:0006a640 00001510H .text$yd                CODE
 0002:00000000 00000104H .CRT$XCA                DATA
 0002:00000104 00000104H .CRT$XCL                DATA
 0002:00000208 00000194H .CRT$XCU                DATA
 0002:0000039c 00000104H .CRT$XCZ                DATA
 0002:000004a0 00000104H .CRT$XIA                DATA
 0002:000005a4 00000104H .CRT$XIC                DATA
 0002:000006a8 00000104H .CRT$XIZ                DATA
 0002:000007ac 00000004H .CRT$XLA                DATA
 0002:000007b0 00000004H .CRT$XLZ                DATA
 0002:000007b4 00000104H .CRT$XPA                DATA
 0002:000008b8 00000104H .CRT$XPZ                DATA
 0002:000009bc 00000104H .CRT$XTA                DATA
 0002:00000ac0 00000110H .CRT$XTZ                DATA
 0002:00000bd0 0000c608H .rdata                  DATA
 0002:0000d1d8 0000011cH .rdata$T                DATA
 0002:0000d2f4 000007dcH .rdata$r                DATA
 0002:0000dad0 00000358H .rdata$sxdata           DATA
 0002:0000de28 00000184H .rdata$zzzdbg           DATA
 0002:0000dfac 00000104H .rtc$IAA                DATA
 0002:0000e0b0 000001b8H .rtc$IMZ                DATA
 0002:0000e268 00000104H .rtc$IZZ                DATA
 0002:0000e36c 00000104H .rtc$TAA                DATA
 0002:0000e470 000001b8H .rtc$TMZ                DATA
 0002:0000e628 00000108H .rtc$TZZ                DATA
 0002:0000e730 00002078H .xdata$x                DATA
 0002:000107a8 00000104H ATL$__a                 DATA
 0002:000108ac 00000104H ATL$__z                 DATA
 0002:000109b0 00001158H .edata                  DATA
 0003:00000000 00000300H .data                   DATA
 0003:00000300 00000520H .data$r                 DATA
 0003:00000820 0000e034H .bss                    DATA
 0004:00000000 000007e0H .idata$5                DATA
 0004:000007e0 000000f0H .idata$2                DATA
 0004:000008d0 00000014H .idata$3                DATA
 0004:000008e4 000007e0H .idata$4                DATA
 0004:000010c4 00000f60H .idata$6                DATA
 0005:00000000 00000104H .tls                    DATA
 0005:00000104 00000104H .tls$                   DATA
 0005:00000208 00000101H .tls$ZZZ                DATA
 0006:00000000 00000104H .00cfg                  DATA
 0007:00000000 00000220H .rsrc$01                DATA
 0007:00000220 0000b736H .rsrc$02                DATA

  Address         Publics by Value              Rva+Base       Lib:Object

 0000:00000000       ___hybrid_code_map_count   00000000     <absolute>
 0000:00000000       ___hybrid_code_map         00000000     <absolute>
 0000:00000000       ___guard_longjmp_count     00000000     <absolute>
 0000:00000000       ___guard_fids_count        00000000     <absolute>
 0000:00000000       ___guard_longjmp_table     00000000     <absolute>
 0000:00000000       ___volatile_metadata       00000000     <absolute>
 0000:00000000       ___guard_fids_table        00000000     <absolute>
 0000:00000000       ___guard_iat_table         00000000     <absolute>
 0000:00000000       ___dynamic_value_reloc_table 00000000     <absolute>
 0000:00000000       ___enclave_config          00000000     <absolute>
 0000:00000000       ___hybrid_auxiliary_iat    00000000     <absolute>
 0000:00000000       ___guard_iat_count         00000000     <absolute>
 0000:0000002c       __tls_array                0000002c     <absolute>
 0000:0000007d       ___safe_se_handler_count   0000007d     <absolute>
 0000:00000100       ___guard_flags             00000100     <absolute>
 0000:00000000       ___ImageBase               10000000     <linker-defined>
 0001:00006f20       ??$CompareElements@V?$CStringT@DV?$StrTraitMFC_DLL@DV?$ChTraitsCRT@D@ATL@@@@@ATL@@PBD@@YGHPBV?$CStringT@DV?$StrTraitMFC_DLL@DV?$ChTraitsCRT@D@ATL@@@@@ATL@@PBQBD@Z 10007f20 f i Avatar.obj
 0001:00007040       ??0?$CTraceCategoryEx@$0CAAA@$0A@@ATL@@QAE@PBD@Z 10008040 f i Avatar.obj
 0001:000070a0       ??0?$CTraceCategoryEx@$0CAAAA@$0A@@ATL@@QAE@PBD@Z 100080a0 f i Avatar.obj
 0001:00007100       ??0CAssoc@?$CMap@V?$CStringT@DV?$StrTraitMFC_DLL@DV?$ChTraitsCRT@D@ATL@@@@@ATL@@PBDPAVCFileInfo@@AAPAV3@@@QAE@PBD@Z 10008100 f i Avatar.obj
 0001:00007160       ??0CAutoDestroy@AVATAR@NMBASE@@QAE@XZ 10008160 f i Avatar.obj
 0001:000071b0       ??0CAvatar@AVATAR@NMBASE@@QAE@ABV012@@Z 100081b0 f i Avatar.obj
 0001:00007260       ??0CAvatar@AVATAR@NMBASE@@QAE@XZ 10008260 f   Avatar.obj
 0001:000072c0       ??0CAvatarResource@AVATAR@NMBASE@@QAE@XZ 100082c0 f i Avatar.obj
 0001:00007320       ??0CPair@?$CMap@V?$CStringT@DV?$StrTraitMFC_DLL@DV?$ChTraitsCRT@D@ATL@@@@@ATL@@PBDPAVCFileInfo@@AAPAV3@@@IAE@PBD@Z 10008320 f i Avatar.obj
 0001:00007390       ??0CRegKey@ATL@@QAE@PAVCAtlTransactionManager@1@@Z 10008390 f i Avatar.obj
 0001:000073f0       ??1CAutoDestroy@AVATAR@NMBASE@@QAE@XZ 100083f0 f i Avatar.obj
 0001:00007480       ??1CAvatar@AVATAR@NMBASE@@UAE@XZ 10008480 f   Avatar.obj
 0001:00007510       ??1CAvatarResource@AVATAR@NMBASE@@UAE@XZ 10008510 f i Avatar.obj
 0001:000075a0       ??1CRegKey@ATL@@QAE@XZ     100085a0 f i Avatar.obj
 0001:000075f0       ??2@YAPAXIPAX@Z            100085f0 f i Avatar.obj
 0001:00007630       ??4CAvatar@AVATAR@NMBASE@@QAEAAV012@ABV012@@Z 10008630 f i Avatar.obj
 0001:00007710       ??8ATL@@YA_NABV?$CStringT@DV?$StrTraitMFC_DLL@DV?$ChTraitsCRT@D@ATL@@@@@0@PBD@Z 10008710 f i Avatar.obj
 0001:000077a0       ??A?$CMap@V?$CStringT@DV?$StrTraitMFC_DLL@DV?$ChTraitsCRT@D@ATL@@@@@ATL@@PBDPAVCFileInfo@@AAPAV3@@@QAEAAPAVCFileInfo@@PBD@Z 100087a0 f i Avatar.obj
 0001:00007960       ??_ECAvatar@AVATAR@NMBASE@@UAEPAXI@Z 10008960 f i Avatar.obj
 0001:00007a70       ??_GCAvatar@AVATAR@NMBASE@@UAEPAXI@Z 10008a70 f i Avatar.obj
 0001:00007af0       ??_GCAvatarResource@AVATAR@NMBASE@@UAEPAXI@Z 10008af0 f i Avatar.obj
 0001:00007af0       ??_ECAvatarResource@AVATAR@NMBASE@@UAEPAXI@Z 10008af0 f i Avatar.obj
 0001:00007b70       ?AfxAssertFailedLine@@YGHPBDH@Z 10008b70 f i Avatar.obj
 0001:00007c60       ?Clear@AVATAR@NMBASE@@YAXXZ 10008c60 f   Avatar.obj
 0001:00007ca0       ?ClearMember@CAvatar@AVATAR@NMBASE@@QAEXXZ 10008ca0 f   Avatar.obj
 0001:00007d40       ?ClearMember@CAvatarResource@AVATAR@NMBASE@@QAEXXZ 10008d40 f i Avatar.obj
 0001:00007e50       ?Close@CRegKey@ATL@@QAEJXZ 10008e50 f i Avatar.obj
 0001:00007ef0       ?Create@CAvatar@AVATAR@NMBASE@@QAEHHHPAF@Z 10008ef0 f   Avatar.obj
 0001:00007fc0       ?Create@CAvatar@AVATAR@NMBASE@@QAEHHHPAH@Z 10008fc0 f   Avatar.obj
 0001:00008090       ?Create@CAvatar@AVATAR@NMBASE@@QAEHPAF@Z 10009090 f   Avatar.obj
 0001:000080f0       ?Create@CAvatar@AVATAR@NMBASE@@QAEHPAH@Z 100090f0 f   Avatar.obj
 0001:00008150       ?Create@CAvatar@AVATAR@NMBASE@@QAEHXZ 10009150 f   Avatar.obj
 0001:000081b0       ?CreateAvatarResource@AVATAR@NMBASE@@YAIXZ 100091b0 f   Avatar.obj
 0001:00008310       ?CreateAvatarResource@CAvatar@AVATAR@NMBASE@@IAEIXZ 10009310 f   Avatar.obj
 0001:00008470       ?Destroy@CAvatar@AVATAR@NMBASE@@QAEXXZ 10009470 f   Avatar.obj
 0001:000084f0       ?Destroy@CAvatarResource@AVATAR@NMBASE@@QAEXXZ 100094f0 f i Avatar.obj
 0001:000085b0       ?DestroyAvatarDisplayDLL@AVATAR@NMBASE@@YAHXZ 100095b0 f   Avatar.obj
 0001:00008700       ?DestroyAvatarModule@CAutoDestroy@AVATAR@NMBASE@@QAEXXZ 10009700 f i Avatar.obj
 0001:00008750       ?DestroyAvatarResource@AVATAR@NMBASE@@YAHI@Z 10009750 f   Avatar.obj
 0001:00008840       ?DestroyAvatarResource@CAvatar@AVATAR@NMBASE@@IAEHI@Z 10009840 f   Avatar.obj
 0001:00008940       ?Draw@CAvatar@AVATAR@NMBASE@@QAEHHHJJPAXJHH@Z 10009940 f   Avatar.obj
 0001:000089f0       ?Draw@CAvatar@AVATAR@NMBASE@@QAEHHHPAUHDC__@@H@Z 100099f0 f   Avatar.obj
 0001:00008a80       ?DrawAvatarToDC@CAvatar@AVATAR@NMBASE@@IAEHHHIPAUHDC__@@H@Z 10009a80 f   Avatar.obj
 0001:00009160       ?DrawAvatarToDC_SmoothZoom@CAvatar@AVATAR@NMBASE@@IAEHHHIPAUHDC__@@HHKH@Z 1000a160 f   Avatar.obj
 0001:00009640       ?DrawAvatarToMemory@CAvatar@AVATAR@NMBASE@@IAEHHHIJJPAXJHH@Z 1000a640 f   Avatar.obj
 0001:00009800       ?DrawAvatarToPage@AVATAR@NMBASE@@YAHPAVCPage@@HHPAVCAvatarResource@12@HHH@Z 1000a800 f   Avatar.obj
 0001:00009f70       ?Draw_SmoothZoom@CAvatar@AVATAR@NMBASE@@QAEHHHPAUHDC__@@HHKH@Z 1000af70 f   Avatar.obj
 0001:0000a010       ?GetAssocAt@?$CMap@V?$CStringT@DV?$StrTraitMFC_DLL@DV?$ChTraitsCRT@D@ATL@@@@@ATL@@PBDPAVCFileInfo@@AAPAV3@@@IBEPAVCAssoc@1@PBDAAI1@Z 1000b010 f i Avatar.obj
 0001:0000a0f0       ?GetAvatarStatus@CAvatar@AVATAR@NMBASE@@SAPADXZ 1000b0f0 f   Avatar.obj
 0001:0000a140       ?GetAvatarStatusString@CAvatar@AVATAR@NMBASE@@KAPADXZ 1000b140 f   Avatar.obj
 0001:0000a6b0       ?GetBaseAvatarDir@AVATAR@NMBASE@@YAHPADH@Z 1000b6b0 f   Avatar.obj
 0001:0000aac0       ?GetCount@?$CMap@V?$CStringT@DV?$StrTraitMFC_DLL@DV?$ChTraitsCRT@D@ATL@@@@@ATL@@PBDPAVCSprFile@@AAPAV3@@@QBEHXZ 1000bac0 f i Avatar.obj
 0001:0000ab00       ?GetNextAssoc@?$CMap@V?$CStringT@DV?$StrTraitMFC_DLL@DV?$ChTraitsCRT@D@ATL@@@@@ATL@@PBDPAVCFileInfo@@AAPAV3@@@QBEXAAPAU__POSITION@@AAV?$CStringT@DV?$StrTraitMFC_DLL@DV?$ChTraitsCRT@D@ATL@@@@@ATL@@AAPAVCFileInfo@@@Z 1000bb00 f i Avatar.obj
 0001:0000adb0       ?GetStartPosition@?$CMap@V?$CStringT@DV?$StrTraitMFC_DLL@DV?$ChTraitsCRT@D@ATL@@@@@ATL@@PBDPAVCFileInfo@@AAPAV3@@@QBEPAU__POSITION@@XZ 1000bdb0 f i Avatar.obj
 0001:0000ae20       ?Init@AVATAR@NMBASE@@YAHPBD@Z 1000be20 f   Avatar.obj
 0001:0000aed0       ?Init@AVATAR@NMBASE@@YAHXZ 1000bed0 f   Avatar.obj
 0001:0000afe0       ?Init@CAutoDestroy@AVATAR@NMBASE@@QAEXXZ 1000bfe0 f i Avatar.obj
 0001:0000b020       ?InitAvatarDisplayDLL@AVATAR@NMBASE@@YAHPBD@Z 1000c020 f   Avatar.obj
 0001:0000b100       ?InitAvatarModule@AVATAR@NMBASE@@YAHXZ 1000c100 f   Avatar.obj
 0001:0000b150       ?InitAvatarModule_ForTest@AVATAR@NMBASE@@YAHPBD@Z 1000c150 f   Avatar.obj
 0001:0000b1a0       ?InitHashTable@?$CMap@V?$CStringT@DV?$StrTraitMFC_DLL@DV?$ChTraitsCRT@D@ATL@@@@@ATL@@PBDPAVCFileInfo@@AAPAV3@@@QAEXIH@Z 1000c1a0 f i Avatar.obj
 0001:0000b360       ?IsAvatarDownloading@CAvatar@AVATAR@NMBASE@@IAEHI@Z 1000c360 f   Avatar.obj
 0001:0000b460       ?IsAvatarDownloading@CAvatar@AVATAR@NMBASE@@QAEHXZ 1000c460 f   Avatar.obj
 0001:0000b4d0       ?Lock@CFileList@@QAEXXZ    1000c4d0 f i Avatar.obj
 0001:0000b530       ?NewAssoc@?$CMap@V?$CStringT@DV?$StrTraitMFC_DLL@DV?$ChTraitsCRT@D@ATL@@@@@ATL@@PBDPAVCFileInfo@@AAPAV3@@@IAEPAVCAssoc@1@PBD@Z 1000c530 f i Avatar.obj
 0001:0000b730       ?Open@CRegKey@ATL@@QAEJPAUHKEY__@@PBDK@Z 1000c730 f i Avatar.obj
 0001:0000b900       ?OpenLoadingSprite@AVATAR@NMBASE@@YAHPAVxSprite@@@Z 1000c900 f   Avatar.obj
 0001:0000bf30       ?OpenSprToLayer@AVATAR@NMBASE@@YAHPAULAYERINFO@12@HHH@Z 1000cf30 f   Avatar.obj
 0001:0000c010       ?PrepareMirror@CAvatar@AVATAR@NMBASE@@IAEXH@Z 1000d010 f   Avatar.obj
 0001:0000c0d0       ?PrepareResource@CAvatar@AVATAR@NMBASE@@IAEHIPAHH@Z 1000d0d0 f   Avatar.obj
 0001:0000c160       ?PrepareResource@CAvatar@AVATAR@NMBASE@@IAEHPAVCAvatarResource@23@PAHH@Z 1000d160 f   Avatar.obj
 0001:0000c290       ?PresetAvatarModuleSetSiteName@AVATAR@NMBASE@@YAXPBD@Z 1000d290 f   Avatar.obj
 0001:0000c2f0       ?QueryStringValue@CRegKey@ATL@@QAEJPBDPADPAK@Z 1000d2f0 f i Avatar.obj
 0001:0000c500       ?RegOpenKeyExA@CAtlTransactionManager@ATL@@QAEJPAUHKEY__@@PBDKKPAPAU3@@Z 1000d500 f i Avatar.obj
 0001:0000c670       ?RegisterCategory@CTrace@ATL@@SAXPBDI@Z 1000d670 f i Avatar.obj
 0001:0000c800       ?ResetAnimation@CAvatar@AVATAR@NMBASE@@QAEHXZ 1000d800 f   Avatar.obj
 0001:0000c870       ?ResetAvatarAnimation@CAvatar@AVATAR@NMBASE@@IAEHI@Z 1000d870 f   Avatar.obj
 0001:0000c930       ?SetAnimationTime@CAvatar@AVATAR@NMBASE@@QAEHG@Z 1000d930 f   Avatar.obj
 0001:0000c9a0       ?SetAvatar@CAvatar@AVATAR@NMBASE@@QAEHPAF@Z 1000d9a0 f   Avatar.obj
 0001:0000ca40       ?SetAvatar@CAvatar@AVATAR@NMBASE@@QAEHPAH@Z 1000da40 f   Avatar.obj
 0001:0000cae0       ?SetAvatarAnimationTime@CAvatar@AVATAR@NMBASE@@IAEHIG@Z 1000dae0 f   Avatar.obj
 0001:0000cb90       ?SetAvatarBackBitmap@CAvatar@AVATAR@NMBASE@@IAEHIPAUHBITMAP__@@HH@Z 1000db90 f   Avatar.obj
 0001:0000cc50       ?SetAvatarInt@CAvatar@AVATAR@NMBASE@@IAEHIPAH@Z 1000dc50 f   Avatar.obj
 0001:0000cd70       ?SetAvatarOffset@CAvatar@AVATAR@NMBASE@@IAEHIHH@Z 1000dd70 f   Avatar.obj
 0001:0000ce10       ?SetAvatarSize@CAvatar@AVATAR@NMBASE@@IAEHIHH@Z 1000de10 f   Avatar.obj
 0001:0000ceb0       ?SetAvatarUnsignedShort@CAvatar@AVATAR@NMBASE@@IAEHIPAG@Z 1000deb0 f   Avatar.obj
 0001:0000cfd0       ?SetBackBitmap@CAvatar@AVATAR@NMBASE@@QAEHPAUHBITMAP__@@HH@Z 1000dfd0 f   Avatar.obj
 0001:0000d050       ?SetBackgroundVisible@CAvatar@AVATAR@NMBASE@@IAEHIH@Z 1000e050 f   Avatar.obj
 0001:0000d0e0       ?SetBackgroundVisible@CAvatar@AVATAR@NMBASE@@QAEHH@Z 1000e0e0 f   Avatar.obj
 0001:0000d150       ?SetBaseAvatarDir@AVATAR@NMBASE@@YAHPAD@Z 1000e150 f   Avatar.obj
 0001:0000d1c0       ?SetForceAvatar@CAvatar@AVATAR@NMBASE@@IAEHIPAFH@Z 1000e1c0 f   Avatar.obj
 0001:0000d360       ?SetForceAvatar@CAvatar@AVATAR@NMBASE@@IAEHIPAHH@Z 1000e360 f   Avatar.obj
 0001:0000d500       ?SetForceAvatar@CAvatar@AVATAR@NMBASE@@QAEHPAFH@Z 1000e500 f   Avatar.obj
 0001:0000d5b0       ?SetForceAvatar@CAvatar@AVATAR@NMBASE@@QAEHPAHH@Z 1000e5b0 f   Avatar.obj
 0001:0000d660       ?SetOffset@CAvatar@AVATAR@NMBASE@@QAEHHH@Z 1000e660 f   Avatar.obj
 0001:0000d6e0       ?SetSize@CAvatar@AVATAR@NMBASE@@QAEHHH@Z 1000e6e0 f   Avatar.obj
 0001:0000d760       ?SetSmallAvatar@CAvatar@AVATAR@NMBASE@@IAEHIPAF@Z 1000e760 f   Avatar.obj
 0001:0000d7c0       ?SetSmallAvatar@CAvatar@AVATAR@NMBASE@@IAEHIPAH@Z 1000e7c0 f   Avatar.obj
 0001:0000db90       ?SetSmallAvatar@CAvatar@AVATAR@NMBASE@@QAEHPAF@Z 1000eb90 f   Avatar.obj
 0001:0000dc20       ?SetSmallAvatar@CAvatar@AVATAR@NMBASE@@QAEHPAH@Z 1000ec20 f   Avatar.obj
 0001:0000dcb0       ?SetSmallAvatarEx@CAvatar@AVATAR@NMBASE@@IAEHIPAG@Z 1000ecb0 f   Avatar.obj
 0001:0000e090       ?Unlock@CFileList@@QAEXXZ  1000f090 f i Avatar.obj
 0001:0000e100       ?__empty_global_delete@@YAXPAX@Z 1000f100 f i Avatar.obj
 0001:0000e130       ?__empty_global_delete@@YAXPAXI@Z 1000f130 f i Avatar.obj
 0001:0000e130       ?__global_delete@@YAXPAXI@Z 1000f130 f i Avatar.obj
 0001:0000e160       ?data@CPlex@@QAEPAXXZ      1000f160 f i Avatar.obj
 0001:0000e1a0       ?raw_SetAvatar@CAvatar@AVATAR@NMBASE@@IAEHIPAH@Z 1000f1a0 f   Avatar.obj
 0001:0000e620       ___local_stdio_printf_options 1000f620 f i Avatar.obj
 0001:0000e660       __vswprintf_s_l            1000f660 f i Avatar.obj
 0001:0000e710       _swprintf_s                1000f710 f i Avatar.obj
 0001:0000e790       ??$AtlMultiply@I@ATL@@YAJPAIII@Z 1000f790 f i DownThread.obj
 0001:0000e810       ??0?$CHeapPtr@DVCCRTAllocator@ATL@@@ATL@@QAE@XZ 1000f810 f i DownThread.obj
 0001:0000e870       ??0?$CHeapPtr@GVCCRTAllocator@ATL@@@ATL@@QAE@XZ 1000f870 f i DownThread.obj
 0001:0000e8d0       ??0?$CHeapPtrBase@DVCCRTAllocator@ATL@@@ATL@@IAE@XZ 1000f8d0 f i DownThread.obj
 0001:0000e920       ??0?$CHeapPtrBase@GVCCRTAllocator@ATL@@@ATL@@IAE@XZ 1000f920 f i DownThread.obj
 0001:0000e970       ??0CDownThread@@QAE@XZ     1000f970 f   DownThread.obj
 0001:0000ea60       ??0CPreserveLastError@ATL@@QAE@XZ 1000fa60 f i DownThread.obj
 0001:0000ead0       ??0CTime@ATL@@QAE@ABU_SYSTEMTIME@@H@Z 1000fad0 f i DownThread.obj
 0001:0000ec10       ??0CTime@ATL@@QAE@HHHHHHH@Z 1000fc10 f i DownThread.obj
 0001:0000f160       ??0CTime@ATL@@QAE@_J@Z     10010160 f i DownThread.obj
 0001:0000f1b0       ??0CTraceFileAndLineInfo@ATL@@QAE@PBDH@Z 100101b0 f i DownThread.obj
 0001:0000f200       ??1?$CHeapPtr@DVCCRTAllocator@ATL@@@ATL@@QAE@XZ 10010200 f i DownThread.obj
 0001:0000f250       ??1?$CHeapPtr@GVCCRTAllocator@ATL@@@ATL@@QAE@XZ 10010250 f i DownThread.obj
 0001:0000f2a0       ??1?$CHeapPtrBase@DVCCRTAllocator@ATL@@@ATL@@QAE@XZ 100102a0 f i DownThread.obj
 0001:0000f2f0       ??1?$CHeapPtrBase@GVCCRTAllocator@ATL@@@ATL@@QAE@XZ 100102f0 f i DownThread.obj
 0001:0000f340       ??1CDownThread@@QAE@XZ     10010340 f   DownThread.obj
 0001:0000f400       ??1CPreserveLastError@ATL@@QAE@XZ 10010400 f i DownThread.obj
 0001:0000f460       ??9CTime@ATL@@QBE_NV01@@Z  10010460 f i DownThread.obj
 0001:0000f4f0       ??B?$CHeapPtrBase@DVCCRTAllocator@ATL@@@ATL@@QBEPADXZ 100104f0 f i DownThread.obj
 0001:0000f530       ??B?$CHeapPtrBase@GVCCRTAllocator@ATL@@@ATL@@QBEPAGXZ 10010530 f i DownThread.obj
 0001:0000f570       ??B?$CTraceCategoryEx@$0CAAA@$0A@@ATL@@QAEIXZ 10010570 f i DownThread.obj
 0001:0000f5b0       ??RCTraceFileAndLineInfo@ATL@@QBAXHIPBDZZ 100105b0 f i DownThread.obj
 0001:0000f6c0       ?Allocate@?$CHeapPtr@DVCCRTAllocator@ATL@@@ATL@@QAE_NI@Z 100106c0 f i DownThread.obj
 0001:0000f780       ?Allocate@?$CHeapPtr@GVCCRTAllocator@ATL@@@ATL@@QAE_NI@Z 10010780 f i DownThread.obj
 0001:0000f840       ?Allocate@CCRTAllocator@ATL@@SAPAXI@Z 10010840 f i DownThread.obj
 0001:0000f8a0       ?AllocateBytes@?$CHeapPtrBase@DVCCRTAllocator@ATL@@@ATL@@QAE_NI@Z 100108a0 f i DownThread.obj
 0001:0000f960       ?AllocateBytes@?$CHeapPtrBase@GVCCRTAllocator@ATL@@@ATL@@QAE_NI@Z 10010960 f i DownThread.obj
 0001:0000fa20       ?AtlThrowImpl@ATL@@YGXJ@Z  10010a20 f i DownThread.obj
 0001:0000fad0       ?CheckDownloadTimeOut@CDownThread@@QAEHXZ 10010ad0 f   DownThread.obj
 0001:0000fb60       ?ClearMember@CDownThread@@QAEXXZ 10010b60 f   DownThread.obj
 0001:0000fbf0       ?CreateThread@CDownThread@@QAEHPBDPAVCFileList@@@Z 10010bf0 f   DownThread.obj
 0001:0000fcf0       ?Destroy@CDownThread@@QAEXXZ 10010cf0 f   DownThread.obj
 0001:0000fd50       ?DoThreadLoop@CDownThread@@QAEIXZ 10010d50 f   DownThread.obj
 0001:00010d20       ?DownThreadFunc@CDownThread@@SAIPAX@Z 10011d20 f   DownThread.obj
 0001:00010d70       ?Free@?$CHeapPtrBase@DVCCRTAllocator@ATL@@@ATL@@QAEXXZ 10011d70 f i DownThread.obj
 0001:00010de0       ?Free@?$CHeapPtrBase@GVCCRTAllocator@ATL@@@ATL@@QAEXXZ 10011de0 f i DownThread.obj
 0001:00010e50       ?Free@CCRTAllocator@ATL@@SAXPAX@Z 10011e50 f i DownThread.obj
 0001:00010eb0       ?GetCategoryName@CTrace@ATL@@CAPAGI@Z 10011eb0 f i DownThread.obj
 0001:00010f30       ?GetFullSprFileName@CDownThread@@QAE?AV?$CStringT@DV?$StrTraitMFC_DLL@DV?$ChTraitsCRT@D@ATL@@@@@ATL@@HHH@Z 10011f30 f   DownThread.obj
 0001:00010fe0       ?GetFullSprFolderName@CDownThread@@QAE?AV?$CStringT@DV?$StrTraitMFC_DLL@DV?$ChTraitsCRT@D@ATL@@@@@ATL@@HH@Z 10011fe0 f   DownThread.obj
 0001:00011080       ?GetLastModifiedDate@CFileTag@@QAE?AU_SYSTEMTIME@@XZ 10012080 f i DownThread.obj
 0001:000110f0       ?GetRemoteDownFileName@CDownThread@@QAE?AV?$CStringT@DV?$StrTraitMFC_DLL@DV?$ChTraitsCRT@D@ATL@@@@@ATL@@HHH@Z 100120f0 f   DownThread.obj
 0001:000111c0       ?RecreateThread@CDownThread@@QAEHXZ 100121c0 f   DownThread.obj
 0001:00011320       ?TerminateThread@CDownThread@@QAEHXZ 10012320 f   DownThread.obj
 0001:00011430       ?TraceV@CTrace@ATL@@CAXPBDHIIPBG@Z 10012430 f i DownThread.obj
 0001:00011770       ?TraceV@CTrace@ATL@@SAXPBDHII0PAD@Z 10012770 f i DownThread.obj
 0001:00011a20       _HRESULT_FROM_WIN32        10012a20 f i DownThread.obj
 0001:00011a90       __vscprintf                10012a90 f i DownThread.obj
 0001:00011af0       __vscprintf_l              10012af0 f i DownThread.obj
 0001:00011ba0       __vsnprintf_s              10012ba0 f i DownThread.obj
 0001:00011c10       __vsnprintf_s_l            10012c10 f i DownThread.obj
 0001:00011cc0       ??0CFileStatus@@QAE@XZ     10012cc0 f i ExtractFile.obj
 0001:00011d30       ??0CTime@ATL@@QAE@XZ       10012d30 f i ExtractFile.obj
 0001:00011d80       ??0EXTRACT_NOTIFY@@QAE@XZ  10012d80 f i ExtractFile.obj
 0001:00011e00       ??0unz_file_info@@QAE@XZ   10012e00 f i ExtractFile.obj
 0001:00011e60       ??1EXTRACT_NOTIFY@@QAE@XZ  10012e60 f i ExtractFile.obj
 0001:00011ee0       ??HATL@@YA?AV?$CStringT@DV?$StrTraitMFC_DLL@DV?$ChTraitsCRT@D@ATL@@@@@0@ABV10@PBD@Z 10012ee0 f i ExtractFile.obj
 0001:00012090       ?BeginExtractThread@@YAHPAUHWND__@@@Z 10013090 f   ExtractFile.obj
 0001:000121b0       ?GetZipFileSize@@YAHPBDPAI1@Z 100131b0 f   ExtractFile.obj
 0001:000123e0       ?TerminateExtractThread@@YAHXZ 100133e0 f   ExtractFile.obj
 0001:000124b0       ?UnzipFile@@YAHPAUHWND__@@PBD1@Z 100134b0 f   ExtractFile.obj
 0001:00012f80       ??$DumpElements@PAVCFileInfo@@@@YGXAAVCDumpContext@@PBQAVCFileInfo@@H@Z 10013f80 f i FileList.obj
 0001:00013070       ??$DumpElements@V?$CStringT@DV?$StrTraitMFC_DLL@DV?$ChTraitsCRT@D@ATL@@@@@ATL@@@@YGXAAVCDumpContext@@PBV?$CStringT@DV?$StrTraitMFC_DLL@DV?$ChTraitsCRT@D@ATL@@@@@ATL@@H@Z 10014070 f i FileList.obj
 0001:00013160       ??$SerializeElements@PAVCFileInfo@@@@YGXAAVCArchive@@PAPAVCFileInfo@@H@Z 10014160 f i FileList.obj
 0001:00013350       ??0?$CMap@V?$CStringT@DV?$StrTraitMFC_DLL@DV?$ChTraitsCRT@D@ATL@@@@@ATL@@PBDPAVCFileInfo@@AAPAV3@@@QAE@H@Z 10014350 f i FileList.obj
 0001:00013460       ??0CFileInfo@@QAE@XZ       10014460 f   FileList.obj
 0001:000134f0       ??0CFileList@@QAE@XZ       100144f0 f   FileList.obj
 0001:000135c0       ??0CSprFile@@QAE@XZ        100145c0 f   FileList.obj
 0001:000136e0       ??1?$CMap@V?$CStringT@DV?$StrTraitMFC_DLL@DV?$ChTraitsCRT@D@ATL@@@@@ATL@@PBDPAVCFileInfo@@AAPAV3@@@UAE@XZ 100146e0 f i FileList.obj
 0001:000137a0       ??1CAssoc@?$CMap@V?$CStringT@DV?$StrTraitMFC_DLL@DV?$ChTraitsCRT@D@ATL@@@@@ATL@@PBDPAVCFileInfo@@AAPAV3@@@QAE@XZ 100147a0 f i FileList.obj
 0001:000137f0       ??1CFileInfo@@QAE@XZ       100147f0 f   FileList.obj
 0001:00013850       ??1CFileList@@QAE@XZ       10014850 f   FileList.obj
 0001:00013910       ??1CPair@?$CMap@V?$CStringT@DV?$StrTraitMFC_DLL@DV?$ChTraitsCRT@D@ATL@@@@@ATL@@PBDPAVCFileInfo@@AAPAV3@@@QAE@XZ 10014910 f i FileList.obj
 0001:00013970       ??1CSprFile@@QAE@XZ        10014970 f   FileList.obj
 0001:00013a50       ??_E?$CMap@V?$CStringT@DV?$StrTraitMFC_DLL@DV?$ChTraitsCRT@D@ATL@@@@@ATL@@PBDPAVCFileInfo@@AAPAV3@@@UAEPAXI@Z 10014a50 f i FileList.obj
 0001:00013a50       ??_G?$CMap@V?$CStringT@DV?$StrTraitMFC_DLL@DV?$ChTraitsCRT@D@ATL@@@@@ATL@@PBDPAVCFileInfo@@AAPAV3@@@UAEPAXI@Z 10014a50 f i FileList.obj
 0001:00013ae0       ??_GCFileInfo@@QAEPAXI@Z   10014ae0 f i FileList.obj
 0001:00013b50       ?Add@CFileList@@QAEPAVCFileInfo@@HHHHPAVCSprFile@@@Z 10014b50 f   FileList.obj
 0001:00013e00       ?AssertValid@?$CMap@V?$CStringT@DV?$StrTraitMFC_DLL@DV?$ChTraitsCRT@D@ATL@@@@@ATL@@PBDPAVCFileInfo@@AAPAV3@@@UBEXXZ 10014e00 f i FileList.obj
 0001:00013eb0       ?Delete@CFileList@@QAEHHHH@Z 10014eb0 f   FileList.obj
 0001:00014120       ?Delete@CFileList@@QAEHPAVCFileInfo@@@Z 10015120 f   FileList.obj
 0001:000141a0       ?Destroy@CFileList@@QAEXXZ 100151a0 f   FileList.obj
 0001:00014360       ?Dump@?$CMap@V?$CStringT@DV?$StrTraitMFC_DLL@DV?$ChTraitsCRT@D@ATL@@@@@ATL@@PBDPAVCFileInfo@@AAPAV3@@@UBEXAAVCDumpContext@@@Z 10015360 f i FileList.obj
 0001:00014580       ?Find@CFileList@@QAEPAVCFileInfo@@HHH@Z 10015580 f   FileList.obj
 0001:00014710       ?FreeAssoc@?$CMap@V?$CStringT@DV?$StrTraitMFC_DLL@DV?$ChTraitsCRT@D@ATL@@@@@ATL@@PBDPAVCFileInfo@@AAPAV3@@@IAEXPAVCAssoc@1@@Z 10015710 f i FileList.obj
 0001:000147d0       ?GetFirst@CFileList@@QAEPAVCFileInfo@@XZ 100157d0 f   FileList.obj
 0001:00014950       ?GetFullpathOfDownFile@@YA?AV?$CStringT@DV?$StrTraitMFC_DLL@DV?$ChTraitsCRT@D@ATL@@@@@ATL@@PBDHH@Z 10015950 f   FileList.obj
 0001:00014ab0       ?GetFullpathOfSprFile@@YA?AV?$CStringT@DV?$StrTraitMFC_DLL@DV?$ChTraitsCRT@D@ATL@@@@@ATL@@PBDHHH@Z 10015ab0 f   FileList.obj
 0001:00014c50       ?GetFullpathOfSprFolder@@YA?AV?$CStringT@DV?$StrTraitMFC_DLL@DV?$ChTraitsCRT@D@ATL@@@@@ATL@@PBDHH@Z 10015c50 f   FileList.obj
 0001:00014de0       ?GetMapKeyName@@YA?AV?$CStringT@DV?$StrTraitMFC_DLL@DV?$ChTraitsCRT@D@ATL@@@@@ATL@@HHH@Z 10015de0 f   FileList.obj
 0001:00014f70       ?Init@CFileList@@QAEXPBD@Z 10015f70 f   FileList.obj
 0001:00014fe0       ?LoadSprite@CSprFile@@QAEHPBD@Z 10015fe0 f   FileList.obj
 0001:00015120       ?Lookup@?$CMap@V?$CStringT@DV?$StrTraitMFC_DLL@DV?$ChTraitsCRT@D@ATL@@@@@ATL@@PBDPAVCFileInfo@@AAPAV3@@@QBEHPBDAAPAVCFileInfo@@@Z 10016120 f i FileList.obj
 0001:00015220       ?RemoveAll@?$CMap@V?$CStringT@DV?$StrTraitMFC_DLL@DV?$ChTraitsCRT@D@ATL@@@@@ATL@@PBDPAVCFileInfo@@AAPAV3@@@QAEXXZ 10016220 f i FileList.obj
 0001:00015350       ?RemoveKey@?$CMap@V?$CStringT@DV?$StrTraitMFC_DLL@DV?$ChTraitsCRT@D@ATL@@@@@ATL@@PBDPAVCFileInfo@@AAPAV3@@@QAEHPBD@Z 10016350 f i FileList.obj
 0001:00015470       ?Serialize@?$CMap@V?$CStringT@DV?$StrTraitMFC_DLL@DV?$ChTraitsCRT@D@ATL@@@@@ATL@@PBDPAVCFileInfo@@AAPAV3@@@UAEXAAVCArchive@@@Z 10016470 f i FileList.obj
 0001:00015750       ?SetAt@?$CMap@V?$CStringT@DV?$StrTraitMFC_DLL@DV?$ChTraitsCRT@D@ATL@@@@@ATL@@PBDPAVCFileInfo@@AAPAV3@@@QAEXPBDAAPAVCFileInfo@@@Z 10016750 f i FileList.obj
 0001:000157b0       ??0CFileTag@@QAE@XZ        100167b0 f   FileTag.obj
 0001:00015810       ??0CTimeSpan@ATL@@QAE@XZ   10016810 f i FileTag.obj
 0001:00015860       ??0CTimeSpan@ATL@@QAE@_J@Z 10016860 f i FileTag.obj
 0001:000158b0       ??1CFileTag@@QAE@XZ        100168b0 f   FileTag.obj
 0001:000158f0       ??GCTime@ATL@@QBE?AVCTimeSpan@1@V01@@Z 100168f0 f i FileTag.obj
 0001:00015960       ?ClearMember@CFileTag@@QAEXXZ 10016960 f   FileTag.obj
 0001:000159d0       ?GetAsSystemTime@CTime@ATL@@QBE_NAAU_SYSTEMTIME@@@Z 100169d0 f i FileTag.obj
 0001:00015b20       ?GetLocalTm@CTime@ATL@@QBEPAUtm@@PAU3@@Z 10016b20 f i FileTag.obj
 0001:00015cb0       ?GetTickCount@CTime@ATL@@SG?AV12@XZ 10016cb0 f i FileTag.obj
 0001:00015d20       ?GetTotalHours@CTimeSpan@ATL@@QBE_JXZ 10016d20 f i FileTag.obj
 0001:00015d80       ?IsCheckExpired@CFileTag@@QAEHXZ 10016d80 f   FileTag.obj
 0001:00015f40       ?ReadTag@CFileTag@@QAEHPBD@Z 10016f40 f   FileTag.obj
 0001:00016160       ?WriteTag@CFileTag@@QAEHPBDU_SYSTEMTIME@@@Z 10017160 f   FileTag.obj
 0001:00016550       ??0CGetHttp@@QAE@XZ        10017550 f   GetHttp.obj
 0001:000166e0       ??0GETHTTP_NOTIFY@@QAE@XZ  100176e0 f i GetHttp.obj
 0001:00016750       ??1AFX_EXCEPTION_LINK@@QAE@XZ 10017750 f i GetHttp.obj
 0001:000167d0       ??1CGetHttp@@UAE@XZ        100177d0 f   GetHttp.obj
 0001:00016930       ??1GETHTTP_NOTIFY@@QAE@XZ  10017930 f i GetHttp.obj
 0001:00016990       ??HATL@@YA?AV?$CStringT@DV?$StrTraitMFC_DLL@DV?$ChTraitsCRT@D@ATL@@@@@0@PBDABV10@@Z 10017990 f i GetHttp.obj
 0001:00016b40       ??_ECGetHttp@@UAEPAXI@Z    10017b40 f i GetHttp.obj
 0001:00016b40       ??_GCGetHttp@@UAEPAXI@Z    10017b40 f i GetHttp.obj
 0001:00016bb0       ?ClearMember@CGetHttp@@QAEXXZ 10017bb0 f   GetHttp.obj
 0001:00016ce0       ?CloseAllHandles@CGetHttp@@QAEXXZ 10017ce0 f   GetHttp.obj
 0001:00016e10       ?Destroy@CGetHttp@@QAEXXZ  10017e10 f   GetHttp.obj
 0001:00016e70       ?GetFile@CGetHttp@@QAEHPAUHWND__@@V?$CStringT@DV?$StrTraitMFC_DLL@DV?$ChTraitsCRT@D@ATL@@@@@ATL@@1@Z 10017e70 f   GetHttp.obj
 0001:00018650       ?GetFileLastModifiedDate@CGetHttp@@QAEHV?$CStringT@DV?$StrTraitMFC_DLL@DV?$ChTraitsCRT@D@ATL@@@@@ATL@@PAU_SYSTEMTIME@@@Z 10019650 f   GetHttp.obj
 0001:00018b00       ?GetFileSize@CGetHttp@@QAEHV?$CStringT@DV?$StrTraitMFC_DLL@DV?$ChTraitsCRT@D@ATL@@@@@ATL@@PAH@Z 10019b00 f   GetHttp.obj
 0001:00019050       ?GetFileStatusCode@CGetHttp@@QAEHV?$CStringT@DV?$StrTraitMFC_DLL@DV?$ChTraitsCRT@D@ATL@@@@@ATL@@PAH@Z 1001a050 f   GetHttp.obj
 0001:000195a0       ?GetFileToMemory@CGetHttp@@QAEHPAUHWND__@@V?$CStringT@DV?$StrTraitMFC_DLL@DV?$ChTraitsCRT@D@ATL@@@@@ATL@@PAPAXPAK@Z 1001a5a0 f   GetHttp.obj
 0001:0001a730       ?SetAccessRight@CGetHttp@@QAEHV?$CStringT@DV?$StrTraitMFC_DLL@DV?$ChTraitsCRT@D@ATL@@@@@ATL@@0@Z 1001b730 f   GetHttp.obj
 0001:0001a8d0       ??A?$vector@UTFrame@CPictureEx@@V?$allocator@UTFrame@CPictureEx@@@std@@@std@@QAEAAUTFrame@CPictureEx@@I@Z 1001b8d0 f i Gif2Spr.obj
 0001:0001a9c0       ?ConvertGif2Spr@@YAHPADPAVxSprite@@H@Z 1001b9c0 f   Gif2Spr.obj
 0001:0001ab40       ?ConvertGif2SprFile@@YAHPAD0H@Z 1001bb40 f   Gif2Spr.obj
 0001:0001aca0       ?ConvertGif2SprFromMemory@@YAHPAXKPAVxSprite@@H@Z 1001bca0 f   Gif2Spr.obj
 0001:0001ae40       ?_Get_data@?$_Vector_alloc@U?$_Vec_base_types@UTFrame@CPictureEx@@V?$allocator@UTFrame@CPictureEx@@@std@@@std@@@std@@QAEAAV?$_Vector_val@U?$_Simple_types@UTFrame@CPictureEx@@@std@@@2@XZ 1001be40 f i Gif2Spr.obj
 0001:0001ae90       ?_Get_data@?$_Vector_alloc@U?$_Vec_base_types@UTFrame@CPictureEx@@V?$allocator@UTFrame@CPictureEx@@@std@@@std@@@std@@QBEABV?$_Vector_val@U?$_Simple_types@UTFrame@CPictureEx@@@std@@@2@XZ 1001be90 f i Gif2Spr.obj
 0001:0001aee0       ?_Get_second@?$_Compressed_pair@V?$allocator@UTFrame@CPictureEx@@@std@@V?$_Vector_val@U?$_Simple_types@UTFrame@CPictureEx@@@std@@@2@$00@std@@QAEAAV?$_Vector_val@U?$_Simple_types@UTFrame@CPictureEx@@@std@@@2@XZ 1001bee0 f i Gif2Spr.obj
 0001:0001af20       ?_Get_second@?$_Compressed_pair@V?$allocator@UTFrame@CPictureEx@@@std@@V?$_Vector_val@U?$_Simple_types@UTFrame@CPictureEx@@@std@@@2@$00@std@@QBEABV?$_Vector_val@U?$_Simple_types@UTFrame@CPictureEx@@@std@@@2@XZ 1001bf20 f i Gif2Spr.obj
 0001:0001af60       ?_Gif2Spr@@YAHAAVCPictureEx@@PAVxSprite@@H@Z 1001bf60 f   Gif2Spr.obj
 0001:0001bba0       ?_Myfirst@?$_Vector_alloc@U?$_Vec_base_types@UTFrame@CPictureEx@@V?$allocator@UTFrame@CPictureEx@@@std@@@std@@@std@@QAEAAPAUTFrame@CPictureEx@@XZ 1001cba0 f i Gif2Spr.obj
 0001:0001bc00       ?_Myfirst@?$_Vector_alloc@U?$_Vec_base_types@UTFrame@CPictureEx@@V?$allocator@UTFrame@CPictureEx@@@std@@@std@@@std@@QBEABQAUTFrame@CPictureEx@@XZ 1001cc00 f i Gif2Spr.obj
 0001:0001bc60       ?_Mylast@?$_Vector_alloc@U?$_Vec_base_types@UTFrame@CPictureEx@@V?$allocator@UTFrame@CPictureEx@@@std@@@std@@@std@@QBEABQAUTFrame@CPictureEx@@XZ 1001cc60 f i Gif2Spr.obj
 0001:0001bcc0       ?size@?$vector@UTFrame@CPictureEx@@V?$allocator@UTFrame@CPictureEx@@@std@@@std@@QBEIXZ 1001ccc0 f i Gif2Spr.obj
 0001:0001bd30       ??HATL@@YA?AV?$CStringT@DV?$StrTraitMFC_DLL@DV?$ChTraitsCRT@D@ATL@@@@@0@ABV10@0@Z 1001cd30 f i MyMisc.obj
 0001:0001bef0       ?CreateMultipleDirectory@@YAHV?$CStringT@DV?$StrTraitMFC_DLL@DV?$ChTraitsCRT@D@ATL@@@@@ATL@@@Z 1001cef0 f   MyMisc.obj
 0001:0001c490       ?RemoveDirectoryAll@@YAJV?$CStringT@DV?$StrTraitMFC_DLL@DV?$ChTraitsCRT@D@ATL@@@@@ATL@@H@Z 1001d490 f   MyMisc.obj
 0001:0001cd80       ??$?0$$V@?$_Compressed_pair@V?$allocator@UTFrame@CPictureEx@@@std@@V?$_Vector_val@U?$_Simple_types@UTFrame@CPictureEx@@@std@@@2@$00@std@@QAE@U_Zero_then_variadic_args_t@1@@Z 1001dd80 f i PictureEx.obj
 0001:0001cde0       ??$?0UTFrame@CPictureEx@@@?$allocator@U_Container_proxy@std@@@std@@QAE@ABV?$allocator@UTFrame@CPictureEx@@@1@@Z 1001dde0 f i PictureEx.obj
 0001:0001ce20       ??$_Allocate@$07U_Default_allocate_traits@std@@$0A@@std@@YAPAXI@Z 1001de20 f i PictureEx.obj
 0001:0001cea0       ??$_Allocate_manually_vector_aligned@U_Default_allocate_traits@std@@@std@@YAPAXI@Z 1001dea0 f i PictureEx.obj
 0001:0001cfd0       ??$_Copy_memmove@PAUTFrame@CPictureEx@@PAU12@@std@@YAPAUTFrame@CPictureEx@@PAU12@00@Z 1001dfd0 f i PictureEx.obj
 0001:0001d050       ??$_Deallocate@$07$0A@@std@@YAXPAXI@Z 1001e050 f i PictureEx.obj
 0001:0001d0d0       ??$_Deallocate_plain@V?$allocator@U_Container_proxy@std@@@std@@$0A@@std@@YAXAAV?$allocator@U_Container_proxy@std@@@0@QAU_Container_proxy@0@@Z 1001e0d0 f i PictureEx.obj
 0001:0001d130       ??$_Destroy_range1@V?$allocator@UTFrame@CPictureEx@@@std@@@std@@YAXPAUTFrame@CPictureEx@@0AAV?$allocator@UTFrame@CPictureEx@@@0@U?$integral_constant@_N$00@0@@Z 1001e130 f i PictureEx.obj
 0001:0001d160       ??$_Destroy_range@V?$allocator@UTFrame@CPictureEx@@@std@@@std@@YAXPAUTFrame@CPictureEx@@0AAV?$allocator@UTFrame@CPictureEx@@@0@@Z 1001e160 f i PictureEx.obj
 0001:0001d1d0       ??$_Emplace_back_with_unused_capacity@ABUTFrame@CPictureEx@@@?$vector@UTFrame@CPictureEx@@V?$allocator@UTFrame@CPictureEx@@@std@@@std@@AAE@ABUTFrame@CPictureEx@@@Z 1001e1d0 f i PictureEx.obj
 0001:0001d2c0       ??$_Emplace_reallocate@ABUTFrame@CPictureEx@@@?$vector@UTFrame@CPictureEx@@V?$allocator@UTFrame@CPictureEx@@@std@@@std@@QAEPAUTFrame@CPictureEx@@QAU23@ABU23@@Z 1001e2c0 f i PictureEx.obj
 0001:0001d550       ??$_Get_size_of_n@$07@std@@YAII@Z 1001e550 f i PictureEx.obj
 0001:0001d5b0       ??$_Get_size_of_n@$0BM@@std@@YAII@Z 1001e5b0 f i PictureEx.obj
 0001:0001d610       ??$_Get_unwrapped@UTFrame@CPictureEx@@@std@@YAPAUTFrame@CPictureEx@@QAU12@@Z 1001e610 f i PictureEx.obj
 0001:0001d650       ??$_Get_unwrapped_n@UTFrame@CPictureEx@@H$0A@@std@@YAPAUTFrame@CPictureEx@@QAU12@H@Z 1001e650 f i PictureEx.obj
 0001:0001d690       ??$_Idl_distance1@PAUTFrame@CPictureEx@@PAU12@@std@@YAHABQAUTFrame@CPictureEx@@0Urandom_access_iterator_tag@0@@Z 1001e690 f i PictureEx.obj
 0001:0001d6e0       ??$_Idl_distance@PAUTFrame@CPictureEx@@PAU12@@std@@YA@ABQAUTFrame@CPictureEx@@0@Z 1001e6e0 f i PictureEx.obj
 0001:0001d740       ??$_Min_value@I@std@@YAABIABI0@Z 1001e740 f i PictureEx.obj
 0001:0001d7b0       ??$_Ptr_move_cat@UTFrame@CPictureEx@@U12@@std@@YA?AU_Really_trivial_ptr_iterator_tag@0@ABQAUTFrame@CPictureEx@@0@Z 1001e7b0 f i PictureEx.obj
 0001:0001d7f0       ??$_Seek_wrapped@UTFrame@CPictureEx@@@std@@YAXAAPAUTFrame@CPictureEx@@QAU12@@Z 1001e7f0 f i PictureEx.obj
 0001:0001d830       ??$_Unfancy@UTFrame@CPictureEx@@@std@@YAPAUTFrame@CPictureEx@@PAU12@@Z 1001e830 f i PictureEx.obj
 0001:0001d870       ??$_Unfancy@U_Container_proxy@std@@@std@@YAPAU_Container_proxy@0@PAU10@@Z 1001e870 f i PictureEx.obj
 0001:0001d8b0       ??$_Uninitialized_move@PAUTFrame@CPictureEx@@PAU12@V?$allocator@UTFrame@CPictureEx@@@std@@@std@@YAPAUTFrame@CPictureEx@@QAU12@0PAU12@AAV?$allocator@UTFrame@CPictureEx@@@0@@Z 1001e8b0 f i PictureEx.obj
 0001:0001da10       ??$_Uninitialized_move_al_unchecked@UTFrame@CPictureEx@@U12@V?$allocator@UTFrame@CPictureEx@@@std@@@std@@YAPAUTFrame@CPictureEx@@QAU12@00AAV?$allocator@UTFrame@CPictureEx@@@0@U_Really_trivial_ptr_iterator_tag@0@U?$integral_constant@_N$00@0@@Z 1001ea10 f i PictureEx.obj
 0001:0001da70       ??$addressof@V?$_Vector_val@U?$_Simple_types@UTFrame@CPictureEx@@@std@@@std@@@std@@YAPAV?$_Vector_val@U?$_Simple_types@UTFrame@CPictureEx@@@std@@@0@AAV10@@Z 1001ea70 f i PictureEx.obj
 0001:0001dab0       ??$construct@UTFrame@CPictureEx@@ABU12@@?$_Default_allocator_traits@V?$allocator@UTFrame@CPictureEx@@@std@@@std@@SAXAAV?$allocator@UTFrame@CPictureEx@@@1@QAUTFrame@CPictureEx@@ABU34@@Z 1001eab0 f i PictureEx.obj
 0001:0001db30       ??$construct@U_Container_proxy@std@@U12@@?$_Default_allocator_traits@V?$allocator@U_Container_proxy@std@@@std@@@std@@SAXAAV?$allocator@U_Container_proxy@std@@@1@QAU_Container_proxy@1@$$QAU31@@Z 1001eb30 f i PictureEx.obj
 0001:0001dbb0       ??$destroy@U_Container_proxy@std@@@?$_Default_allocator_traits@V?$allocator@U_Container_proxy@std@@@std@@@std@@SAXAAV?$allocator@U_Container_proxy@std@@@1@QAU_Container_proxy@1@@Z 1001ebb0 f i PictureEx.obj
 0001:0001dbe0       ??$emplace_back@ABUTFrame@CPictureEx@@@?$vector@UTFrame@CPictureEx@@V?$allocator@UTFrame@CPictureEx@@@std@@@std@@QAE@ABUTFrame@CPictureEx@@@Z 1001ebe0 f i PictureEx.obj
 0001:0001dc90       ??$forward@ABUTFrame@CPictureEx@@@std@@YAABUTFrame@CPictureEx@@ABU12@@Z 1001ec90 f i PictureEx.obj
 0001:0001dcd0       ??$forward@U_Container_proxy@std@@@std@@YA$$QAU_Container_proxy@0@AAU10@@Z 1001ecd0 f i PictureEx.obj
 0001:0001dd10       ??0?$CTraceCategoryEx@$00$0A@@ATL@@QAE@PBD@Z 1001ed10 f i PictureEx.obj
 0001:0001dd70       ??0?$_Vector_alloc@U?$_Vec_base_types@UTFrame@CPictureEx@@V?$allocator@UTFrame@CPictureEx@@@std@@@std@@@std@@QAE@XZ 1001ed70 f i PictureEx.obj
 0001:0001dde0       ??0?$_Vector_const_iterator@V?$_Vector_val@U?$_Simple_types@UTFrame@CPictureEx@@@std@@@std@@@std@@QAE@$$QAV01@@Z 1001ede0 f i PictureEx.obj
 0001:0001de50       ??0?$_Vector_const_iterator@V?$_Vector_val@U?$_Simple_types@UTFrame@CPictureEx@@@std@@@std@@@std@@QAE@ABV01@@Z 1001ee50 f i PictureEx.obj
 0001:0001dec0       ??0?$_Vector_const_iterator@V?$_Vector_val@U?$_Simple_types@UTFrame@CPictureEx@@@std@@@std@@@std@@QAE@PAUTFrame@CPictureEx@@PBU_Container_base12@1@@Z 1001eec0 f i PictureEx.obj
 0001:0001df30       ??0?$_Vector_const_iterator@V?$_Vector_val@U?$_Simple_types@UTFrame@CPictureEx@@@std@@@std@@@std@@QAE@XZ 1001ef30 f i PictureEx.obj
 0001:0001df90       ??0?$_Vector_iterator@V?$_Vector_val@U?$_Simple_types@UTFrame@CPictureEx@@@std@@@std@@@std@@QAE@$$QAV01@@Z 1001ef90 f i PictureEx.obj
 0001:0001dff0       ??0?$_Vector_iterator@V?$_Vector_val@U?$_Simple_types@UTFrame@CPictureEx@@@std@@@std@@@std@@QAE@ABV01@@Z 1001eff0 f i PictureEx.obj
 0001:0001e050       ??0?$_Vector_iterator@V?$_Vector_val@U?$_Simple_types@UTFrame@CPictureEx@@@std@@@std@@@std@@QAE@PAUTFrame@CPictureEx@@PBU_Container_base12@1@@Z 1001f050 f i PictureEx.obj
 0001:0001e0b0       ??0?$_Vector_iterator@V?$_Vector_val@U?$_Simple_types@UTFrame@CPictureEx@@@std@@@std@@@std@@QAE@XZ 1001f0b0 f i PictureEx.obj
 0001:0001e110       ??0?$_Vector_val@U?$_Simple_types@UTFrame@CPictureEx@@@std@@@std@@QAE@XZ 1001f110 f i PictureEx.obj
 0001:0001e190       ??0?$allocator@UTFrame@CPictureEx@@@std@@QAE@XZ 1001f190 f i PictureEx.obj
 0001:0001e1d0       ??0?$vector@UTFrame@CPictureEx@@V?$allocator@UTFrame@CPictureEx@@@std@@@std@@QAE@XZ 1001f1d0 f i PictureEx.obj
 0001:0001e260       ??0CPictureEx@@QAE@XZ      1001f260 f   PictureEx.obj
 0001:0001e420       ??0_Container_base12@std@@QAE@XZ 1001f420 f i PictureEx.obj
 0001:0001e470       ??0_Container_proxy@std@@QAE@XZ 1001f470 f i PictureEx.obj
 0001:0001e4c0       ??0_Iterator_base12@std@@QAE@ABU01@@Z 1001f4c0 f i PictureEx.obj
 0001:0001e540       ??0_Iterator_base12@std@@QAE@XZ 1001f540 f i PictureEx.obj
 0001:0001e590       ??1?$_Vector_alloc@U?$_Vec_base_types@UTFrame@CPictureEx@@V?$allocator@UTFrame@CPictureEx@@@std@@@std@@@std@@QAE@XZ 1001f590 f i PictureEx.obj
 0001:0001e620       ??1?$_Vector_const_iterator@V?$_Vector_val@U?$_Simple_types@UTFrame@CPictureEx@@@std@@@std@@@std@@QAE@XZ 1001f620 f i PictureEx.obj
 0001:0001e670       ??1?$_Vector_iterator@V?$_Vector_val@U?$_Simple_types@UTFrame@CPictureEx@@@std@@@std@@@std@@QAE@XZ 1001f670 f i PictureEx.obj
 0001:0001e6c0       ??1?$vector@UTFrame@CPictureEx@@V?$allocator@UTFrame@CPictureEx@@@std@@@std@@QAE@XZ 1001f6c0 f i PictureEx.obj
 0001:0001e750       ??1CPictureEx@@UAE@XZ      1001f750 f   PictureEx.obj
 0001:0001e810       ??1_Iterator_base12@std@@QAE@XZ 1001f810 f i PictureEx.obj
 0001:0001e900       ??4?$_Vector_const_iterator@V?$_Vector_val@U?$_Simple_types@UTFrame@CPictureEx@@@std@@@std@@@std@@QAEAAV01@$$QAV01@@Z 1001f900 f i PictureEx.obj
 0001:0001e970       ??4?$_Vector_iterator@V?$_Vector_val@U?$_Simple_types@UTFrame@CPictureEx@@@std@@@std@@@std@@QAEAAV01@$$QAV01@@Z 1001f970 f i PictureEx.obj
 0001:0001e9d0       ??4_Iterator_base12@std@@QAEAAU01@ABU01@@Z 1001f9d0 f i PictureEx.obj
 0001:0001eaf0       ??B?$CTraceCategoryEx@$00$0A@@ATL@@QAEIXZ 1001faf0 f i PictureEx.obj
 0001:0001eb30       ??D?$_Vector_const_iterator@V?$_Vector_val@U?$_Simple_types@UTFrame@CPictureEx@@@std@@@std@@@std@@QBEABUTFrame@CPictureEx@@XZ 1001fb30 f i PictureEx.obj
 0001:0001eca0       ??D?$_Vector_iterator@V?$_Vector_val@U?$_Simple_types@UTFrame@CPictureEx@@@std@@@std@@@std@@QBEAAUTFrame@CPictureEx@@XZ 1001fca0 f i PictureEx.obj
 0001:0001ecf0       ??E?$_Vector_const_iterator@V?$_Vector_val@U?$_Simple_types@UTFrame@CPictureEx@@@std@@@std@@@std@@QAEAAV01@XZ 1001fcf0 f i PictureEx.obj
 0001:0001ee60       ??E?$_Vector_iterator@V?$_Vector_val@U?$_Simple_types@UTFrame@CPictureEx@@@std@@@std@@@std@@QAE?AV01@H@Z 1001fe60 f i PictureEx.obj
 0001:0001ef80       ??E?$_Vector_iterator@V?$_Vector_val@U?$_Simple_types@UTFrame@CPictureEx@@@std@@@std@@@std@@QAEAAV01@XZ 1001ff80 f i PictureEx.obj
 0001:0001efe0       ??M?$_Vector_const_iterator@V?$_Vector_val@U?$_Simple_types@UTFrame@CPictureEx@@@std@@@std@@@std@@QBE_NABV01@@Z 1001ffe0 f i PictureEx.obj
 0001:0001f070       ??RCTraceFileAndLineInfo@ATL@@QBAXPBDZZ 10020070 f i PictureEx.obj
 0001:0001f190       ??_ECPictureEx@@UAEPAXI@Z  10020190 f i PictureEx.obj
 0001:0001f190       ??_GCPictureEx@@UAEPAXI@Z  10020190 f i PictureEx.obj
 0001:0001f210       ?Draw@CPictureEx@@QAEHXZ   10020210 f   PictureEx.obj
 0001:0001f4a0       ?DrawSingleFrameToDC@CPictureEx@@QAEHPAUHDC__@@HHH@Z 100204a0 f   PictureEx.obj
 0001:0001f830       ?GetBkColor@CPictureEx@@QBEKXZ 10020830 f   PictureEx.obj
 0001:0001f870       ?GetFrameCount@CPictureEx@@QBEHXZ 10020870 f   PictureEx.obj
 0001:0001f8e0       ?GetFrameDelay@CPictureEx@@QAEHH@Z 100208e0 f   PictureEx.obj
 0001:0001f980       ?GetFrameDisposal@CPictureEx@@QAEHH@Z 10020980 f   PictureEx.obj
 0001:0001fa20       ?GetNextBlock@CPictureEx@@QBE?AW4GIFBlockTypes@1@XZ 10020a20 f   PictureEx.obj
 0001:0001fc90       ?GetNextBlockLen@CPictureEx@@QBEHXZ 10020c90 f   PictureEx.obj
 0001:0001fe80       ?GetNextGraphicBlock@CPictureEx@@QAEPAXPAI0PAUtagSIZE@@10@Z 10020e80 f   PictureEx.obj
 0001:000201c0       ?GetPackedValue@TGIFControlExt@CPictureEx@@QAEHW4ControlExtValues@2@@Z 100211c0 f i PictureEx.obj
 0001:00020270       ?GetPackedValue@TGIFImageDescriptor@CPictureEx@@QAEHW4IDPackedValues@2@@Z 10021270 f i PictureEx.obj
 0001:00020330       ?GetPackedValue@TGIFLSDescriptor@CPictureEx@@QAEHW4LSDPackedValues@2@@Z 10021330 f i PictureEx.obj
 0001:00020400       ?GetPaintRect@CPictureEx@@QAEHPAUtagRECT@@@Z 10021400 f   PictureEx.obj
 0001:00020470       ?GetSize@CPictureEx@@QBE?AUtagSIZE@@XZ 10021470 f   PictureEx.obj
 0001:000204c0       ?GetSubBlocksLen@CPictureEx@@QBEII@Z 100214c0 f   PictureEx.obj
 0001:00020560       ?IsAnimatedGIF@CPictureEx@@QBEHXZ 10021560 f   PictureEx.obj
 0001:000205f0       ?IsGIF@CPictureEx@@QBEHXZ  100215f0 f   PictureEx.obj
 0001:00020630       ?IsPlaying@CPictureEx@@QBEHXZ 10021630 f   PictureEx.obj
 0001:00020670       ?Load@CPictureEx@@QAEHPAXK@Z 10021670 f   PictureEx.obj
 0001:00020d80       ?Load@CPictureEx@@QAEHPBD0@Z 10021d80 f   PictureEx.obj
 0001:00021070       ?Load@CPictureEx@@QAEHPBD@Z 10022070 f   PictureEx.obj
 0001:000214f0       ?LoadFromMemory@CPictureEx@@QAEHPAXK@Z 100224f0 f   PictureEx.obj
 0001:000216a0       ?PrepareDC@CPictureEx@@QAEHHH@Z 100226a0 f   PictureEx.obj
 0001:000216f0       ?ResetDataPointer@CPictureEx@@QAEXXZ 100226f0 f   PictureEx.obj
 0001:00021740       ?SetBkColor@CPictureEx@@QAEXK@Z 10022740 f   PictureEx.obj
 0001:00021880       ?SetPaintRect@CPictureEx@@QAEHPBUtagRECT@@@Z 10022880 f   PictureEx.obj
 0001:000218f0       ?SkipNextBlock@CPictureEx@@QAEHXZ 100228f0 f   PictureEx.obj
 0001:00021990       ?SkipNextGraphicBlock@CPictureEx@@QAEHXZ 10022990 f   PictureEx.obj
 0001:00021b10       ?Stop@CPictureEx@@QAEXXZ   10022b10 f   PictureEx.obj
 0001:00021c10       ?ThreadAnimation@CPictureEx@@QAEXXZ 10022c10 f   PictureEx.obj
 0001:000226e0       ?UnLoad@CPictureEx@@QAEXXZ 100236e0 f   PictureEx.obj
 0001:00022ad0       ?_Adjust_manually_vector_aligned@std@@YAXAAPAXAAI@Z 10023ad0 f i PictureEx.obj
 0001:00022c90       ?_Adopt@_Iterator_base12@std@@QAEXPBU_Container_base12@2@@Z 10023c90 f i PictureEx.obj
 0001:00022e20       ?_Alloc_proxy@?$_Vector_alloc@U?$_Vec_base_types@UTFrame@CPictureEx@@V?$allocator@UTFrame@CPictureEx@@@std@@@std@@@std@@QAEXXZ 10023e20 f i PictureEx.obj
 0001:00022f40       ?_Allocate@_Default_allocate_traits@std@@SAPAXI@Z 10023f40 f i PictureEx.obj
 0001:00022f90       ?_Calculate_growth@?$vector@UTFrame@CPictureEx@@V?$allocator@UTFrame@CPictureEx@@@std@@@std@@ABEII@Z 10023f90 f i PictureEx.obj
 0001:00023030       ?_Change_array@?$vector@UTFrame@CPictureEx@@V?$allocator@UTFrame@CPictureEx@@@std@@@std@@AAEXQAUTFrame@CPictureEx@@II@Z 10024030 f i PictureEx.obj
 0001:00023120       ?_Clrcont@_Iterator_base12@std@@QAEXXZ 10024120 f i PictureEx.obj
 0001:00023160       ?_Compat@?$_Vector_const_iterator@V?$_Vector_val@U?$_Simple_types@UTFrame@CPictureEx@@@std@@@std@@@std@@QBEXABV12@@Z 10024160 f i PictureEx.obj
 0001:00023240       ?_Destroy@?$vector@UTFrame@CPictureEx@@V?$allocator@UTFrame@CPictureEx@@@std@@@std@@AAEXPAUTFrame@CPictureEx@@0@Z 10024240 f i PictureEx.obj
 0001:000232b0       ?_Free_proxy@?$_Vector_alloc@U?$_Vec_base_types@UTFrame@CPictureEx@@V?$allocator@UTFrame@CPictureEx@@@std@@@std@@@std@@QAEXXZ 100242b0 f i PictureEx.obj
 0001:000233b0       ?_Get_first@?$_Compressed_pair@V?$allocator@UTFrame@CPictureEx@@@std@@V?$_Vector_val@U?$_Simple_types@UTFrame@CPictureEx@@@std@@@2@$00@std@@QAEAAV?$allocator@UTFrame@CPictureEx@@@2@XZ 100243b0 f i PictureEx.obj
 0001:000233f0       ?_Get_first@?$_Compressed_pair@V?$allocator@UTFrame@CPictureEx@@@std@@V?$_Vector_val@U?$_Simple_types@UTFrame@CPictureEx@@@std@@@2@$00@std@@QBEABV?$allocator@UTFrame@CPictureEx@@@2@XZ 100243f0 f i PictureEx.obj
 0001:00023430       ?_Getal@?$_Vector_alloc@U?$_Vec_base_types@UTFrame@CPictureEx@@V?$allocator@UTFrame@CPictureEx@@@std@@@std@@@std@@QAEAAV?$allocator@UTFrame@CPictureEx@@@2@XZ 10024430 f i PictureEx.obj
 0001:00023480       ?_Getal@?$_Vector_alloc@U?$_Vec_base_types@UTFrame@CPictureEx@@V?$allocator@UTFrame@CPictureEx@@@std@@@std@@@std@@QBEABV?$allocator@UTFrame@CPictureEx@@@2@XZ 10024480 f i PictureEx.obj
 0001:000234d0       ?_Getcont@_Iterator_base12@std@@QBEPBU_Container_base12@2@XZ 100244d0 f i PictureEx.obj
 0001:00023540       ?_Getpfirst@?$_Vector_alloc@U?$_Vec_base_types@UTFrame@CPictureEx@@V?$allocator@UTFrame@CPictureEx@@@std@@@std@@@std@@QBEPAPAU_Iterator_base12@2@XZ 10024540 f i PictureEx.obj
 0001:000235a0       ?_Getpfirst@_Container_base12@std@@QBEPAPAU_Iterator_base12@2@XZ 100245a0 f i PictureEx.obj
 0001:00023610       ?_Getpnext@_Iterator_base12@std@@QAEPAPAU12@XZ 10024610 f i PictureEx.obj
 0001:00023650       ?_Has_unused_capacity@?$vector@UTFrame@CPictureEx@@V?$allocator@UTFrame@CPictureEx@@@std@@@std@@ABE_NXZ 10024650 f i PictureEx.obj
 0001:000236e0       ?_Myend@?$_Vector_alloc@U?$_Vec_base_types@UTFrame@CPictureEx@@V?$allocator@UTFrame@CPictureEx@@@std@@@std@@@std@@QAEAAPAUTFrame@CPictureEx@@XZ 100246e0 f i PictureEx.obj
 0001:00023740       ?_Myend@?$_Vector_alloc@U?$_Vec_base_types@UTFrame@CPictureEx@@V?$allocator@UTFrame@CPictureEx@@@std@@@std@@@std@@QBEABQAUTFrame@CPictureEx@@XZ 10024740 f i PictureEx.obj
 0001:000237a0       ?_Mylast@?$_Vector_alloc@U?$_Vec_base_types@UTFrame@CPictureEx@@V?$allocator@UTFrame@CPictureEx@@@std@@@std@@@std@@QAEAAPAUTFrame@CPictureEx@@XZ 100247a0 f i PictureEx.obj
 0001:00023800       ?_Myproxy@?$_Vector_alloc@U?$_Vec_base_types@UTFrame@CPictureEx@@V?$allocator@UTFrame@CPictureEx@@@std@@@std@@@std@@QAEAAPAU_Container_proxy@2@XZ 10024800 f i PictureEx.obj
 0001:00023850       ?_Orphan_all@?$_Vector_alloc@U?$_Vec_base_types@UTFrame@CPictureEx@@V?$allocator@UTFrame@CPictureEx@@@std@@@std@@@std@@QAEXXZ 10024850 f i PictureEx.obj
 0001:000238b0       ?_Orphan_all@_Container_base12@std@@QAEXXZ 100248b0 f i PictureEx.obj
 0001:000239f0       ?_Orphan_me@_Iterator_base12@std@@QAEXXZ 100249f0 f i PictureEx.obj
 0001:00023b20       ?_Orphan_range@?$vector@UTFrame@CPictureEx@@V?$allocator@UTFrame@CPictureEx@@@std@@@std@@ABEXPAUTFrame@CPictureEx@@0@Z 10024b20 f i PictureEx.obj
 0001:00023c90       ?_ThreadAnimation@CPictureEx@@SGIPAX@Z 10024c90 f   PictureEx.obj
 0001:00023d50       ?_Tidy@?$vector@UTFrame@CPictureEx@@V?$allocator@UTFrame@CPictureEx@@@std@@@std@@AAEXXZ 10024d50 f i PictureEx.obj
 0001:00023e40       ?_Umove@?$vector@UTFrame@CPictureEx@@V?$allocator@UTFrame@CPictureEx@@@std@@@std@@AAEPAUTFrame@CPictureEx@@PAU34@00@Z 10024e40 f i PictureEx.obj
 0001:00023eb0       ?_Umove_if_noexcept1@?$vector@UTFrame@CPictureEx@@V?$allocator@UTFrame@CPictureEx@@@std@@@std@@AAEXPAUTFrame@CPictureEx@@00U?$integral_constant@_N$00@2@@Z 10024eb0 f i PictureEx.obj
 0001:00023f20       ?_Umove_if_noexcept@?$vector@UTFrame@CPictureEx@@V?$allocator@UTFrame@CPictureEx@@@std@@@std@@AAEXPAUTFrame@CPictureEx@@00@Z 10024f20 f i PictureEx.obj
 0001:00023fa0       ?_Xlength@?$vector@UTFrame@CPictureEx@@V?$allocator@UTFrame@CPictureEx@@@std@@@std@@CAXXZ 10024fa0 f i PictureEx.obj
 0001:00023ff0       ?allocate@?$allocator@UTFrame@CPictureEx@@@std@@QAEPAUTFrame@CPictureEx@@I@Z 10024ff0 f i PictureEx.obj
 0001:00024060       ?allocate@?$allocator@U_Container_proxy@std@@@std@@QAEPAU_Container_proxy@2@I@Z 10025060 f i PictureEx.obj
 0001:000240d0       ?begin@?$vector@UTFrame@CPictureEx@@V?$allocator@UTFrame@CPictureEx@@@std@@@std@@QAE?AV?$_Vector_iterator@V?$_Vector_val@U?$_Simple_types@UTFrame@CPictureEx@@@std@@@std@@@2@XZ 100250d0 f i PictureEx.obj
 0001:00024180       ?capacity@?$vector@UTFrame@CPictureEx@@V?$allocator@UTFrame@CPictureEx@@@std@@@std@@QBEIXZ 10025180 f i PictureEx.obj
 0001:000241f0       ?clear@?$vector@UTFrame@CPictureEx@@V?$allocator@UTFrame@CPictureEx@@@std@@@std@@QAEXXZ 100251f0 f i PictureEx.obj
 0001:000242c0       ?deallocate@?$_Default_allocator_traits@V?$allocator@U_Container_proxy@std@@@std@@@std@@SAXAAV?$allocator@U_Container_proxy@std@@@2@QAU_Container_proxy@2@I@Z 100252c0 f i PictureEx.obj
 0001:00024320       ?deallocate@?$allocator@UTFrame@CPictureEx@@@std@@QAEXQAUTFrame@CPictureEx@@I@Z 10025320 f i PictureEx.obj
 0001:00024380       ?empty@?$vector@UTFrame@CPictureEx@@V?$allocator@UTFrame@CPictureEx@@@std@@@std@@QBE_NXZ 10025380 f i PictureEx.obj
 0001:00024410       ?end@?$vector@UTFrame@CPictureEx@@V?$allocator@UTFrame@CPictureEx@@@std@@@std@@QAE?AV?$_Vector_iterator@V?$_Vector_val@U?$_Simple_types@UTFrame@CPictureEx@@@std@@@std@@@2@XZ 10025410 f i PictureEx.obj
 0001:000244c0       ?max@?$numeric_limits@H@std@@SAHXZ 100254c0 f i PictureEx.obj
 0001:00024500       ?max_size@?$_Default_allocator_traits@V?$allocator@UTFrame@CPictureEx@@@std@@@std@@SAIABV?$allocator@UTFrame@CPictureEx@@@2@@Z 10025500 f i PictureEx.obj
 0001:00024540       ?max_size@?$vector@UTFrame@CPictureEx@@V?$allocator@UTFrame@CPictureEx@@@std@@@std@@QBEIXZ 10025540 f i PictureEx.obj
 0001:000245d0       ?push_back@?$vector@UTFrame@CPictureEx@@V?$allocator@UTFrame@CPictureEx@@@std@@@std@@QAEXABUTFrame@CPictureEx@@@Z 100255d0 f i PictureEx.obj
 0001:00024630       ??$DumpElements@PAVCSprFile@@@@YGXAAVCDumpContext@@PBQAVCSprFile@@H@Z 10025630 f i ResMan.obj
 0001:00024720       ??$SerializeElements@PAVCSprFile@@@@YGXAAVCArchive@@PAPAVCSprFile@@H@Z 10025720 f i ResMan.obj
 0001:00024910       ??0?$CMap@V?$CStringT@DV?$StrTraitMFC_DLL@DV?$ChTraitsCRT@D@ATL@@@@@ATL@@PBDPAVCSprFile@@AAPAV3@@@QAE@H@Z 10025910 f i ResMan.obj
 0001:00024a20       ??0CAssoc@?$CMap@V?$CStringT@DV?$StrTraitMFC_DLL@DV?$ChTraitsCRT@D@ATL@@@@@ATL@@PBDPAVCSprFile@@AAPAV3@@@QAE@PBD@Z 10025a20 f i ResMan.obj
 0001:00024a80       ??0CPair@?$CMap@V?$CStringT@DV?$StrTraitMFC_DLL@DV?$ChTraitsCRT@D@ATL@@@@@ATL@@PBDPAVCSprFile@@AAPAV3@@@IAE@PBD@Z 10025a80 f i ResMan.obj
 0001:00024af0       ??0CResMan@@QAE@XZ         10025af0 f   ResMan.obj
 0001:00024c00       ??1?$CMap@V?$CStringT@DV?$StrTraitMFC_DLL@DV?$ChTraitsCRT@D@ATL@@@@@ATL@@PBDPAVCSprFile@@AAPAV3@@@UAE@XZ 10025c00 f i ResMan.obj
 0001:00024cc0       ??1CAssoc@?$CMap@V?$CStringT@DV?$StrTraitMFC_DLL@DV?$ChTraitsCRT@D@ATL@@@@@ATL@@PBDPAVCSprFile@@AAPAV3@@@QAE@XZ 10025cc0 f i ResMan.obj
 0001:00024d10       ??1CPair@?$CMap@V?$CStringT@DV?$StrTraitMFC_DLL@DV?$ChTraitsCRT@D@ATL@@@@@ATL@@PBDPAVCSprFile@@AAPAV3@@@QAE@XZ 10025d10 f i ResMan.obj
 0001:00024d70       ??1CResMan@@UAE@XZ         10025d70 f   ResMan.obj
 0001:00024e60       ??A?$CMap@V?$CStringT@DV?$StrTraitMFC_DLL@DV?$ChTraitsCRT@D@ATL@@@@@ATL@@PBDPAVCSprFile@@AAPAV3@@@QAEAAPAVCSprFile@@PBD@Z 10025e60 f i ResMan.obj
 0001:00025020       ??_E?$CMap@V?$CStringT@DV?$StrTraitMFC_DLL@DV?$ChTraitsCRT@D@ATL@@@@@ATL@@PBDPAVCSprFile@@AAPAV3@@@UAEPAXI@Z 10026020 f i ResMan.obj
 0001:00025020       ??_G?$CMap@V?$CStringT@DV?$StrTraitMFC_DLL@DV?$ChTraitsCRT@D@ATL@@@@@ATL@@PBDPAVCSprFile@@AAPAV3@@@UAEPAXI@Z 10026020 f i ResMan.obj
 0001:000250b0       ??_GCResMan@@UAEPAXI@Z     100260b0 f i ResMan.obj
 0001:000250b0       ??_ECResMan@@UAEPAXI@Z     100260b0 f i ResMan.obj
 0001:00025130       ??_GCSprFile@@QAEPAXI@Z    10026130 f i ResMan.obj
 0001:000251b0       ?AssertValid@?$CMap@V?$CStringT@DV?$StrTraitMFC_DLL@DV?$ChTraitsCRT@D@ATL@@@@@ATL@@PBDPAVCSprFile@@AAPAV3@@@UBEXXZ 100261b0 f i ResMan.obj
 0001:00025260       ?ClearMember@CResMan@@QAEXXZ 10026260 f   ResMan.obj
 0001:000252d0       ?CloseSpr@CResMan@@QAEHHHH@Z 100262d0 f   ResMan.obj
 0001:00025510       ?CloseSpr@CResMan@@QAEHPAVCSprFile@@@Z 10026510 f   ResMan.obj
 0001:00025590       ?Destroy@CResMan@@QAEXXZ   10026590 f   ResMan.obj
 0001:000257a0       ?Dump@?$CMap@V?$CStringT@DV?$StrTraitMFC_DLL@DV?$ChTraitsCRT@D@ATL@@@@@ATL@@PBDPAVCSprFile@@AAPAV3@@@UBEXAAVCDumpContext@@@Z 100267a0 f i ResMan.obj
 0001:000259c0       ?FreeAssoc@?$CMap@V?$CStringT@DV?$StrTraitMFC_DLL@DV?$ChTraitsCRT@D@ATL@@@@@ATL@@PBDPAVCSprFile@@AAPAV3@@@IAEXPAVCAssoc@1@@Z 100269c0 f i ResMan.obj
 0001:00025a80       ?GetAssocAt@?$CMap@V?$CStringT@DV?$StrTraitMFC_DLL@DV?$ChTraitsCRT@D@ATL@@@@@ATL@@PBDPAVCSprFile@@AAPAV3@@@IBEPAVCAssoc@1@PBDAAI1@Z 10026a80 f i ResMan.obj
 0001:00025b60       ?GetFullSprFileName@CResMan@@QAE?AV?$CStringT@DV?$StrTraitMFC_DLL@DV?$ChTraitsCRT@D@ATL@@@@@ATL@@HHH@Z 10026b60 f   ResMan.obj
 0001:00025c10       ?GetNextAssoc@?$CMap@V?$CStringT@DV?$StrTraitMFC_DLL@DV?$ChTraitsCRT@D@ATL@@@@@ATL@@PBDPAVCSprFile@@AAPAV3@@@QBEXAAPAU__POSITION@@AAV?$CStringT@DV?$StrTraitMFC_DLL@DV?$ChTraitsCRT@D@ATL@@@@@ATL@@AAPAVCSprFile@@@Z 10026c10 f i ResMan.obj
 0001:00025ec0       ?GetStartPosition@?$CMap@V?$CStringT@DV?$StrTraitMFC_DLL@DV?$ChTraitsCRT@D@ATL@@@@@ATL@@PBDPAVCSprFile@@AAPAV3@@@QBEPAU__POSITION@@XZ 10026ec0 f i ResMan.obj
 0001:00025f30       ?Init@CResMan@@QAEHPBD@Z   10026f30 f   ResMan.obj
 0001:00026010       ?InitHashTable@?$CMap@V?$CStringT@DV?$StrTraitMFC_DLL@DV?$ChTraitsCRT@D@ATL@@@@@ATL@@PBDPAVCSprFile@@AAPAV3@@@QAEXIH@Z 10027010 f i ResMan.obj
 0001:000261d0       ?IsValid@CFileTag@@QAEHXZ  100271d0 f i ResMan.obj
 0001:00026210       ?Lookup@?$CMap@V?$CStringT@DV?$StrTraitMFC_DLL@DV?$ChTraitsCRT@D@ATL@@@@@ATL@@PBDPAVCSprFile@@AAPAV3@@@QBEHPBDAAPAVCSprFile@@@Z 10027210 f i ResMan.obj
 0001:00026310       ?NewAssoc@?$CMap@V?$CStringT@DV?$StrTraitMFC_DLL@DV?$ChTraitsCRT@D@ATL@@@@@ATL@@PBDPAVCSprFile@@AAPAV3@@@IAEPAVCAssoc@1@PBD@Z 10027310 f i ResMan.obj
 0001:00026510       ?OpenSpr@CResMan@@QAEPAVCSprFile@@HHH@Z 10027510 f   ResMan.obj
 0001:00026c50       ?RemoveAll@?$CMap@V?$CStringT@DV?$StrTraitMFC_DLL@DV?$ChTraitsCRT@D@ATL@@@@@ATL@@PBDPAVCSprFile@@AAPAV3@@@QAEXXZ 10027c50 f i ResMan.obj
 0001:00026d80       ?RemoveKey@?$CMap@V?$CStringT@DV?$StrTraitMFC_DLL@DV?$ChTraitsCRT@D@ATL@@@@@ATL@@PBDPAVCSprFile@@AAPAV3@@@QAEHPBD@Z 10027d80 f i ResMan.obj
 0001:00026ea0       ?Serialize@?$CMap@V?$CStringT@DV?$StrTraitMFC_DLL@DV?$ChTraitsCRT@D@ATL@@@@@ATL@@PBDPAVCSprFile@@AAPAV3@@@UAEXAAVCArchive@@@Z 10027ea0 f i ResMan.obj
 0001:00027180       ?SetAt@?$CMap@V?$CStringT@DV?$StrTraitMFC_DLL@DV?$ChTraitsCRT@D@ATL@@@@@ATL@@PBDPAVCSprFile@@AAPAV3@@@QAEXPBDAAPAVCSprFile@@@Z 10028180 f i ResMan.obj
 0001:000271e0       ?_AfxInitManaged@@YAHXZ    100281e0 f i dllmain.obj
 0001:00027210       _ExtRawDllMain@12          10028210 f   dllmain.obj
 0001:000272b0       ??$AtlAdd@H@ATL@@YAJPAHHH@Z 100282b0 f i dllmain.obj
 0001:00027330       ??$AtlAdd@I@ATL@@YAJPAIII@Z 10028330 f i dllmain.obj
 0001:000273a0       ??$AtlAdd@K@ATL@@YAJPAKKK@Z 100283a0 f i dllmain.obj
 0001:00027410       ??$AtlAlignUp@H@ATL@@YGHHK@Z 10028410 f i dllmain.obj
 0001:00027460       ??$AtlMultiply@K@ATL@@YAJPAKKK@Z 10028460 f i dllmain.obj
 0001:000274e0       ??0?$CSimpleArray@GV?$CSimpleArrayEqualHelper@G@ATL@@@ATL@@QAE@XZ 100284e0 f i dllmain.obj
 0001:00027540       ??0?$CTraceCategoryEx@$01$0A@@ATL@@QAE@PBD@Z 10028540 f i dllmain.obj
 0001:000275a0       ??0?$CTraceCategoryEx@$03$0A@@ATL@@QAE@PBD@Z 100285a0 f i dllmain.obj
 0001:00027600       ??0?$CTraceCategoryEx@$07$0A@@ATL@@QAE@PBD@Z 10028600 f i dllmain.obj
 0001:00027660       ??0?$CTraceCategoryEx@$0BA@$0A@@ATL@@QAE@PBD@Z 10028660 f i dllmain.obj
 0001:000276c0       ??0?$CTraceCategoryEx@$0BAA@$0A@@ATL@@QAE@PBD@Z 100286c0 f i dllmain.obj
 0001:00027720       ??0?$CTraceCategoryEx@$0BAAA@$0A@@ATL@@QAE@PBD@Z 10028720 f i dllmain.obj
 0001:00027780       ??0?$CTraceCategoryEx@$0BAAAA@$0A@@ATL@@QAE@PBD@Z 10028780 f i dllmain.obj
 0001:000277e0       ??0?$CTraceCategoryEx@$0BAAAAA@$0A@@ATL@@QAE@PBD@Z 100287e0 f i dllmain.obj
 0001:00027840       ??0?$CTraceCategoryEx@$0CA@$0A@@ATL@@QAE@PBD@Z 10028840 f i dllmain.obj
 0001:000278a0       ??0?$CTraceCategoryEx@$0CAA@$0A@@ATL@@QAE@PBD@Z 100288a0 f i dllmain.obj
 0001:00027900       ??0?$CTraceCategoryEx@$0CAAAAA@$0A@@ATL@@QAE@PBD@Z 10028900 f i dllmain.obj
 0001:00027960       ??0?$CTraceCategoryEx@$0EA@$0A@@ATL@@QAE@PBD@Z 10028960 f i dllmain.obj
 0001:000279c0       ??0?$CTraceCategoryEx@$0EAA@$0A@@ATL@@QAE@PBD@Z 100289c0 f i dllmain.obj
 0001:00027a20       ??0?$CTraceCategoryEx@$0EAAA@$0A@@ATL@@QAE@PBD@Z 10028a20 f i dllmain.obj
 0001:00027a80       ??0?$CTraceCategoryEx@$0EAAAA@$0A@@ATL@@QAE@PBD@Z 10028a80 f i dllmain.obj
 0001:00027ae0       ??0?$CTraceCategoryEx@$0EAAAAA@$0A@@ATL@@QAE@PBD@Z 10028ae0 f i dllmain.obj
 0001:00027b40       ??0?$CTraceCategoryEx@$0IA@$0A@@ATL@@QAE@PBD@Z 10028b40 f i dllmain.obj
 0001:00027ba0       ??0?$CTraceCategoryEx@$0IAA@$0A@@ATL@@QAE@PBD@Z 10028ba0 f i dllmain.obj
 0001:00027c00       ??0?$CTraceCategoryEx@$0IAAA@$0A@@ATL@@QAE@PBD@Z 10028c00 f i dllmain.obj
 0001:00027c60       ??0?$CTraceCategoryEx@$0IAAAA@$0A@@ATL@@QAE@PBD@Z 10028c60 f i dllmain.obj
 0001:00027cc0       ??0CAtlComModule@ATL@@QAE@XZ 10028cc0 f i dllmain.obj
 0001:00027df0       ??0CAtlStringMgr@ATL@@QAE@PAUIAtlMemMgr@1@@Z 10028df0 f i dllmain.obj
 0001:00027e80       ??0CAtlStringMgrStaticInitializer@ATLImplementationDetails@ATL@@QAE@XZ 10028e80 f i dllmain.obj
 0001:00027ed0       ??0CAtlWinModule@ATL@@QAE@XZ 10028ed0 f i dllmain.obj
 0001:00027fa0       ??0CComCriticalSection@ATL@@QAE@XZ 10028fa0 f i dllmain.obj
 0001:00028000       ??0CNilStringData@ATL@@QAE@XZ 10029000 f i dllmain.obj
 0001:000280a0       ??0CWin32Heap@ATL@@QAE@PAX@Z 100290a0 f i dllmain.obj
 0001:00028150       ??0_ATL_COM_MODULE70@ATL@@QAE@XZ 10029150 f i dllmain.obj
 0001:000281b0       ??0_ATL_WIN_MODULE70@ATL@@QAE@XZ 100291b0 f i dllmain.obj
 0001:00028260       ??1?$CSimpleArray@GV?$CSimpleArrayEqualHelper@G@ATL@@@ATL@@QAE@XZ 10029260 f i dllmain.obj
 0001:000282f0       ??1CAtlComModule@ATL@@QAE@XZ 100292f0 f i dllmain.obj
 0001:00028380       ??1CAtlStringMgr@ATL@@UAE@XZ 10029380 f i dllmain.obj
 0001:000283c0       ??1CAtlWinModule@ATL@@QAE@XZ 100293c0 f i dllmain.obj
 0001:00028450       ??1CComCriticalSection@ATL@@QAE@XZ 10029450 f i dllmain.obj
 0001:00028490       ??1CWin32Heap@ATL@@UAE@XZ  10029490 f i dllmain.obj
 0001:00028560       ??1_ATL_COM_MODULE70@ATL@@QAE@XZ 10029560 f i dllmain.obj
 0001:000285c0       ??1_ATL_WIN_MODULE70@ATL@@QAE@XZ 100295c0 f i dllmain.obj
 0001:00028620       ??A?$CSimpleArray@GV?$CSimpleArrayEqualHelper@G@ATL@@@ATL@@QAEAAGH@Z 10029620 f i dllmain.obj
 0001:000286f0       ??B?$CTraceCategoryEx@$01$0A@@ATL@@QAEIXZ 100296f0 f i dllmain.obj
 0001:00028730       ??B?$CTraceCategoryEx@$0CA@$0A@@ATL@@QAEIXZ 10029730 f i dllmain.obj
 0001:00028770       ??B?$CTypedSimpleList@PAUCRuntimeClass@@@@QAEPAUCRuntimeClass@@XZ 10029770 f i dllmain.obj
 0001:000287c0       ??B?$CTypedSimpleList@PAVCOleObjectFactory@@@@QAEPAVCOleObjectFactory@@XZ 100297c0 f i dllmain.obj
 0001:00028810       ??_GCAtlStringMgr@ATL@@UAEPAXI@Z 10029810 f i dllmain.obj
 0001:00028810       ??_ECAtlStringMgr@ATL@@UAEPAXI@Z 10029810 f i dllmain.obj
 0001:00028880       ??_ECWin32Heap@ATL@@UAEPAXI@Z 10029880 f i dllmain.obj
 0001:00028880       ??_GCWin32Heap@ATL@@UAEPAXI@Z 10029880 f i dllmain.obj
 0001:000288f0       ??_H@YGXPAXIIP6EPAX0@Z@Z   100298f0 f i dllmain.obj
 0001:000289a0       ?AddRef@CStringData@ATL@@QAEXXZ 100299a0 f i dllmain.obj
 0001:00028a40       ?Allocate@CAtlStringMgr@ATL@@UAEPAUCStringData@2@HH@Z 10029a40 f i dllmain.obj
 0001:00028cd0       ?Allocate@CWin32Heap@ATL@@UAEPAXI@Z 10029cd0 f i dllmain.obj
 0001:00028d40       ?AtlWinModuleInit@ATL@@YGJPAU_ATL_WIN_MODULE70@1@@Z 10029d40 f i dllmain.obj
 0001:00028e60       ?AtlWinModuleTerm@ATL@@YGJPAU_ATL_WIN_MODULE70@1@PAUHINSTANCE__@@@Z 10029e60 f i dllmain.obj
 0001:00028f60       ?Clone@CAtlStringMgr@ATL@@UAEPAUIAtlStringMgr@2@XZ 10029f60 f i dllmain.obj
 0001:00028fa0       ?Free@CAtlStringMgr@ATL@@UAEXPAUCStringData@2@@Z 10029fa0 f i dllmain.obj
 0001:000290a0       ?Free@CWin32Heap@ATL@@UAEXPAX@Z 1002a0a0 f i dllmain.obj
 0001:00029160       ?GetHead@CSimpleList@@QBEPAXXZ 1002a160 f i dllmain.obj
 0001:000291a0       ?GetInstance@CAtlStringMgr@ATL@@SAPAUIAtlStringMgr@2@XZ 1002a1a0 f i dllmain.obj
 0001:000292e0       ?GetModuleInstance@CAtlBaseModule@ATL@@QAEPAUHINSTANCE__@@XZ 1002a2e0 f i dllmain.obj
 0001:00029320       ?GetNilString@CAtlStringMgr@ATL@@UAEPAUCStringData@2@XZ 1002a320 f i dllmain.obj
 0001:00029380       ?GetSize@?$CSimpleArray@GV?$CSimpleArrayEqualHelper@G@ATL@@@ATL@@QBEHXZ 1002a380 f i dllmain.obj
 0001:000293c0       ?GetSize@CWin32Heap@ATL@@UAEIPAX@Z 1002a3c0 f i dllmain.obj
 0001:00029430       ?Init@CComCriticalSection@ATL@@QAEJXZ 1002a430 f i dllmain.obj
 0001:000294c0       ?Reallocate@CAtlStringMgr@ATL@@UAEPAUCStringData@2@PAU32@HH@Z 1002a4c0 f i dllmain.obj
 0001:00029770       ?Reallocate@CWin32Heap@ATL@@UAEPAXPAXI@Z 1002a770 f i dllmain.obj
 0001:00029840       ?RemoveAll@?$CSimpleArray@GV?$CSimpleArrayEqualHelper@G@ATL@@@ATL@@QAEXXZ 1002a840 f i dllmain.obj
 0001:00029900       ?SetManager@CNilStringData@ATL@@QAEXPAUIAtlStringMgr@2@@Z 1002a900 f i dllmain.obj
 0001:000299a0       ?Term@CAtlComModule@ATL@@QAEXXZ 1002a9a0 f i dllmain.obj
 0001:00029ab0       ?Term@CAtlWinModule@ATL@@QAEXXZ 1002aab0 f i dllmain.obj
 0001:00029b10       ?Term@CComCriticalSection@ATL@@QAEJXZ 1002ab10 f i dllmain.obj
 0001:00029b70       ?_AtlInitializeCriticalSectionEx@ATL@@YAHPAU_RTL_CRITICAL_SECTION@@KK@Z 1002ab70 f i dllmain.obj
 0001:00029bd0       ?_AtlRaiseException@ATL@@YAXKK@Z 1002abd0 f i dllmain.obj
 0001:00029c30       _DllMain@12                1002ac30 f   dllmain.obj
 0001:00029da0       ??0CPage@@QAE@XZ           1002ada0 f   Graphic.obj
 0001:00029f00       ??1CPage@@QAE@XZ           1002af00 f   Graphic.obj
 0001:00029f90       ?Attach@CPage@@QAEHJJPAXJ@Z 1002af90 f   Graphic.obj
 0001:0002a0f0       ?Destroy@CPage@@QAEXXZ     1002b0f0 f   Graphic.obj
 0001:0002a230       ?Detach@CPage@@QAEHXZ      1002b230 f   Graphic.obj
 0001:0002a2e0       ?DrawEmptyBox@CPage@@QAEXHHHHGH@Z 1002b2e0 f   Graphic.obj
 0001:0002a450       ?DrawFillBox@CPage@@QAEXHHHHG@Z 1002b450 f   Graphic.obj
 0001:0002a560       ?DrawFillBoxGB@CPage@@QAEXHHHHGH@Z 1002b560 f   Graphic.obj
 0001:0002a670       ?DrawSelectBox@CPage@@QAEXHHHHGH@Z 1002b670 f   Graphic.obj
 0001:0002a7e0       ?FillGDI@CPage@@QAEHPAUHDC__@@HHK@Z 1002b7e0 f   Graphic.obj
 0001:0002a870       ?Flip@CPage@@QAEHPAUHDC__@@@Z 1002b870 f   Graphic.obj
 0001:0002a9f0       ?Flip@CPage@@QAEHPAUHWND__@@@Z 1002b9f0 f   Graphic.obj
 0001:0002aaa0       ?FlipToGDI@CPage@@QAEHPAUHDC__@@JJH@Z 1002baa0 f   Graphic.obj
 0001:0002ab10       ?FlipToGDI@CPage@@QAEHPAUHWND__@@JJH@Z 1002bb10 f   Graphic.obj
 0001:0002ab80       ?HLine@CPage@@QAEXHHHGH@Z  1002bb80 f   Graphic.obj
 0001:0002ac90       ?Init@CPage@@QAEHJJHPAUtagRGBQUAD@@@Z 1002bc90 f   Graphic.obj
 0001:0002b0f0       ?PutFromPage@CPage@@QAEHJJJJPAV1@@Z 1002c0f0 f   Graphic.obj
 0001:0002b2e0       ?PutFromPage@CPage@@QAEHJJPAV1@@Z 1002c2e0 f   Graphic.obj
 0001:0002b3e0       ?PutImageAuto@CPage@@QAEHHHPAUSPRITE30@@HHG@Z 1002c3e0 f   Graphic.obj
 0001:0002b550       ?PutSprAuto@CPage@@QAEHHHPAUSPRITE30@@HHGH@Z 1002c550 f   Graphic.obj
 0001:0002bc20       ?PutSprAuto@CPage@@QAEHHHPAVxSprite@@HHHGH@Z 1002cc20 f   Graphic.obj
 0001:0002bce0       ?ReCreateDIBSection@CPage@@QAEHXZ 1002cce0 f   Graphic.obj
 0001:0002be00       ?SetClipArea@CPage@@QAEXHHHH@Z 1002ce00 f   Graphic.obj
 0001:0002c070       ?SetFlipPos@CPage@@QAEXJJH@Z 1002d070 f   Graphic.obj
 0001:0002c0d0       ?SetFullClip@CPage@@QAEXXZ 1002d0d0 f   Graphic.obj
 0001:0002c150       ?SetLogPal@CPage@@QAEHPAUtagLOGPALETTE@@@Z 1002d150 f   Graphic.obj
 0001:0002c2b0       ?SetMirrorX@CPage@@QAEXH@Z 1002d2b0 f   Graphic.obj
 0001:0002c310       ?SetMirrorXEx@CPage@@QAEXHH@Z 1002d310 f   Graphic.obj
 0001:0002c360       ?SetPal@CPage@@QAEHPAUtagRGBQUAD@@@Z 1002d360 f   Graphic.obj
 0001:0002c720       ?SetPalHandle@CPage@@QAEHPAUHPALETTE__@@@Z 1002d720 f   Graphic.obj
 0001:0002c7c0       ?SetTempClip@CPage@@QAEXHHHH@Z 1002d7c0 f   Graphic.obj
 0001:0002ca30       ?SmoothZoomFromPage@CPage@@QAEHJJPAV1@@Z 1002da30 f   Graphic.obj
 0001:0002cb50       ?StretchFlip@CPage@@QAEHPAUHWND__@@PAUtagRECT@@1@Z 1002db50 f   Graphic.obj
 0001:0002ce70       ?ToPagePos@CPage@@QAEXJJPAJ0@Z 1002de70 f   Graphic.obj
 0001:0002cee0       ?VLine@CPage@@QAEXHHHGH@Z  1002dee0 f   Graphic.obj
 0001:0002cff0       ?ZoomSprAuto@CPage@@QAEHHHPAUSPRITE30@@HHHHG@Z 1002dff0 f   Graphic.obj
 0001:0002d230       ?RGB555mix@@YAGHHH@Z       1002e230 f   GraphMod.obj
 0001:0002d280       ?BGR565mix@@YAGHHH@Z       1002e280 f   GraphMod.obj
 0001:0002d2e0       ?DrawBox@@YAXHHHHPAGGHHHHK@Z 1002e2e0 f   GraphMod.obj
 0001:0002d510       ?DrawBoxXOR@@YAXHHHHPAGHHHHK@Z 1002e510 f   GraphMod.obj
 0001:0002d760       ?DrawHLine@@YAXHHHPAGGHHHHK@Z 1002e760 f   GraphMod.obj
 0001:0002d850       ?DrawHLineXOR@@YAXHHHPAGHHHHK@Z 1002e850 f   GraphMod.obj
 0001:0002d940       ?DrawSelectBox@@YAXHHHHPAGGHHHHK@Z 1002e940 f   GraphMod.obj
 0001:0002db40       ?DrawVLine@@YAXHHHPAGGHHHHK@Z 1002eb40 f   GraphMod.obj
 0001:0002dc30       ?DrawVLineXOR@@YAXHHHPAGHHHHK@Z 1002ec30 f   GraphMod.obj
 0001:0002dd30       ?DrawXORSelectBox@@YAXHHHHPAGHHHHK@Z 1002ed30 f   GraphMod.obj
 0001:0002df20       ?FillBox@@YAXHHHHPAGGHHHHK@Z 1002ef20 f   GraphMod.obj
 0001:0002e030       ?FillBoxGB@@YAXHHHHPAGGHHHHHK@Z 1002f030 f   GraphMod.obj
 0001:0002e130       ?FillPage@@YAXPAGGHHHHK@Z  1002f130 f   GraphMod.obj
 0001:0002e1d0       ?GetImage@@YAXHHHHPAG0K@Z  1002f1d0 f   GraphMod.obj
 0001:0002e290       ?InitAlphaTable@@YAXH@Z    1002f290 f   GraphMod.obj
 0001:0002e8b0       ?InitGrpLib@@YAHH@Z        1002f8b0 f   GraphMod.obj
 0001:0002e9e0       ?MemCpy555TO565@@YIXPAG0H@Z 1002f9e0 f   GraphMod.obj
 0001:0002ea80       ?MemCpy555TORGB24@@YIXPAEPAGH@Z 1002fa80 f   GraphMod.obj
 0001:0002eb60       ?MemCpy555TORGB32@@YIXPAKPAGH@Z 1002fb60 f   GraphMod.obj
 0001:0002ec20       ?MemCpyAB555@@YIXPAG0HH@Z  1002fc20 f   GraphMod.obj
 0001:0002ed90       ?MemCpyAB565@@YIXPAG0HH@Z  1002fd90 f   GraphMod.obj
 0001:0002ef00       ?MemCpyAnti555@@YIXPAG0H@Z 1002ff00 f   GraphMod.obj
 0001:0002f020       ?MemCpyAnti565@@YIXPAG0H@Z 10030020 f   GraphMod.obj
 0001:0002f140       ?MemCpyDE555@@YIXPAG0H@Z   10030140 f   GraphMod.obj
 0001:0002f260       ?MemCpyDE565@@YIXPAG0H@Z   10030260 f   GraphMod.obj
 0001:0002f380       ?MemCpyGB555@@YIXPAG0HH@Z  10030380 f   GraphMod.obj
 0001:0002f5e0       ?MemCpyGB565@@YIXPAG0HH@Z  100305e0 f   GraphMod.obj
 0001:0002f840       ?MemCpyGlow555@@YIXPAG0HGH@Z 10030840 f   GraphMod.obj
 0001:0002fa80       ?MemCpyGlow565@@YIXPAG0HGH@Z 10030a80 f   GraphMod.obj
 0001:0002fd00       ?MemCpyHB555@@YIXPAG0H@Z   10030d00 f   GraphMod.obj
 0001:0002fe20       ?MemCpyHB565@@YIXPAG0H@Z   10030e20 f   GraphMod.obj
 0001:0002ff40       ?MemCpyLE555@@YIXPAG0H@Z   10030f40 f   GraphMod.obj
 0001:00030060       ?MemCpyLE565@@YIXPAG0H@Z   10031060 f   GraphMod.obj
 0001:00030180       ?MemSetGB555@@YIXPAGGHH@Z  10031180 f   GraphMod.obj
 0001:00030440       ?PutPixel@@YAXHHPAGGK@Z    10031440 f   GraphMod.obj
 0001:00030490       ?RGB565mix@@YAGHHH@Z       10031490 f   GraphMod.obj
 0001:000304e0       ?RemoveGrpLib@@YAXXZ       100314e0 f   GraphMod.obj
 0001:00030510       ?RvrsCpy@@YIXPAG0H@Z       10031510 f   GraphMod.obj
 0001:000305b0       ?RvrsCpyGB555@@YIXPAG0HH@Z 100315b0 f   GraphMod.obj
 0001:00030860       ?RvrsCpyGB565@@YIXPAG0HH@Z 10031860 f   GraphMod.obj
 0001:00030af0       ?_PutCsp@@YAXHHHHPAG0HHHHK@Z 10031af0 f   GraphMod.obj
 0001:00030fd0       ?_PutCspLR@@YAXHHHHPAG0HHHHK@Z 10031fd0 f   GraphMod.obj
 0001:000314f0       ?_PutCspLR_GB@@YAXHHHHPAG0HHHHHK@Z 100324f0 f   GraphMod.obj
 0001:00031a40       ?_PutCspUD@@YAXHHHHPAG0HHHHK@Z 10032a40 f   GraphMod.obj
 0001:00031f30       ?_PutCsp_AB@@YAXHHHHPAG0HHHHHK@Z 10032f30 f   GraphMod.obj
 0001:00032440       ?_PutCsp_Anti@@YAXHHHHPAG0HHHHK@Z 10033440 f   GraphMod.obj
 0001:00032920       ?_PutCsp_DE@@YAXHHHHPAG0HHHHK@Z 10033920 f   GraphMod.obj
 0001:00032e00       ?_PutCsp_GB@@YAXHHHHPAG0HHHHHK@Z 10033e00 f   GraphMod.obj
 0001:000332f0       ?_PutCsp_Glow@@YAXHHHHPAG0GHHHHHK@Z 100342f0 f   GraphMod.obj
 0001:00033800       ?_PutCsp_HB@@YAXHHHHPAG0HHHHK@Z 10034800 f   GraphMod.obj
 0001:00033ce0       ?_PutCsp_LE@@YAXHHHHPAG0HHHHK@Z 10034ce0 f   GraphMod.obj
 0001:000341c0       ?_PutCsp_RGB555TORGB24@@YAXHHHHPAEHPAGHHHHK@Z 100351c0 f   GraphMod.obj
 0001:00034690       ?_PutCsp_RGB555TORGB32@@YAXHHHHPAKHPAGHHHHK@Z 10035690 f   GraphMod.obj
 0001:00034b70       ?_PutCsp_RGB555TORGB565@@YAXHHHHPAG0HHHHK@Z 10035b70 f   GraphMod.obj
 0001:00035030       ?_PutImage@@YAXHHHHPAG0HHHHK@Z 10036030 f   GraphMod.obj
 0001:000352a0       ?_PutImageUD@@YAXHHFFPAG0HHHHK@Z 100362a0 f   GraphMod.obj
 0001:00035560       ?_PutImage_GB@@YAXHHHHPAG0HHHHHK@Z 10036560 f   GraphMod.obj
 0001:000357d0       ?_PutSpr@@YAXHHHHPAG0GHHHHK@Z 100367d0 f   GraphMod.obj
 0001:00035ab0       ?_PutSprUD@@YAXHHHHPAG0GHHHHK@Z 10036ab0 f   GraphMod.obj
 0001:00035db0       ?_ZoomCsp@@YAXHHHHPAGHH0HHHHK@Z 10036db0 f   GraphMod.obj
 0001:00036620       ?_ZoomImage_Smooth@@YAXHHHHPAGHH0HHHHK@Z 10037620 f   GraphMod.obj
 0001:000369f0       ?_ZoomSpr@@YAXHHHHPAGHH0GHHHHK@Z 100379f0 f   GraphMod.obj
 0001:00036d70       ??0Action@@QAE@XZ          10037d70 f   xAniFile.obj
 0001:00036df0       ??0Cell@@QAE@XZ            10037df0 f   xAniFile.obj
 0001:00036e60       ??0Character@@QAE@XZ       10037e60 f   xAniFile.obj
 0001:00036ee0       ??0Frame@@QAE@XZ           10037ee0 f   xAniFile.obj
 0001:00036f40       ??0Group@@QAE@XZ           10037f40 f   xAniFile.obj
 0001:00036fc0       ??0xAniFile@@QAE@XZ        10037fc0 f   xAniFile.obj
 0001:00037010       ??1Action@@QAE@XZ          10038010 f   xAniFile.obj
 0001:000370a0       ??1Character@@QAE@XZ       100380a0 f   xAniFile.obj
 0001:00037130       ??1Frame@@QAE@XZ           10038130 f   xAniFile.obj
 0001:000371c0       ??1Group@@QAE@XZ           100381c0 f   xAniFile.obj
 0001:00037250       ??1xAniFile@@QAE@XZ        10038250 f   xAniFile.obj
 0001:000372e0       ??_GAction@@QAEPAXI@Z      100382e0 f i xAniFile.obj
 0001:00037350       ??_GCharacter@@QAEPAXI@Z   10038350 f i xAniFile.obj
 0001:000373c0       ??_GFrame@@QAEPAXI@Z       100383c0 f i xAniFile.obj
 0001:00037430       ??_GGroup@@QAEPAXI@Z       10038430 f i xAniFile.obj
 0001:000374a0       ?AddAction@Group@@QAEXPAD@Z 100384a0 f   xAniFile.obj
 0001:00037660       ?AddCell@Frame@@QAEXHHHH@Z 10038660 f   xAniFile.obj
 0001:00037820       ?AddCharacter@xAniFile@@QAEXPAD@Z 10038820 f   xAniFile.obj
 0001:000379d0       ?AddFrame@Action@@QAEXH@Z  100389d0 f   xAniFile.obj
 0001:00037b90       ?AddGroup@Character@@QAEXPAD@Z 10038b90 f   xAniFile.obj
 0001:00037d50       ?DelAction@Group@@QAEXH@Z  10038d50 f   xAniFile.obj
 0001:00037f20       ?DelCell@Frame@@QAEXH@Z    10038f20 f   xAniFile.obj
 0001:000380b0       ?DelCharacter@xAniFile@@QAEXH@Z 100390b0 f   xAniFile.obj
 0001:00038290       ?DelFrame@Action@@QAEXH@Z  10039290 f   xAniFile.obj
 0001:00038460       ?DelGroup@Character@@QAEXH@Z 10039460 f   xAniFile.obj
 0001:00038630       ?Destroy@Action@@QAEXXZ    10039630 f   xAniFile.obj
 0001:00038780       ?Destroy@Character@@QAEXXZ 10039780 f   xAniFile.obj
 0001:000388d0       ?Destroy@Frame@@QAEXXZ     100398d0 f   xAniFile.obj
 0001:000389f0       ?Destroy@Group@@QAEXXZ     100399f0 f   xAniFile.obj
 0001:00038b40       ?Destroy@xAniFile@@QAEXXZ  10039b40 f   xAniFile.obj
 0001:00038c80       ?GetActionPt@xAniFile@@QAEPAVAction@@HHH@Z 10039c80 f   xAniFile.obj
 0001:00038d40       ?GetCellPt@xAniFile@@QAEPAVCell@@HHHHH@Z 10039d40 f   xAniFile.obj
 0001:00038e90       ?GetCharacterPt@xAniFile@@QAEPAVCharacter@@H@Z 10039e90 f   xAniFile.obj
 0001:00038ef0       ?GetFramePt@xAniFile@@QAEPAVFrame@@HHHH@Z 10039ef0 f   xAniFile.obj
 0001:00038ff0       ?GetGroupPt@xAniFile@@QAEPAVGroup@@HH@Z 10039ff0 f   xAniFile.obj
 0001:00039080       ?GetPtrAction@Group@@QAEPAVAction@@H@Z 1003a080 f   xAniFile.obj
 0001:000390f0       ?GetPtrAction@Group@@QAEPAVAction@@PADPAH@Z 1003a0f0 f   xAniFile.obj
 0001:000391e0       ?GetPtrCell@Frame@@QAEPAVCell@@H@Z 1003a1e0 f   xAniFile.obj
 0001:00039240       ?GetPtrCharacter@xAniFile@@QAEPAVCharacter@@H@Z 1003a240 f   xAniFile.obj
 0001:000392a0       ?GetPtrCharacter@xAniFile@@QAEPAVCharacter@@PADPAH@Z 1003a2a0 f   xAniFile.obj
 0001:00039390       ?GetPtrFrame@Action@@QAEPAVFrame@@H@Z 1003a390 f   xAniFile.obj
 0001:00039400       ?GetPtrGroup@Character@@QAEPAVGroup@@H@Z 1003a400 f   xAniFile.obj
 0001:00039470       ?GetPtrGroup@Character@@QAEPAVGroup@@PADPAH@Z 1003a470 f   xAniFile.obj
 0001:00039560       ?Load@xAniFile@@QAEHPAU_iobuf@@@Z 1003a560 f   xAniFile.obj
 0001:00039bf0       ?MovAction@Group@@QAEXHH@Z 1003abf0 f   xAniFile.obj
 0001:00039da0       ?MovCell@Frame@@QAEXHH@Z   1003ada0 f   xAniFile.obj
 0001:00039f50       ?MovCharacter@xAniFile@@QAEXHH@Z 1003af50 f   xAniFile.obj
 0001:0003a100       ?MovFrame@Action@@QAEXHH@Z 1003b100 f   xAniFile.obj
 0001:0003a2b0       ?MovGroup@Character@@QAEXHH@Z 1003b2b0 f   xAniFile.obj
 0001:0003a460       ?OnDeleteSpr@xAniFile@@QAEXH@Z 1003b460 f   xAniFile.obj
 0001:0003a720       ?OnMoveSpr@xAniFile@@QAEXHH@Z 1003b720 f   xAniFile.obj
 0001:0003aa60       ?Save@xAniFile@@QAEHPAU_iobuf@@@Z 1003ba60 f   xAniFile.obj
 0001:0003af30       ?Set@Action@@QAEXPAD@Z     1003bf30 f   xAniFile.obj
 0001:0003afa0       ?Set@Cell@@QAEXHHHH@Z      1003bfa0 f   xAniFile.obj
 0001:0003b010       ?Set@Character@@QAEXPAD@Z  1003c010 f   xAniFile.obj
 0001:0003b080       ?Set@Frame@@QAEXH@Z        1003c080 f   xAniFile.obj
 0001:0003b0d0       ?Set@Group@@QAEXPAD@Z      1003c0d0 f   xAniFile.obj
 0001:0003b140       ??0xAniMan@@QAE@XZ         1003c140 f   xAniMan.obj
 0001:0003b1a0       ??1xAniMan@@QAE@XZ         1003c1a0 f   xAniMan.obj
 0001:0003b1e0       ?Clear@xAniMan@@QAEXXZ     1003c1e0 f   xAniMan.obj
 0001:0003b310       ?GetNowCellInfo@xAniMan@@QAEHHPAH000@Z 1003c310 f   xAniMan.obj
 0001:0003b400       ?GetNowCellInfo@xAniMan@@QAEHPAH000@Z 1003c400 f   xAniMan.obj
 0001:0003b500       ?GetNowCellInfo@xAniMan@@QAEHPAUPLAYSTUFF@@PAH@Z 1003c500 f   xAniMan.obj
 0001:0003b690       ?GetNowFrameInfo@xAniMan@@QAEHHPAH0@Z 1003c690 f   xAniMan.obj
 0001:0003b740       ?GetNowFrameInfo@xAniMan@@QAEHPAH0@Z 1003c740 f   xAniMan.obj
 0001:0003b7c0       ?GetPlayStuff@xAniMan@@QAEHPAUPLAYSTUFF@@PAH@Z 1003c7c0 f   xAniMan.obj
 0001:0003ba30       ?Init@xAniMan@@QAEHPAVxAniFile@@@Z 1003ca30 f   xAniMan.obj
 0001:0003bae0       ?Init@xAniMan@@QAEHPAVxSprite@@@Z 1003cae0 f   xAniMan.obj
 0001:0003bb70       ?Pause@xAniMan@@QAEXXZ     1003cb70 f   xAniMan.obj
 0001:0003bbc0       ?PlayAction@xAniMan@@QAEHPAVCPage@@HHHHHG@Z 1003cbc0 f   xAniMan.obj
 0001:0003bd30       ?PlayAction@xAniMan@@QAEHPAVxLayer@@HHHHG@Z 1003cd30 f   xAniMan.obj
 0001:0003be70       ?ResetAction@xAniMan@@QAEXH@Z 1003ce70 f   xAniMan.obj
 0001:0003bf00       ?ResetCell@xAniMan@@QAEXXZ 1003cf00 f   xAniMan.obj
 0001:0003bf60       ?ResetCharacter@xAniMan@@QAEXH@Z 1003cf60 f   xAniMan.obj
 0001:0003bfe0       ?ResetFrame@xAniMan@@QAEXH@Z 1003cfe0 f   xAniMan.obj
 0001:0003c060       ?ResetGroup@xAniMan@@QAEXH@Z 1003d060 f   xAniMan.obj
 0001:0003c0e0       ?Resume@xAniMan@@QAEXXZ    1003d0e0 f   xAniMan.obj
 0001:0003c130       ?SetAction@xAniMan@@QAEHHH@Z 1003d130 f   xAniMan.obj
 0001:0003c1f0       ?SetAction@xAniMan@@QAEHPADH@Z 1003d1f0 f   xAniMan.obj
 0001:0003c2b0       ?SetBackward@xAniMan@@QAEXXZ 1003d2b0 f   xAniMan.obj
 0001:0003c300       ?SetCell@xAniMan@@QAEHH@Z  1003d300 f   xAniMan.obj
 0001:0003c3a0       ?SetCharacter@xAniMan@@QAEHHH@Z 1003d3a0 f   xAniMan.obj
 0001:0003c460       ?SetCharacter@xAniMan@@QAEHPADH@Z 1003d460 f   xAniMan.obj
 0001:0003c520       ?SetForward@xAniMan@@QAEXXZ 1003d520 f   xAniMan.obj
 0001:0003c570       ?SetFrame@xAniMan@@QAEHHH@Z 1003d570 f   xAniMan.obj
 0001:0003c640       ?SetGroup@xAniMan@@QAEHHH@Z 1003d640 f   xAniMan.obj
 0001:0003c700       ?SetGroup@xAniMan@@QAEHPADH@Z 1003d700 f   xAniMan.obj
 0001:0003c7c0       ?SetLoop@xAniMan@@QAEXH@Z  1003d7c0 f   xAniMan.obj
 0001:0003c810       ??0CLayerObj@@QAE@XZ       1003d810 f   xLayer.obj
 0001:0003c860       ??0CLayerPlane@@QAE@XZ     1003d860 f   xLayer.obj
 0001:0003c8c0       ??0CLayerSprObj@@QAE@XZ    1003d8c0 f   xLayer.obj
 0001:0003c940       ??0xLayer@@QAE@XZ          1003d940 f   xLayer.obj
 0001:0003c9a0       ??1xLayer@@QAE@XZ          1003d9a0 f   xLayer.obj
 0001:0003ca30       ?Clear@xLayer@@QAEXXZ      1003da30 f   xLayer.obj
 0001:0003cb10       ?Destroy@xLayer@@QAEXXZ    1003db10 f   xLayer.obj
 0001:0003cc50       ?Draw@CLayerSprObj@@UAEXPAVCPage@@@Z 1003dc50 f   xLayer.obj
 0001:0003cce0       ?Draw@xLayer@@QAEXH@Z      1003dce0 f   xLayer.obj
 0001:0003cdd0       ?Init@xLayer@@QAEHPAVCPage@@HH@Z 1003ddd0 f   xLayer.obj
 0001:0003cf30       ?Set@xLayer@@QAEXHHHHPAUSPRITE30@@KHG@Z 1003df30 f   xLayer.obj
 0001:0003d000       ?Set@xLayer@@QAEXHHHHPAVxSprite@@HKHG@Z 1003e000 f   xLayer.obj
 0001:0003d100       ?Set@xLayer@@QAEXHHHPAUSPRITE30@@KHG@Z 1003e100 f   xLayer.obj
 0001:0003d1b0       ?Set@xLayer@@QAEXHHPAUSPRITE30@@KHG@Z 1003e1b0 f   xLayer.obj
 0001:0003d290       ?Set@xLayer@@QAEXHHPAVxSprite@@HKHG@Z 1003e290 f   xLayer.obj
 0001:0003d3b0       ?SetObject@CLayerPlane@@QAEXHHPAUSPRITE30@@KHG@Z 1003e3b0 f   xLayer.obj
 0001:0003d540       ??0xSprite@@QAE@XZ         1003e540 f   xSprite.obj
 0001:0003d5c0       ??1xSprite@@QAE@XZ         1003e5c0 f   xSprite.obj
 0001:0003d660       ?ANALYSIS_RGB555@@YAXGPAG00@Z 1003e660 f   xSprite.obj
 0001:0003d6d0       ?ANALYSIS_RGB565@@YAXGPAG00@Z 1003e6d0 f   xSprite.obj
 0001:0003d740       ?ChangePixelFormat@xSprite@@QAEHH@Z 1003e740 f   xSprite.obj
 0001:0003dd70       ?Compress@xSprite@@QAEHJ@Z 1003ed70 f   xSprite.obj
 0001:0003df50       ?DeCompress@xSprite@@QAEHJ@Z 1003ef50 f   xSprite.obj
 0001:0003e140       ?DecodeSpr0@@YAXPAGHH0G@Z  1003f140 f   xSprite.obj
 0001:0003e2f0       ?EncodeSpr0@@YAKPAGHHPAPAGG@Z 1003f2f0 f   xSprite.obj
 0001:0003e790       ?Insert@xSprite@@QAEHJHHPAGGH@Z 1003f790 f   xSprite.obj
 0001:0003ebf0       ?InsertByCopy@xSprite@@QAEHJHHPAGGH@Z 1003fbf0 f   xSprite.obj
 0001:0003ed10       ?Load@xSprite@@QAEHPAD@Z   1003fd10 f   xSprite.obj
 0001:0003ed70       ?Load@xSprite@@QAEHPADH@Z  1003fd70 f   xSprite.obj
 0001:0003f8d0       ?NewSpace@xSprite@@QAEHHHPAGGH@Z 100408d0 f   xSprite.obj
 0001:0003fc30       ?OptimizeSize@xSprite@@QAEXHH@Z 10040c30 f   xSprite.obj
 0001:00040410       ?RGB555_TO_BGR565@@YAGG@Z  10041410 f   xSprite.obj
 0001:00040490       ?RGB555_TO_RGB565@@YAGG@Z  10041490 f   xSprite.obj
 0001:00040510       ?RGB565_TO_BGR565@@YAGG@Z  10041510 f   xSprite.obj
 0001:00040590       ?RGB565_TO_RGB555@@YAGG@Z  10041590 f   xSprite.obj
 0001:00040610       ?Remove@xSprite@@QAEXXZ    10041610 f   xSprite.obj
 0001:000407f0       ?Save@xSprite@@QAEHPAD@Z   100417f0 f   xSprite.obj
 0001:00040e00       ?TransToSpr@xSprite@@QAEHHHPAGG@Z 10041e00 f   xSprite.obj
 0001:00041140       ??0CTime@ATL@@QAE@GGH@Z    10042140 f i UnzipFile.obj
 0001:00041310       ??0CUnzipFile@@QAE@PBD@Z   10042310 f   UnzipFile.obj
 0001:000413f0       ??0CUnzipFile@@QAE@XZ      100423f0 f   UnzipFile.obj
 0001:000414c0       ??0file_in_zip_read_info@@QAE@XZ 100424c0 f   UnzipFile.obj
 0001:00041560       ??0unz_s@@QAE@XZ           10042560 f   UnzipFile.obj
 0001:000415d0       ??1CUnzipFile@@UAE@XZ      100425d0 f   UnzipFile.obj
 0001:00041640       ??1file_in_zip_read_info@@QAE@XZ 10042640 f   UnzipFile.obj
 0001:000416b0       ??1unz_s@@QAE@XZ           100426b0 f   UnzipFile.obj
 0001:00041740       ??_ECUnzipFile@@UAEPAXI@Z  10042740 f i UnzipFile.obj
 0001:00041740       ??_GCUnzipFile@@UAEPAXI@Z  10042740 f i UnzipFile.obj
 0001:000417c0       ??_Gfile_in_zip_read_info@@QAEPAXI@Z 100427c0 f i UnzipFile.obj
 0001:00041830       ?Close@CUnzipFile@@QAEXXZ  10042830 f   UnzipFile.obj
 0001:000418d0       ?CloseCurrentFile@CUnzipFile@@QAEXXZ 100428d0 f   UnzipFile.obj
 0001:000419a0       ?GetCurrentFileInfo@CUnzipFile@@QAEXPAUunz_file_info@@PADKPAXK1K@Z 100429a0 f   UnzipFile.obj
 0001:00041a80       ?GetGlobalComment@CUnzipFile@@QAEHPADK@Z 10042a80 f   UnzipFile.obj
 0001:00041b90       ?GetGlobalInfo@CUnzipFile@@QAEXAAUunz_global_info@@@Z 10042b90 f   UnzipFile.obj
 0001:00041be0       ?GetLocalExtrafield@CUnzipFile@@QAEHPAXI@Z 10042be0 f   UnzipFile.obj
 0001:00041d10       ?GoToFirstFile@CUnzipFile@@QAEXXZ 10042d10 f   UnzipFile.obj
 0001:00041db0       ?GoToNextFile@CUnzipFile@@QAE_NXZ 10042db0 f   UnzipFile.obj
 0001:00041eb0       ?LocateFile@CUnzipFile@@QAE_NV?$CStringT@DV?$StrTraitMFC_DLL@DV?$ChTraitsCRT@D@ATL@@@@@ATL@@_N@Z 10042eb0 f   UnzipFile.obj
 0001:00042220       ?Open@CUnzipFile@@QAEXPBD@Z 10043220 f   UnzipFile.obj
 0001:00042560       ?OpenCurrentFile@CUnzipFile@@QAEXXZ 10043560 f   UnzipFile.obj
 0001:00042880       ?ReadCurrentFile@CUnzipFile@@QAEHPAXI@Z 10043880 f   UnzipFile.obj
 0001:00042d80       ?StringFileNameCompare@CUnzipFile@@QAEHV?$CStringT@DV?$StrTraitMFC_DLL@DV?$ChTraitsCRT@D@ATL@@@@@ATL@@0_N@Z 10043d80 f   UnzipFile.obj
 0001:00042e90       ?UpdateFileStatus@CUnzipFile@@QAEXAAVCFile@@AAUunz_file_info@@@Z 10043e90 f   UnzipFile.obj
 0001:000430a0       ?alloc_pfile_in_zip_read@unz_s@@QAEXXZ 100440a0 f   UnzipFile.obj
 0001:000431a0       ?eof@CUnzipFile@@QAE_NXZ   100441a0 f   UnzipFile.obj
 0001:00043240       ?free_pfile_in_zip_read@unz_s@@QAEXXZ 10044240 f   UnzipFile.obj
 0001:000432f0       ?tell@CUnzipFile@@QAEJXZ   100442f0 f   UnzipFile.obj
 0001:00043360       ?unzlocal_CheckCurrentFileCoherencyHeader@CUnzipFile@@IAEXAAIAAK1@Z 10044360 f   UnzipFile.obj
 0001:00043670       ?unzlocal_DosDateToTmuDate@CUnzipFile@@IAEXAAUunz_file_info@@@Z 10044670 f   UnzipFile.obj
 0001:00043730       ?unzlocal_GetCurrentFileInfoInternal@CUnzipFile@@IAEXAAUunz_file_info@@AAUunz_file_info_internal@@PADKPAXK2K@Z 10044730 f   UnzipFile.obj
 0001:00043b70       ?unzlocal_SearchCentralDir@CUnzipFile@@IAEKXZ 10044b70 f   UnzipFile.obj
 0001:00043e80       ?unzlocal_getByte@CUnzipFile@@IAEXAAH@Z 10044e80 f   UnzipFile.obj
 0001:00043f30       ?unzlocal_getLong@CUnzipFile@@IAEXAAK@Z 10044f30 f   UnzipFile.obj
 0001:00044000       ?unzlocal_getShort@CUnzipFile@@IAEXAAK@Z 10045000 f   UnzipFile.obj
 0001:000440c0       ??0CZipException@@QAE@HPBD_N@Z 100450c0 f   ZipException.obj
 0001:000441d0       ??1CZipException@@UAE@XZ   100451d0 f   ZipException.obj
 0001:00044250       ??_ECZipException@@UAEPAXI@Z 10045250 f i ZipException.obj
 0001:00044250       ??_GCZipException@@UAEPAXI@Z 10045250 f i ZipException.obj
 0001:000442e0       ?AfxThrowZipException@@YAXHPBD_N@Z 100452e0 f   ZipException.obj
 0001:00044400       ?GetRuntimeClass@CZipException@@UBEPAUCRuntimeClass@@XZ 10045400 f   ZipException.obj
 0001:00044440       ?GetThisClass@CZipException@@SGPAUCRuntimeClass@@XZ 10045440 f   ZipException.obj
 0001:00044480       ?ZipErrToCause@CZipException@@SAHH@Z 10045480 f   ZipException.obj
 0001:00044620       ?_GetBaseClass@CZipException@@KGPAUCRuntimeClass@@XZ 10045620 f   ZipException.obj
 0001:00044670       ??0CZipFile@@QAE@PBD_N@Z   10045670 f   ZipFile.obj
 0001:00044750       ??0CZipFile@@QAE@XZ        10045750 f   ZipFile.obj
 0001:00044810       ??0curfile_info@@QAE@XZ    10045810 f   ZipFile.obj
 0001:00044890       ??0linkedlist_data@@QAE@XZ 10045890 f   ZipFile.obj
 0001:000448e0       ??0linkedlist_datablock_internal@@QAE@XZ 100458e0 f   ZipFile.obj
 0001:00044980       ??0zip_fileinfo@@QAE@XZ    10045980 f   ZipFile.obj
 0001:00044a20       ??0zip_internal@@QAE@XZ    10045a20 f   ZipFile.obj
 0001:00044b10       ??1CZipFile@@UAE@XZ        10045b10 f   ZipFile.obj
 0001:00044b80       ??1curfile_info@@QAE@XZ    10045b80 f   ZipFile.obj
 0001:00044c30       ??1linkedlist_data@@QAE@XZ 10045c30 f   ZipFile.obj
 0001:00044cf0       ??1linkedlist_datablock_internal@@QAE@XZ 10045cf0 f   ZipFile.obj
 0001:00044d60       ??1zip_internal@@QAE@XZ    10045d60 f   ZipFile.obj
 0001:00044dd0       ??_GCZipFile@@UAEPAXI@Z    10045dd0 f i ZipFile.obj
 0001:00044dd0       ??_ECZipFile@@UAEPAXI@Z    10045dd0 f i ZipFile.obj
 0001:00044e50       ??_Glinkedlist_datablock_internal@@QAEPAXI@Z 10045e50 f i ZipFile.obj
 0001:00044ec0       ?Close@CZipFile@@QAEXV?$CStringT@DV?$StrTraitMFC_DLL@DV?$ChTraitsCRT@D@ATL@@@@@ATL@@@Z 10045ec0 f   ZipFile.obj
 0001:00045130       ?CloseFileInZip@CZipFile@@QAEXXZ 10046130 f   ZipFile.obj
 0001:000454a0       ?GetDay@CTime@ATL@@QBEHXZ  100464a0 f i ZipFile.obj
 0001:00045580       ?GetHour@CTime@ATL@@QBEHXZ 10046580 f i ZipFile.obj
 0001:00045660       ?GetMinute@CTime@ATL@@QBEHXZ 10046660 f i ZipFile.obj
 0001:00045740       ?GetMonth@CTime@ATL@@QBEHXZ 10046740 f i ZipFile.obj
 0001:00045820       ?GetSecond@CTime@ATL@@QBEHXZ 10046820 f i ZipFile.obj
 0001:00045900       ?GetYear@CTime@ATL@@QBEHXZ 10046900 f i ZipFile.obj
 0001:000459e0       ?Open@CZipFile@@QAEXPBD_N@Z 100469e0 f   ZipFile.obj
 0001:00045bc0       ?OpenNewFileInZip@CZipFile@@QAEXV?$CStringT@DV?$StrTraitMFC_DLL@DV?$ChTraitsCRT@D@ATL@@@@@ATL@@AAUzip_fileinfo@@H0PBXI2IH@Z 10046bc0 f   ZipFile.obj
 0001:000462f0       ?UpdateZipInfo@CZipFile@@QAEXAAUzip_fileinfo@@AAVCFile@@@Z 100472f0 f   ZipFile.obj
 0001:00046440       ?WriteInFileInZip@CZipFile@@QAEXPBXI@Z 10047440 f   ZipFile.obj
 0001:000466d0       ?add_data_in_datablock@linkedlist_data@@QAEXPADK@Z 100476d0 f   ZipFile.obj
 0001:00046920       ?alloc_central_header@curfile_info@@QAEXXZ 10047920 f   ZipFile.obj
 0001:000469d0       ?free_central_header@curfile_info@@QAEXXZ 100479d0 f   ZipFile.obj
 0001:00046a50       ?get_dos_date@zip_fileinfo@@QAEKXZ 10047a50 f   ZipFile.obj
 0001:00046b50       ?write_datablock@linkedlist_data@@QAEHAAVCFile@@@Z 10047b50 f   ZipFile.obj
 0001:00046c10       ?ziplocal_putValue@CZipFile@@IAEXKH@Z 10047c10 f   ZipFile.obj
 0001:00046d00       ?ziplocal_putValue_inmemory@CZipFile@@IAEXEKH@Z 10047d00 f   ZipFile.obj
 0001:00046d90       ??0CZUBaseFile@@QAE@XZ     10047d90 f   ZUBaseFile.obj
 0001:00046e20       ??1CZUBaseFile@@UAE@XZ     10047e20 f   ZUBaseFile.obj
 0001:00046f50       ??_GCZUBaseFile@@UAEPAXI@Z 10047f50 f i ZUBaseFile.obj
 0001:00046f50       ??_ECZUBaseFile@@UAEPAXI@Z 10047f50 f i ZUBaseFile.obj
 0001:00046fc0       ?CheckForError@CZUBaseFile@@IAEXH@Z 10047fc0 f   ZUBaseFile.obj
 0001:00047030       ?IsClosed@CZUBaseFile@@IAE_NXZ 10048030 f   ZUBaseFile.obj
 0001:000470b0       ?ThrowError@CZUBaseFile@@IAEXH@Z 100480b0 f   ZUBaseFile.obj
 0001:000472c0       ?myalloc@CZUBaseFile@@KAPAXPAXII@Z 100482c0 f   ZUBaseFile.obj
 0001:00047350       ?myfree@CZUBaseFile@@KAXPAX0@Z 10048350 f   ZUBaseFile.obj
 0001:000473f0       _adler32                   100483f0 f   adler32.obj
 0001:00047b20       _adler32_combine           10048b20 f   adler32.obj
 0001:00047b80       _adler32_combine64         10048b80 f   adler32.obj
 0001:00047d10       _compress                  10048d10 f   compress.obj
 0001:00047d70       _compress2                 10048d70 f   compress.obj
 0001:00047ee0       _compressBound             10048ee0 f   compress.obj
 0001:00047f30       _crc32                     10048f30 f   crc32.obj
 0001:00048980       _crc32_combine             10049980 f   crc32.obj
 0001:000489e0       _crc32_combine64           100499e0 f   crc32.obj
 0001:000492c0       _get_crc_table             1004a2c0 f   crc32.obj
 0001:0004a8e0       _deflate                   1004b8e0 f   deflate.obj
 0001:0004bcb0       _deflateBound              1004ccb0 f   deflate.obj
 0001:0004bef0       _deflateCopy               1004cef0 f   deflate.obj
 0001:0004c250       _deflateEnd                1004d250 f   deflate.obj
 0001:0004c460       _deflateInit2_             1004d460 f   deflate.obj
 0001:0004c8f0       _deflateInit_              1004d8f0 f   deflate.obj
 0001:0004c960       _deflateParams             1004d960 f   deflate.obj
 0001:0004cb00       _deflatePrime              1004db00 f   deflate.obj
 0001:0004cb90       _deflateReset              1004db90 f   deflate.obj
 0001:0004cd30       _deflateSetDictionary      1004dd30 f   deflate.obj
 0001:0004cfb0       _deflateSetHeader          1004dfb0 f   deflate.obj
 0001:0004d030       _deflateTune               1004e030 f   deflate.obj
 0001:0004e780       __vfprintf_l               1004f780 f i example.obj
 0001:0004e800       _fprintf                   1004f800 f i example.obj
 0001:0004e880       _main                      1004f880 f   example.obj
 0001:0004ebe0       _printf                    1004fbe0 f i example.obj
 0001:0004ec70       _test_compress             1004fc70 f   example.obj
 0001:0004ee40       _test_deflate              1004fe40 f   example.obj
 0001:0004f0e0       _test_dict_deflate         100500e0 f   example.obj
 0001:0004f350       _test_dict_inflate         10050350 f   example.obj
 0001:0004f650       _test_flush                10050650 f   example.obj
 0001:0004f910       _test_gzio                 10050910 f   example.obj
 0001:0004feb0       _test_inflate              10050eb0 f   example.obj
 0001:00050150       _test_large_deflate        10051150 f   example.obj
 0001:00050500       _test_large_inflate        10051500 f   example.obj
 0001:00050780       _test_sync                 10051780 f   example.obj
 0001:00050a60       __vsnprintf_l              10051a60 f i gzio.obj
 0001:00050b10       __vsprintf_l               10051b10 f i gzio.obj
 0001:00051b80       _gzclearerr                10052b80 f   gzio.obj
 0001:00051c20       _gzclose                   10052c20 f   gzio.obj
 0001:00051d00       _gzdirect                  10052d00 f   gzio.obj
 0001:00051d60       _gzdopen                   10052d60 f   gzio.obj
 0001:00051e30       _gzeof                     10052e30 f   gzio.obj
 0001:00051ed0       _gzerror                   10052ed0 f   gzio.obj
 0001:000520e0       _gzflush                   100530e0 f   gzio.obj
 0001:000521a0       _gzgetc                    100531a0 f   gzio.obj
 0001:00052260       _gzgets                    10053260 f   gzio.obj
 0001:00052380       _gzopen                    10053380 f   gzio.obj
 0001:000523e0       _gzprintf                  100533e0 f   gzio.obj
 0001:00052560       _gzputc                    10053560 f   gzio.obj
 0001:00052620       _gzputs                    10053620 f   gzio.obj
 0001:00052690       _gzread                    10053690 f   gzio.obj
 0001:00052be0       _gzrewind                  10053be0 f   gzio.obj
 0001:00052d00       _gzseek                    10053d00 f   gzio.obj
 0001:00053080       _gzsetparams               10054080 f   gzio.obj
 0001:00053170       _gztell                    10054170 f   gzio.obj
 0001:000531d0       _gzungetc                  100541d0 f   gzio.obj
 0001:000532c0       _gzwrite                   100542c0 f   gzio.obj
 0001:00053520       _sprintf                   10054520 f i gzio.obj
 0001:000535a0       _vsnprintf                 100545a0 f i gzio.obj
 0001:000536b0       _inflateBack               100546b0 f   infback.obj
 0001:00055220       _inflateBackEnd            10056220 f   infback.obj
 0001:000552c0       _inflateBackInit_          100562c0 f   infback.obj
 0001:00055460       _inflate_fast              10056460 f   inffast.obj
 0001:000561a0       _inflate                   100571a0 f   inflate.obj
 0001:00058e00       _inflateCopy               10059e00 f   inflate.obj
 0001:00059080       _inflateEnd                1005a080 f   inflate.obj
 0001:00059160       _inflateGetHeader          1005a160 f   inflate.obj
 0001:000591f0       _inflateInit2_             1005a1f0 f   inflate.obj
 0001:00059380       _inflateInit_              1005a380 f   inflate.obj
 0001:000593e0       _inflateMark               1005a3e0 f   inflate.obj
 0001:000594b0       _inflatePrime              1005a4b0 f   inflate.obj
 0001:000595a0       _inflateReset              1005a5a0 f   inflate.obj
 0001:00059720       _inflateReset2             1005a720 f   inflate.obj
 0001:00059860       _inflateSetDictionary      1005a860 f   inflate.obj
 0001:00059a00       _inflateSync               1005aa00 f   inflate.obj
 0001:00059c50       _inflateSyncPoint          1005ac50 f   inflate.obj
 0001:00059ce0       _inflateUndermine          1005ace0 f   inflate.obj
 0001:0005a0c0       _inflate_table             1005b0c0 f   inftrees.obj
 0001:0005aac0       __tr_align                 1005bac0 f   trees.obj
 0001:0005b120       __tr_flush_block           1005c120 f   trees.obj
 0001:0005b610       __tr_init                  1005c610 f   trees.obj
 0001:0005b710       __tr_stored_block          1005c710 f   trees.obj
 0001:0005b8d0       __tr_tally                 1005c8d0 f   trees.obj
 0001:0005f1a0       _uncompress                100601a0 f   uncompr.obj
 0001:0005f320       _zError                    10060320 f   zutil.obj
 0001:0005f370       _zcalloc                   10060370 f   zutil.obj
 0001:0005f3f0       _zcfree                    100603f0 f   zutil.obj
 0001:0005f450       _zlibCompileFlags          10060450 f   zutil.obj
 0001:0005f600       _zlibVersion               10060600 f   zutil.obj
 0001:0005f634       _timeGetTime@0             10060634 f   winmm:WINMM.dll
 0001:0005f63a       ??2@YAPAXI@Z               1006063a f   mfc140d:mfc140d.dll
 0001:0005f640       ??_V@YAXPAX@Z              10060640 f   mfc140d:mfc140d.dll
 0001:0005f646       ?AfxAssertValidObject@@YGXPBVCObject@@PBDH@Z 10060646 f   mfc140d:mfc140d.dll
 0001:0005f64c       ?AfxThrowInvalidArgException@@YGXXZ 1006064c f   mfc140d:mfc140d.dll
 0001:0005f652       ??B?$CSimpleStringT@D$00@ATL@@QBEPBDXZ 10060652 f   mfc140d:mfc140d.dll
 0001:0005f658       ??0?$CStringT@DV?$StrTraitMFC_DLL@DV?$ChTraitsCRT@D@ATL@@@@@ATL@@QAE@XZ 10060658 f   mfc140d:mfc140d.dll
 0001:0005f65e       ??0?$CStringT@DV?$StrTraitMFC_DLL@DV?$ChTraitsCRT@D@ATL@@@@@ATL@@QAE@PBD@Z 1006065e f   mfc140d:mfc140d.dll
 0001:0005f664       ??1?$CStringT@DV?$StrTraitMFC_DLL@DV?$ChTraitsCRT@D@ATL@@@@@ATL@@QAE@XZ 10060664 f   mfc140d:mfc140d.dll
 0001:0005f66a       ??4?$CStringT@DV?$StrTraitMFC_DLL@DV?$ChTraitsCRT@D@ATL@@@@@ATL@@QAEAAV01@ABV01@@Z 1006066a f   mfc140d:mfc140d.dll
 0001:0005f670       ??4?$CStringT@DV?$StrTraitMFC_DLL@DV?$ChTraitsCRT@D@ATL@@@@@ATL@@QAEAAV01@PBD@Z 10060670 f   mfc140d:mfc140d.dll
 0001:0005f676       ??Y?$CStringT@DV?$StrTraitMFC_DLL@DV?$ChTraitsCRT@D@ATL@@@@@ATL@@QAEAAV01@ABV?$CSimpleStringT@D$00@1@@Z 10060676 f   mfc140d:mfc140d.dll
 0001:0005f67c       ??Y?$CStringT@DV?$StrTraitMFC_DLL@DV?$ChTraitsCRT@D@ATL@@@@@ATL@@QAEAAV01@PBD@Z 1006067c f   mfc140d:mfc140d.dll
 0001:0005f682       ?Compare@?$CStringT@DV?$StrTraitMFC_DLL@DV?$ChTraitsCRT@D@ATL@@@@@ATL@@QBEHPBD@Z 10060682 f   mfc140d:mfc140d.dll
 0001:0005f688       ?Format@?$CStringT@DV?$StrTraitMFC_DLL@DV?$ChTraitsCRT@D@ATL@@@@@ATL@@QAAXPBDZZ 10060688 f   mfc140d:mfc140d.dll
 0001:0005f68e       ?AfxIsValidAddress@@YGHPBXIH@Z 1006068e f   mfc140d:mfc140d.dll
 0001:0005f694       ??_U@YAPAXIPBDH@Z          10060694 f   mfc140d:mfc140d.dll
 0001:0005f69a       ?Create@CPlex@@SGPAU1@AAPAU1@II@Z 1006069a f   mfc140d:mfc140d.dll
 0001:0005f6a0       ??$HashKey@PBD@@YGIPBD@Z   100606a0 f   mfc140d:mfc140d.dll
 0001:0005f6a6       ?AfxLoadLibrary@@YGPAUHINSTANCE__@@PBD@Z 100606a6 f   mfc140d:mfc140d.dll
 0001:0005f6ac       ?Lock@CCriticalSection@@QAEHXZ 100606ac f   mfc140d:mfc140d.dll
 0001:0005f6b2       ??3@YAXPAX@Z               100606b2 f   mfc140d:mfc140d.dll
 0001:0005f6b8       ?AfxThrowMemoryException@@YGXXZ 100606b8 f   mfc140d:mfc140d.dll
 0001:0005f6be       ?AfxThrowOleException@@YGXJ@Z 100606be f   mfc140d:mfc140d.dll
 0001:0005f6c4       ??0?$CStringT@DV?$StrTraitMFC_DLL@DV?$ChTraitsCRT@D@ATL@@@@@ATL@@QAE@ABV01@@Z 100606c4 f   mfc140d:mfc140d.dll
 0001:0005f6ca       ?ResumeThread@CWinThread@@QAEKXZ 100606ca f   mfc140d:mfc140d.dll
 0001:0005f6d0       ?AfxBeginThread@@YGPAVCWinThread@@P6AIPAX@Z0HIKPAU_SECURITY_ATTRIBUTES@@@Z 100606d0 f   mfc140d:mfc140d.dll
 0001:0005f6d6       ?AfxMessageBox@@YGHPBDII@Z 100606d6 f   mfc140d:mfc140d.dll
 0001:0005f6dc       ??0CEvent@@QAE@HHPBDPAU_SECURITY_ATTRIBUTES@@@Z 100606dc f   mfc140d:mfc140d.dll
 0001:0005f6e2       ??1CEvent@@UAE@XZ          100606e2 f   mfc140d:mfc140d.dll
 0001:0005f6e8       ??_U@YAPAXI@Z              100606e8 f   mfc140d:mfc140d.dll
 0001:0005f6ee       ?IsKindOf@CObject@@QBEHPBUCRuntimeClass@@@Z 100606ee f   mfc140d:mfc140d.dll
 0001:0005f6f4       ?Delete@CException@@QAEXXZ 100606f4 f   mfc140d:mfc140d.dll
 0001:0005f6fa       ?GetAt@?$CSimpleStringT@D$00@ATL@@QBEDH@Z 100606fa f   mfc140d:mfc140d.dll
 0001:0005f700       ?GetLength@?$CSimpleStringT@D$00@ATL@@QBEHXZ 10060700 f   mfc140d:mfc140d.dll
 0001:0005f706       ?SetAt@?$CSimpleStringT@D$00@ATL@@QAEXHD@Z 10060706 f   mfc140d:mfc140d.dll
 0001:0005f70c       ?StringLength@?$CSimpleStringT@D$00@ATL@@SAHPBD@Z 1006070c f   mfc140d:mfc140d.dll
 0001:0005f712       ?Concatenate@?$CSimpleStringT@D$00@ATL@@KAXAAV12@PBDH1H@Z 10060712 f   mfc140d:mfc140d.dll
 0001:0005f718       ??0?$CStringT@DV?$StrTraitMFC_DLL@DV?$ChTraitsCRT@D@ATL@@@@@ATL@@QAE@PAUIAtlStringMgr@1@@Z 10060718 f   mfc140d:mfc140d.dll
 0001:0005f71e       ?GetManager@?$CStringT@DV?$StrTraitMFC_DLL@DV?$ChTraitsCRT@D@ATL@@@@@ATL@@QBEPAUIAtlStringMgr@2@XZ 1006071e f   mfc140d:mfc140d.dll
 0001:0005f724       ?Mid@?$CStringT@DV?$StrTraitMFC_DLL@DV?$ChTraitsCRT@D@ATL@@@@@ATL@@QBE?AV12@HH@Z 10060724 f   mfc140d:mfc140d.dll
 0001:0005f72a       ?GetThisClass@CFileException@@SGPAUCRuntimeClass@@XZ 1006072a f   mfc140d:mfc140d.dll
 0001:0005f730       ??0CFile@@QAE@PBDI@Z       10060730 f   mfc140d:mfc140d.dll
 0001:0005f736       ?GetStatus@CFile@@SGHPBDAAUCFileStatus@@PAVCAtlTransactionManager@ATL@@@Z 10060736 f   mfc140d:mfc140d.dll
 0001:0005f73c       ?SetStatus@CFile@@SGXPBDABUCFileStatus@@PAVCAtlTransactionManager@ATL@@@Z 1006073c f   mfc140d:mfc140d.dll
 0001:0005f742       ?Write@CFile@@UAEXPBXI@Z   10060742 f   mfc140d:mfc140d.dll
 0001:0005f748       ??1CFile@@UAE@XZ           10060748 f   mfc140d:mfc140d.dll
 0001:0005f74e       ?GetRuntimeClass@CObject@@UBEPAUCRuntimeClass@@XZ 1006074e f   mfc140d:mfc140d.dll
 0001:0005f754       ??1CObject@@UAE@XZ         10060754 f   mfc140d:mfc140d.dll
 0001:0005f75a       ??3CObject@@SGXPAX@Z       1006075a f   mfc140d:mfc140d.dll
 0001:0005f760       ??0CObject@@IAE@XZ         10060760 f   mfc140d:mfc140d.dll
 0001:0005f766       ?Serialize@CObject@@UAEXAAVCArchive@@@Z 10060766 f   mfc140d:mfc140d.dll
 0001:0005f76c       ?AssertValid@CObject@@UBEXXZ 1006076c f   mfc140d:mfc140d.dll
 0001:0005f772       ?Dump@CObject@@UBEXAAVCDumpContext@@@Z 10060772 f   mfc140d:mfc140d.dll
 0001:0005f778       ?IsStoring@CArchive@@QBEHXZ 10060778 f   mfc140d:mfc140d.dll
 0001:0005f77e       ?EnsureRead@CArchive@@QAEXPAXI@Z 1006077e f   mfc140d:mfc140d.dll
 0001:0005f784       ?Write@CArchive@@QAEXPBXI@Z 10060784 f   mfc140d:mfc140d.dll
 0001:0005f78a       ?ReadCount@CArchive@@QAEKXZ 1006078a f   mfc140d:mfc140d.dll
 0001:0005f790       ?WriteCount@CArchive@@QAEXK@Z 10060790 f   mfc140d:mfc140d.dll
 0001:0005f796       ?GetDepth@CDumpContext@@QBEHXZ 10060796 f   mfc140d:mfc140d.dll
 0001:0005f79c       ??6CDumpContext@@QAEAAV0@PBD@Z 1006079c f   mfc140d:mfc140d.dll
 0001:0005f7a2       ??6CDumpContext@@QAEAAV0@H@Z 100607a2 f   mfc140d:mfc140d.dll
 0001:0005f7a8       ?FreeDataChain@CPlex@@QAEXXZ 100607a8 f   mfc140d:mfc140d.dll
 0001:0005f7ae       ??$SerializeElements@V?$CStringT@DV?$StrTraitMFC_DLL@DV?$ChTraitsCRT@D@ATL@@@@@ATL@@@@YGXAAVCArchive@@PAV?$CStringT@DV?$StrTraitMFC_DLL@DV?$ChTraitsCRT@D@ATL@@@@@ATL@@H@Z 100607ae f   mfc140d:mfc140d.dll
 0001:0005f7b4       ??0CCriticalSection@@QAE@XZ 100607b4 f   mfc140d:mfc140d.dll
 0001:0005f7ba       ??1CCriticalSection@@UAE@XZ 100607ba f   mfc140d:mfc140d.dll
 0001:0005f7c0       ?AfxTryCleanup@@YGXXZ      100607c0 f   mfc140d:mfc140d.dll
 0001:0005f7c6       ??0AFX_EXCEPTION_LINK@@QAE@XZ 100607c6 f   mfc140d:mfc140d.dll
 0001:0005f7cc       ??0CFile@@QAE@XZ           100607cc f   mfc140d:mfc140d.dll
 0001:0005f7d2       ??0CByteArray@@QAE@XZ      100607d2 f   mfc140d:mfc140d.dll
 0001:0005f7d8       ?SetSize@CByteArray@@QAEXHH@Z 100607d8 f   mfc140d:mfc140d.dll
 0001:0005f7de       ?GetData@CByteArray@@QAEPAEXZ 100607de f   mfc140d:mfc140d.dll
 0001:0005f7e4       ??ACByteArray@@QAEAAEH@Z   100607e4 f   mfc140d:mfc140d.dll
 0001:0005f7ea       ??1CByteArray@@UAE@XZ      100607ea f   mfc140d:mfc140d.dll
 0001:0005f7f0       ?AfxParseURL@@YGHPBDAAKAAV?$CStringT@DV?$StrTraitMFC_DLL@DV?$ChTraitsCRT@D@ATL@@@@@ATL@@2AAG@Z 100607f0 f   mfc140d:mfc140d.dll
 0001:0005f7f6       ?GetSafeHdc@CDC@@QBEPAUHDC__@@XZ 100607f6 f   mfc140d:mfc140d.dll
 0001:0005f7fc       ??0CDC@@QAE@XZ             100607fc f   mfc140d:mfc140d.dll
 0001:0005f802       ?CreateCompatibleDC@CDC@@QAEHPAV1@@Z 10060802 f   mfc140d:mfc140d.dll
 0001:0005f808       ??1CDC@@UAE@XZ             10060808 f   mfc140d:mfc140d.dll
 0001:0005f80e       ?SelectObject@CDC@@QAEPAXPAX@Z 1006080e f   mfc140d:mfc140d.dll
 0001:0005f814       ??Y?$CStringT@DV?$StrTraitMFC_DLL@DV?$ChTraitsCRT@D@ATL@@@@@ATL@@QAEAAV01@D@Z 10060814 f   mfc140d:mfc140d.dll
 0001:0005f81a       ?CompareNoCase@?$CStringT@DV?$StrTraitMFC_DLL@DV?$ChTraitsCRT@D@ATL@@@@@ATL@@QBEHPBD@Z 1006081a f   mfc140d:mfc140d.dll
 0001:0005f820       ??0CFileFind@@QAE@XZ       10060820 f   mfc140d:mfc140d.dll
 0001:0005f826       ??1CFileFind@@UAE@XZ       10060826 f   mfc140d:mfc140d.dll
 0001:0005f82c       ?GetFileName@CFileFind@@UBE?AV?$CStringT@DV?$StrTraitMFC_DLL@DV?$ChTraitsCRT@D@ATL@@@@@ATL@@XZ 1006082c f   mfc140d:mfc140d.dll
 0001:0005f832       ?IsDirectory@CFileFind@@QBEHXZ 10060832 f   mfc140d:mfc140d.dll
 0001:0005f838       ?Close@CFileFind@@QAEXXZ   10060838 f   mfc140d:mfc140d.dll
 0001:0005f83e       ?FindFile@CFileFind@@UAEHPBDK@Z 1006083e f   mfc140d:mfc140d.dll
 0001:0005f844       ?FindNextFileA@CFileFind@@UAEHXZ 10060844 f   mfc140d:mfc140d.dll
 0001:0005f84a       ??0CStringArray@@QAE@XZ    1006084a f   mfc140d:mfc140d.dll
 0001:0005f850       ?GetSize@CStringArray@@QBEHXZ 10060850 f   mfc140d:mfc140d.dll
 0001:0005f856       ?RemoveAll@CStringArray@@QAEXXZ 10060856 f   mfc140d:mfc140d.dll
 0001:0005f85c       ?GetAt@CStringArray@@QBEABV?$CStringT@DV?$StrTraitMFC_DLL@DV?$ChTraitsCRT@D@ATL@@@@@ATL@@H@Z 1006085c f   mfc140d:mfc140d.dll
 0001:0005f862       ?Add@CStringArray@@QAEHABV?$CStringT@DV?$StrTraitMFC_DLL@DV?$ChTraitsCRT@D@ATL@@@@@ATL@@@Z 10060862 f   mfc140d:mfc140d.dll
 0001:0005f868       ??1CStringArray@@UAE@XZ    10060868 f   mfc140d:mfc140d.dll
 0001:0005f86e       ?AfxGetResourceHandle@@YGPAUHINSTANCE__@@XZ 1006086e f   mfc140d:mfc140d.dll
 0001:0005f874       ?Open@CFile@@UAEHPBDIPAVCFileException@@@Z 10060874 f   mfc140d:mfc140d.dll
 0001:0005f87a       ?GetLength@CFile@@UBE_KXZ  1006087a f   mfc140d:mfc140d.dll
 0001:0005f880       ?Read@CFile@@UAEIPAXI@Z    10060880 f   mfc140d:mfc140d.dll
 0001:0005f886       ?Close@CFile@@UAEXXZ       10060886 f   mfc140d:mfc140d.dll
 0001:0005f88c       ??2CObject@@SGPAXIPBDH@Z   1006088c f   mfc140d:mfc140d.dll
 0001:0005f892       ?AfxGetModuleState@@YGPAVAFX_MODULE_STATE@@XZ 10060892 f   mfc140d:mfc140d.dll
 0001:0005f898       ??0CDynLinkLibrary@@QAE@AAUAFX_EXTENSION_MODULE@@H@Z 10060898 f   mfc140d:mfc140d.dll
 0001:0005f89e       ?AfxInitExtensionModule@@YGHAAUAFX_EXTENSION_MODULE@@PAUHINSTANCE__@@@Z 1006089e f   mfc140d:mfc140d.dll
 0001:0005f8a4       ?AfxTermExtensionModule@@YGXAAUAFX_EXTENSION_MODULE@@H@Z 100608a4 f   mfc140d:mfc140d.dll
 0001:0005f8aa       ??2CObject@@SGPAXI@Z       100608aa f   mfc140d:mfc140d.dll
 0001:0005f8b0       ??3CException@@SGXPAX@Z    100608b0 f   mfc140d:mfc140d.dll
 0001:0005f8b6       ?Collate@?$CStringT@DV?$StrTraitMFC_DLL@DV?$ChTraitsCRT@D@ATL@@@@@ATL@@QBEHPBD@Z 100608b6 f   mfc140d:mfc140d.dll
 0001:0005f8bc       ?CollateNoCase@?$CStringT@DV?$StrTraitMFC_DLL@DV?$ChTraitsCRT@D@ATL@@@@@ATL@@QBEHPBD@Z 100608bc f   mfc140d:mfc140d.dll
 0001:0005f8c2       ??0CFileException@@QAE@HJPBD@Z 100608c2 f   mfc140d:mfc140d.dll
 0001:0005f8c8       ?GetThisClass@CException@@SGPAUCRuntimeClass@@XZ 100608c8 f   mfc140d:mfc140d.dll
 0001:0005f8ce       ??0CException@@QAE@H@Z     100608ce f   mfc140d:mfc140d.dll
 0001:0005f8d4       ?GetErrorMessage@CException@@UBEHPADIPAI@Z 100608d4 f   mfc140d:mfc140d.dll
 0001:0005f8da       ?GetErrorMessage@CException@@UAEHPADIPAI@Z 100608da f   mfc140d:mfc140d.dll
 0001:0005f8e0       ?ReportError@CException@@UAEHII@Z 100608e0 f   mfc140d:mfc140d.dll
 0001:0005f8e6       ??1CException@@UAE@XZ      100608e6 f   mfc140d:mfc140d.dll
 0001:0005f8ec       ?IsEmpty@?$CSimpleStringT@D$00@ATL@@QBE_NXZ 100608ec f   mfc140d:mfc140d.dll
 0001:0005f8f2       ?GetStatus@CFile@@QBEHAAUCFileStatus@@@Z 100608f2 f   mfc140d:mfc140d.dll
 0001:0005f8f8       ?SeekToEnd@CFile@@QAE_KXZ  100608f8 f   mfc140d:mfc140d.dll
 0001:0005f8fe       ??0CPtrList@@QAE@H@Z       100608fe f   mfc140d:mfc140d.dll
 0001:0005f904       ?GetCount@CPtrList@@QBEHXZ 10060904 f   mfc140d:mfc140d.dll
 0001:0005f90a       ?AddTail@CPtrList@@QAEPAU__POSITION@@PAX@Z 1006090a f   mfc140d:mfc140d.dll
 0001:0005f910       ?GetHeadPosition@CPtrList@@QBEPAU__POSITION@@XZ 10060910 f   mfc140d:mfc140d.dll
 0001:0005f916       ?GetNext@CPtrList@@QAEAAPAXAAPAU__POSITION@@@Z 10060916 f   mfc140d:mfc140d.dll
 0001:0005f91c       ?RemoveAt@CPtrList@@QAEXPAU__POSITION@@@Z 1006091c f   mfc140d:mfc140d.dll
 0001:0005f922       ?Find@CPtrList@@QBEPAU__POSITION@@PAXPAU2@@Z 10060922 f   mfc140d:mfc140d.dll
 0001:0005f928       ??1CPtrList@@UAE@XZ        10060928 f   mfc140d:mfc140d.dll
 0001:0005f930       ??0?$CHeapPtr@_WVCCRTAllocator@ATL@@@ATL@@QAE@XZ 10060930 f i mfcs140d:nolib.obj
 0001:0005f960       ??0?$CHeapPtrBase@_WVCCRTAllocator@ATL@@@ATL@@IAE@XZ 10060960 f i mfcs140d:nolib.obj
 0001:0005f990       ??1?$CHeapPtr@_WVCCRTAllocator@ATL@@@ATL@@QAE@XZ 10060990 f i mfcs140d:nolib.obj
 0001:0005f9c0       ??1?$CHeapPtrBase@_WVCCRTAllocator@ATL@@@ATL@@QAE@XZ 100609c0 f i mfcs140d:nolib.obj
 0001:0005f9f0       ??1CComBSTR@ATL@@QAE@XZ    100609f0 f i mfcs140d:nolib.obj
 0001:0005fa30       ??1stringdispid@CComTypeInfoHolder@ATL@@QAE@XZ 10060a30 f i mfcs140d:nolib.obj
 0001:0005fa60       ??B?$CHeapPtrBase@_WVCCRTAllocator@ATL@@@ATL@@QBEPA_WXZ 10060a60 f i mfcs140d:nolib.obj
 0001:0005fa80       ??_Estringdispid@CComTypeInfoHolder@ATL@@QAEPAXI@Z 10060a80 f i mfcs140d:nolib.obj
 0001:0005fb60       ?Allocate@?$CHeapPtr@_WVCCRTAllocator@ATL@@@ATL@@QAE_NI@Z 10060b60 f i mfcs140d:nolib.obj
 0001:0005fc10       ?AllocateBytes@?$CHeapPtrBase@_WVCCRTAllocator@ATL@@@ATL@@QAE_NI@Z 10060c10 f i mfcs140d:nolib.obj
 0001:0005fcb0       ?Free@?$CHeapPtrBase@_WVCCRTAllocator@ATL@@@ATL@@QAEXXZ 10060cb0 f i mfcs140d:nolib.obj
 0001:0005fcf0       ?GetCategoryName@CTrace@ATL@@CAPA_WI@Z 10060cf0 f i mfcs140d:nolib.obj
 0001:0005fd60       ?TraceV@CTrace@ATL@@CAXPBDHIIPB_W@Z 10060d60 f i mfcs140d:nolib.obj
 0001:000600a0       _IsolationAwareActivateActCtx@8 100610a0 f i mfcs140d:nolib.obj
 0001:00060160       _IsolationAwareCreateActCtxW@4 10061160 f i mfcs140d:nolib.obj
 0001:00060220       _IsolationAwareDeactivateActCtx@8 10061220 f i mfcs140d:nolib.obj
 0001:000602e0       _IsolationAwareFindActCtxSectionStringW@20 100612e0 f i mfcs140d:nolib.obj
 0001:000603b0       _IsolationAwarePrivatenPgViNgRzlnPgpgk@4 100613b0 f i mfcs140d:nolib.obj
 0001:000604d0       _IsolationAwarePrivatezltRgCebPnQQeRff@12 100614d0 f i mfcs140d:nolib.obj
 0001:000605a0       _IsolationAwarePrivatezltRgzbQhYRuNaQYRJ@4 100615a0 f i mfcs140d:nolib.obj
 0001:000605d0       _IsolationAwarePrivatezltRgzbQhYRuNaQYRn@4 100615d0 f i mfcs140d:nolib.obj
 0001:00060600       _IsolationAwareQueryActCtxW@28 10061600 f i mfcs140d:nolib.obj
 0001:000606e0       _IsolationAwareUnregisterClassA@8 100616e0 f i mfcs140d:nolib.obj
 0001:000608f0       _WinbaseIsolationAwarePrivatetRgCebPnQQeRff_xReaRYQP_QYY@4 100618f0 f i mfcs140d:nolib.obj
 0001:00060920       _WinbaseIsolationAwarePrivatetRgzlnPgpgk@0 10061920 f i mfcs140d:nolib.obj
 0001:00060d70       ??_M@YGXPAXIHP6EX0@Z@Z     10061d70 f   msvcrtd:ehvecdtr.obj
 0001:00060da0       ??_M@YGXPAXIIP6EX0@Z@Z     10061da0 f   msvcrtd:ehvecdtr.obj
 0001:00060ee0       ?__ArrayUnwind@@YGXPAXIIP6EX0@Z@Z 10061ee0 f   msvcrtd:ehvecdtr.obj
 0001:00060fc0       ??3@YAXPAXI@Z              10061fc0 f   msvcrtd:delete_scalar_size.obj
 0001:00060fe0       ??_V@YAXPAXI@Z             10061fe0 f   msvcrtd:delete_array_size.obj
 0001:00061000       ??$__crt_fast_decode_pointer@PAP6AXXZ@@YAPAP6AXXZQAP6AXXZ@Z 10062000 f i msvcrtd:utility.obj
 0001:00061030       ??$__crt_fast_encode_pointer@PAP6AXXZ@@YAPAP6AXXZQAP6AXXZ@Z 10062030 f i msvcrtd:utility.obj
 0001:00061070       ?__crt_rotate_pointer_value@@YAIIH@Z 10062070 f i msvcrtd:utility.obj
 0001:00061080       ?configure_argv@__scrt_narrow_argv_policy@@SAHXZ 10062080 f i msvcrtd:utility.obj
 0001:00061150       ?initialize_environment@__scrt_narrow_environment_policy@@SAHXZ 10062150 f i msvcrtd:utility.obj
 0001:000611f0       _NtCurrentTeb              100621f0 f i msvcrtd:utility.obj
 0001:00061200       ___scrt_acquire_startup_lock 10062200 f   msvcrtd:utility.obj
 0001:00061260       ___scrt_dllmain_after_initialize_c 10062260 f   msvcrtd:utility.obj
 0001:000612a0       ___scrt_dllmain_before_initialize_c 100622a0 f   msvcrtd:utility.obj
 0001:000612d0       ___scrt_dllmain_crt_thread_attach 100622d0 f   msvcrtd:utility.obj
 0001:00061310       ___scrt_dllmain_crt_thread_detach 10062310 f   msvcrtd:utility.obj
 0001:00061330       ___scrt_dllmain_exception_filter 10062330 f   msvcrtd:utility.obj
 0001:00061390       ___scrt_dllmain_uninitialize_c 10062390 f   msvcrtd:utility.obj
 0001:000613d0       ___scrt_dllmain_uninitialize_critical 100623d0 f   msvcrtd:utility.obj
 0001:000613f0       ___scrt_initialize_crt     100623f0 f   msvcrtd:utility.obj
 0001:00061450       ___scrt_initialize_onexit_tables 10062450 f   msvcrtd:utility.obj
 0001:00061570       ___scrt_is_nonwritable_in_current_image 10062570 f   msvcrtd:utility.obj
 0001:000616f0       ___scrt_release_startup_lock 100626f0 f   msvcrtd:utility.obj
 0001:00061720       ___scrt_uninitialize_crt   10062720 f   msvcrtd:utility.obj
 0001:00061770       __onexit                   10062770 f   msvcrtd:utility.obj
 0001:00061800       _at_quick_exit             10062800 f   msvcrtd:utility.obj
 0001:00061860       _atexit                    10062860 f   msvcrtd:utility.obj
 0001:000618e0       ??$__crt_fast_decode_pointer@P6GHPAU_RTL_CONDITION_VARIABLE@@PAU_RTL_CRITICAL_SECTION@@K@Z@@YAP6GHPAU_RTL_CONDITION_VARIABLE@@PAU_RTL_CRITICAL_SECTION@@K@ZQ6GH01K@Z@Z 100628e0 f i msvcrtd:thread_safe_statics.obj
 0001:00061910       ??$__crt_fast_decode_pointer@P6GXPAU_RTL_CONDITION_VARIABLE@@@Z@@YAP6GXPAU_RTL_CONDITION_VARIABLE@@@ZQ6GX0@Z@Z 10062910 f i msvcrtd:thread_safe_statics.obj
 0001:00061940       ??$__crt_fast_encode_pointer@P6GHPAU_RTL_CONDITION_VARIABLE@@PAU_RTL_CRITICAL_SECTION@@K@Z@@YAP6GHPAU_RTL_CONDITION_VARIABLE@@PAU_RTL_CRITICAL_SECTION@@K@ZQ6GH01K@Z@Z 10062940 f i msvcrtd:thread_safe_statics.obj
 0001:00061980       ??$__crt_fast_encode_pointer@P6GXPAU_RTL_CONDITION_VARIABLE@@@Z@@YAP6GXPAU_RTL_CONDITION_VARIABLE@@@ZQ6GX0@Z@Z 10062980 f i msvcrtd:thread_safe_statics.obj
 0001:00061b30       ?__scrt_is_event_api_used@@YA_NQAX@Z 10062b30 f i msvcrtd:thread_safe_statics.obj
 0001:00061be0       __Init_thread_abort        10062be0 f   msvcrtd:thread_safe_statics.obj
 0001:00061c10       __Init_thread_footer       10062c10 f   msvcrtd:thread_safe_statics.obj
 0001:00061c70       __Init_thread_header       10062c70 f   msvcrtd:thread_safe_statics.obj
 0001:00061d00       __Init_thread_lock         10062d00 f   msvcrtd:thread_safe_statics.obj
 0001:00061d20       __Init_thread_notify       10062d20 f   msvcrtd:thread_safe_statics.obj
 0001:00061da0       __Init_thread_unlock       10062da0 f   msvcrtd:thread_safe_statics.obj
 0001:00061dc0       __Init_thread_wait         10062dc0 f   msvcrtd:thread_safe_statics.obj
 0001:00061e80       @_RTC_AllocaHelper@12      10062e80 f   msvcrtd:stack.obj
 0001:00061ec0       @_RTC_CheckStackVars2@12   10062ec0 f   msvcrtd:stack.obj
 0001:00061fe0       @_RTC_CheckStackVars@8     10062fe0 f   msvcrtd:stack.obj
 0001:00062060       __RTC_CheckEsp             10063060 f   msvcrtd:stack.obj
 0001:000620a0       @__security_check_cookie@4 100630a0 f   msvcrtd:secchk.obj
 0001:000620c0       __CRT_RTC_INIT             100630c0 f   msvcrtd:init.obj
 0001:000620d0       __CRT_RTC_INITW            100630d0 f   msvcrtd:init.obj
 0001:000620e0       __RTC_InitBase             100630e0 f   msvcrtd:init.obj
 0001:00062120       __RTC_Shutdown             10063120 f   msvcrtd:init.obj
 0001:00062140       ??1type_info@@UAE@XZ       10063140 f   msvcrtd:std_type_info_static.obj
 0001:00062160       ??_Etype_info@@UAEPAXI@Z   10063160 f i msvcrtd:std_type_info_static.obj
 0001:00062160       ??_Gtype_info@@UAEPAXI@Z   10063160 f i msvcrtd:std_type_info_static.obj
 0001:000621a0       __chkstk                   100631a0 f   msvcrtd:chkstk.obj
 0001:000621a0       __alloca_probe             100631a0 f   msvcrtd:chkstk.obj
 0001:000621e0       ??_L@YGXPAXIHP6EX0@Z1@Z    100631e0 f   msvcrtd:ehvecctr.obj
 0001:00062210       ??_L@YGXPAXIIP6EX0@Z1@Z    10063210 f   msvcrtd:ehvecctr.obj
 0001:00062300       __alldiv                   10063300 f   msvcrtd:lldiv.obj
 0001:00062490       ?_RTC_AllocaFailure@@YAXPAXPAU_RTC_ALLOCA_NODE@@H@Z 10063490 f   msvcrtd:error.obj
 0001:000625b0       ?_RTC_Failure@@YAXPAXH@Z   100635b0 f   msvcrtd:error.obj
 0001:00062620       ?_RTC_StackFailure@@YAXPAXPBD@Z 10063620 f   msvcrtd:error.obj
 0001:00062ad0       __RTC_UninitUse            10063ad0 f   msvcrtd:error.obj
 0001:00062bb0       __vsprintf_s_l             10063bb0 f i msvcrtd:error.obj
 0001:00062bf0       _sprintf_s                 10063bf0 f i msvcrtd:error.obj
 0001:00062c20       ___raise_securityfailure   10063c20 f   msvcrtd:gs_report.obj
 0001:00062c60       ___report_gsfailure        10063c60 f   msvcrtd:gs_report.obj
 0001:00062db0       ___report_rangecheckfailure 10063db0 f   msvcrtd:gs_report.obj
 0001:00062dc0       ___report_securityfailure  10063dc0 f   msvcrtd:gs_report.obj
 0001:00062ed0       ___report_securityfailureEx 10063ed0 f   msvcrtd:gs_report.obj
 0001:00063600       __CRT_INIT@12              10064600 f   msvcrtd:dll_dllmain.obj
 0001:00063620       __DllMainCRTStartup@12     10064620 f   msvcrtd:dll_dllmain.obj
 0001:00063650       __except_handler4          10064650 f   msvcrtd:chandler4gs.obj
 0001:00063680       @_guard_check_icall_nop@4  10064680 f i msvcrtd:guard_support.obj
 0001:00063690       _ReadNoFence               10064690 f i msvcrtd:guard_support.obj
 0001:000636b0       _ReadPointerNoFence        100646b0 f i msvcrtd:guard_support.obj
 0001:000636d0       __guard_icall_checks_enforced 100646d0 f i msvcrtd:guard_support.obj
 0001:00063710       ___isa_available_init      10064710 f   msvcrtd:cpu_disp.obj
 0001:00063aa0       __get_startup_argv_mode    10064aa0 f   msvcrtd:argv_mode.obj
 0001:00063ab0       ___scrt_is_ucrt_dll_in_use 10064ab0 f   msvcrtd:ucrt_detection.obj
 0001:00063ae0       ___scrt_fastfail           10064ae0 f   msvcrtd:utility_desktop.obj
 0001:00063c70       ___scrt_get_show_window_mode 10064c70 f   msvcrtd:utility_desktop.obj
 0001:00063cc0       ___scrt_initialize_mta     10064cc0 f   msvcrtd:utility_desktop.obj
 0001:00063cd0       ___scrt_initialize_winrt   10064cd0 f   msvcrtd:utility_desktop.obj
 0001:00063ce0       ___scrt_is_managed_app     10064ce0 f   msvcrtd:utility_desktop.obj
 0001:00063d90       ___scrt_set_unhandled_exception_filter 10064d90 f   msvcrtd:utility_desktop.obj
 0001:00063db0       ___scrt_stub_for_initialize_mta 10064db0 f   msvcrtd:utility_desktop.obj
 0001:00063db0       ___scrt_exe_initialize_mta 10064db0 f   msvcrtd:utility_desktop.obj
 0001:00063dc0       ___scrt_unhandled_exception_filter@4 10064dc0 f   msvcrtd:utility_desktop.obj
 0001:00063e40       __crt_debugger_hook        10064e40 f   msvcrtd:utility_desktop.obj
 0001:00063e60       ?_RTC_GetErrorFunc@@YAP6AHHPBDH00ZZPBX@Z 10064e60 f   msvcrtd:userapi.obj
 0001:00063e70       ?_RTC_GetErrorFuncW@@YAP6AHHPB_WH00ZZPBX@Z 10064e70 f   msvcrtd:userapi.obj
 0001:00063e80       __RTC_GetErrDesc           10064e80 f   msvcrtd:userapi.obj
 0001:00063ea0       __RTC_NumErrors            10064ea0 f   msvcrtd:userapi.obj
 0001:00063eb0       __RTC_SetErrorFunc         10064eb0 f   msvcrtd:userapi.obj
 0001:00063ee0       __RTC_SetErrorFuncW        10064ee0 f   msvcrtd:userapi.obj
 0001:00063f10       __RTC_SetErrorType         10064f10 f   msvcrtd:userapi.obj
 0001:000644d0       ?_RTC_GetSrcLine@@YAHPAEPA_WKPAH1K@Z 100654d0 f   msvcrtd:pdblkup.obj
 0001:00064940       __except_handler4_noexcept 10065940 f   msvcrtd:chandler4_noexcept.obj
 0001:00064a30       ___security_init_cookie    10065a30 f   msvcrtd:gs_support.obj
 0001:00064ad0       ?__scrt_initialize_type_info@@YAXXZ 10065ad0 f   msvcrtd:tncleanup.obj
 0001:00064af0       ?__scrt_uninitialize_type_info@@YAXXZ 10065af0 f   msvcrtd:tncleanup.obj
 0001:00064b10       ___local_stdio_scanf_options 10065b10 f i msvcrtd:default_local_stdio_options.obj
 0001:00064b20       ___scrt_initialize_default_local_stdio_options 10065b20 f   msvcrtd:default_local_stdio_options.obj
 0001:00064b70       ___scrt_get_dyn_tls_init_callback 10065b70 f   msvcrtd:dyn_tls_init.obj
 0001:00064b80       __RTC_Initialize           10065b80 f   msvcrtd:initsect.obj
 0001:00064bc0       __RTC_Terminate            10065bc0 f   msvcrtd:initsect.obj
 0001:00064bf9       _FreeResource@4            10065bf9 f   kernel32:KERNEL32.dll
 0001:00064bff       _LockResource@4            10065bff f   kernel32:KERNEL32.dll
 0001:00064c05       _GetProcAddress@8          10065c05 f   kernel32:KERNEL32.dll
 0001:00064c0b       _GlobalAlloc@8             10065c0b f   kernel32:KERNEL32.dll
 0001:00064c11       _GlobalLock@4              10065c11 f   kernel32:KERNEL32.dll
 0001:00064c17       _GlobalUnlock@4            10065c17 f   kernel32:KERNEL32.dll
 0001:00064c1d       _GlobalFree@4              10065c1d f   kernel32:KERNEL32.dll
 0001:00064c23       _LoadResource@8            10065c23 f   kernel32:KERNEL32.dll
 0001:00064c29       _SizeofResource@8          10065c29 f   kernel32:KERNEL32.dll
 0001:00064c2f       _GetModuleHandleA@4        10065c2f f   kernel32:KERNEL32.dll
 0001:00064c35       _FindResourceA@12          10065c35 f   kernel32:KERNEL32.dll
 0001:00064c3b       _TerminateThread@8         10065c3b f   kernel32:KERNEL32.dll
 0001:00064c41       _GetLastError@0            10065c41 f   kernel32:KERNEL32.dll
 0001:00064c47       _SetLastError@4            10065c47 f   kernel32:KERNEL32.dll
 0001:00064c4d       _WaitForSingleObject@8     10065c4d f   kernel32:KERNEL32.dll
 0001:00064c53       _Sleep@4                   10065c53 f   kernel32:KERNEL32.dll
 0001:00064c59       _MultiByteToWideChar@24    10065c59 f   kernel32:KERNEL32.dll
 0001:00064c5f       _FindClose@4               10065c5f f   kernel32:KERNEL32.dll
 0001:00064c65       _SetCurrentDirectoryA@4    10065c65 f   kernel32:KERNEL32.dll
 0001:00064c6b       _GetCurrentDirectoryA@8    10065c6b f   kernel32:KERNEL32.dll
 0001:00064c71       _CreateDirectoryA@8        10065c71 f   kernel32:KERNEL32.dll
 0001:00064c77       _RemoveDirectoryA@4        10065c77 f   kernel32:KERNEL32.dll
 0001:00064c7d       _DeleteFileA@4             10065c7d f   kernel32:KERNEL32.dll
 0001:00064c83       _FindFirstFileA@8          10065c83 f   kernel32:KERNEL32.dll
 0001:00064c89       _ResumeThread@4            10065c89 f   kernel32:KERNEL32.dll
 0001:00064c8f       _SetEvent@4                10065c8f f   kernel32:KERNEL32.dll
 0001:00064c95       _ResetEvent@4              10065c95 f   kernel32:KERNEL32.dll
 0001:00064c9b       _CloseHandle@4             10065c9b f   kernel32:KERNEL32.dll
 0001:00064ca1       _CreateEventA@16           10065ca1 f   kernel32:KERNEL32.dll
 0001:00064ca7       _DecodePointer@4           10065ca7 f   kernel32:KERNEL32.dll
 0001:00064cad       _HeapDestroy@4             10065cad f   kernel32:KERNEL32.dll
 0001:00064cb3       _HeapAlloc@12              10065cb3 f   kernel32:KERNEL32.dll
 0001:00064cb9       _HeapReAlloc@16            10065cb9 f   kernel32:KERNEL32.dll
 0001:00064cbf       _HeapFree@12               10065cbf f   kernel32:KERNEL32.dll
 0001:00064cc5       _HeapSize@12               10065cc5 f   kernel32:KERNEL32.dll
 0001:00064ccb       _GetProcessHeap@0          10065ccb f   kernel32:KERNEL32.dll
 0001:00064cd1       _RaiseException@16         10065cd1 f   kernel32:KERNEL32.dll
 0001:00064cd7       _InitializeCriticalSectionAndSpinCount@8 10065cd7 f   kernel32:KERNEL32.dll
 0001:00064cdd       _DeleteCriticalSection@4   10065cdd f   kernel32:KERNEL32.dll
 0001:00064ce3       _SetFileAttributesA@8      10065ce3 f   kernel32:KERNEL32.dll
 0001:00064ce9       _GetFileAttributesA@4      10065ce9 f   kernel32:KERNEL32.dll
 0001:00064cef       _OutputDebugStringA@4      10065cef f   kernel32:KERNEL32.dll
 0001:00064cf5       _GetModuleFileNameW@12     10065cf5 f   kernel32:KERNEL32.dll
 0001:00064cfb       _GetModuleHandleW@4        10065cfb f   kernel32:KERNEL32.dll
 0001:00064d01       _LoadLibraryW@4            10065d01 f   kernel32:KERNEL32.dll
 0001:00064d07       _EnterCriticalSection@4    10065d07 f   kernel32:KERNEL32.dll
 0001:00064d0d       _LeaveCriticalSection@4    10065d0d f   kernel32:KERNEL32.dll
 0001:00064d13       _WaitForSingleObjectEx@12  10065d13 f   kernel32:KERNEL32.dll
 0001:00064d19       _CreateEventW@16           10065d19 f   kernel32:KERNEL32.dll
 0001:00064d1f       _IsDebuggerPresent@0       10065d1f f   kernel32:KERNEL32.dll
 0001:00064d25       _WideCharToMultiByte@32    10065d25 f   kernel32:KERNEL32.dll
 0001:00064d2b       _UnhandledExceptionFilter@4 10065d2b f   kernel32:KERNEL32.dll
 0001:00064d31       _SetUnhandledExceptionFilter@4 10065d31 f   kernel32:KERNEL32.dll
 0001:00064d37       _GetCurrentProcess@0       10065d37 f   kernel32:KERNEL32.dll
 0001:00064d3d       _TerminateProcess@8        10065d3d f   kernel32:KERNEL32.dll
 0001:00064d43       _IsProcessorFeaturePresent@4 10065d43 f   kernel32:KERNEL32.dll
 0001:00064d49       _GetStartupInfoW@4         10065d49 f   kernel32:KERNEL32.dll
 0001:00064d4f       _VirtualQuery@12           10065d4f f   kernel32:KERNEL32.dll
 0001:00064d55       _FreeLibrary@4             10065d55 f   kernel32:KERNEL32.dll
 0001:00064d5b       _QueryPerformanceCounter@4 10065d5b f   kernel32:KERNEL32.dll
 0001:00064d61       _GetCurrentProcessId@0     10065d61 f   kernel32:KERNEL32.dll
 0001:00064d67       _GetCurrentThreadId@0      10065d67 f   kernel32:KERNEL32.dll
 0001:00064d6d       _GetSystemTimeAsFileTime@4 10065d6d f   kernel32:KERNEL32.dll
 0001:00064d73       _InitializeSListHead@4     10065d73 f   kernel32:KERNEL32.dll
 0001:00064d79       _wsprintfA                 10065d79 f   user32:USER32.dll
 0001:00064d7f       _PeekMessageA@20           10065d7f f   user32:USER32.dll
 0001:00064d85       _PostQuitMessage@4         10065d85 f   user32:USER32.dll
 0001:00064d8b       _MessageBoxA@16            10065d8b f   user32:USER32.dll
 0001:00064d91       _SendMessageA@16           10065d91 f   user32:USER32.dll
 0001:00064d97       _InvalidateRect@12         10065d97 f   user32:USER32.dll
 0001:00064d9d       _FillRect@12               10065d9d f   user32:USER32.dll
 0001:00064da3       _SetRect@20                10065da3 f   user32:USER32.dll
 0001:00064da9       _CopyRect@8                10065da9 f   user32:USER32.dll
 0001:00064daf       _UnregisterClassA@8        10065daf f   user32:USER32.dll
 0001:00064db5       _GetActiveWindow@0         10065db5 f   user32:USER32.dll
 0001:00064dbb       _GetDC@4                   10065dbb f   user32:USER32.dll
 0001:00064dc1       _ReleaseDC@8               10065dc1 f   user32:USER32.dll
 0001:00064dc7       _GetClientRect@8           10065dc7 f   user32:USER32.dll
 0001:00064dcd       _BitBlt@36                 10065dcd f   gdi32:GDI32.dll
 0001:00064dd3       _CreateBitmap@20           10065dd3 f   gdi32:GDI32.dll
 0001:00064dd9       _CreateCompatibleDC@4      10065dd9 f   gdi32:GDI32.dll
 0001:00064ddf       _DeleteDC@4                10065ddf f   gdi32:GDI32.dll
 0001:00064de5       _DeleteObject@4            10065de5 f   gdi32:GDI32.dll
 0001:00064deb       _SelectObject@8            10065deb f   gdi32:GDI32.dll
 0001:00064df1       _SetBkColor@8              10065df1 f   gdi32:GDI32.dll
 0001:00064df7       _SetTextColor@8            10065df7 f   gdi32:GDI32.dll
 0001:00064dfd       _CreateCompatibleBitmap@12 10065dfd f   gdi32:GDI32.dll
 0001:00064e03       _CreateSolidBrush@4        10065e03 f   gdi32:GDI32.dll
 0001:00064e09       _CreatePalette@4           10065e09 f   gdi32:GDI32.dll
 0001:00064e0f       _FloodFill@16              10065e0f f   gdi32:GDI32.dll
 0001:00064e15       _RealizePalette@4          10065e15 f   gdi32:GDI32.dll
 0001:00064e1b       _SelectPalette@12          10065e1b f   gdi32:GDI32.dll
 0001:00064e21       _StretchDIBits@52          10065e21 f   gdi32:GDI32.dll
 0001:00064e27       _CreateDIBSection@24       10065e27 f   gdi32:GDI32.dll
 0001:00064e2d       _RegCloseKey@4             10065e2d f   advapi32:ADVAPI32.dll
 0001:00064e33       _RegOpenKeyExA@20          10065e33 f   advapi32:ADVAPI32.dll
 0001:00064e39       _RegQueryValueExA@24       10065e39 f   advapi32:ADVAPI32.dll
 0001:00064e3f       ??$?2PAUHINSTANCE__@@@Wrapper@?$CSimpleArray@PAUHINSTANCE__@@V?$CSimpleArrayEqualHelper@PAUHINSTANCE__@@@ATL@@@ATL@@SAPAXIPAPAUHINSTANCE__@@@Z 10065e3f f i atls:atlbase.obj
 0001:00064e49       ??0?$CComCritSecLock@VCComCriticalSection@ATL@@@ATL@@QAE@AAVCComCriticalSection@1@_N@Z 10065e49 f i atls:atlbase.obj
 0001:00064e79       ??0?$CSimpleArray@PAUHINSTANCE__@@V?$CSimpleArrayEqualHelper@PAUHINSTANCE__@@@ATL@@@ATL@@QAE@XZ 10065e79 f i atls:atlbase.obj
 0001:00064e89       ??0CAtlBaseModule@ATL@@QAE@XZ 10065e89 f   atls:atlbase.obj
 0001:00064ef0       ??0Wrapper@?$CSimpleArray@PAUHINSTANCE__@@V?$CSimpleArrayEqualHelper@PAUHINSTANCE__@@@ATL@@@ATL@@QAE@ABQAUHINSTANCE__@@@Z 10065ef0 f i atls:atlbase.obj
 0001:00064f04       ??0_ATL_BASE_MODULE70@ATL@@QAE@XZ 10065f04 f i atls:atlbase.obj
 0001:00064f2f       ??1?$CComCritSecLock@VCComCriticalSection@ATL@@@ATL@@QAE@XZ 10065f2f f i atls:atlbase.obj
 0001:00064f4b       ??1?$CSimpleArray@PAUHINSTANCE__@@V?$CSimpleArrayEqualHelper@PAUHINSTANCE__@@@ATL@@@ATL@@QAE@XZ 10065f4b f i atls:atlbase.obj
 0001:00064f50       ??1CAtlBaseModule@ATL@@QAE@XZ 10065f50 f   atls:atlbase.obj
 0001:00064f6b       ??1_ATL_BASE_MODULE70@ATL@@QAE@XZ 10065f6b f i atls:atlbase.obj
 0001:00064f75       ??A?$CSimpleArray@PAUHINSTANCE__@@V?$CSimpleArrayEqualHelper@PAUHINSTANCE__@@@ATL@@@ATL@@QAEAAPAUHINSTANCE__@@H@Z 10065f75 f i atls:atlbase.obj
 0001:00064fa3       ?Add@?$CSimpleArray@PAUHINSTANCE__@@V?$CSimpleArrayEqualHelper@PAUHINSTANCE__@@@ATL@@@ATL@@QAEHABQAUHINSTANCE__@@@Z 10065fa3 f i atls:atlbase.obj
 0001:00065045       ?AddResourceInstance@CAtlBaseModule@ATL@@QAE_NPAUHINSTANCE__@@@Z 10066045 f   atls:atlbase.obj
 0001:00065084       ?AtlCrtErrorCheck@ATL@@YAHH@Z 10066084 f i atls:atlbase.obj
 0001:000650cd       ?GetHInstanceAt@CAtlBaseModule@ATL@@QAEPAUHINSTANCE__@@H@Z 100660cd f   atls:atlbase.obj
 0001:00065123       ?GetSize@?$CSimpleArray@PAUHINSTANCE__@@V?$CSimpleArrayEqualHelper@PAUHINSTANCE__@@@ATL@@@ATL@@QBEHXZ 10066123 f i atls:atlbase.obj
 0001:00065127       ?InternalSetAtIndex@?$CSimpleArray@PAUHINSTANCE__@@V?$CSimpleArrayEqualHelper@PAUHINSTANCE__@@@ATL@@@ATL@@QAEXHABQAUHINSTANCE__@@@Z 10066127 f i atls:atlbase.obj
 0001:00065147       ?Lock@?$CComCritSecLock@VCComCriticalSection@ATL@@@ATL@@QAEJXZ 10066147 f i atls:atlbase.obj
 0001:0006515e       ?Lock@CComCriticalSection@ATL@@QAEJXZ 1006615e f i atls:atlbase.obj
 0001:0006516a       ?RemoveAll@?$CSimpleArray@PAUHINSTANCE__@@V?$CSimpleArrayEqualHelper@PAUHINSTANCE__@@@ATL@@@ATL@@QAEXXZ 1006616a f i atls:atlbase.obj
 0001:0006518e       ?RemoveAt@?$CSimpleArray@PAUHINSTANCE__@@V?$CSimpleArrayEqualHelper@PAUHINSTANCE__@@@ATL@@@ATL@@QAEHH@Z 1006618e f i atls:atlbase.obj
 0001:000651ef       ?RemoveResourceInstance@CAtlBaseModule@ATL@@QAE_NPAUHINSTANCE__@@@Z 100661ef f   atls:atlbase.obj
 0001:00065263       ?Unlock@?$CComCritSecLock@VCComCriticalSection@ATL@@@ATL@@QAEXXZ 10066263 f i atls:atlbase.obj
 0001:00065278       ?Unlock@CComCriticalSection@ATL@@QAEJXZ 10066278 f i atls:atlbase.obj
 0001:00065284       ?memmove_s@Checked@ATL@@YAXPAXIPBXI@Z 10066284 f i atls:atlbase.obj
 0001:00065348       ??0?$CTraceCategoryEx@$00$0A@@ATL@@QAE@PB_W@Z 10066348 f i atls:stdafx.obj
 0001:0006534d       ??0?$CTraceCategoryEx@$01$0A@@ATL@@QAE@PB_W@Z 1006634d f i atls:stdafx.obj
 0001:00065352       ??0?$CTraceCategoryEx@$03$0A@@ATL@@QAE@PB_W@Z 10066352 f i atls:stdafx.obj
 0001:00065357       ??0?$CTraceCategoryEx@$07$0A@@ATL@@QAE@PB_W@Z 10066357 f i atls:stdafx.obj
 0001:0006535c       ??0?$CTraceCategoryEx@$0BA@$0A@@ATL@@QAE@PB_W@Z 1006635c f i atls:stdafx.obj
 0001:00065361       ??0?$CTraceCategoryEx@$0BAA@$0A@@ATL@@QAE@PB_W@Z 10066361 f i atls:stdafx.obj
 0001:00065366       ??0?$CTraceCategoryEx@$0BAAA@$0A@@ATL@@QAE@PB_W@Z 10066366 f i atls:stdafx.obj
 0001:0006536b       ??0?$CTraceCategoryEx@$0BAAAA@$0A@@ATL@@QAE@PB_W@Z 1006636b f i atls:stdafx.obj
 0001:00065370       ??0?$CTraceCategoryEx@$0BAAAAA@$0A@@ATL@@QAE@PB_W@Z 10066370 f i atls:stdafx.obj
 0001:00065375       ??0?$CTraceCategoryEx@$0CA@$0A@@ATL@@QAE@PB_W@Z 10066375 f i atls:stdafx.obj
 0001:0006537a       ??0?$CTraceCategoryEx@$0CAA@$0A@@ATL@@QAE@PB_W@Z 1006637a f i atls:stdafx.obj
 0001:0006537f       ??0?$CTraceCategoryEx@$0CAAA@$0A@@ATL@@QAE@PB_W@Z 1006637f f i atls:stdafx.obj
 0001:00065384       ??0?$CTraceCategoryEx@$0CAAAA@$0A@@ATL@@QAE@PB_W@Z 10066384 f i atls:stdafx.obj
 0001:00065389       ??0?$CTraceCategoryEx@$0CAAAAA@$0A@@ATL@@QAE@PB_W@Z 10066389 f i atls:stdafx.obj
 0001:0006538e       ??0?$CTraceCategoryEx@$0EA@$0A@@ATL@@QAE@PB_W@Z 1006638e f i atls:stdafx.obj
 0001:00065393       ??0?$CTraceCategoryEx@$0EAA@$0A@@ATL@@QAE@PB_W@Z 10066393 f i atls:stdafx.obj
 0001:00065398       ??0?$CTraceCategoryEx@$0EAAA@$0A@@ATL@@QAE@PB_W@Z 10066398 f i atls:stdafx.obj
 0001:0006539d       ??0?$CTraceCategoryEx@$0EAAAA@$0A@@ATL@@QAE@PB_W@Z 1006639d f i atls:stdafx.obj
 0001:000653a2       ??0?$CTraceCategoryEx@$0EAAAAA@$0A@@ATL@@QAE@PB_W@Z 100663a2 f i atls:stdafx.obj
 0001:000653a7       ??0?$CTraceCategoryEx@$0IA@$0A@@ATL@@QAE@PB_W@Z 100663a7 f i atls:stdafx.obj
 0001:000653ac       ??0?$CTraceCategoryEx@$0IAA@$0A@@ATL@@QAE@PB_W@Z 100663ac f i atls:stdafx.obj
 0001:000653b1       ??0?$CTraceCategoryEx@$0IAAA@$0A@@ATL@@QAE@PB_W@Z 100663b1 f i atls:stdafx.obj
 0001:000653b6       ??0?$CTraceCategoryEx@$0IAAAA@$0A@@ATL@@QAE@PB_W@Z 100663b6 f i atls:stdafx.obj
 0001:000653bb       ??_I@YGXPAXIIP6EX0@Z@Z     100663bb f i atls:stdafx.obj
 0001:000653fa       _CreateStreamOnHGlobal@12  100663fa f   ole32:ole32.dll
 0001:00065400       _OleLoadPicture@20         10066400 f   oleaut32:OLEAUT32.dll
 0001:00065406       _SysFreeString@4           10066406 f   oleaut32:OLEAUT32.dll
 0001:0006540c       ??0_Lockit@std@@QAE@H@Z    1006640c f   msvcprtd:MSVCP140D.dll
 0001:00065412       ??1_Lockit@std@@QAE@XZ     10066412 f   msvcprtd:MSVCP140D.dll
 0001:00065418       ?_Xlength_error@std@@YAXPBD@Z 10066418 f   msvcprtd:MSVCP140D.dll
 0001:0006541e       _InternetOpenA@20          1006641e f   wininet:WININET.dll
 0001:00065424       _InternetCloseHandle@4     10066424 f   wininet:WININET.dll
 0001:0006542a       _InternetConnectA@32       1006642a f   wininet:WININET.dll
 0001:00065430       _InternetOpenUrlA@24       10066430 f   wininet:WININET.dll
 0001:00065436       _InternetReadFile@16       10066436 f   wininet:WININET.dll
 0001:0006543c       _InternetReadFileExA@16    1006643c f   wininet:WININET.dll
 0001:00065442       _HttpOpenRequestA@32       10066442 f   wininet:WININET.dll
 0001:00065448       _HttpSendRequestA@20       10066448 f   wininet:WININET.dll
 0001:0006544e       _HttpQueryInfoA@20         1006644e f   wininet:WININET.dll
 0001:00065454       _memcpy                    10066454 f   vcruntimed:VCRUNTIME140D.dll
 0001:0006545a       _memset                    1006645a f   vcruntimed:VCRUNTIME140D.dll
 0001:00065460       ___CxxFrameHandler3        10066460 f   vcruntimed:VCRUNTIME140D.dll
 0001:00065466       _memcmp                    10066466 f   vcruntimed:VCRUNTIME140D.dll
 0001:0006546c       _memmove                   1006646c f   vcruntimed:VCRUNTIME140D.dll
 0001:00065472       __CxxThrowException@8      10066472 f   vcruntimed:VCRUNTIME140D.dll
 0001:00065478       __purecall                 10066478 f   vcruntimed:VCRUNTIME140D.dll
 0001:0006547e       __except_handler4_common   1006647e f   vcruntimed:VCRUNTIME140D.dll
 0001:00065484       ___vcrt_GetModuleFileNameW 10066484 f   vcruntimed:VCRUNTIME140D.dll
 0001:0006548a       ___vcrt_GetModuleHandleW   1006648a f   vcruntimed:VCRUNTIME140D.dll
 0001:00065490       ___vcrt_LoadLibraryExW     10066490 f   vcruntimed:VCRUNTIME140D.dll
 0001:00065496       ___std_type_info_destroy_list 10066496 f   vcruntimed:VCRUNTIME140D.dll
 0001:0006549c       _wcscpy_s                  1006649c f   ucrtd:ucrtbased.dll
 0001:000654a2       _strcpy                    100664a2 f   ucrtd:ucrtbased.dll
 0001:000654a8       _strlen                    100664a8 f   ucrtd:ucrtbased.dll
 0001:000654ae       _strncpy                   100664ae f   ucrtd:ucrtbased.dll
 0001:000654b4       ___stdio_common_vswprintf_s 100664b4 f   ucrtd:ucrtbased.dll
 0001:000654ba       __CrtDbgReport             100664ba f   ucrtd:ucrtbased.dll
 0001:000654c0       __CrtDbgReportW            100664c0 f   ucrtd:ucrtbased.dll
 0001:000654c6       _wcslen                    100664c6 f   ucrtd:ucrtbased.dll
 0001:000654cc       ___stdio_common_vsprintf   100664cc f   ucrtd:ucrtbased.dll
 0001:000654d2       ___stdio_common_vsnprintf_s 100664d2 f   ucrtd:ucrtbased.dll
 0001:000654d8       _free                      100664d8 f   ucrtd:ucrtbased.dll
 0001:000654de       _malloc                    100664de f   ucrtd:ucrtbased.dll
 0001:000654e4       __mktime64                 100664e4 f   ucrtd:ucrtbased.dll
 0001:000654ea       __splitpath                100664ea f   ucrtd:ucrtbased.dll
 0001:000654f0       _strncmp                   100664f0 f   ucrtd:ucrtbased.dll
 0001:000654f6       _fclose                    100664f6 f   ucrtd:ucrtbased.dll
 0001:000654fc       __fileno                   100664fc f   ucrtd:ucrtbased.dll
 0001:00065502       _fopen                     10066502 f   ucrtd:ucrtbased.dll
 0001:00065508       _fread                     10066508 f   ucrtd:ucrtbased.dll
 0001:0006550e       _fseek                     1006650e f   ucrtd:ucrtbased.dll
 0001:00065514       _fwrite                    10066514 f   ucrtd:ucrtbased.dll
 0001:0006551a       __localtime64_s            1006651a f   ucrtd:ucrtbased.dll
 0001:00065520       __time64                   10066520 f   ucrtd:ucrtbased.dll
 0001:00065526       __filelength               10066526 f   ucrtd:ucrtbased.dll
 0001:0006552c       _atol                      1006652c f   ucrtd:ucrtbased.dll
 0001:00065532       __invalid_parameter        10066532 f   ucrtd:ucrtbased.dll
 0001:00065538       __beginthreadex            10066538 f   ucrtd:ucrtbased.dll
 0001:0006553e       _strcmp                    1006653e f   ucrtd:ucrtbased.dll
 0001:00065544       ___acrt_iob_func           10066544 f   ucrtd:ucrtbased.dll
 0001:0006554a       ___stdio_common_vfprintf   1006654a f   ucrtd:ucrtbased.dll
 0001:00065550       _calloc                    10066550 f   ucrtd:ucrtbased.dll
 0001:00065556       _exit                      10066556 f   ucrtd:ucrtbased.dll
 0001:0006555c       _clearerr                  1006655c f   ucrtd:ucrtbased.dll
 0001:00065562       __fdopen                   10066562 f   ucrtd:ucrtbased.dll
 0001:00065568       _ferror                    10066568 f   ucrtd:ucrtbased.dll
 0001:0006556e       _fflush                    1006656e f   ucrtd:ucrtbased.dll
 0001:00065574       _fputc                     10066574 f   ucrtd:ucrtbased.dll
 0001:0006557a       _ftell                     1006657a f   ucrtd:ucrtbased.dll
 0001:00065580       __errno                    10066580 f   ucrtd:ucrtbased.dll
 0001:00065586       _strcat                    10066586 f   ucrtd:ucrtbased.dll
 0001:0006558c       _strerror                  1006658c f   ucrtd:ucrtbased.dll
 0001:00065592       _terminate                 10066592 f   ucrtd:ucrtbased.dll
 0001:00065598       __seh_filter_dll           10066598 f   ucrtd:ucrtbased.dll
 0001:0006559e       __configure_narrow_argv    1006659e f   ucrtd:ucrtbased.dll
 0001:000655a4       __initialize_narrow_environment 100665a4 f   ucrtd:ucrtbased.dll
 0001:000655aa       __initialize_onexit_table  100665aa f   ucrtd:ucrtbased.dll
 0001:000655b0       __register_onexit_function 100665b0 f   ucrtd:ucrtbased.dll
 0001:000655b6       __execute_onexit_table     100665b6 f   ucrtd:ucrtbased.dll
 0001:000655bc       __crt_atexit               100665bc f   ucrtd:ucrtbased.dll
 0001:000655c2       __crt_at_quick_exit        100665c2 f   ucrtd:ucrtbased.dll
 0001:000655c8       __cexit                    100665c8 f   ucrtd:ucrtbased.dll
 0001:000655ce       _strcpy_s                  100665ce f   ucrtd:ucrtbased.dll
 0001:000655d4       _strcat_s                  100665d4 f   ucrtd:ucrtbased.dll
 0001:000655da       ___stdio_common_vsprintf_s 100665da f   ucrtd:ucrtbased.dll
 0001:000655e0       __initterm                 100665e0 f   ucrtd:ucrtbased.dll
 0001:000655e6       __initterm_e               100665e6 f   ucrtd:ucrtbased.dll
 0001:000655ec       __wmakepath_s              100665ec f   ucrtd:ucrtbased.dll
 0001:000655f2       __wsplitpath_s             100665f2 f   ucrtd:ucrtbased.dll
 0001:000655f8       __invalid_parameter_noinfo 100665f8 f   ucrtd:ucrtbased.dll
 0001:000655fe       __recalloc                 100665fe f   ucrtd:ucrtbased.dll
 0001:00065604       __stricmp                  10066604 f   ucrtd:ucrtbased.dll
 0001:0006560a       _OutputDebugStringW@4      1006660a f   kernel32:KERNEL32.dll
 0001:00065610       ___acrt_initialize         10066610 f   msvcrtd:ucrt_stubs.obj
 0001:00065610       ___scrt_stub_for_acrt_initialize 10066610 f   msvcrtd:ucrt_stubs.obj
 0001:00065610       ___vcrt_initialize         10066610 f   msvcrtd:ucrt_stubs.obj
 0001:00065620       ___vcrt_thread_attach      10066620 f   msvcrtd:ucrt_stubs.obj
 0001:00065620       ___scrt_stub_for_acrt_thread_attach 10066620 f   msvcrtd:ucrt_stubs.obj
 0001:00065620       ___acrt_thread_attach      10066620 f   msvcrtd:ucrt_stubs.obj
 0001:00065630       ___acrt_thread_detach      10066630 f   msvcrtd:ucrt_stubs.obj
 0001:00065630       ___scrt_stub_for_acrt_thread_detach 10066630 f   msvcrtd:ucrt_stubs.obj
 0001:00065630       ___vcrt_thread_detach      10066630 f   msvcrtd:ucrt_stubs.obj
 0001:00065640       ___acrt_uninitialize       10066640 f   msvcrtd:ucrt_stubs.obj
 0001:00065640       ___vcrt_uninitialize       10066640 f   msvcrtd:ucrt_stubs.obj
 0001:00065640       ___scrt_stub_for_acrt_uninitialize 10066640 f   msvcrtd:ucrt_stubs.obj
 0001:00065650       ___acrt_uninitialize_critical 10066650 f   msvcrtd:ucrt_stubs.obj
 0001:00065650       ___scrt_stub_for_acrt_uninitialize_critical 10066650 f   msvcrtd:ucrt_stubs.obj
 0001:00065650       ___vcrt_uninitialize_critical 10066650 f   msvcrtd:ucrt_stubs.obj
 0001:00065660       __is_c_termination_complete 10066660 f   msvcrtd:ucrt_stubs.obj
 0001:00065660       ___scrt_stub_for_is_c_termination_complete 10066660 f   msvcrtd:ucrt_stubs.obj
 0001:0006a970       ??__FstrHeap@?1??GetInstance@CAtlStringMgr@ATL@@SAPAUIAtlStringMgr@2@XZ@YAXXZ 1006b970 f i dllmain.obj
 0001:0006a9c0       ??__FstrMgr@?1??GetInstance@CAtlStringMgr@ATL@@SAPAUIAtlStringMgr@2@XZ@YAXXZ 1006b9c0 f i dllmain.obj
 0002:00000000       ___xc_a                    1006d000     msvcrtd:initializers.obj
 0002:0000039c       ___xc_z                    1006d39c     msvcrtd:initializers.obj
 0002:000004a0       ___xi_a                    1006d4a0     msvcrtd:initializers.obj
 0002:000006a8       ___xi_z                    1006d6a8     msvcrtd:initializers.obj
 0002:000007ac       ___xl_a                    1006d7ac     msvcrtd:tlssup.obj
 0002:000007b0       ___xl_z                    1006d7b0     msvcrtd:tlssup.obj
 0002:000007b4       ___xp_a                    1006d7b4     msvcrtd:initializers.obj
 0002:000008b8       ___xp_z                    1006d8b8     msvcrtd:initializers.obj
 0002:000009bc       ___xt_a                    1006d9bc     msvcrtd:initializers.obj
 0002:00000ac0       ___xt_z                    1006dac0     msvcrtd:initializers.obj
 0002:00000bd0       ??_C@_17CNPHIMPH@?$AA?$CF?$AAl?$AAs@ 1006dbd0     Avatar.obj
 0002:00000bdc       ??_C@_0BC@PGMFNIFA@atlTraceException@ 1006dbdc     Avatar.obj
 0002:00000bf4       ??_C@_0P@MBNHGHMI@atlTraceString@ 1006dbf4     Avatar.obj
 0002:00000c08       ??_C@_17LGGGMOOB@?$AA?$CF?$AAh?$AAs@ 1006dc08     Avatar.obj
 0002:00000c18       ??_C@_1EO@EBPPKGOM@?$AAf?$AAa?$AAl?$AAs?$AAe?$AA?5?$AA?$CG?$AA?$CG?$AA?5?$AA?$CC?$AAT?$AAo?$AAo?$AA?5?$AAm@ 1006dc18     Avatar.obj
 0002:00000c78       ??_C@_1OG@EPIEFPGE@?$AAc?$AA?3?$AA?2?$AAp?$AAr?$AAo?$AAg?$AAr?$AAa?$AAm?$AA?5?$AAf?$AAi?$AAl?$AAe@ 1006dc78     Avatar.obj
 0002:00000d90       ??_C@_1BAA@JEBAPKPH@?$AAc?$AA?3?$AA?2?$AAp?$AAr?$AAo?$AAg?$AAr?$AAa?$AAm?$AA?5?$AAf?$AAi?$AAl?$AAe@ 1006dd90     Avatar.obj
 0002:00000ec4       ??_C@_0N@DOHINHCI@Advapi32?4dll@ 1006dec4     Avatar.obj
 0002:00000ed4       ??_C@_1BO@KNMGNOCJ@?$AAh?$AAA?$AAd?$AAv?$AAA?$AAP?$AAI?$AA3?$AA2?$AA?5?$AA?$CB?$AA?$DN?$AA?5?$AA0@ 1006ded4     Avatar.obj
 0002:00000ef8       ??_C@_0BG@FGMNHMFJ@RegOpenKeyTransactedA@ 1006def8     Avatar.obj
 0002:00000f18       ??_C@_1OE@FJOLCNK@?$AAc?$AA?3?$AA?2?$AAp?$AAr?$AAo?$AAg?$AAr?$AAa?$AAm?$AA?5?$AAf?$AAi?$AAl?$AAe@ 1006df18     Avatar.obj
 0002:0000102c       ??_C@_1BI@KCHMLGAI@?$AAm?$AA_?$AAh?$AAK?$AAe?$AAy?$AA?5?$AA?$CB?$AA?$DN?$AA?5?$AA0@ 1006e02c     Avatar.obj
 0002:00001048       ??_C@_1CA@JAHJEEHI@?$AAh?$AAK?$AAe?$AAy?$AAP?$AAa?$AAr?$AAe?$AAn?$AAt?$AA?5?$AA?$CB?$AA?$DN?$AA?5?$AA0@ 1006e048     Avatar.obj
 0002:00001070       ??_C@_1BG@OMKLFNDM@?$AAl?$AAR?$AAe?$AAs?$AA?5?$AA?$DN?$AA?$DN?$AA?5?$AA0?$AAL@ 1006e070     Avatar.obj
 0002:0000108c       ??_C@_1BK@NNCNHJFG@?$AAp?$AAn?$AAC?$AAh?$AAa?$AAr?$AAs?$AA?5?$AA?$CB?$AA?$DN?$AA?5?$AA0@ 1006e08c     Avatar.obj
 0002:000010ab       ??_C@_00CNPNBAHC@@         1006e0ab     Avatar.obj
 0002:000010b0       ??_C@_0HD@OBAKKIPD@c?3?2program?5files?5?$CIx86?$CJ?2microsof@ 1006e0b0     Avatar.obj
 0002:00001140       ??_7CAvatar@AVATAR@NMBASE@@6B@ 1006e140     Avatar.obj
 0002:0000114c       ??_7CAvatarResource@AVATAR@NMBASE@@6B@ 1006e14c     Avatar.obj
 0002:00001154       ??_C@_03BBABOKL@GIF@       1006e154     Avatar.obj
 0002:00001158       ??_C@_0BD@NELBKJFD@SOFTWARE?2Netmarble@ 1006e158     Avatar.obj
 0002:00001170       ??_C@_04FEJMPGFI@daum@     1006e170     Avatar.obj
 0002:00001178       ??_C@_0N@MEJLBAPP@DaumGamePath@ 1006e178     Avatar.obj
 0002:00001188       ??_C@_07HLGKOCOJ@hanafos@  1006e188     Avatar.obj
 0002:00001194       ??_C@_0BA@GJENAMEC@HanafosGamePath@ 1006e194     Avatar.obj
 0002:000011a8       ??_C@_0M@HMGNOGIJ@DefaultPath@ 1006e1a8     Avatar.obj
 0002:000011b8       ??_C@_0BJ@ODAGFDDB@?$CFs?2Common?2NMAvatar_d?4dll@ 1006e1b8     Avatar.obj
 0002:000011d8       ??_C@_05NAOIJFC@Error@     1006e1d8     Avatar.obj
 0002:000011e0       ??_C@_0DO@HHFEBEAN@?$LO?F?$LJ?Y?E?$LI?5?$LI?p?$LF?b?$MA?$LL?5?C?J?$LB?b?H?$KN?G?R?5?$LM?v?5?$LO?x?$LN?$MA?$LE@ 1006e1e0     Avatar.obj
 0002:00001230       ??_C@_0EI@PJHNPEIN@?$LO?F?$LJ?Y?E?$LI?5?$LI?p?$LF?b?$MA?$LL?5?C?J?$LB?b?H?$KN?G?R?5?$LM?v?5?$LO?x?$LN?$MA?$LE@ 1006e230     Avatar.obj
 0002:00001288       ??_C@_06LEICOHBJ@toctoc@   1006e288     Avatar.obj
 0002:00001290       ??_C@_0L@HOLKMAGD@TocTocPath@ 1006e290     Avatar.obj
 0002:000012a0       ??_C@_09OCPMMCPJ@?$CFs?2Common@ 1006e2a0     Avatar.obj
 0002:000012ac       ??_C@_0CL@DLMFHBHK@Avatar?9Display?5module?5is?5not?5in@ 1006e2ac     Avatar.obj
 0002:000012e0       ??_C@_0CD@MCAPNGIK@?$DO?$DO?$DO?5AVATAR?5DISPLAY?5DLL?5STATUS?5?$DM@ 1006e2e0     Avatar.obj
 0002:0000130c       ??_C@_0CL@LDEGNCIO@http?3?1?1c2?4img?4netmarble?4kr?1item@ 1006e30c     Avatar.obj
 0002:00001340       ??_C@_0BM@LMCPADKM@?$CK?5Avatar?5download?5URL?5?3?5?$CFs?6@ 1006e340     Avatar.obj
 0002:00001364       ??_C@_0CB@NEAOBCLD@?6?$DO?$DO?$DO?5ROADED?5RESOURCE?5STATUS?5?$DM?$DM?$DM@ 1006e364     Avatar.obj
 0002:0000138c       ??_C@_0BP@OJFOCGCI@?$CK?5Opened?5sprite?5file?5num?5?3?5?$CFd?6@ 1006e38c     Avatar.obj
 0002:000013b4       ??_C@_0CC@JIOCMNBL@?6?$DO?$DO?$DO?5DOWNLOAD?5WORKING?5STATUS?5?$DM?$DM@ 1006e3b4     Avatar.obj
 0002:000013dc       ??_C@_0BO@EINCEBOG@?$CK?5Working?5thread?5num?5?3?5?$CFd?1?$CFd?6@ 1006e3dc     Avatar.obj
 0002:00001400       ??_C@_0DF@DDAKFCNO@?$CK?5Download?5list?5file?5num?5?3?5?$CFd?$CIw@ 1006e400     Avatar.obj
 0002:00001440       ??_C@_1OG@DMCPDNOH@?$AAc?$AA?3?$AA?2?$AAp?$AAr?$AAo?$AAg?$AAr?$AAa?$AAm?$AA?5?$AAf?$AAi?$AAl?$AAe@ 1006e440     DownThread.obj
 0002:00001554       ??_C@_1O@LFNDFEBP@?$AA?$CF?$AAl?$AAs?$AA?5?$AA?9?$AA?5@ 1006e554     DownThread.obj
 0002:00001564       ??_C@_1M@PGKOAACE@?$AA?$CF?$AAu?$AA?5?$AA?9?$AA?5@ 1006e564     DownThread.obj
 0002:00001574       ??_C@_1O@OAIPCDPO@?$AA?$CF?$AAl?$AAs?$AA?$CF?$AAl?$AAs@ 1006e574     DownThread.obj
 0002:00001588       ??_C@_0HE@HLDIOKLD@c?3?2program?5files?5?$CIx86?$CJ?2microsof@ 1006e588     DownThread.obj
 0002:00001614       ??_C@_0BF@IAAKIJDJ@AtlThrow?3?5hr?5?$DN?50x?$CFx?6@ 1006e614     DownThread.obj
 0002:00001630       ??_C@_1BM@GBBOFEAE@?$AA_?$AA_?$AAa?$AAt?$AAl?$AA_?$AAc?$AAo?$AAn?$AAd?$AAV?$AAa?$AAl@ 1006e630     DownThread.obj
 0002:00001658       ??_C@_1OE@KEIFACKF@?$AAc?$AA?3?$AA?2?$AAp?$AAr?$AAo?$AAg?$AAr?$AAa?$AAm?$AA?5?$AAf?$AAi?$AAl?$AAe@ 1006e658     DownThread.obj
 0002:0000176c       ??_C@_1BK@NHHHCKNA@?$AAm?$AA_?$AAt?$AAi?$AAm?$AAe?$AA?5?$AA?$CB?$AA?$DN?$AA?5?$AA?9?$AA1@ 1006e76c     DownThread.obj
 0002:0000178c       ??_C@_1BK@NHECDDNK@?$AAm?$AA_?$AAp?$AAD?$AAa?$AAt?$AAa?$AA?5?$AA?$DN?$AA?$DN?$AA?5?$AA0@ 1006e78c     DownThread.obj
 0002:000017ac       ??_C@_0BP@GNEEPEH@1?4?5?C?V?$LB?Y?5?$LM?v?A?$KE?$MA?O?$MA?Z?5?$MA?P?$LB?b?5?$LN?G?F?P?3?5?$CFs@ 1006e7ac     DownThread.obj
 0002:000017d4       ??_C@_0BP@BFPMHGDE@2?4?5?C?V?$LB?Y?5?$LM?v?A?$KE?$MA?O?$MA?Z?5?$MA?P?$LB?b?5?$LN?G?F?P?3?5?$CFs@ 1006e7d4     DownThread.obj
 0002:000017fc       ??_C@_0BF@HNEACLD@1?4?5?$LE?Y?$LP?n?$LH?N?$LF?e?5?$LN?G?F?P?3?5?$CFs@ 1006e7fc     DownThread.obj
 0002:00001818       ??_C@_0BF@HMMKIAFA@2?4?5?$LE?Y?$LP?n?$LH?N?$LF?e?5?$LN?G?F?P?3?5?$CFs@ 1006e818     DownThread.obj
 0002:00001834       ??_C@_0DB@DIMDEDHL@http?3?1?1c2?4img?4netmarble?4kr?1item@ 1006e834     DownThread.obj
 0002:00001870       ??_C@_05PLCFPPOI@with?5@   1006e870     FileList.obj
 0002:00001878       ??_C@_09HCLNAIDE@?5elements@ 1006e878     FileList.obj
 0002:00001884       ??_C@_01EEMJAFIK@?6@       1006e884     FileList.obj
 0002:0000188c       ??_7?$CMap@V?$CStringT@DV?$StrTraitMFC_DLL@DV?$ChTraitsCRT@D@ATL@@@@@ATL@@PBDPAVCFileInfo@@AAPAV3@@@6B@ 1006e88c     FileList.obj
 0002:000018a4       ??_C@_0N@NJOGALPN@SMALL_L?$CFd_?$CFd@ 1006e8a4     FileList.obj
 0002:000018b4       ??_C@_06HGJCEPNI@L?$CFd_?$CFd@ 1006e8b4     FileList.obj
 0002:000018bc       ??_C@_0BB@KFMDMKBD@?$CFs?2Small?2Layer?$CFd@ 1006e8bc     FileList.obj
 0002:000018d0       ??_C@_0L@DKIGJHAH@?$CFs?2Layer?$CFd@ 1006e8d0     FileList.obj
 0002:000018e0       ??_C@_0BM@LKNDDJHA@?$CFs?2Small?2Layer?$CFd?2L?$CFd_?$CFd?4spr@ 1006e8e0     FileList.obj
 0002:00001904       ??_C@_0BG@IKLDGDNE@?$CFs?2Layer?$CFd?2L?$CFd_?$CFd?4spr@ 1006e904     FileList.obj
 0002:00001920       ??_C@_0BG@FLCOKJEA@?$CFs?1Layer?$CFd?1L?$CFd_?$CFd?4gif@ 1006e920     FileList.obj
 0002:0000193c       ??_C@_03OHJIHPJH@?6?7?$FL@ 1006e93c     FileList.obj
 0002:00001940       ??_C@_04OAFLPOMH@?$FN?5?$DN?5@ 1006e940     FileList.obj
 0002:00001948       ??_C@_02JDPG@rb@           1006e948     FileTag.obj
 0002:0000194c       ??_C@_08OMONGMM@SFILETAG@  1006e94c     FileTag.obj
 0002:00001958       ??_C@_03CCKOKKND@rb?$CL@   1006e958     FileTag.obj
 0002:00001960       ??_7CGetHttp@@6B@          1006e960     GetHttp.obj
 0002:00001968       ??_C@_07FGAOOBMN@http?3?1?1@ 1006e968     GetHttp.obj
 0002:00001974       ??_C@_0CO@NIGDJECO@CGetHttp?3?3GetFileSize?$CI?$CJ?5?9?5URL?5P@ 1006e974     GetHttp.obj
 0002:000019ac       ??_C@_05FBFPOLKO@MyApp@    1006e9ac     GetHttp.obj
 0002:000019b4       ??_C@_0DI@KBILPHBM@CGetHttp?3?3GetFileSize?$CI?$CJ?5?9?5Inter@ 1006e9b4     GetHttp.obj
 0002:000019f8       ??_C@_0DD@IDABBCKK@CGetHttp?3?3GetFileSize?$CI?$CJ?5?9?5Inter@ 1006e9f8     GetHttp.obj
 0002:00001a38       ??_C@_0DK@MPHDCFHJ@CGetHttp?3?3GetFileLastModifiedDa@ 1006ea38     GetHttp.obj
 0002:00001a80       ??_C@_0EE@HLJOCNJI@CGetHttp?3?3GetFileLastModifiedDa@ 1006ea80     GetHttp.obj
 0002:00001ad4       ??_C@_0DP@LFFJAPGI@CGetHttp?3?3GetFileLastModifiedDa@ 1006ead4     GetHttp.obj
 0002:00001b20       ??_C@_0DE@KCJMEMD@CGetHttp?3?3GetFileStatusCode?$CI?$CJ?5?9@ 1006eb20     GetHttp.obj
 0002:00001b60       ??_C@_0DO@JFMEPMOC@CGetHttp?3?3GetFileStatusCode?$CI?$CJ?5?9@ 1006eb60     GetHttp.obj
 0002:00001bac       ??_C@_0DJ@FGELLBON@CGetHttp?3?3GetFileStatusCode?$CI?$CJ?5?9@ 1006ebac     GetHttp.obj
 0002:00001bf0       ??_C@_0CK@IEKKOG@CGetHttp?3?3GetFile?$CI?$CJ?5?9?5URL?5Parsi@ 1006ebf0     GetHttp.obj
 0002:00001c24       ??_C@_0CN@JHLPPCLE@CGetHttp?3?3GetFile?$CI?$CJ?5?9?5File?5Crea@ 1006ec24     GetHttp.obj
 0002:00001c5c       ??_C@_0DE@DNCJMDFD@CGetHttp?3?3GetFile?$CI?$CJ?5?9?5Internet?5@ 1006ec5c     GetHttp.obj
 0002:00001c9c       ??_C@_0CO@GPFNDFID@CGetHttp?3?3GetFile?$CI?$CJ?5?9?5InternetC@ 1006ec9c     GetHttp.obj
 0002:00001cd4       ??_C@_03ENEOKCEM@?$CK?1?$CK@ 1006ecd4     GetHttp.obj
 0002:00001cd8       ??_C@_08IJEMDJGI@HTTP?11?41@ 1006ecd8     GetHttp.obj
 0002:00001ce4       ??_C@_0CO@MIJFMCOE@CGetHttp?3?3GetFile?$CI?$CJ?5?9?5HttpOpenR@ 1006ece4     GetHttp.obj
 0002:00001d1c       ??_C@_0CO@BJFGEOKN@CGetHttp?3?3GetFile?$CI?$CJ?5?9?5HttpSendR@ 1006ed1c     GetHttp.obj
 0002:00001d54       ??_C@_0CM@GLNPMCKH@CGetHttp?3?3GetFile?$CI?$CJ?5?9?5HttpQuery@ 1006ed54     GetHttp.obj
 0002:00001d88       ??_C@_0CO@INFEKGGO@CGetHttp?3?3GetFile?$CI?$CJ?5?9?5nStatusCo@ 1006ed88     GetHttp.obj
 0002:00001dc0       ??_C@_0DB@MHNKNAKC@CGetHttp?3?3GetFile?$CI?$CJ?5?9?5InternetR@ 1006edc0     GetHttp.obj
 0002:00001dfc       ??_C@_0CO@JBPENJDK@CGetHttp?3?3GetFile?$CI?$CJ?5?9?5File?5Exce@ 1006edfc     GetHttp.obj
 0002:00001e34       ??_C@_0DC@KJMLPHJL@CGetHttp?3?3GetFileToMemory?$CI?$CJ?5?9?5U@ 1006ee34     GetHttp.obj
 0002:00001e70       ??_C@_0DM@JPANCNKG@CGetHttp?3?3GetFileToMemory?$CI?$CJ?5?9?5I@ 1006ee70     GetHttp.obj
 0002:00001eb8       ??_C@_0DG@EKIHLIKH@CGetHttp?3?3GetFileToMemory?$CI?$CJ?5?9?5I@ 1006eeb8     GetHttp.obj
 0002:00001ef8       ??_C@_0DG@ONEPEPMA@CGetHttp?3?3GetFileToMemory?$CI?$CJ?5?9?5H@ 1006eef8     GetHttp.obj
 0002:00001f38       ??_C@_0DG@DMIMMDIJ@CGetHttp?3?3GetFileToMemory?$CI?$CJ?5?9?5H@ 1006ef38     GetHttp.obj
 0002:00001f78       ??_C@_0DE@OEJEEBBK@CGetHttp?3?3GetFileToMemory?$CI?$CJ?5?9?5H@ 1006ef78     GetHttp.obj
 0002:00001fb8       ??_C@_0DG@KIIOCLEK@CGetHttp?3?3GetFileToMemory?$CI?$CJ?5?9?5n@ 1006efb8     GetHttp.obj
 0002:00001ff8       ??_C@_0DJ@BALFODHH@CGetHttp?3?3GetFileToMemory?$CI?$CJ?5?9?5I@ 1006eff8     GetHttp.obj
 0002:0000203c       ??_C@_02DKCKIIND@?$CFs@    1006f03c     Gif2Spr.obj
 0002:00002040       ??_C@_0BO@PFKOHNJC@vector?5subscript?5out?5of?5range@ 1006f040     Gif2Spr.obj
 0002:00002068       ??_C@_0GI@BPHPFAKC@c?3?2program?5files?5?$CIx86?$CJ?2microsof@ 1006f068     Gif2Spr.obj
 0002:000020e8       ??_C@_1NA@DHBIODHH@?$AAc?$AA?3?$AA?2?$AAp?$AAr?$AAo?$AAg?$AAr?$AAa?$AAm?$AA?5?$AAf?$AAi?$AAl?$AAe@ 1006f0e8     Gif2Spr.obj
 0002:000021e8       ??_C@_1MK@GEOFJBOA@?$AAs?$AAt?$AAd?$AA?3?$AA?3?$AAv?$AAe?$AAc?$AAt?$AAo?$AAr?$AA?$DM?$AAs?$AAt?$AAr@ 1006f1e8     Gif2Spr.obj
 0002:000022e0       ??_C@_1EA@LEKOKFNB@?$AA?$CC?$AAv?$AAe?$AAc?$AAt?$AAo?$AAr?$AA?5?$AAs?$AAu?$AAb?$AAs?$AAc?$AAr?$AAi@ 1006f2e0     Gif2Spr.obj
 0002:0000232c       ??_C@_01KICIPPFI@?2@       1006f32c     MyMisc.obj
 0002:00002330       ??_C@_03EMIMMIHL@?$CK?4?$CK@ 1006f330     MyMisc.obj
 0002:00002334       ??_C@_01LFCBOECM@?4@       1006f334     MyMisc.obj
 0002:00002338       ??_C@_02DJGKEECL@?4?4@     1006f338     MyMisc.obj
 0002:0000233c       ??_C@_0BA@MKMIKKJB@atlTraceGeneral@ 1006f33c     PictureEx.obj
 0002:00002350       ??_C@_0BB@FCMFBGOM@invalid?5argument@ 1006f350     PictureEx.obj
 0002:00002364       ??_C@_1CG@JNLFBNGN@?$AA?$CC?$AAi?$AAn?$AAv?$AAa?$AAl?$AAi?$AAd?$AA?5?$AAa?$AAr?$AAg?$AAu?$AAm?$AAe@ 1006f364     PictureEx.obj
 0002:00002394       ??_C@_0BJ@LFDBABJJ@ITERATOR?5LIST?5CORRUPTED?$CB@ 1006f394     PictureEx.obj
 0002:000023b8       ??_C@_0GK@DDKPGBCB@c?3?2program?5files?5?$CIx86?$CJ?2microsof@ 1006f3b8     PictureEx.obj
 0002:00002438       ??_C@_1NE@EFEKKLJM@?$AAc?$AA?3?$AA?2?$AAp?$AAr?$AAo?$AAg?$AAr?$AAa?$AAm?$AA?5?$AAf?$AAi?$AAl?$AAe@ 1006f438     PictureEx.obj
 0002:00002538       ??_C@_1EE@KLDMFDFL@?$AAs?$AAt?$AAd?$AA?3?$AA?3?$AA_?$AAI?$AAt?$AAe?$AAr?$AAa?$AAt?$AAo?$AAr?$AA_@ 1006f538     PictureEx.obj
 0002:0000258c       ??_C@_1DG@PLBPCAEM@?$AA?$CC?$AAI?$AAT?$AAE?$AAR?$AAA?$AAT?$AAO?$AAR?$AA?5?$AAL?$AAI?$AAS?$AAT?$AA?5@ 1006f58c     PictureEx.obj
 0002:000025d0       ??_C@_0GK@CPBCFDIC@c?3?2program?5files?5?$CIx86?$CJ?2microsof@ 1006f5d0     PictureEx.obj
 0002:00002650       ??_C@_1NE@LIKBHODP@?$AAc?$AA?3?$AA?2?$AAp?$AAr?$AAo?$AAg?$AAr?$AAa?$AAm?$AA?5?$AAf?$AAi?$AAl?$AAe@ 1006f650     PictureEx.obj
 0002:00002750       ??_C@_1EK@NIFDJFDG@?$AAs?$AAt?$AAd?$AA?3?$AA?3?$AA_?$AAA?$AAd?$AAj?$AAu?$AAs?$AAt?$AA_?$AAm?$AAa@ 1006f750     PictureEx.obj
 0002:000027ac       ??_7CPictureEx@@6B@        1006f7ac     PictureEx.obj
 0002:000027b8       ??_C@_0EF@DMELLGEG@c?3?2work?2client_pc?2framework_ext@ 1006f7b8     PictureEx.obj
 0002:0000280c       ??_C@_0BM@ILMIPGEF@Load?3?5Error?5locking?5memory?6@ 1006f80c     PictureEx.obj
 0002:00002830       ??_C@_03LGOGFJFO@87a@      1006f830     PictureEx.obj
 0002:00002834       ??_C@_03LMHIHEFE@89a@      1006f834     PictureEx.obj
 0002:00002838       ??_C@_0EL@HFJAGPDK@Call?5one?5of?5the?5CPictureEx?3?3Loa@ 1006f838     PictureEx.obj
 0002:00002894       ??_C@_0CN@JDDHDPIB@Draw?3?5Couldn?8t?5start?5a?5GIF?5anim@ 1006f894     PictureEx.obj
 0002:000028cc       ??_C@_0CE@PPJEAPBM@Load?5?$CIfile?$CJ?3?5Error?5opening?5file@ 1006f8cc     PictureEx.obj
 0002:000028f8       ??_C@_0CG@JKIILGCP@Load?5?$CIfile?$CJ?3?5Error?5allocating?5m@ 1006f8f8     PictureEx.obj
 0002:00002928       ??_C@_0CD@EGAGPKCG@Load?5?$CIfile?$CJ?3?5Error?5locking?5memo@ 1006f928     PictureEx.obj
 0002:00002954       ??_C@_0DN@GBCJHBDG@Load?5?$CIfile?$CJ?3?5An?5exception?5occur@ 1006f954     PictureEx.obj
 0002:000029a0       ??_C@_0CM@LDBPJLDI@Load?5?$CIresource?$CJ?3?5Error?5loading?5@ 1006f9a0     PictureEx.obj
 0002:000029d4       ??_C@_0CK@LBAEEIOI@Load?5?$CIresource?$CJ?3?5Error?5allocati@ 1006f9d4     PictureEx.obj
 0002:00002a08       ??_C@_0CH@NJHOPOI@Load?5?$CIresource?$CJ?3?5Error?5locking?5@ 1006fa08     PictureEx.obj
 0002:00002a38       ??_C@_0BO@CAOBBIOC@vector?5iterators?5incompatible@ 1006fa38     PictureEx.obj
 0002:00002a60       ??_C@_1OK@JPJPEKID@?$AAs?$AAt?$AAd?$AA?3?$AA?3?$AA_?$AAV?$AAe?$AAc?$AAt?$AAo?$AAr?$AA_?$AAc?$AAo@ 1006fa60     PictureEx.obj
 0002:00002b78       ??_C@_1EA@DJDGNIII@?$AA?$CC?$AAv?$AAe?$AAc?$AAt?$AAo?$AAr?$AA?5?$AAi?$AAt?$AAe?$AAr?$AAa?$AAt?$AAo@ 1006fb78     PictureEx.obj
 0002:00002bc4       ??_C@_0DE@CHADHGFF@can?8t?5dereference?5value?9initial@ 1006fbc4     PictureEx.obj
 0002:00002c08       ??_C@_1PA@BKGDLIE@?$AAs?$AAt?$AAd?$AA?3?$AA?3?$AA_?$AAV?$AAe?$AAc?$AAt?$AAo?$AAr?$AA_?$AAc?$AAo@ 1006fc08     PictureEx.obj
 0002:00002d28       ??_C@_1GM@FNBFNBEL@?$AA?$CC?$AAc?$AAa?$AAn?$AA?8?$AAt?$AA?5?$AAd?$AAe?$AAr?$AAe?$AAf?$AAe?$AAr?$AAe@ 1006fd28     PictureEx.obj
 0002:00002dac       ??_C@_0CP@MDHADBHN@can?8t?5dereference?5out?5of?5range?5@ 1006fdac     PictureEx.obj
 0002:00002de8       ??_C@_1GC@JDCKOLAC@?$AA?$CC?$AAc?$AAa?$AAn?$AA?8?$AAt?$AA?5?$AAd?$AAe?$AAr?$AAe?$AAf?$AAe?$AAr?$AAe@ 1006fde8     PictureEx.obj
 0002:00002e60       ??_C@_0DC@KEKNBAEB@can?8t?5increment?5value?9initializ@ 1006fe60     PictureEx.obj
 0002:00002ea0       ??_C@_1PC@FCILEOFH@?$AAs?$AAt?$AAd?$AA?3?$AA?3?$AA_?$AAV?$AAe?$AAc?$AAt?$AAo?$AAr?$AA_?$AAc?$AAo@ 1006fea0     PictureEx.obj
 0002:00002fc8       ??_C@_1GI@EDCILPL@?$AA?$CC?$AAc?$AAa?$AAn?$AA?8?$AAt?$AA?5?$AAi?$AAn?$AAc?$AAr?$AAe?$AAm?$AAe?$AAn@ 1006ffc8     PictureEx.obj
 0002:00003044       ??_C@_0CJ@OAAAAGPM@can?8t?5increment?5vector?5iterator@ 10070044     PictureEx.obj
 0002:00003078       ??_C@_1FG@LDPPKMGP@?$AA?$CC?$AAc?$AAa?$AAn?$AA?8?$AAt?$AA?5?$AAi?$AAn?$AAc?$AAr?$AAe?$AAm?$AAe?$AAn@ 10070078     PictureEx.obj
 0002:000030e0       ??_C@_0BD@OLBABOEK@vector?$DMT?$DO?5too?5long@ 100700e0     PictureEx.obj
 0002:000030f8       ??_C@_1EO@GFNCMDLA@?$AAs?$AAt?$AAd?$AA?3?$AA?3?$AA_?$AAA?$AAl?$AAl?$AAo?$AAc?$AAa?$AAt?$AAe?$AA_@ 100700f8     PictureEx.obj
 0002:0000315c       ??_7?$CMap@V?$CStringT@DV?$StrTraitMFC_DLL@DV?$ChTraitsCRT@D@ATL@@@@@ATL@@PBDPAVCSprFile@@AAPAV3@@@6B@ 1007015c     ResMan.obj
 0002:00003178       ??_7CResMan@@6B@           10070178     ResMan.obj
 0002:00003180       ??_C@_0CI@ICPCMDNN@?$LE?Y?$LP?n?$LH?N?$LF?e?5?E?$LI?$MA?S?$LO?F?$LP?t?$MA?$LI?$LH?N?5?$LO?$LC?$LH?$LJ?$LF?e?5?$MA?g@ 10070180     ResMan.obj
 0002:000031b0       __pAtlLcidToLocaleNameTable 100701b0     dllmain.obj
 0002:00003a3c       ??_C@_15EMKDOKLE@?$AAa?$AAr@ 10070a3c     dllmain.obj
 0002:00003a44       ??_C@_15KNPADPLH@?$AAb?$AAg@ 10070a44     dllmain.obj
 0002:00003a4c       ??_C@_15EDMHLDMO@?$AAc?$AAa@ 10070a4c     dllmain.obj
 0002:00003a54       ??_C@_1O@BPEAJADD@?$AAz?$AAh?$AA?9?$AAC?$AAH?$AAS@ 10070a54     dllmain.obj
 0002:00003a64       ??_C@_15LJNHCMNK@?$AAc?$AAs@ 10070a64     dllmain.obj
 0002:00003a6c       ??_C@_15FOMCIDHG@?$AAd?$AAa@ 10070a6c     dllmain.obj
 0002:00003a74       ??_C@_15NBKABECB@?$AAd?$AAe@ 10070a74     dllmain.obj
 0002:00003a7c       ??_C@_15GHPEIIAO@?$AAe?$AAl@ 10070a7c     dllmain.obj
 0002:00003a84       ??_C@_15MNPNEAIF@?$AAe?$AAn@ 10070a84     dllmain.obj
 0002:00003a8c       ??_C@_15GPIOMPMH@?$AAe?$AAs@ 10070a8c     dllmain.obj
 0002:00003a94       ??_C@_15NGLOAKJC@?$AAf?$AAi@ 10070a94     dllmain.obj
 0002:00003a9c       ??_C@_15FBKGNKAM@?$AAf?$AAr@ 10070a9c     dllmain.obj
 0002:00003aa4       ??_C@_15KGGCNEFK@?$AAh?$AAe@ 10070aa4     dllmain.obj
 0002:00003aac       ??_C@_15PGHLIDMF@?$AAh?$AAu@ 10070aac     dllmain.obj
 0002:00003ab4       ??_C@_15BIEMAPLM@?$AAi?$AAs@ 10070ab4     dllmain.obj
 0002:00003abc       ??_C@_15IFJLDHAF@?$AAi?$AAt@ 10070abc     dllmain.obj
 0002:00003ac4       ??_C@_15GEMIOCAG@?$AAj?$AAa@ 10070ac4     dllmain.obj
 0002:00003acc       ??_C@_15EPELEGJA@?$AAk?$AAo@ 10070acc     dllmain.obj
 0002:00003ad4       ??_C@_15NDDHIMN@?$AAn?$AAl@ 10070ad4     dllmain.obj
 0002:00003adc       ??_C@_15BPIGNHCD@?$AAn?$AAo@ 10070adc     dllmain.obj
 0002:00003ae4       ??_C@_15DEOPBLCG@?$AAp?$AAl@ 10070ae4     dllmain.obj
 0002:00003aec       ??_C@_15KBECGEFG@?$AAp?$AAt@ 10070aec     dllmain.obj
 0002:00003af4       ??_C@_15GLJCBFMD@?$AAr?$AAo@ 10070af4     dllmain.obj
 0002:00003afc       ??_C@_15FEDGKCDI@?$AAr?$AAu@ 10070afc     dllmain.obj
 0002:00003b04       ??_C@_15GLKMLLHM@?$AAh?$AAr@ 10070b04     dllmain.obj
 0002:00003b0c       ??_C@_15CPKMFBDB@?$AAs?$AAk@ 10070b0c     dllmain.obj
 0002:00003b14       ??_C@_15BAAIOGMK@?$AAs?$AAq@ 10070b14     dllmain.obj
 0002:00003b1c       ??_C@_15INNPNOHD@?$AAs?$AAv@ 10070b1c     dllmain.obj
 0002:00003b24       ??_C@_15CABMMOGH@?$AAt?$AAh@ 10070b24     dllmain.obj
 0002:00003b2c       ??_C@_15BPLIHJJM@?$AAt?$AAr@ 10070b2c     dllmain.obj
 0002:00003b34       ??_C@_15NEOEKKDJ@?$AAu?$AAr@ 10070b34     dllmain.obj
 0002:00003b3c       ??_C@_15NFICGAJK@?$AAi?$AAd@ 10070b3c     dllmain.obj
 0002:00003b44       ??_C@_15PJPFLCCM@?$AAu?$AAk@ 10070b44     dllmain.obj
 0002:00003b4c       ??_C@_15HPJPHDM@?$AAb?$AAe@ 10070b4c     dllmain.obj
 0002:00003b54       ??_C@_15LCHLGJII@?$AAs?$AAl@ 10070b54     dllmain.obj
 0002:00003b5c       ??_C@_15PCFJPHHO@?$AAe?$AAt@ 10070b5c     dllmain.obj
 0002:00003b64       ??_C@_15HPFPGODN@?$AAl?$AAv@ 10070b64     dllmain.obj
 0002:00003b6c       ??_C@_15NFFGKGLG@?$AAl?$AAt@ 10070b6c     dllmain.obj
 0002:00003b74       ??_C@_15BDAKCCHN@?$AAf?$AAa@ 10070b74     dllmain.obj
 0002:00003b7c       ??_C@_15NFGIAIAJ@?$AAv?$AAi@ 10070b7c     dllmain.obj
 0002:00003b84       ??_C@_15LMKNDMHN@?$AAh?$AAy@ 10070b84     dllmain.obj
 0002:00003b8c       ??_C@_15IJBHMCFL@?$AAa?$AAz@ 10070b8c     dllmain.obj
 0002:00003b94       ??_C@_15EKOFJABL@?$AAe?$AAu@ 10070b94     dllmain.obj
 0002:00003b9c       ??_C@_15BGHADCNK@?$AAm?$AAk@ 10070b9c     dllmain.obj
 0002:00003ba4       ??_C@_15JDNICKHM@?$AAa?$AAf@ 10070ba4     dllmain.obj
 0002:00003bac       ??_C@_15KPJEDBKD@?$AAk?$AAa@ 10070bac     dllmain.obj
 0002:00003bb4       ??_C@_15PDNFFFEO@?$AAf?$AAo@ 10070bb4     dllmain.obj
 0002:00003bbc       ??_C@_15OMLEGLOC@?$AAh?$AAi@ 10070bbc     dllmain.obj
 0002:00003bc4       ??_C@_15IDNNENKK@?$AAm?$AAs@ 10070bc4     dllmain.obj
 0002:00003bcc       ??_C@_15MACJNBMH@?$AAk?$AAk@ 10070bcc     dllmain.obj
 0002:00003bd4       ??_C@_15DKDJEOND@?$AAk?$AAy@ 10070bd4     dllmain.obj
 0002:00003bdc       ??_C@_15DFGDLJBG@?$AAs?$AAw@ 10070bdc     dllmain.obj
 0002:00003be4       ??_C@_15BBFAICNG@?$AAu?$AAz@ 10070be4     dllmain.obj
 0002:00003bec       ??_C@_15DKNDCGEA@?$AAt?$AAt@ 10070bec     dllmain.obj
 0002:00003bf4       ??_C@_15MGIFMDPL@?$AAp?$AAa@ 10070bf4     dllmain.obj
 0002:00003bfc       ??_C@_15HCNDBBA@?$AAg?$AAu@ 10070bfc     dllmain.obj
 0002:00003c04       ??_C@_15FNBEIBON@?$AAt?$AAa@ 10070c04     dllmain.obj
 0002:00003c0c       ??_C@_15NCHGBGLK@?$AAt?$AAe@ 10070c0c     dllmain.obj
 0002:00003c14       ??_C@_15PHPHCBPF@?$AAk?$AAn@ 10070c14     dllmain.obj
 0002:00003c1c       ??_C@_15DLGBCKMP@?$AAm?$AAr@ 10070c1c     dllmain.obj
 0002:00003c24       ??_C@_15EABBLBFF@?$AAs?$AAa@ 10070c24     dllmain.obj
 0002:00003c2c       ??_C@_15CBKOMCOI@?$AAm?$AAn@ 10070c2c     dllmain.obj
 0002:00003c34       ??_C@_15CKDMCJAF@?$AAg?$AAl@ 10070c34     dllmain.obj
 0002:00003c3c       ??_C@_17CNJFBPG@?$AAk?$AAo?$AAk@ 10070c3c     dllmain.obj
 0002:00003c48       ??_C@_17FFBJICPL@?$AAs?$AAy?$AAr@ 10070c48     dllmain.obj
 0002:00003c54       ??_C@_17KPNDCPAF@?$AAd?$AAi?$AAv@ 10070c54     dllmain.obj
 0002:00003c60       ??_C@_11LOCGONAA@@         10070c60     dllmain.obj
 0002:00003c64       ??_C@_1M@OKAHONE@?$AAa?$AAr?$AA?9?$AAS?$AAA@ 10070c64     dllmain.obj
 0002:00003c74       ??_C@_1M@FFFIGIGK@?$AAb?$AAg?$AA?9?$AAB?$AAG@ 10070c74     dllmain.obj
 0002:00003c84       ??_C@_1M@BJNKEDC@?$AAc?$AAa?$AA?9?$AAE?$AAS@ 10070c84     dllmain.obj
 0002:00003c94       ??_C@_1M@CLNBBOPM@?$AAz?$AAh?$AA?9?$AAT?$AAW@ 10070c94     dllmain.obj
 0002:00003ca4       ??_C@_1M@IJJHFJHA@?$AAc?$AAs?$AA?9?$AAC?$AAZ@ 10070ca4     dllmain.obj
 0002:00003cb4       ??_C@_1M@CLPEOBGI@?$AAd?$AAa?$AA?9?$AAD?$AAK@ 10070cb4     dllmain.obj
 0002:00003cc4       ??_C@_1M@MCMADGCB@?$AAd?$AAe?$AA?9?$AAD?$AAE@ 10070cc4     dllmain.obj
 0002:00003cd4       ??_C@_1M@OOCKEMAM@?$AAe?$AAl?$AA?9?$AAG?$AAR@ 10070cd4     dllmain.obj
 0002:00003ce4       ??_C@_1M@BMHNFIME@?$AAe?$AAn?$AA?9?$AAU?$AAS@ 10070ce4     dllmain.obj
 0002:00003cf4       ??_C@_1M@DDNJFGID@?$AAf?$AAi?$AA?9?$AAF?$AAI@ 10070cf4     dllmain.obj
 0002:00003d04       ??_C@_1M@GLIPPMAC@?$AAf?$AAr?$AA?9?$AAF?$AAR@ 10070d04     dllmain.obj
 0002:00003d14       ??_C@_1M@GFMCHPE@?$AAh?$AAe?$AA?9?$AAI?$AAL@ 10070d14     dllmain.obj
 0002:00003d24       ??_C@_1M@MHLPGNKM@?$AAh?$AAu?$AA?9?$AAH?$AAU@ 10070d24     dllmain.obj
 0002:00003d34       ??_C@_1M@LPDDNNPN@?$AAi?$AAs?$AA?9?$AAI?$AAS@ 10070d34     dllmain.obj
 0002:00003d44       ??_C@_1M@MADIPODN@?$AAi?$AAt?$AA?9?$AAI?$AAT@ 10070d44     dllmain.obj
 0002:00003d54       ??_C@_1M@HPNHIDJI@?$AAj?$AAa?$AA?9?$AAJ?$AAP@ 10070d54     dllmain.obj
 0002:00003d64       ??_C@_1M@JLOOOEGK@?$AAk?$AAo?$AA?9?$AAK?$AAR@ 10070d64     dllmain.obj
 0002:00003d74       ??_C@_1M@IHBJJGG@?$AAn?$AAl?$AA?9?$AAN?$AAL@ 10070d74     dllmain.obj
 0002:00003d84       ??_C@_1M@EANAGDL@?$AAn?$AAb?$AA?9?$AAN?$AAO@ 10070d84     dllmain.obj
 0002:00003d94       ??_C@_1M@NEIEMEGP@?$AAp?$AAl?$AA?9?$AAP?$AAL@ 10070d94     dllmain.obj
 0002:00003da4       ??_C@_1M@BOCFIGEP@?$AAp?$AAt?$AA?9?$AAB?$AAR@ 10070da4     dllmain.obj
 0002:00003db4       ??_C@_1M@IMPFOPBG@?$AAr?$AAo?$AA?9?$AAR?$AAO@ 10070db4     dllmain.obj
 0002:00003dc4       ??_C@_1M@IDNNEJMM@?$AAr?$AAu?$AA?9?$AAR?$AAU@ 10070dc4     dllmain.obj
 0002:00003dd4       ??_C@_1M@LILEEOGM@?$AAh?$AAr?$AA?9?$AAH?$AAR@ 10070dd4     dllmain.obj
 0002:00003de4       ??_C@_1M@FKIFEHPB@?$AAs?$AAk?$AA?9?$AAS?$AAK@ 10070de4     dllmain.obj
 0002:00003df4       ??_C@_1M@LJMAMNPJ@?$AAs?$AAq?$AA?9?$AAA?$AAL@ 10070df4     dllmain.obj
 0002:00003e04       ??_C@_1M@GIAKDKJK@?$AAs?$AAv?$AA?9?$AAS?$AAE@ 10070e04     dllmain.obj
 0002:00003e14       ??_C@_1M@MKJKIKCL@?$AAt?$AAh?$AA?9?$AAT?$AAH@ 10070e14     dllmain.obj
 0002:00003e24       ??_C@_1M@MFLCCMPB@?$AAt?$AAr?$AA?9?$AAT?$AAR@ 10070e24     dllmain.obj
 0002:00003e34       ??_C@_1M@OIJHDKJN@?$AAu?$AAr?$AA?9?$AAP?$AAK@ 10070e34     dllmain.obj
 0002:00003e44       ??_C@_1M@LHIPCIEK@?$AAi?$AAd?$AA?9?$AAI?$AAD@ 10070e44     dllmain.obj
 0002:00003e54       ??_C@_1M@MFMOBGI@?$AAu?$AAk?$AA?9?$AAU?$AAA@ 10070e54     dllmain.obj
 0002:00003e64       ??_C@_1M@OBGLJIPL@?$AAb?$AAe?$AA?9?$AAB?$AAY@ 10070e64     dllmain.obj
 0002:00003e74       ??_C@_1M@BCFAJEAD@?$AAs?$AAl?$AA?9?$AAS?$AAI@ 10070e74     dllmain.obj
 0002:00003e84       ??_C@_1M@FKFFEDDN@?$AAe?$AAt?$AA?9?$AAE?$AAE@ 10070e84     dllmain.obj
 0002:00003e94       ??_C@_1M@KGKKAACI@?$AAl?$AAv?$AA?9?$AAL?$AAV@ 10070e94     dllmain.obj
 0002:00003ea4       ??_C@_1M@IFGBIJO@?$AAl?$AAt?$AA?9?$AAL?$AAT@ 10070ea4     dllmain.obj
 0002:00003eb4       ??_C@_1M@FGEAHEDM@?$AAf?$AAa?$AA?9?$AAI?$AAR@ 10070eb4     dllmain.obj
 0002:00003ec4       ??_C@_1M@KBMAIBFN@?$AAv?$AAi?$AA?9?$AAV?$AAN@ 10070ec4     dllmain.obj
 0002:00003ed4       ??_C@_1M@GPCBKDJK@?$AAh?$AAy?$AA?9?$AAA?$AAM@ 10070ed4     dllmain.obj
 0002:00003ee4       ??_C@_1BG@BECMDDJB@?$AAa?$AAz?$AA?9?$AAA?$AAZ?$AA?9?$AAL?$AAa?$AAt?$AAn@ 10070ee4     dllmain.obj
 0002:00003f00       ??_C@_1M@MAOFCAEA@?$AAe?$AAu?$AA?9?$AAE?$AAS@ 10070f00     dllmain.obj
 0002:00003f10       ??_C@_1M@IGHABKPI@?$AAm?$AAk?$AA?9?$AAM?$AAK@ 10070f10     dllmain.obj
 0002:00003f20       ??_C@_1M@IAIGNEJG@?$AAt?$AAn?$AA?9?$AAZ?$AAA@ 10070f20     dllmain.obj
 0002:00003f30       ??_C@_1M@IIJCOJFA@?$AAx?$AAh?$AA?9?$AAZ?$AAA@ 10070f30     dllmain.obj
 0002:00003f40       ??_C@_1M@LGPJHNJH@?$AAz?$AAu?$AA?9?$AAZ?$AAA@ 10070f40     dllmain.obj
 0002:00003f50       ??_C@_1M@HOKAOIO@?$AAa?$AAf?$AA?9?$AAZ?$AAA@ 10070f50     dllmain.obj
 0002:00003f60       ??_C@_1M@DPCLHLIE@?$AAk?$AAa?$AA?9?$AAG?$AAE@ 10070f60     dllmain.obj
 0002:00003f70       ??_C@_1M@BLKMHJBI@?$AAf?$AAo?$AA?9?$AAF?$AAO@ 10070f70     dllmain.obj
 0002:00003f80       ??_C@_1M@LGGJAPPB@?$AAh?$AAi?$AA?9?$AAI?$AAN@ 10070f80     dllmain.obj
 0002:00003f90       ??_C@_1M@FIKPIHFE@?$AAm?$AAt?$AA?9?$AAM?$AAT@ 10070f90     dllmain.obj
 0002:00003fa0       ??_C@_1M@HEGGPBFA@?$AAs?$AAe?$AA?9?$AAN?$AAO@ 10070fa0     dllmain.obj
 0002:00003fb0       ??_C@_1M@EIBJEEPA@?$AAm?$AAs?$AA?9?$AAM?$AAY@ 10070fb0     dllmain.obj
 0002:00003fc0       ??_C@_1M@FHLBGMPP@?$AAk?$AAk?$AA?9?$AAK?$AAZ@ 10070fc0     dllmain.obj
 0002:00003fd0       ??_C@_1M@NGJJLCGI@?$AAk?$AAy?$AA?9?$AAK?$AAG@ 10070fd0     dllmain.obj
 0002:00003fe0       ??_C@_1M@GIENNBFC@?$AAs?$AAw?$AA?9?$AAK?$AAE@ 10070fe0     dllmain.obj
 0002:00003ff0       ??_C@_1BG@NDGMJIMJ@?$AAu?$AAz?$AA?9?$AAU?$AAZ?$AA?9?$AAL?$AAa?$AAt?$AAn@ 10070ff0     dllmain.obj
 0002:0000400c       ??_C@_1M@IDCCIHBC@?$AAt?$AAt?$AA?9?$AAR?$AAU@ 1007100c     dllmain.obj
 0002:0000401c       ??_C@_1M@LOICPMOJ@?$AAb?$AAn?$AA?9?$AAI?$AAN@ 1007101c     dllmain.obj
 0002:0000402c       ??_C@_1M@KPKKNEAH@?$AAp?$AAa?$AA?9?$AAI?$AAN@ 1007102c     dllmain.obj
 0002:0000403c       ??_C@_1M@PJGPPBOG@?$AAg?$AAu?$AA?9?$AAI?$AAN@ 1007103c     dllmain.obj
 0002:0000404c       ??_C@_1M@KMKMOPHI@?$AAt?$AAa?$AA?9?$AAI?$AAN@ 1007104c     dllmain.obj
 0002:0000405c       ??_C@_1M@KFEHEPAC@?$AAt?$AAe?$AA?9?$AAI?$AAN@ 1007105c     dllmain.obj
 0002:0000406c       ??_C@_1M@CDCLMGHI@?$AAk?$AAn?$AA?9?$AAI?$AAN@ 1007106c     dllmain.obj
 0002:0000407c       ??_C@_1M@MIODLDKF@?$AAm?$AAl?$AA?9?$AAI?$AAN@ 1007107c     dllmain.obj
 0002:0000408c       ??_C@_1M@PBIEACPO@?$AAm?$AAr?$AA?9?$AAI?$AAN@ 1007108c     dllmain.obj
 0002:0000409c       ??_C@_1M@NIDEAGPH@?$AAs?$AAa?$AA?9?$AAI?$AAN@ 1007109c     dllmain.obj
 0002:000040ac       ??_C@_1M@FHIHCBIO@?$AAm?$AAn?$AA?9?$AAM?$AAN@ 100710ac     dllmain.obj
 0002:000040bc       ??_C@_1M@JAIJPENP@?$AAc?$AAy?$AA?9?$AAG?$AAB@ 100710bc     dllmain.obj
 0002:000040cc       ??_C@_1M@PHGFBEPN@?$AAg?$AAl?$AA?9?$AAE?$AAS@ 100710cc     dllmain.obj
 0002:000040dc       ??_C@_1O@KPIPDNCP@?$AAk?$AAo?$AAk?$AA?9?$AAI?$AAN@ 100710dc     dllmain.obj
 0002:000040ec       ??_C@_1O@KNHJLDJA@?$AAs?$AAy?$AAr?$AA?9?$AAS?$AAY@ 100710ec     dllmain.obj
 0002:000040fc       ??_C@_1O@MKEKBLAH@?$AAd?$AAi?$AAv?$AA?9?$AAM?$AAV@ 100710fc     dllmain.obj
 0002:0000410c       ??_C@_1O@OHDCKDDF@?$AAq?$AAu?$AAz?$AA?9?$AAB?$AAO@ 1007110c     dllmain.obj
 0002:0000411c       ??_C@_1M@LEPJNLFD@?$AAn?$AAs?$AA?9?$AAZ?$AAA@ 1007111c     dllmain.obj
 0002:0000412c       ??_C@_1M@OMLEIIJB@?$AAm?$AAi?$AA?9?$AAN?$AAZ@ 1007112c     dllmain.obj
 0002:0000413c       ??_C@_1M@PMPEAILG@?$AAa?$AAr?$AA?9?$AAI?$AAQ@ 1007113c     dllmain.obj
 0002:0000414c       ??_C@_1M@BIBDDEMK@?$AAz?$AAh?$AA?9?$AAC?$AAN@ 1007114c     dllmain.obj
 0002:0000415c       ??_C@_1M@CNKPNOEE@?$AAd?$AAe?$AA?9?$AAC?$AAH@ 1007115c     dllmain.obj
 0002:0000416c       ??_C@_1M@LKMGMLKO@?$AAe?$AAn?$AA?9?$AAG?$AAB@ 1007116c     dllmain.obj
 0002:0000417c       ??_C@_1M@PGKJFFGL@?$AAe?$AAs?$AA?9?$AAM?$AAX@ 1007117c     dllmain.obj
 0002:0000418c       ??_C@_1M@DNNANBDC@?$AAf?$AAr?$AA?9?$AAB?$AAE@ 1007118c     dllmain.obj
 0002:0000419c       ??_C@_1M@HLGMDFHM@?$AAi?$AAt?$AA?9?$AAC?$AAH@ 1007119c     dllmain.obj
 0002:000041ac       ??_C@_1M@CLLBGJH@?$AAn?$AAl?$AA?9?$AAB?$AAE@ 100711ac     dllmain.obj
 0002:000041bc       ??_C@_1M@BODBOGLF@?$AAn?$AAn?$AA?9?$AAN?$AAO@ 100711bc     dllmain.obj
 0002:000041cc       ??_C@_1M@HFFAHKAD@?$AAp?$AAt?$AA?9?$AAP?$AAT@ 100711cc     dllmain.obj
 0002:000041dc       ??_C@_1BG@LNOAKHIE@?$AAs?$AAr?$AA?9?$AAS?$AAP?$AA?9?$AAL?$AAa?$AAt?$AAn@ 100711dc     dllmain.obj
 0002:000041f8       ??_C@_1M@HBMHBGAK@?$AAs?$AAv?$AA?9?$AAF?$AAI@ 100711f8     dllmain.obj
 0002:00004208       ??_C@_1BG@DGCJGJBE@?$AAa?$AAz?$AA?9?$AAA?$AAZ?$AA?9?$AAC?$AAy?$AAr?$AAl@ 10071208     dllmain.obj
 0002:00004224       ??_C@_1M@KEJDAAHB@?$AAs?$AAe?$AA?9?$AAS?$AAE@ 10071224     dllmain.obj
 0002:00004234       ??_C@_1M@HEIBJJAD@?$AAm?$AAs?$AA?9?$AAB?$AAN@ 10071234     dllmain.obj
 0002:00004244       ??_C@_1BG@PBGJMCEM@?$AAu?$AAz?$AA?9?$AAU?$AAZ?$AA?9?$AAC?$AAy?$AAr?$AAl@ 10071244     dllmain.obj
 0002:00004260       ??_C@_1O@LAOBCMDF@?$AAq?$AAu?$AAz?$AA?9?$AAE?$AAC@ 10071260     dllmain.obj
 0002:00004270       ??_C@_1M@POEEMAIO@?$AAa?$AAr?$AA?9?$AAE?$AAG@ 10071270     dllmain.obj
 0002:00004280       ??_C@_1M@EFAKDEDL@?$AAz?$AAh?$AA?9?$AAH?$AAK@ 10071280     dllmain.obj
 0002:00004290       ??_C@_1M@HKKIJHGI@?$AAd?$AAe?$AA?9?$AAA?$AAT@ 10071290     dllmain.obj
 0002:000042a0       ??_C@_1M@KBFBEHJF@?$AAe?$AAn?$AA?9?$AAA?$AAU@ 100712a0     dllmain.obj
 0002:000042b0       ??_C@_1M@MNPLFAAH@?$AAe?$AAs?$AA?9?$AAE?$AAS@ 100712b0     dllmain.obj
 0002:000042c0       ??_C@_1M@HJOOJFMA@?$AAf?$AAr?$AA?9?$AAC?$AAA@ 100712c0     dllmain.obj
 0002:000042d0       ??_C@_1BG@JPOFPNAB@?$AAs?$AAr?$AA?9?$AAS?$AAP?$AA?9?$AAC?$AAy?$AAr?$AAl@ 100712d0     dllmain.obj
 0002:000042ec       ??_C@_1M@LNFOCMOB@?$AAs?$AAe?$AA?9?$AAF?$AAI@ 100712ec     dllmain.obj
 0002:000042fc       ??_C@_1O@MGJBOAMB@?$AAq?$AAu?$AAz?$AA?9?$AAP?$AAE@ 100712fc     dllmain.obj
 0002:0000430c       ??_C@_1M@GJINLBOK@?$AAa?$AAr?$AA?9?$AAL?$AAY@ 1007130c     dllmain.obj
 0002:0000431c       ??_C@_1M@GGMNHJNL@?$AAz?$AAh?$AA?9?$AAS?$AAG@ 1007131c     dllmain.obj
 0002:0000432c       ??_C@_1M@HOIKODND@?$AAd?$AAe?$AA?9?$AAL?$AAU@ 1007132c     dllmain.obj
 0002:0000433c       ??_C@_1M@DDOCCGFG@?$AAe?$AAn?$AA?9?$AAC?$AAA@ 1007133c     dllmain.obj
 0002:0000434c       ??_C@_1M@BNOEMJLF@?$AAe?$AAs?$AA?9?$AAG?$AAT@ 1007134c     dllmain.obj
 0002:0000435c       ??_C@_1M@EOGNKEK@?$AAf?$AAr?$AA?9?$AAC?$AAH@ 1007135c     dllmain.obj
 0002:0000436c       ??_C@_1M@FLIDJFHL@?$AAh?$AAr?$AA?9?$AAB?$AAA@ 1007136c     dllmain.obj
 0002:0000437c       ??_C@_1O@FMCELNAJ@?$AAs?$AAm?$AAj?$AA?9?$AAN?$AAO@ 1007137c     dllmain.obj
 0002:0000438c       ??_C@_1M@JHGLJMGJ@?$AAa?$AAr?$AA?9?$AAD?$AAZ@ 1007138c     dllmain.obj
 0002:0000439c       ??_C@_1M@JKKFDCNP@?$AAz?$AAh?$AA?9?$AAM?$AAO@ 1007139c     dllmain.obj
 0002:000043ac       ??_C@_1M@GEEFALPE@?$AAd?$AAe?$AA?9?$AAL?$AAI@ 100713ac     dllmain.obj
 0002:000043bc       ??_C@_1M@IGEOFBG@?$AAe?$AAn?$AA?9?$AAN?$AAZ@ 100713bc     dllmain.obj
 0002:000043cc       ??_C@_1M@KDBONEHP@?$AAe?$AAs?$AA?9?$AAC?$AAR@ 100713cc     dllmain.obj
 0002:000043dc       ??_C@_1M@FHMDOHNN@?$AAf?$AAr?$AA?9?$AAL?$AAU@ 100713dc     dllmain.obj
 0002:000043ec       ??_C@_1BG@NFKKMAFG@?$AAb?$AAs?$AA?9?$AAB?$AAA?$AA?9?$AAL?$AAa?$AAt?$AAn@ 100713ec     dllmain.obj
 0002:00004408       ??_C@_1O@IMNBEMCI@?$AAs?$AAm?$AAj?$AA?9?$AAS?$AAE@ 10071408     dllmain.obj
 0002:00004418       ??_C@_1M@DHHMBNDP@?$AAa?$AAr?$AA?9?$AAM?$AAA@ 10071418     dllmain.obj
 0002:00004428       ??_C@_1M@BNBLJCGH@?$AAe?$AAn?$AA?9?$AAI?$AAE@ 10071428     dllmain.obj
 0002:00004438       ??_C@_1M@GEPAFMDL@?$AAe?$AAs?$AA?9?$AAP?$AAA@ 10071438     dllmain.obj
 0002:00004448       ??_C@_1M@OJONDMDL@?$AAf?$AAr?$AA?9?$AAM?$AAC@ 10071448     dllmain.obj
 0002:00004458       ??_C@_1BG@OBCNFJB@?$AAs?$AAr?$AA?9?$AAB?$AAA?$AA?9?$AAL?$AAa?$AAt?$AAn@ 10071458     dllmain.obj
 0002:00004474       ??_C@_1O@KEMEEGPO@?$AAs?$AAm?$AAa?$AA?9?$AAN?$AAO@ 10071474     dllmain.obj
 0002:00004484       ??_C@_1M@ELMGFODK@?$AAa?$AAr?$AA?9?$AAT?$AAN@ 10071484     dllmain.obj
 0002:00004494       ??_C@_1M@BHDLHFAF@?$AAe?$AAn?$AA?9?$AAZ?$AAA@ 10071494     dllmain.obj
 0002:000044a4       ??_C@_1M@BMGIGLIF@?$AAe?$AAs?$AA?9?$AAD?$AAO@ 100714a4     dllmain.obj
 0002:000044b4       ??_C@_1BG@CMBHIPBE@?$AAs?$AAr?$AA?9?$AAB?$AAA?$AA?9?$AAC?$AAy?$AAr?$AAl@ 100714b4     dllmain.obj
 0002:000044d0       ??_C@_1O@HEDBLHNP@?$AAs?$AAm?$AAa?$AA?9?$AAS?$AAE@ 100714d0     dllmain.obj
 0002:000044e0       ??_C@_1M@DAGCADIM@?$AAa?$AAr?$AA?9?$AAO?$AAM@ 100714e0     dllmain.obj
 0002:000044f0       ??_C@_1M@FODLMICG@?$AAe?$AAn?$AA?9?$AAJ?$AAM@ 100714f0     dllmain.obj
 0002:00004500       ??_C@_1M@DNMLCIHB@?$AAe?$AAs?$AA?9?$AAV?$AAE@ 10071500     dllmain.obj
 0002:00004510       ??_C@_1O@EOKHMKJK@?$AAs?$AAm?$AAs?$AA?9?$AAF?$AAI@ 10071510     dllmain.obj
 0002:00004520       ??_C@_1M@CAFJMKOF@?$AAa?$AAr?$AA?9?$AAY?$AAE@ 10071520     dllmain.obj
 0002:00004530       ??_C@_1M@CBFHIJLI@?$AAe?$AAn?$AA?9?$AAC?$AAB@ 10071530     dllmain.obj
 0002:00004540       ??_C@_1M@BGNFLDN@?$AAe?$AAs?$AA?9?$AAC?$AAO@ 10071540     dllmain.obj
 0002:00004550       ??_C@_1O@JMPHMAMC@?$AAs?$AAm?$AAn?$AA?9?$AAF?$AAI@ 10071550     dllmain.obj
 0002:00004560       ??_C@_1M@JLANABKE@?$AAa?$AAr?$AA?9?$AAS?$AAY@ 10071560     dllmain.obj
 0002:00004570       ??_C@_1M@HPKGCFGN@?$AAe?$AAn?$AA?9?$AAB?$AAZ@ 10071570     dllmain.obj
 0002:00004580       ??_C@_1M@OLJCMLGM@?$AAe?$AAs?$AA?9?$AAP?$AAE@ 10071580     dllmain.obj
 0002:00004590       ??_C@_1M@MKKGFKLE@?$AAa?$AAr?$AA?9?$AAJ?$AAO@ 10071590     dllmain.obj
 0002:000045a0       ??_C@_1M@EKPGLDNI@?$AAe?$AAn?$AA?9?$AAT?$AAT@ 100715a0     dllmain.obj
 0002:000045b0       ??_C@_1M@OONGHFHE@?$AAe?$AAs?$AA?9?$AAA?$AAR@ 100715b0     dllmain.obj
 0002:000045c0       ??_C@_1M@OOJFGBHE@?$AAa?$AAr?$AA?9?$AAL?$AAB@ 100715c0     dllmain.obj
 0002:000045d0       ??_C@_1M@GCEJHNEG@?$AAe?$AAn?$AA?9?$AAZ?$AAW@ 100715d0     dllmain.obj
 0002:000045e0       ??_C@_1M@JNOCAHJI@?$AAe?$AAs?$AA?9?$AAE?$AAC@ 100715e0     dllmain.obj
 0002:000045f0       ??_C@_1M@JEFHPGGB@?$AAa?$AAr?$AA?9?$AAK?$AAW@ 100715f0     dllmain.obj
 0002:00004600       ??_C@_1M@MLKIBJOJ@?$AAe?$AAn?$AA?9?$AAP?$AAH@ 10071600     dllmain.obj
 0002:00004610       ??_C@_1M@BDNIPEND@?$AAe?$AAs?$AA?9?$AAC?$AAL@ 10071610     dllmain.obj
 0002:00004620       ??_C@_1M@MPNMEKBD@?$AAa?$AAr?$AA?9?$AAA?$AAE@ 10071620     dllmain.obj
 0002:00004630       ??_C@_1M@KBJALCPI@?$AAe?$AAs?$AA?9?$AAU?$AAY@ 10071630     dllmain.obj
 0002:00004640       ??_C@_1M@LLCCOAGA@?$AAa?$AAr?$AA?9?$AAB?$AAH@ 10071640     dllmain.obj
 0002:00004650       ??_C@_1M@PBFNCDEL@?$AAe?$AAs?$AA?9?$AAP?$AAY@ 10071650     dllmain.obj
 0002:00004660       ??_C@_1M@EDGINPNP@?$AAa?$AAr?$AA?9?$AAQ?$AAA@ 10071660     dllmain.obj
 0002:00004670       ??_C@_1M@MKDBIIJI@?$AAe?$AAs?$AA?9?$AAB?$AAO@ 10071670     dllmain.obj
 0002:00004680       ??_C@_1M@CPKKEBLD@?$AAe?$AAs?$AA?9?$AAS?$AAV@ 10071680     dllmain.obj
 0002:00004690       ??_C@_1M@NDBGMMJL@?$AAe?$AAs?$AA?9?$AAH?$AAN@ 10071690     dllmain.obj
 0002:000046a0       ??_C@_1M@JIJIBHDP@?$AAe?$AAs?$AA?9?$AAN?$AAI@ 100716a0     dllmain.obj
 0002:000046b0       ??_C@_1M@CGFMKEEK@?$AAe?$AAs?$AA?9?$AAP?$AAR@ 100716b0     dllmain.obj
 0002:000046c0       ??_C@_1O@ICJHKIIK@?$AAz?$AAh?$AA?9?$AAC?$AAH?$AAT@ 100716c0     dllmain.obj
 0002:000046d0       ??_C@_15CLNEJCE@?$AAs?$AAr@ 100716d0     dllmain.obj
 0002:000046d8       __pAtlLocaleNameToIndexTable 100716d8     dllmain.obj
 0002:00004f64       ??_C@_1M@KAHEKEIG@?$AAa?$AAf?$AA?9?$AAz?$AAa@ 10071f64     dllmain.obj
 0002:00004f74       ??_C@_1M@GIECOABL@?$AAa?$AAr?$AA?9?$AAa?$AAe@ 10071f74     dllmain.obj
 0002:00004f84       ??_C@_1M@BMLMEKGI@?$AAa?$AAr?$AA?9?$AAb?$AAh@ 10071f84     dllmain.obj
 0002:00004f94       ??_C@_1M@DAPFDGGB@?$AAa?$AAr?$AA?9?$AAd?$AAz@ 10071f94     dllmain.obj
 0002:00004fa4       ??_C@_1M@FJNKGKIG@?$AAa?$AAr?$AA?9?$AAe?$AAg@ 10071fa4     dllmain.obj
 0002:00004fb4       ??_C@_1M@FLGKKCLO@?$AAa?$AAr?$AA?9?$AAi?$AAq@ 10071fb4     dllmain.obj
 0002:00004fc4       ??_C@_1M@GNDIPALM@?$AAa?$AAr?$AA?9?$AAj?$AAo@ 10071fc4     dllmain.obj
 0002:00004fd4       ??_C@_1M@DDMJFMGJ@?$AAa?$AAr?$AA?9?$AAk?$AAw@ 10071fd4     dllmain.obj
 0002:00004fe4       ??_C@_1M@EJALMLHM@?$AAa?$AAr?$AA?9?$AAl?$AAb@ 10071fe4     dllmain.obj
 0002:00004ff4       ??_C@_1M@MOBDBLOC@?$AAa?$AAr?$AA?9?$AAl?$AAy@ 10071ff4     dllmain.obj
 0002:00005004       ??_C@_1M@JAOCLHDH@?$AAa?$AAr?$AA?9?$AAm?$AAa@ 10072004     dllmain.obj
 0002:00005014       ??_C@_1M@JHPMKJIE@?$AAa?$AAr?$AA?9?$AAo?$AAm@ 10072014     dllmain.obj
 0002:00005024       ??_C@_1M@OEPGHFNH@?$AAa?$AAr?$AA?9?$AAq?$AAa@ 10072024     dllmain.obj
 0002:00005034       ??_C@_1M@KJDONENM@?$AAa?$AAr?$AA?9?$AAs?$AAa@ 10072034     dllmain.obj
 0002:00005044       ??_C@_1M@DMJDKLKM@?$AAa?$AAr?$AA?9?$AAs?$AAy@ 10072044     dllmain.obj
 0002:00005054       ??_C@_1M@OMFIPEDC@?$AAa?$AAr?$AA?9?$AAt?$AAn@ 10072054     dllmain.obj
 0002:00005064       ??_C@_1M@IHMHGAON@?$AAa?$AAr?$AA?9?$AAy?$AAe@ 10072064     dllmain.obj
 0002:00005074       ??_C@_1BG@KDCPGJGB@?$AAa?$AAz?$AA?9?$AAa?$AAz?$AA?9?$AAc?$AAy?$AAr?$AAl@ 10072074     dllmain.obj
 0002:00005090       ??_C@_1BG@IBCKDDOE@?$AAa?$AAz?$AA?9?$AAa?$AAz?$AA?9?$AAl?$AAa?$AAt?$AAn@ 10072090     dllmain.obj
 0002:000050ac       ??_C@_1M@EGPFDCPD@?$AAb?$AAe?$AA?9?$AAb?$AAy@ 100720ac     dllmain.obj
 0002:000050bc       ??_C@_1M@PCMGMCGC@?$AAb?$AAg?$AA?9?$AAb?$AAg@ 100720bc     dllmain.obj
 0002:000050cc       ??_C@_1M@BJBMFGOB@?$AAb?$AAn?$AA?9?$AAi?$AAn@ 100720cc     dllmain.obj
 0002:000050dc       ??_C@_1BG@EAKMMACD@?$AAb?$AAs?$AA?9?$AAb?$AAa?$AA?9?$AAl?$AAa?$AAt?$AAn@ 100720dc     dllmain.obj
 0002:000050f8       ??_C@_1M@KGADAODK@?$AAc?$AAa?$AA?9?$AAe?$AAs@ 100720f8     dllmain.obj
 0002:00005108       ??_C@_1M@COAJPDHI@?$AAc?$AAs?$AA?9?$AAc?$AAz@ 10072108     dllmain.obj
 0002:00005118       ??_C@_1M@DHBHFONH@?$AAc?$AAy?$AA?9?$AAg?$AAb@ 10072118     dllmain.obj
 0002:00005128       ??_C@_1M@IMGKELGA@?$AAd?$AAa?$AA?9?$AAd?$AAk@ 10072128     dllmain.obj
 0002:00005138       ??_C@_1M@NNDGDNGA@?$AAd?$AAe?$AA?9?$AAa?$AAt@ 10072138     dllmain.obj
 0002:00005148       ??_C@_1M@IKDBHEEM@?$AAd?$AAe?$AA?9?$AAc?$AAh@ 10072148     dllmain.obj
 0002:00005158       ??_C@_1M@GFFOJMCJ@?$AAd?$AAe?$AA?9?$AAd?$AAe@ 10072158     dllmain.obj
 0002:00005168       ??_C@_1M@MDNLKBPM@?$AAd?$AAe?$AA?9?$AAl?$AAi@ 10072168     dllmain.obj
 0002:00005178       ??_C@_1M@NJBEEJNL@?$AAd?$AAe?$AA?9?$AAl?$AAu@ 10072178     dllmain.obj
 0002:00005188       ??_C@_1O@GNNELBAP@?$AAd?$AAi?$AAv?$AA?9?$AAm?$AAv@ 10072188     dllmain.obj
 0002:00005198       ??_C@_1M@EJLEOGAE@?$AAe?$AAl?$AA?9?$AAg?$AAr@ 10072198     dllmain.obj
 0002:000051a8       ??_C@_1M@GMPONJN@?$AAe?$AAn?$AA?9?$AAa?$AAu@ 100721a8     dllmain.obj
 0002:000051b8       ??_C@_1M@NIDIIPGF@?$AAe?$AAn?$AA?9?$AAb?$AAz@ 100721b8     dllmain.obj
 0002:000051c8       ??_C@_1M@JEHMIMFO@?$AAe?$AAn?$AA?9?$AAc?$AAa@ 100721c8     dllmain.obj
 0002:000051d8       ??_C@_1M@IGMJCDLA@?$AAe?$AAn?$AA?9?$AAc?$AAb@ 100721d8     dllmain.obj
 0002:000051e8       ??_C@_1M@BNFIGBKG@?$AAe?$AAn?$AA?9?$AAg?$AAb@ 100721e8     dllmain.obj
 0002:000051f8       ??_C@_1M@LKIFDIGP@?$AAe?$AAn?$AA?9?$AAi?$AAe@ 100721f8     dllmain.obj
 0002:00005208       ??_C@_1M@PJKFGCCO@?$AAe?$AAn?$AA?9?$AAj?$AAm@ 10072208     dllmain.obj
 0002:00005218       ??_C@_1M@KPPKEPBO@?$AAe?$AAn?$AA?9?$AAn?$AAz@ 10072218     dllmain.obj
 0002:00005228       ??_C@_1M@GMDGLDOB@?$AAe?$AAn?$AA?9?$AAp?$AAh@ 10072228     dllmain.obj
 0002:00005238       ??_C@_1M@ONGIBJNA@?$AAe?$AAn?$AA?9?$AAt?$AAt@ 10072238     dllmain.obj
 0002:00005248       ??_C@_1M@LLODPCMM@?$AAe?$AAn?$AA?9?$AAu?$AAs@ 10072248     dllmain.obj
 0002:00005258       ??_C@_1M@LAKFNPAN@?$AAe?$AAn?$AA?9?$AAz?$AAa@ 10072258     dllmain.obj
 0002:00005268       ??_C@_1M@MFNHNHEO@?$AAe?$AAn?$AA?9?$AAz?$AAw@ 10072268     dllmain.obj
 0002:00005278       ??_C@_1M@EJEINPHM@?$AAe?$AAs?$AA?9?$AAa?$AAr@ 10072278     dllmain.obj
 0002:00005288       ??_C@_1M@GNKPCCJA@?$AAe?$AAs?$AA?9?$AAb?$AAo@ 10072288     dllmain.obj
 0002:00005298       ??_C@_1M@LEEGFONL@?$AAe?$AAs?$AA?9?$AAc?$AAl@ 10072298     dllmain.obj
 0002:000052a8       ??_C@_1M@KGPDPBDF@?$AAe?$AAs?$AA?9?$AAc?$AAo@ 100722a8     dllmain.obj
 0002:000052b8       ??_C@_1M@EIAHOHH@?$AAe?$AAs?$AA?9?$AAc?$AAr@ 100722b8     dllmain.obj
 0002:000052c8       ??_C@_1M@LLPGMBIN@?$AAe?$AAs?$AA?9?$AAd?$AAo@ 100722c8     dllmain.obj
 0002:000052d8       ??_C@_1M@DKHMKNJA@?$AAe?$AAs?$AA?9?$AAe?$AAc@ 100722d8     dllmain.obj
 0002:000052e8       ??_C@_1M@GKGFPKAP@?$AAe?$AAs?$AA?9?$AAe?$AAs@ 100722e8     dllmain.obj
 0002:000052f8       ??_C@_1M@LKHKGDLN@?$AAe?$AAs?$AA?9?$AAg?$AAt@ 100722f8     dllmain.obj
 0002:00005308       ??_C@_1M@HEIIGGJD@?$AAe?$AAs?$AA?9?$AAh?$AAn@ 10072308     dllmain.obj
 0002:00005318       ??_C@_1M@FBDHPPGD@?$AAe?$AAs?$AA?9?$AAm?$AAx@ 10072318     dllmain.obj
 0002:00005328       ??_C@_1M@DPAGLNDH@?$AAe?$AAs?$AA?9?$AAn?$AAi@ 10072328     dllmain.obj
 0002:00005338       ??_C@_1M@MDGOPGDD@?$AAe?$AAs?$AA?9?$AAp?$AAa@ 10072338     dllmain.obj
 0002:00005348       ??_C@_1M@EMAMGBGE@?$AAe?$AAs?$AA?9?$AAp?$AAe@ 10072348     dllmain.obj
 0002:00005358       ??_C@_1M@IBMCAOEC@?$AAe?$AAs?$AA?9?$AAp?$AAr@ 10072358     dllmain.obj
 0002:00005368       ??_C@_1M@FGMDIJED@?$AAe?$AAs?$AA?9?$AAp?$AAy@ 10072368     dllmain.obj
 0002:00005378       ??_C@_1M@IIDEOLLL@?$AAe?$AAs?$AA?9?$AAs?$AAv@ 10072378     dllmain.obj
 0002:00005388       ??_C@_1M@GAOBIPA@?$AAe?$AAs?$AA?9?$AAu?$AAy@ 10072388     dllmain.obj
 0002:00005398       ??_C@_1M@JKFFICHJ@?$AAe?$AAs?$AA?9?$AAv?$AAe@ 10072398     dllmain.obj
 0002:000053a8       ??_C@_1M@PNMLOJDF@?$AAe?$AAt?$AA?9?$AAe?$AAe@ 100723a8     dllmain.obj
 0002:000053b8       ??_C@_1M@GHHLIKEI@?$AAe?$AAu?$AA?9?$AAe?$AAs@ 100723b8     dllmain.obj
 0002:000053c8       ??_C@_1M@PBNONODE@?$AAf?$AAa?$AA?9?$AAi?$AAr@ 100723c8     dllmain.obj
 0002:000053d8       ??_C@_1M@JEEHPMIL@?$AAf?$AAi?$AA?9?$AAf?$AAi@ 100723d8     dllmain.obj
 0002:000053e8       ??_C@_1M@LMDCNDBA@?$AAf?$AAo?$AA?9?$AAf?$AAo@ 100723e8     dllmain.obj
 0002:000053f8       ??_C@_1M@JKEOHLDK@?$AAf?$AAr?$AA?9?$AAb?$AAe@ 100723f8     dllmain.obj
 0002:00005408       ??_C@_1M@NOHADPMI@?$AAf?$AAr?$AA?9?$AAc?$AAa@ 10072408     dllmain.obj
 0002:00005418       ??_C@_1M@KDHIHAEC@?$AAf?$AAr?$AA?9?$AAc?$AAh@ 10072418     dllmain.obj
 0002:00005428       ??_C@_1M@MMBBFGAK@?$AAf?$AAr?$AA?9?$AAf?$AAr@ 10072428     dllmain.obj
 0002:00005438       ??_C@_1M@PAFNENNF@?$AAf?$AAr?$AA?9?$AAl?$AAu@ 10072438     dllmain.obj
 0002:00005448       ??_C@_1M@EOHDJGDD@?$AAf?$AAr?$AA?9?$AAm?$AAc@ 10072448     dllmain.obj
 0002:00005458       ??_C@_1M@FAPLLOPF@?$AAg?$AAl?$AA?9?$AAe?$AAs@ 10072458     dllmain.obj
 0002:00005468       ??_C@_1M@FOPBFLOO@?$AAg?$AAu?$AA?9?$AAi?$AAn@ 10072468     dllmain.obj
 0002:00005478       ??_C@_1M@KBMCINPM@?$AAh?$AAe?$AA?9?$AAi?$AAl@ 10072478     dllmain.obj
 0002:00005488       ??_C@_1M@BBPHKFPJ@?$AAh?$AAi?$AA?9?$AAi?$AAn@ 10072488     dllmain.obj
 0002:00005498       ??_C@_1M@PMBNDPHD@?$AAh?$AAr?$AA?9?$AAb?$AAa@ 10072498     dllmain.obj
 0002:000054a8       ??_C@_1M@BPCKOEGE@?$AAh?$AAr?$AA?9?$AAh?$AAr@ 100724a8     dllmain.obj
 0002:000054b8       ??_C@_1M@GACBMHKE@?$AAh?$AAu?$AA?9?$AAh?$AAu@ 100724b8     dllmain.obj
 0002:000054c8       ??_C@_1M@MILPAJJC@?$AAh?$AAy?$AA?9?$AAa?$AAm@ 100724c8     dllmain.obj
 0002:000054d8       ??_C@_1M@BABBICEC@?$AAi?$AAd?$AA?9?$AAi?$AAd@ 100724d8     dllmain.obj
 0002:000054e8       ??_C@_1M@BIKNHHPF@?$AAi?$AAs?$AA?9?$AAi?$AAs@ 100724e8     dllmain.obj
 0002:000054f8       ??_C@_1M@NMPCJPHE@?$AAi?$AAt?$AA?9?$AAc?$AAh@ 100724f8     dllmain.obj
 0002:00005508       ??_C@_1M@GHKGFEDF@?$AAi?$AAt?$AA?9?$AAi?$AAt@ 10072508     dllmain.obj
 0002:00005518       ??_C@_1M@NIEJCJJA@?$AAj?$AAa?$AA?9?$AAj?$AAp@ 10072518     dllmain.obj
 0002:00005528       ??_C@_1M@JILFNBIM@?$AAk?$AAa?$AA?9?$AAg?$AAe@ 10072528     dllmain.obj
 0002:00005538       ??_C@_1M@PACPMGPH@?$AAk?$AAk?$AA?9?$AAk?$AAz@ 10072538     dllmain.obj
 0002:00005548       ??_C@_1M@IELFGMHA@?$AAk?$AAn?$AA?9?$AAi?$AAn@ 10072548     dllmain.obj
 0002:00005558       ??_C@_1O@IBBJHCH@?$AAk?$AAo?$AAk?$AA?9?$AAi?$AAn@ 10072558     dllmain.obj
 0002:00005568       ??_C@_1M@DMHAEOGC@?$AAk?$AAo?$AA?9?$AAk?$AAr@ 10072568     dllmain.obj
 0002:00005578       ??_C@_1M@HBAHBIGA@?$AAk?$AAy?$AA?9?$AAk?$AAg@ 10072578     dllmain.obj
 0002:00005588       ??_C@_1M@KPMILCJG@?$AAl?$AAt?$AA?9?$AAl?$AAt@ 10072588     dllmain.obj
 0002:00005598       ??_C@_1M@BDEKKCA@?$AAl?$AAv?$AA?9?$AAl?$AAv@ 10072598     dllmain.obj
 0002:000055a8       ??_C@_1M@ELCKCCJJ@?$AAm?$AAi?$AA?9?$AAn?$AAz@ 100725a8     dllmain.obj
 0002:000055b8       ??_C@_1M@CBOOLAPA@?$AAm?$AAk?$AA?9?$AAm?$AAk@ 100725b8     dllmain.obj
 0002:000055c8       ??_C@_1M@GPHNBJKN@?$AAm?$AAl?$AA?9?$AAi?$AAn@ 100725c8     dllmain.obj
 0002:000055d8       ??_C@_1M@PABJILIG@?$AAm?$AAn?$AA?9?$AAm?$AAn@ 100725d8     dllmain.obj
 0002:000055e8       ??_C@_1M@FGBKKIPG@?$AAm?$AAr?$AA?9?$AAi?$AAn@ 100725e8     dllmain.obj
 0002:000055f8       ??_C@_1M@NDBPDDAL@?$AAm?$AAs?$AA?9?$AAb?$AAn@ 100725f8     dllmain.obj
 0002:00005608       ??_C@_1M@OPIHOOPI@?$AAm?$AAs?$AA?9?$AAm?$AAy@ 10072608     dllmain.obj
 0002:00005618       ??_C@_1M@PPDBCNFM@?$AAm?$AAt?$AA?9?$AAm?$AAt@ 10072618     dllmain.obj
 0002:00005628       ??_C@_1M@KDJDKMDD@?$AAn?$AAb?$AA?9?$AAn?$AAo@ 10072628     dllmain.obj
 0002:00005638       ??_C@_1M@KFCFLMJP@?$AAn?$AAl?$AA?9?$AAb?$AAe@ 10072638     dllmain.obj
 0002:00005648       ??_C@_1M@KPOPDDGO@?$AAn?$AAl?$AA?9?$AAn?$AAl@ 10072648     dllmain.obj
 0002:00005658       ??_C@_1M@LJKPEMLN@?$AAn?$AAn?$AA?9?$AAn?$AAo@ 10072658     dllmain.obj
 0002:00005668       ??_C@_1M@BDGHHBFL@?$AAn?$AAs?$AA?9?$AAz?$AAa@ 10072668     dllmain.obj
 0002:00005678       ??_C@_1M@IDEHOAP@?$AAp?$AAa?$AA?9?$AAi?$AAn@ 10072678     dllmain.obj
 0002:00005688       ??_C@_1M@HDBKGOGH@?$AAp?$AAl?$AA?9?$AAp?$AAl@ 10072688     dllmain.obj
 0002:00005698       ??_C@_1M@LJLLCMEH@?$AAp?$AAt?$AA?9?$AAb?$AAr@ 10072698     dllmain.obj
 0002:000056a8       ??_C@_1M@NCMONAAL@?$AAp?$AAt?$AA?9?$AAp?$AAt@ 100726a8     dllmain.obj
 0002:000056b8       ??_C@_1O@EAKMAJDN@?$AAq?$AAu?$AAz?$AA?9?$AAb?$AAo@ 100726b8     dllmain.obj
 0002:000056c8       ??_C@_1O@BHHPIGDN@?$AAq?$AAu?$AAz?$AA?9?$AAe?$AAc@ 100726c8     dllmain.obj
 0002:000056d8       ??_C@_1O@GBAPEKMJ@?$AAq?$AAu?$AAz?$AA?9?$AAp?$AAe@ 100726d8     dllmain.obj
 0002:000056e8       ??_C@_1M@CLGLEFBO@?$AAr?$AAo?$AA?9?$AAr?$AAo@ 100726e8     dllmain.obj
 0002:000056f8       ??_C@_1M@CEEDODME@?$AAr?$AAu?$AA?9?$AAr?$AAu@ 100726f8     dllmain.obj
 0002:00005708       ??_C@_1M@HPKKKMPP@?$AAs?$AAa?$AA?9?$AAi?$AAn@ 10072708     dllmain.obj
 0002:00005718       ??_C@_1M@BKMAIGOJ@?$AAs?$AAe?$AA?9?$AAf?$AAi@ 10072718     dllmain.obj
 0002:00005728       ??_C@_1M@NDPIFLFI@?$AAs?$AAe?$AA?9?$AAn?$AAo@ 10072728     dllmain.obj
 0002:00005738       ??_C@_1M@DANKKHJ@?$AAs?$AAe?$AA?9?$AAs?$AAe@ 10072738     dllmain.obj
 0002:00005748       ??_C@_1M@PNBLONPJ@?$AAs?$AAk?$AA?9?$AAs?$AAk@ 10072748     dllmain.obj
 0002:00005758       ??_C@_1M@LFMODOAL@?$AAs?$AAl?$AA?9?$AAs?$AAi@ 10072758     dllmain.obj
 0002:00005768       ??_C@_1O@DFKOMPG@?$AAs?$AAm?$AAa?$AA?9?$AAn?$AAo@ 10072768     dllmain.obj
 0002:00005778       ??_C@_1O@NDKPBNNH@?$AAs?$AAm?$AAa?$AA?9?$AAs?$AAe@ 10072778     dllmain.obj
 0002:00005788       ??_C@_1O@PLLKBHAB@?$AAs?$AAm?$AAj?$AA?9?$AAn?$AAo@ 10072788     dllmain.obj
 0002:00005798       ??_C@_1O@CLEPOGCA@?$AAs?$AAm?$AAj?$AA?9?$AAs?$AAe@ 10072798     dllmain.obj
 0002:000057a8       ??_C@_1O@DLGJGKMK@?$AAs?$AAm?$AAn?$AA?9?$AAf?$AAi@ 100727a8     dllmain.obj
 0002:000057b8       ??_C@_1O@OJDJGAJC@?$AAs?$AAm?$AAs?$AA?9?$AAf?$AAi@ 100727b8     dllmain.obj
 0002:000057c8       ??_C@_1M@BOFOGHPB@?$AAs?$AAq?$AA?9?$AAa?$AAl@ 100727c8     dllmain.obj
 0002:000057d8       ??_C@_1BG@LJBBIPGB@?$AAs?$AAr?$AA?9?$AAb?$AAa?$AA?9?$AAc?$AAy?$AAr?$AAl@ 100727d8     dllmain.obj
 0002:000057f4       ??_C@_1BG@JLBENFOE@?$AAs?$AAr?$AA?9?$AAb?$AAa?$AA?9?$AAl?$AAa?$AAt?$AAn@ 100727f4     dllmain.obj
 0002:00005810       ??_C@_1BG@KODPNHE@?$AAs?$AAr?$AA?9?$AAs?$AAp?$AA?9?$AAc?$AAy?$AAr?$AAl@ 10072810     dllmain.obj
 0002:0000582c       ??_C@_1BG@CIOGKHPB@?$AAs?$AAr?$AA?9?$AAs?$AAp?$AA?9?$AAl?$AAa?$AAt?$AAn@ 1007282c     dllmain.obj
 0002:00005848       ??_C@_1M@NGFJLMAC@?$AAs?$AAv?$AA?9?$AAf?$AAi@ 10072848     dllmain.obj
 0002:00005858       ??_C@_1M@MPJEJAJC@?$AAs?$AAv?$AA?9?$AAs?$AAe@ 10072858     dllmain.obj
 0002:00005868       ??_C@_1M@MPNDHLFK@?$AAs?$AAw?$AA?9?$AAk?$AAe@ 10072868     dllmain.obj
 0002:00005878       ??_C@_1O@KOHBJJI@?$AAs?$AAy?$AAr?$AA?9?$AAs?$AAy@ 10072878     dllmain.obj
 0002:00005888       ??_C@_1M@LDCEFHA@?$AAt?$AAa?$AA?9?$AAi?$AAn@ 10072888     dllmain.obj
 0002:00005898       ??_C@_1M@CNJOFAK@?$AAt?$AAe?$AA?9?$AAi?$AAn@ 10072898     dllmain.obj
 0002:000058a8       ??_C@_1M@GNAECACD@?$AAt?$AAh?$AA?9?$AAt?$AAh@ 100728a8     dllmain.obj
 0002:000058b8       ??_C@_1M@CHBIHOJO@?$AAt?$AAn?$AA?9?$AAz?$AAa@ 100728b8     dllmain.obj
 0002:000058c8       ??_C@_1M@GCCMIGPJ@?$AAt?$AAr?$AA?9?$AAt?$AAr@ 100728c8     dllmain.obj
 0002:000058d8       ??_C@_1M@CELMCNBK@?$AAt?$AAt?$AA?9?$AAr?$AAu@ 100728d8     dllmain.obj
 0002:000058e8       ??_C@_1M@KLMCELGA@?$AAu?$AAk?$AA?9?$AAu?$AAa@ 100728e8     dllmain.obj
 0002:000058f8       ??_C@_1M@EPAJJAJF@?$AAu?$AAr?$AA?9?$AAp?$AAk@ 100728f8     dllmain.obj
 0002:00005908       ??_C@_1BG@GEGPMCDJ@?$AAu?$AAz?$AA?9?$AAu?$AAz?$AA?9?$AAc?$AAy?$AAr?$AAl@ 10072908     dllmain.obj
 0002:00005924       ??_C@_1BG@EGGKJILM@?$AAu?$AAz?$AA?9?$AAu?$AAz?$AA?9?$AAl?$AAa?$AAt?$AAn@ 10072924     dllmain.obj
 0002:00005940       ??_C@_1M@GFOCLFF@?$AAv?$AAi?$AA?9?$AAv?$AAn@ 10072940     dllmain.obj
 0002:00005950       ??_C@_1M@CPAMEDFI@?$AAx?$AAh?$AA?9?$AAz?$AAa@ 10072950     dllmain.obj
 0002:00005960       ??_C@_1O@EBKIFIGN@?$AAz?$AAh?$AA?9?$AAc?$AAh?$AAs@ 10072960     dllmain.obj
 0002:00005970       ??_C@_1O@NMHPGANE@?$AAz?$AAh?$AA?9?$AAc?$AAh?$AAt@ 10072970     dllmain.obj
 0002:00005980       ??_C@_1M@LPINJOMC@?$AAz?$AAh?$AA?9?$AAc?$AAn@ 10072980     dllmain.obj
 0002:00005990       ??_C@_1M@OCJEJODD@?$AAz?$AAh?$AA?9?$AAh?$AAk@ 10072990     dllmain.obj
 0002:000059a0       ??_C@_1M@DNDLJINH@?$AAz?$AAh?$AA?9?$AAm?$AAo@ 100729a0     dllmain.obj
 0002:000059b0       ??_C@_1M@MBFDNDND@?$AAz?$AAh?$AA?9?$AAs?$AAg@ 100729b0     dllmain.obj
 0002:000059c0       ??_C@_1M@IMEPLEPE@?$AAz?$AAh?$AA?9?$AAt?$AAw@ 100729c0     dllmain.obj
 0002:000059d0       ??_C@_1M@BBGHNHJP@?$AAz?$AAu?$AA?9?$AAz?$AAa@ 100729d0     dllmain.obj
 0002:000059e0       ?szInvalidDateTime@ATL@@3QBDB 100729e0     dllmain.obj
 0002:000059e4       ??_C@_0BB@KEKMKJPM@Invalid?5DateTime@ 100729e4     dllmain.obj
 0002:000059f8       ?szInvalidDateTimeSpan@ATL@@3QBDB 100729f8     dllmain.obj
 0002:000059fc       ??_C@_0BF@GPPHKJFN@Invalid?5DateTimeSpan@ 100729fc     dllmain.obj
 0002:00005a18       _CLSID_Registrar           10072a18     dllmain.obj
 0002:00005a2c       _IID_IRegistrar            10072a2c     dllmain.obj
 0002:00005a40       _IID_IDocHostUIHandlerDispatch 10072a40     dllmain.obj
 0002:00005a54       _IID_IAxWinHostWindow      10072a54     dllmain.obj
 0002:00005a68       _IID_IAxWinHostWindowLic   10072a68     dllmain.obj
 0002:00005a7c       _IID_IAxWinAmbientDispatch 10072a7c     dllmain.obj
 0002:00005a90       _IID_IAxWinAmbientDispatchEx 10072a90     dllmain.obj
 0002:00005aa4       _IID_IInternalConnection   10072aa4     dllmain.obj
 0002:00005ab8       _LIBID_ATLLib              10072ab8     dllmain.obj
 0002:00005acb       ?chDirSep@ATL@@3DB         10072acb     dllmain.obj
 0002:00005acc       ?chRightBracket@ATL@@3DB   10072acc     dllmain.obj
 0002:00005acd       ?chLeftBracket@ATL@@3DB    10072acd     dllmain.obj
 0002:00005ace       ?chQuote@ATL@@3DB          10072ace     dllmain.obj
 0002:00005acf       ?chEquals@ATL@@3DB         10072acf     dllmain.obj
 0002:00005ad0       ?szStringVal@ATL@@3QBDB    10072ad0     dllmain.obj
 0002:00005ad4       ??_C@_01CPLAODJH@S@        10072ad4     dllmain.obj
 0002:00005ad8       ?multiszStringVal@ATL@@3QBDB 10072ad8     dllmain.obj
 0002:00005adc       ??_C@_01PLPBNMEI@M@        10072adc     dllmain.obj
 0002:00005ae0       ?szDwordVal@ATL@@3QBDB     10072ae0     dllmain.obj
 0002:00005ae4       ??_C@_01CKDDGHAB@D@        10072ae4     dllmain.obj
 0002:00005ae8       ?szBinaryVal@ATL@@3QBDB    10072ae8     dllmain.obj
 0002:00005aec       ??_C@_01HMGJMAIH@B@        10072aec     dllmain.obj
 0002:00005af0       ?szValToken@ATL@@3QBDB     10072af0     dllmain.obj
 0002:00005af4       ??_C@_03LAIAPFCB@Val@      10072af4     dllmain.obj
 0002:00005af8       ?szForceRemove@ATL@@3QBDB  10072af8     dllmain.obj
 0002:00005afc       ??_C@_0M@DBGDLGLL@ForceRemove@ 10072afc     dllmain.obj
 0002:00005b0c       ?szNoRemove@ATL@@3QBDB     10072b0c     dllmain.obj
 0002:00005b10       ??_C@_08KAAPDIAN@NoRemove@ 10072b10     dllmain.obj
 0002:00005b1c       ?szDelete@ATL@@3QBDB       10072b1c     dllmain.obj
 0002:00005b20       ??_C@_06JBKGCNBB@Delete@   10072b20     dllmain.obj
 0002:00005b28       __pRawDllMain              10072b28     dllmain.obj
 0002:00005b2c       ??_C@_13COJANIEC@?$AA0@    10072b2c     dllmain.obj
 0002:00005b30       ??_C@_0M@DGPFJEBB@atlTraceCOM@ 10072b30     dllmain.obj
 0002:00005b40       ??_C@_0L@LHELAKBP@atlTraceQI@ 10072b40     dllmain.obj
 0002:00005b50       ??_C@_0BC@MALHFBAO@atlTraceRegistrar@ 10072b50     dllmain.obj
 0002:00005b68       ??_C@_0BB@ILPPDKFL@atlTraceRefcount@ 10072b68     dllmain.obj
 0002:00005b7c       ??_C@_0BC@DGHHNKDC@atlTraceWindowing@ 10072b7c     dllmain.obj
 0002:00005b94       ??_C@_0BB@GHKJKKIE@atlTraceControls@ 10072b94     dllmain.obj
 0002:00005ba8       ??_C@_0BA@DKOAAGGM@atlTraceHosting@ 10072ba8     dllmain.obj
 0002:00005bbc       ??_C@_0BB@BEBMGMDO@atlTraceDBClient@ 10072bbc     dllmain.obj
 0002:00005bd0       ??_C@_0BD@KOADKDIA@atlTraceDBProvider@ 10072bd0     dllmain.obj
 0002:00005be8       ??_C@_0P@LNEGBOLO@atlTraceSnapin@ 10072be8     dllmain.obj
 0002:00005bfc       ??_C@_0BA@MCBFIDIC@atlTraceNotImpl@ 10072bfc     dllmain.obj
 0002:00005c10       ??_C@_0BD@PJPCCAKP@atlTraceAllocation@ 10072c10     dllmain.obj
 0002:00005c28       ??_C@_0N@BNNILHBE@atlTraceTime@ 10072c28     dllmain.obj
 0002:00005c38       ??_C@_0O@MEOJAOKK@atlTraceCache@ 10072c38     dllmain.obj
 0002:00005c48       ??_C@_0BA@IDBKCKK@atlTraceStencil@ 10072c48     dllmain.obj
 0002:00005c5c       ??_C@_0M@IOBBMAHG@atlTraceMap@ 10072c5c     dllmain.obj
 0002:00005c6c       ??_C@_0N@FEAAACHD@atlTraceUtil@ 10072c6c     dllmain.obj
 0002:00005c7c       ??_C@_0BB@DNJDADMG@atlTraceSecurity@ 10072c7c     dllmain.obj
 0002:00005c90       ??_C@_0N@KLPNCFEE@atlTraceSync@ 10072c90     dllmain.obj
 0002:00005ca0       ??_C@_0O@KHOBHOBJ@atlTraceISAPI@ 10072ca0     dllmain.obj
 0002:00005cb4       ??_7CWin32Heap@ATL@@6B@    10072cb4     dllmain.obj
 0002:00005ccc       ??_C@_1BG@CLPBKBHG@?$AAh?$AAH?$AAe?$AAa?$AAp?$AA?5?$AA?$CB?$AA?$DN?$AA?5?$AA0@ 10072ccc     dllmain.obj
 0002:00005ce8       ??_C@_1OC@OFNGGEPE@?$AAc?$AA?3?$AA?2?$AAp?$AAr?$AAo?$AAg?$AAr?$AAa?$AAm?$AA?5?$AAf?$AAi?$AAl?$AAe@ 10072ce8     dllmain.obj
 0002:00005df8       ??_C@_1BC@PMINONJG@?$AAb?$AAS?$AAu?$AAc?$AAc?$AAe?$AAs?$AAs@ 10072df8     dllmain.obj
 0002:00005e10       ??_C@_1BE@BLGCOAPB@?$AAn?$AAR?$AAe?$AAf?$AAs?$AA?5?$AA?$DO?$AA?5?$AA0@ 10072e10     dllmain.obj
 0002:00005e28       ??_C@_1OK@IGLFIDNJ@?$AAc?$AA?3?$AA?2?$AAp?$AAr?$AAo?$AAg?$AAr?$AAa?$AAm?$AA?5?$AAf?$AAi?$AAl?$AAe@ 10072e28     dllmain.obj
 0002:00005f40       ??_C@_1CA@MEFFJNJ@?$AAp?$AAS?$AAt?$AAr?$AAi?$AAn?$AAg?$AAM?$AAg?$AAr?$AA?5?$AA?$DN?$AA?$DN?$AA?5?$AA0@ 10072f40     dllmain.obj
 0002:00005f68       ??_C@_0HC@MPCLIDIG@c?3?2program?5files?5?$CIx86?$CJ?2microsof@ 10072f68     dllmain.obj
 0002:00005ff0       ??_C@_0EA@EJEMLPD@ERROR?5?3?5Unable?5to?5initialize?5cr@ 10072ff0     dllmain.obj
 0002:00006040       ??_C@_0ED@GFNHMOFC@ERROR?5?3?5Unable?5to?5initialize?5cr@ 10073040     dllmain.obj
 0002:00006094       ??_7CAtlStringMgr@ATL@@6B@ 10073094     dllmain.obj
 0002:000060b8       ??_C@_1OC@GNAIJDEH@?$AAc?$AA?3?$AA?2?$AAp?$AAr?$AAo?$AAg?$AAr?$AAa?$AAm?$AA?5?$AAf?$AAi?$AAl?$AAe@ 100730b8     dllmain.obj
 0002:000061c8       ??_C@_1BG@IEBIBJEI@?$AAp?$AAD?$AAa?$AAt?$AAa?$AA?5?$AA?$CB?$AA?$DN?$AA?5?$AA0@ 100731c8     dllmain.obj
 0002:000061e4       ??_C@_1DE@KEEBDKDC@?$AAp?$AAD?$AAa?$AAt?$AAa?$AA?9?$AA?$DO?$AAp?$AAS?$AAt?$AAr?$AAi?$AAn?$AAg?$AAM@ 100731e4     dllmain.obj
 0002:00006224       ??_C@_03CGPANDLG@?$CFTs@   10073224     dllmain.obj
 0002:00006228       ??_C@_0DL@NEFJKPBL@c?3?2work?2client_pc?2framework_ext@ 10073228     dllmain.obj
 0002:00006270       ??_C@_0CF@IMAAGBOO@NMAvatar?4DLL?$MA?$LL?5?C?J?$LB?b?H?$KN?G?O?$LA?m?5?$MA?V?$LN?$MA?$LE@ 10073270     dllmain.obj
 0002:0000629c       ??_C@_0CD@OFPDBFAL@NMAvatar?4DLL?$MA?$LL?5?A?$LO?$LH?a?G?O?$LA?m?5?$MA?V?$LN?$MA?$LE?O?$LE@ 1007329c     dllmain.obj
 0002:000062c8       ??_C@_1EA@JHMKKLFC@?$AAn?$AAI?$AAn?$AAd?$AAe?$AAx?$AA?5?$AA?$DO?$AA?$DN?$AA?5?$AA0?$AA?5?$AA?$CG?$AA?$CG?$AA?5@ 100732c8     dllmain.obj
 0002:00006318       ??_C@_1OM@EKDPBNLB@?$AAc?$AA?3?$AA?2?$AAp?$AAr?$AAo?$AAg?$AAr?$AAa?$AAm?$AA?5?$AAf?$AAi?$AAl?$AAe@ 10073318     dllmain.obj
 0002:00006438       ??_7CLayerObj@@6B@         10073438     xLayer.obj
 0002:00006444       ??_7CLayerSprObj@@6B@      10073444     xLayer.obj
 0002:0000644c       ??_C@_0N@NCEKBBCM@93XYZ?5sprite@ 1007344c     xSprite.obj
 0002:0000645c       ??_C@_02GMLFBBN@wb@        1007345c     xSprite.obj
 0002:00006464       ??_7CUnzipFile@@6B@        10073464     UnzipFile.obj
 0002:00006470       ??_C@_0EJ@LJBPICAN@c?3?2work?2client_pc?2framework_ext@ 10073470     UnzipFile.obj
 0002:000064c8       ??_C@_05DFCKICEH@1?42?45@  100734c8     UnzipFile.obj
 0002:000064d0       ?classCZipException@CZipException@@2UCRuntimeClass@@B 100734d0     ZipException.obj
 0002:000064f8       ??_7CZipException@@6B@     100734f8     ZipException.obj
 0002:00006520       ??_C@_0O@CGDJFBGP@CZipException@ 10073520     ZipException.obj
 0002:00006534       ??_7CZipFile@@6B@          10073534     ZipFile.obj
 0002:00006540       ??_C@_0EH@PJFONFEH@c?3?2work?2client_pc?2framework_ext@ 10073540     ZipFile.obj
 0002:00006598       ??_C@_01JOAMLHOP@?9@       10073598     ZipFile.obj
 0002:000065a0       ??_7CZUBaseFile@@6B@       100735a0     ZUBaseFile.obj
 0002:00008c10       _deflate_copyright         10075c10     deflate.obj
 0002:00008d00       _hello                     10075d00     example.obj
 0002:00008d10       _dictionary                10075d10     example.obj
 0002:00008d1c       ??_C@_08EJNPIMGB@compress@ 10075d1c     example.obj
 0002:00008d28       ??_C@_0O@EBCHHDBD@?$CFs?5error?3?5?$CFd?6@ 10075d28     example.obj
 0002:00008d38       ??_C@_07BOKCJEKD@garbage@  10075d38     example.obj
 0002:00008d44       ??_C@_0L@IEAKODFB@uncompress@ 10075d44     example.obj
 0002:00008d54       ??_C@_0BA@BCECHDBJ@bad?5uncompress?6@ 10075d54     example.obj
 0002:00008d68       ??_C@_0BC@BCNLNNAO@uncompress?$CI?$CJ?3?5?$CFs?6@ 10075d68     example.obj
 0002:00008d80       ??_C@_0O@GLKLCAGL@gzopen?5error?6@ 10075d80     example.obj
 0002:00008d90       ??_C@_04LKFHPNEI@ello@     10075d90     example.obj
 0002:00008d98       ??_C@_0BA@CICIGONN@gzputs?5err?3?5?$CFs?6@ 10075d98     example.obj
 0002:00008dac       ??_C@_05CJBACGMB@hello@    10075dac     example.obj
 0002:00008db4       ??_C@_05LCFGCIPD@?0?5?$CFs?$CB@ 10075db4     example.obj
 0002:00008dbc       ??_C@_0BC@GDCJIBGL@gzprintf?5err?3?5?$CFs?6@ 10075dbc     example.obj
 0002:00008dd4       ??_C@_0BA@GODHEHAO@gzread?5err?3?5?$CFs?6@ 10075dd4     example.obj
 0002:00008de8       ??_C@_0BA@OIEMHFKP@bad?5gzread?3?5?$CFs?6@ 10075de8     example.obj
 0002:00008dfc       ??_C@_0O@LOIFEMGI@gzread?$CI?$CJ?3?5?$CFs?6@ 10075dfc     example.obj
 0002:00008e0c       ??_C@_0CD@JNPNHAGM@gzseek?5error?0?5pos?$DN?$CFld?0?5gztell?$DN?$CF@ 10075e0c     example.obj
 0002:00008e38       ??_C@_0O@ILCFDDJN@gzgetc?5error?6@ 10075e38     example.obj
 0002:00008e48       ??_C@_0BA@OAKMOHMK@gzungetc?5error?6@ 10075e48     example.obj
 0002:00008e5c       ??_C@_0BN@KAOGFIK@gzgets?5err?5after?5gzseek?3?5?$CFs?6@ 10075e5c     example.obj
 0002:00008e80       ??_C@_0BJ@LHFKGOKC@bad?5gzgets?5after?5gzseek?6@ 10075e80     example.obj
 0002:00008ea0       ??_C@_0BL@MEMFKGBN@gzgets?$CI?$CJ?5after?5gzseek?3?5?$CFs?6@ 10075ea0     example.obj
 0002:00008ec0       ??_C@_0M@DGEDGOLL@deflateInit@ 10075ec0     example.obj
 0002:00008ed0       ??_C@_07FNHFFEJG@deflate@  10075ed0     example.obj
 0002:00008edc       ??_C@_0L@OIDEDJHK@deflateEnd@ 10075edc     example.obj
 0002:00008eec       ??_C@_0M@ILMNOIBB@inflateInit@ 10075eec     example.obj
 0002:00008efc       ??_C@_07MEHHBFLN@inflate@  10075efc     example.obj
 0002:00008f08       ??_C@_0L@NLEAIPIK@inflateEnd@ 10075f08     example.obj
 0002:00008f18       ??_C@_0N@NEIOKLJK@bad?5inflate?6@ 10075f18     example.obj
 0002:00008f28       ??_C@_0P@IPEGJHCK@inflate?$CI?$CJ?3?5?$CFs?6@ 10075f28     example.obj
 0002:00008f3c       ??_C@_0BE@KJCDIFIO@deflate?5not?5greedy?6@ 10075f3c     example.obj
 0002:00008f54       ??_C@_0CE@DDMLMKAI@deflate?5should?5report?5Z_STREAM_@ 10075f54     example.obj
 0002:00008f80       ??_C@_0O@BACHPIL@large?5inflate@ 10075f80     example.obj
 0002:00008f90       ??_C@_0BI@NKKAMMOH@bad?5large?5inflate?3?5?$CFld?6@ 10075f90     example.obj
 0002:00008fac       ??_C@_0BF@LCFECNJJ@large_inflate?$CI?$CJ?3?5OK?6@ 10075fac     example.obj
 0002:00008fc8       ??_C@_0M@GMJPJKAH@inflateSync@ 10075fc8     example.obj
 0002:00008fd8       ??_C@_0CC@DDKHACNG@inflate?5should?5report?5DATA_ERRO@ 10075fd8     example.obj
 0002:00009000       ??_C@_0BM@HPMFILCC@after?5inflateSync?$CI?$CJ?3?5hel?$CFs?6@ 10076000     example.obj
 0002:00009024       ??_C@_0BF@MKJLAHAE@deflateSetDictionary@ 10076024     example.obj
 0002:00009040       ??_C@_0BG@FFGGOCMP@unexpected?5dictionary@ 10076040     example.obj
 0002:0000905c       ??_C@_0BC@NNOADKDO@inflate?5with?5dict@ 1007605c     example.obj
 0002:00009074       ??_C@_0BH@EHJHNHCM@bad?5inflate?5with?5dict?6@ 10076074     example.obj
 0002:00009090       ??_C@_0BN@JIBDGMNL@inflate?5with?5dictionary?3?5?$CFs?6@ 10076090     example.obj
 0002:000090b4       ??_C@_0BL@PPEGLIAA@incompatible?5zlib?5version?6@ 100760b4     example.obj
 0002:000090d4       ??_C@_0CB@IBMDHEMA@warning?3?5different?5zlib?5version@ 100760d4     example.obj
 0002:000090fc       ??_C@_0DB@NDCCOJPJ@zlib?5version?5?$CFs?5?$DN?50x?$CF04x?0?5compi@ 100760fc     example.obj
 0002:00009138       ??_C@_0P@PCJPAHLM@out?5of?5memory?6@ 10076138     example.obj
 0002:0000914c       ??_C@_06LAJAJAJJ@foo?4gz@  1007614c     example.obj
 0002:00009160       ??_C@_0BF@FJABJDFD@?$CFc?$CFc?$CFc?$CFc?$CFc?$CFc?$CFc?$CFc?$CFc?$CFc@ 10076160     gzio.obj
 0002:0000917c       ??_C@_07EBNKNFJN@?$DMfd?3?$CFd?$DO@ 1007617c     gzio.obj
 0002:00009188       ??_C@_02LMMGGCAJ@?3?5@     10076188     gzio.obj
 0002:00009bf0       ??_C@_0BD@PJCBIDD@invalid?5block?5type@ 10076bf0     infback.obj
 0002:00009c08       ??_C@_0BN@LGAADGOK@invalid?5stored?5block?5lengths@ 10076c08     infback.obj
 0002:00009c2c       ??_C@_0CE@GMIGFPBB@too?5many?5length?5or?5distance?5sym@ 10076c2c     infback.obj
 0002:00009c58       ??_C@_0BJ@HDEPPGOH@invalid?5code?5lengths?5set@ 10076c58     infback.obj
 0002:00009c78       ??_C@_0BK@BMMPFBBH@invalid?5bit?5length?5repeat@ 10076c78     infback.obj
 0002:00009c98       ??_C@_0CF@DGDMADCD@invalid?5code?5?9?9?5missing?5end?9of?9@ 10076c98     infback.obj
 0002:00009cc4       ??_C@_0BM@IIMGAINC@invalid?5literal?1lengths?5set@ 10076cc4     infback.obj
 0002:00009ce8       ??_C@_0BG@GMDFCBGP@invalid?5distances?5set@ 10076ce8     infback.obj
 0002:00009d04       ??_C@_0BM@FFFLPBBC@invalid?5literal?1length?5code@ 10076d04     infback.obj
 0002:00009d28       ??_C@_0BG@LBKINIKP@invalid?5distance?5code@ 10076d28     infback.obj
 0002:00009d44       ??_C@_0BO@ECPMAOGG@invalid?5distance?5too?5far?5back@ 10076d44     infback.obj
 0002:0000a7c8       ??_C@_0BH@LIBMMIGA@incorrect?5header?5check@ 100777c8     inflate.obj
 0002:0000a7e4       ??_C@_0BL@IHKGDAEE@unknown?5compression?5method@ 100777e4     inflate.obj
 0002:0000a804       ??_C@_0BE@EMOGCLGO@invalid?5window?5size@ 10077804     inflate.obj
 0002:0000a81c       ??_C@_0BJ@BLBBCOMO@unknown?5header?5flags?5set@ 1007781c     inflate.obj
 0002:0000a83c       ??_C@_0BE@GONKLEPM@header?5crc?5mismatch@ 1007783c     inflate.obj
 0002:0000a854       ??_C@_0BF@MEIGEHBE@incorrect?5data?5check@ 10077854     inflate.obj
 0002:0000a870       ??_C@_0BH@FGKKJGOC@incorrect?5length?5check@ 10077870     inflate.obj
 0002:0000a890       _inflate_copyright         10077890     inftrees.obj
 0002:0000aa00       __length_code              10077a00     trees.obj
 0002:0000ab00       __dist_code                10077b00     trees.obj
 0002:0000b644       _z_errmsg                  10078644     zutil.obj
 0002:0000b674       ??_C@_0BA@MOKMMFOD@need?5dictionary@ 10078674     zutil.obj
 0002:0000b688       ??_C@_0L@FNAOCBOG@stream?5end@ 10078688     zutil.obj
 0002:0000b698       ??_C@_0L@KIJFAKBJ@file?5error@ 10078698     zutil.obj
 0002:0000b6a8       ??_C@_0N@MKKNPMJD@stream?5error@ 100786a8     zutil.obj
 0002:0000b6b8       ??_C@_0L@HAHMBNLP@data?5error@ 100786b8     zutil.obj
 0002:0000b6c8       ??_C@_0BE@OGGJBMCE@insufficient?5memory@ 100786c8     zutil.obj
 0002:0000b6e0       ??_C@_0N@DFPGLBGC@buffer?5error@ 100786e0     zutil.obj
 0002:0000b6f0       ??_C@_0BF@CJFPCCEG@incompatible?5version@ 100786f0     zutil.obj
 0002:0000b70c       ?CLSID_WinFormsControl@@3U_GUID@@B 1007870c     mfcs140d:nolib.obj
 0002:0000b720       ??_C@_0O@JKAFBCMB@CreateActCtxW@ 10078720     mfcs140d:nolib.obj
 0002:0000b730       ??_C@_0P@CECBPMJL@ActivateActCtx@ 10078730     mfcs140d:nolib.obj
 0002:0000b744       ??_C@_0BB@NPIOCCPF@DeactivateActCtx@ 10078744     mfcs140d:nolib.obj
 0002:0000b758       ??_C@_0BJ@MGNMALIC@FindActCtxSectionStringW@ 10078758     mfcs140d:nolib.obj
 0002:0000b778       ??_C@_0N@IMINIHMJ@QueryActCtxW@ 10078778     mfcs140d:nolib.obj
 0002:0000b788       ??_C@_0BD@GIGEJCNH@GetModuleHandleExW@ 10078788     mfcs140d:nolib.obj
 0002:0000b7a0       ??_C@_1BK@BFMCNHEO@?$AAC?$AAo?$AAm?$AAc?$AAt?$AAl?$AA3?$AA2?$AA?4?$AAd?$AAl?$AAl@ 100787a0     mfcs140d:nolib.obj
 0002:0000b7c0       ?debugString@?4??IsolationAwarePrivatenPgViNgRzlnPgpgk@@9@4@4QBDB 100787c0     mfcs140d:nolib.obj
 0002:0000b808       ?c@?1??WinbaseIsolationAwarePrivatetRgCebPnQQeRff_xReaRYQP_QYY@@9@4@4UIsolationAwarePrivate_pBAFGnAG_zBqHyr_vAsB@@B 10078808     mfcs140d:nolib.obj
 0002:0000b81c       ??_C@_1BK@EJBALEBG@?$AAK?$AAe?$AAr?$AAn?$AAe?$AAl?$AA3?$AA2?$AA?4?$AAd?$AAl?$AAl@ 1007881c     mfcs140d:nolib.obj
 0002:0000b83c       ??_C@_0N@HAOHNMDE@Kernel32?4dll@ 1007883c     mfcs140d:nolib.obj
 0002:0000b850       ??_C@_1IM@JDALAIMN@?$AAd?$AA?3?$AA?2?$AAa?$AAg?$AAe?$AAn?$AAt?$AA?2?$AA_?$AAw?$AAo?$AAr?$AAk?$AA?2@ 10078850     mfcs140d:nolib.obj
 0002:0000b8f8       ??_C@_1IM@OAKAGKEO@?$AAd?$AA?3?$AA?2?$AAa?$AAg?$AAe?$AAn?$AAt?$AA?2?$AA_?$AAw?$AAo?$AAr?$AAk?$AA?2@ 100788f8     mfcs140d:nolib.obj
 0002:0000b9a0       ??_C@_1II@MFCNAHJH@?$AAd?$AA?3?$AA?2?$AAa?$AAg?$AAe?$AAn?$AAt?$AA?2?$AA_?$AAw?$AAo?$AAr?$AAk?$AA?2@ 100789a0     mfcs140d:nolib.obj
 0002:0000ba48       ??_C@_1JA@NMBLLECH@?$AAd?$AA?3?$AA?2?$AAa?$AAg?$AAe?$AAn?$AAt?$AA?2?$AA_?$AAw?$AAo?$AAr?$AAk?$AA?2@ 10078a48     mfcs140d:nolib.obj
 0002:0000baf8       ??_C@_1IK@JPPFJKKH@?$AAd?$AA?3?$AA?2?$AAa?$AAg?$AAe?$AAn?$AAt?$AA?2?$AA_?$AAw?$AAo?$AAr?$AAk?$AA?2@ 10078af8     mfcs140d:nolib.obj
 0002:0000bba0       ??_C@_0EF@IPDELHHG@d?3?2agent?2_work?23?2s?2src?2vctools?2@ 10078ba0     mfcs140d:nolib.obj
 0002:0000bbf8       ??_C@_1II@ENPDPACE@?$AAd?$AA?3?$AA?2?$AAa?$AAg?$AAe?$AAn?$AAt?$AA?2?$AA_?$AAw?$AAo?$AAr?$AAk?$AA?2@ 10078bf8     mfcs140d:nolib.obj
 0002:0000bca0       ??_C@_1JC@HILNCOCD@?$AAd?$AA?3?$AA?2?$AAa?$AAg?$AAe?$AAn?$AAt?$AA?2?$AA_?$AAw?$AAo?$AAr?$AAk?$AA?2@ 10078ca0     mfcs140d:nolib.obj
 0002:0000bd50       ??_C@_1EC@JIJBPKFM@?$AAa?$AAp?$AAi?$AA?9?$AAm?$AAs?$AA?9?$AAw?$AAi?$AAn?$AA?9?$AAc?$AAo?$AAr?$AAe@ 10078d50     msvcrtd:thread_safe_statics.obj
 0002:0000bda0       ??_C@_1BK@MGMFAEKH@?$AAk?$AAe?$AAr?$AAn?$AAe?$AAl?$AA3?$AA2?$AA?4?$AAd?$AAl?$AAl@ 10078da0     msvcrtd:thread_safe_statics.obj
 0002:0000bdc0       ??_C@_0BM@HLJJNPAH@InitializeConditionVariable@ 10078dc0     msvcrtd:thread_safe_statics.obj
 0002:0000bde4       ??_C@_0BJ@JEBJOJFJ@SleepConditionVariableCS@ 10078de4     msvcrtd:thread_safe_statics.obj
 0002:0000be04       ??_C@_0BJ@PGPPEPCC@WakeAllConditionVariable@ 10078e04     msvcrtd:thread_safe_statics.obj
 0002:0000be28       ??_C@_1JM@MEGLFHBK@?$AAd?$AA?3?$AA?2?$AAa?$AAg?$AAe?$AAn?$AAt?$AA?2?$AA_?$AAw?$AAo?$AAr?$AAk?$AA?2@ 10078e28     msvcrtd:thread_safe_statics.obj
 0002:0000bee8       ??_7type_info@@6B@         10078ee8     msvcrtd:std_type_info_static.obj
 0002:0000bfb0       ??_C@_0NN@NGPKDKPD@The?5value?5of?5ESP?5was?5not?5proper@ 10078fb0     msvcrtd:error.obj
 0002:0000c0c0       ??_C@_0BBN@GPMLNJCF@A?5cast?5to?5a?5smaller?5data?5type?5h@ 100790c0     msvcrtd:error.obj
 0002:0000c218       ??_C@_0BN@FFOINMNJ@Stack?5memory?5was?5corrupted?6?$AN@ 10079218     msvcrtd:error.obj
 0002:0000c23c       ??_C@_0DG@HKJMLLLP@A?5local?5variable?5was?5used?5befor@ 1007923c     msvcrtd:error.obj
 0002:0000c27c       ??_C@_0CM@NGINOKPC@Stack?5memory?5around?5_alloca?5was@ 1007927c     msvcrtd:error.obj
 0002:0000c2b0       ??_C@_0BO@GNIAFIKK@Unknown?5Runtime?5Check?5Error?6?$AN@ 100792b0     msvcrtd:error.obj
 0002:0000c2d8       ??_C@_1GM@OLMCBDMB@?$AAR?$AAu?$AAn?$AAt?$AAi?$AAm?$AAe?$AA?5?$AAC?$AAh?$AAe?$AAc?$AAk?$AA?5?$AAE@ 100792d8     msvcrtd:error.obj
 0002:0000c360       ??_C@_1EA@NFKNIFJP@?$AAR?$AAu?$AAn?$AA?9?$AAT?$AAi?$AAm?$AAe?$AA?5?$AAC?$AAh?$AAe?$AAc?$AAk?$AA?5@ 10079360     msvcrtd:error.obj
 0002:0000c3ac       ??_C@_0BB@PFFGGCJP@Unknown?5Filename@ 100793ac     msvcrtd:error.obj
 0002:0000c3c0       ??_C@_0BE@GNBOBNCK@Unknown?5Module?5Name@ 100793c0     msvcrtd:error.obj
 0002:0000c3d8       ??_C@_0CA@IODNCDPG@Run?9Time?5Check?5Failure?5?$CD?$CFd?5?9?5?$CFs@ 100793d8     msvcrtd:error.obj
 0002:0000c400       ??_C@_0CG@IAFNJNEE@Stack?5corrupted?5near?5unknown?5va@ 10079400     msvcrtd:error.obj
 0002:0000c430       ??_C@_05MKKEDADM@?$CF?42X?5@ 10079430     msvcrtd:error.obj
 0002:0000c438       ??_C@_0EJ@LJKNEOLN@Stack?5area?5around?5_alloca?5memor@ 10079438     msvcrtd:error.obj
 0002:0000c490       ??_C@_02LLMPMKNF@?$DO?5@   10079490     msvcrtd:error.obj
 0002:0000c494       ??_C@_08OMAHNMHJ@?6Data?3?5?$DM@ 10079494     msvcrtd:error.obj
 0002:0000c4a0       ??_C@_0CK@DKGBICFE@?6Allocation?5number?5within?5this?5@ 100794a0     msvcrtd:error.obj
 0002:0000c4d4       ??_C@_07DFDJCKFN@?6Size?3?5@ 100794d4     msvcrtd:error.obj
 0002:0000c4e0       ??_C@_0N@MHFFIMFG@?6Address?3?50x@ 100794e0     msvcrtd:error.obj
 0002:0000c4f0       ??_C@_0EI@CLEPFNGI@Stack?5area?5around?5_alloca?5memor@ 100794f0     msvcrtd:error.obj
 0002:0000c548       ??_C@_0BK@ODNDAGKB@?$CFs?$CFs?$CFp?$CFs?$CFzd?$CFs?$CFd?$CFs?$CFs?$CFs?$CFs?$CFs@ 10079548     msvcrtd:error.obj
 0002:0000c568       ??_C@_0DE@OHJBPMBP@A?5variable?5is?5being?5used?5withou@ 10079568     msvcrtd:error.obj
 0002:0000c5b4       __pDefaultRawDllMain       100795b4     msvcrtd:dll_dllmain.obj
 0002:0000c5d0       ??_C@_0BJ@HEGAHDFO@Stack?5pointer?5corruption@ 100795d0     msvcrtd:userapi.obj
 0002:0000c5f0       ??_C@_0CK@FEGOIOPB@Cast?5to?5smaller?5type?5causing?5lo@ 100795f0     msvcrtd:userapi.obj
 0002:0000c624       ??_C@_0BI@CIGMDCBH@Stack?5memory?5corruption@ 10079624     msvcrtd:userapi.obj
 0002:0000c640       ??_C@_0CK@CNLNOEPB@Local?5variable?5used?5before?5init@ 10079640     msvcrtd:userapi.obj
 0002:0000c674       ??_C@_0BP@OGBCLIBO@Stack?5around?5_alloca?5corrupted@ 10079674     msvcrtd:userapi.obj
 0002:0000c6f8       ??_C@_1EI@MLPKHBGE@?$AAa?$AAp?$AAi?$AA?9?$AAm?$AAs?$AA?9?$AAw?$AAi?$AAn?$AA?9?$AAc?$AAo?$AAr?$AAe@ 100796f8     msvcrtd:pdblkup.obj
 0002:0000c750       ??_C@_1BK@JHLNAEJL@?$AAa?$AAd?$AAv?$AAa?$AAp?$AAi?$AA3?$AA2?$AA?4?$AAd?$AAl?$AAl@ 10079750     msvcrtd:pdblkup.obj
 0002:0000c770       ??_C@_0O@COHOBMLB@RegOpenKeyExW@ 10079770     msvcrtd:pdblkup.obj
 0002:0000c780       ??_C@_0BB@GLNAEDBD@RegQueryValueExW@ 10079780     msvcrtd:pdblkup.obj
 0002:0000c794       ??_C@_0M@HLOHPNFA@RegCloseKey@ 10079794     msvcrtd:pdblkup.obj
 0002:0000c7a8       ??_C@_1HE@EBEAGLFB@?$AAS?$AAO?$AAF?$AAT?$AAW?$AAA?$AAR?$AAE?$AA?2?$AAW?$AAo?$AAw?$AA6?$AA4?$AA3@ 100797a8     msvcrtd:pdblkup.obj
 0002:0000c834       ??_C@_1BG@EABPBLLF@?$AAP?$AAr?$AAo?$AAd?$AAu?$AAc?$AAt?$AAD?$AAi?$AAr@ 10079834     msvcrtd:pdblkup.obj
 0002:0000c874       ??_C@_1BC@JINFINNJ@?$AAM?$AAS?$AAP?$AAD?$AAB?$AA1?$AA4?$AA0@ 10079874     msvcrtd:pdblkup.obj
 0002:0000c88c       ??_C@_0BB@KCIACLNC@PDBOpenValidate5@ 1007988c     msvcrtd:pdblkup.obj
 0002:0000c8a0       ??_C@_01KDCPPGHE@r@        100798a0     msvcrtd:pdblkup.obj
 0002:0000c8a4       _IID_IEnumConnections      100798a4     uuid:ocidl_i.obj
 0002:0000c8b8       _IID_IConnectionPoint      100798b8     uuid:ocidl_i.obj
 0002:0000c8cc       _IID_IEnumConnectionPoints 100798cc     uuid:ocidl_i.obj
 0002:0000c8e0       _IID_IConnectionPointContainer 100798e0     uuid:ocidl_i.obj
 0002:0000c8f4       _IID_IClassFactory2        100798f4     uuid:ocidl_i.obj
 0002:0000c908       _IID_IProvideClassInfo     10079908     uuid:ocidl_i.obj
 0002:0000c91c       _IID_IProvideClassInfo2    1007991c     uuid:ocidl_i.obj
 0002:0000c930       _IID_IProvideMultipleClassInfo 10079930     uuid:ocidl_i.obj
 0002:0000c944       _IID_IOleControl           10079944     uuid:ocidl_i.obj
 0002:0000c958       _IID_IOleControlSite       10079958     uuid:ocidl_i.obj
 0002:0000c96c       _IID_IPropertyPage         1007996c     uuid:ocidl_i.obj
 0002:0000c980       _IID_IPropertyPage2        10079980     uuid:ocidl_i.obj
 0002:0000c994       _IID_IPropertyPageSite     10079994     uuid:ocidl_i.obj
 0002:0000c9a8       _IID_IPropertyNotifySink   100799a8     uuid:ocidl_i.obj
 0002:0000c9bc       _IID_ISpecifyPropertyPages 100799bc     uuid:ocidl_i.obj
 0002:0000c9d0       _IID_IPersistMemory        100799d0     uuid:ocidl_i.obj
 0002:0000c9e4       _IID_IPersistStreamInit    100799e4     uuid:ocidl_i.obj
 0002:0000c9f8       _IID_IPersistPropertyBag   100799f8     uuid:ocidl_i.obj
 0002:0000ca0c       _IID_ISimpleFrameSite      10079a0c     uuid:ocidl_i.obj
 0002:0000ca20       _IID_IFont                 10079a20     uuid:ocidl_i.obj
 0002:0000ca34       _IID_IPicture              10079a34     uuid:ocidl_i.obj
 0002:0000ca48       _IID_IPicture2             10079a48     uuid:ocidl_i.obj
 0002:0000ca5c       _IID_IFontEventsDisp       10079a5c     uuid:ocidl_i.obj
 0002:0000ca70       _IID_IFontDisp             10079a70     uuid:ocidl_i.obj
 0002:0000ca84       _IID_IPictureDisp          10079a84     uuid:ocidl_i.obj
 0002:0000ca98       _IID_IOleInPlaceObjectWindowless 10079a98     uuid:ocidl_i.obj
 0002:0000caac       _IID_IOleInPlaceSiteEx     10079aac     uuid:ocidl_i.obj
 0002:0000cac0       _IID_IOleInPlaceSiteWindowless 10079ac0     uuid:ocidl_i.obj
 0002:0000cad4       _IID_IViewObjectEx         10079ad4     uuid:ocidl_i.obj
 0002:0000cae8       _IID_IOleUndoUnit          10079ae8     uuid:ocidl_i.obj
 0002:0000cafc       _IID_IOleParentUndoUnit    10079afc     uuid:ocidl_i.obj
 0002:0000cb10       _IID_IEnumOleUndoUnits     10079b10     uuid:ocidl_i.obj
 0002:0000cb24       _IID_IOleUndoManager       10079b24     uuid:ocidl_i.obj
 0002:0000cb38       _IID_IPointerInactive      10079b38     uuid:ocidl_i.obj
 0002:0000cb4c       _IID_IObjectWithSite       10079b4c     uuid:ocidl_i.obj
 0002:0000cb60       _IID_IPerPropertyBrowsing  10079b60     uuid:ocidl_i.obj
 0002:0000cb74       _IID_IPropertyBag2         10079b74     uuid:ocidl_i.obj
 0002:0000cb88       _IID_IPersistPropertyBag2  10079b88     uuid:ocidl_i.obj
 0002:0000cb9c       _IID_IAdviseSinkEx         10079b9c     uuid:ocidl_i.obj
 0002:0000cbb0       _IID_IQuickActivate        10079bb0     uuid:ocidl_i.obj
 0002:0000cbc4       _GUID_ATLVer30             10079bc4     atls:atlbase.obj
 0002:0000cbd8       _GUID_ATLVer70             10079bd8     atls:atlbase.obj
 0002:0000cbec       _GUID_ATLVer100            10079bec     atls:atlbase.obj
 0002:0000cc00       _GUID_ATLVer110            10079c00     atls:atlbase.obj
 0002:0000cc18       ??_C@_1IC@ONKHOIDK@?$AAE?$AAR?$AAR?$AAO?$AAR?$AA?5?$AA?3?$AA?5?$AAU?$AAn?$AAa?$AAb?$AAl?$AAe?$AA?5@ 10079c18     atls:atlbase.obj
 0002:0000ccb4       ?chDirSep@ATL@@3_WB        10079cb4     atls:stdafx.obj
 0002:0000ccb8       ?chRightBracket@ATL@@3_WB  10079cb8     atls:stdafx.obj
 0002:0000ccbc       ?chLeftBracket@ATL@@3_WB   10079cbc     atls:stdafx.obj
 0002:0000ccc0       ?chQuote@ATL@@3_WB         10079cc0     atls:stdafx.obj
 0002:0000ccc4       ?chEquals@ATL@@3_WB        10079cc4     atls:stdafx.obj
 0002:0000ccc8       ?szStringVal@ATL@@3QB_WB   10079cc8     atls:stdafx.obj
 0002:0000cccc       ??_C@_13HADIAKP@?$AAS@     10079ccc     atls:stdafx.obj
 0002:0000ccd0       ?multiszStringVal@ATL@@3QB_WB 10079cd0     atls:stdafx.obj
 0002:0000ccd4       ??_C@_13LHMFKAAD@?$AAM@    10079cd4     atls:stdafx.obj
 0002:0000ccd8       ?szDwordVal@ATL@@3QB_WB    10079cd8     atls:stdafx.obj
 0002:0000ccdc       ??_C@_13MKMNOPIJ@?$AAD@    10079cdc     atls:stdafx.obj
 0002:0000cce0       ?szBinaryVal@ATL@@3QB_WB   10079ce0     atls:stdafx.obj
 0002:0000cce4       ??_C@_13OPKGLAFF@?$AAB@    10079ce4     atls:stdafx.obj
 0002:0000cce8       ?szValToken@ATL@@3QB_WB    10079ce8     atls:stdafx.obj
 0002:0000ccec       ??_C@_17LLMMEOJD@?$AAV?$AAa?$AAl@ 10079cec     atls:stdafx.obj
 0002:0000ccf8       ?szForceRemove@ATL@@3QB_WB 10079cf8     atls:stdafx.obj
 0002:0000ccfc       ??_C@_1BI@JFAIJMHL@?$AAF?$AAo?$AAr?$AAc?$AAe?$AAR?$AAe?$AAm?$AAo?$AAv?$AAe@ 10079cfc     atls:stdafx.obj
 0002:0000cd18       ?szNoRemove@ATL@@3QB_WB    10079d18     atls:stdafx.obj
 0002:0000cd1c       ??_C@_1BC@GCKHIPE@?$AAN?$AAo?$AAR?$AAe?$AAm?$AAo?$AAv?$AAe@ 10079d1c     atls:stdafx.obj
 0002:0000cd34       ?szDelete@ATL@@3QB_WB      10079d34     atls:stdafx.obj
 0002:0000cd38       ??_C@_1O@JDLOHAN@?$AAD?$AAe?$AAl?$AAe?$AAt?$AAe@ 10079d38     atls:stdafx.obj
 0002:0000cd88       __load_config_used         10079d88     msvcrtd:loadcfg.obj
 0002:0000d1d8       __tls_used                 1007a1d8     msvcrtd:tlssup.obj
 0002:0000d2f4       ??_R4CAvatarResource@AVATAR@NMBASE@@6B@ 1007a2f4     Avatar.obj
 0002:0000d30c       ??_R3CAvatarResource@AVATAR@NMBASE@@8 1007a30c     Avatar.obj
 0002:0000d320       ??_R2CAvatarResource@AVATAR@NMBASE@@8 1007a320     Avatar.obj
 0002:0000d328       ??_R1A@?0A@EA@CAvatarResource@AVATAR@NMBASE@@8 1007a328     Avatar.obj
 0002:0000d34c       ??_R4CAvatar@AVATAR@NMBASE@@6B@ 1007a34c     Avatar.obj
 0002:0000d364       ??_R3CAvatar@AVATAR@NMBASE@@8 1007a364     Avatar.obj
 0002:0000d378       ??_R2CAvatar@AVATAR@NMBASE@@8 1007a378     Avatar.obj
 0002:0000d380       ??_R1A@?0A@EA@CAvatar@AVATAR@NMBASE@@8 1007a380     Avatar.obj
 0002:0000d3a4       ??_R1A@?0A@EA@CObject@@8   1007a3a4     FileList.obj
 0002:0000d3c8       ??_R3CObject@@8            1007a3c8     FileList.obj
 0002:0000d3dc       ??_R2CObject@@8            1007a3dc     FileList.obj
 0002:0000d3e4       ??_R4?$CMap@V?$CStringT@DV?$StrTraitMFC_DLL@DV?$ChTraitsCRT@D@ATL@@@@@ATL@@PBDPAVCFileInfo@@AAPAV3@@@6B@ 1007a3e4     FileList.obj
 0002:0000d3fc       ??_R3?$CMap@V?$CStringT@DV?$StrTraitMFC_DLL@DV?$ChTraitsCRT@D@ATL@@@@@ATL@@PBDPAVCFileInfo@@AAPAV3@@@8 1007a3fc     FileList.obj
 0002:0000d410       ??_R2?$CMap@V?$CStringT@DV?$StrTraitMFC_DLL@DV?$ChTraitsCRT@D@ATL@@@@@ATL@@PBDPAVCFileInfo@@AAPAV3@@@8 1007a410     FileList.obj
 0002:0000d41c       ??_R1A@?0A@EA@?$CMap@V?$CStringT@DV?$StrTraitMFC_DLL@DV?$ChTraitsCRT@D@ATL@@@@@ATL@@PBDPAVCFileInfo@@AAPAV3@@@8 1007a41c     FileList.obj
 0002:0000d440       ??_R4CGetHttp@@6B@         1007a440     GetHttp.obj
 0002:0000d458       ??_R3CGetHttp@@8           1007a458     GetHttp.obj
 0002:0000d46c       ??_R2CGetHttp@@8           1007a46c     GetHttp.obj
 0002:0000d474       ??_R1A@?0A@EA@CGetHttp@@8  1007a474     GetHttp.obj
 0002:0000d498       ??_R4CPictureEx@@6B@       1007a498     PictureEx.obj
 0002:0000d4b0       ??_R3CPictureEx@@8         1007a4b0     PictureEx.obj
 0002:0000d4c4       ??_R2CPictureEx@@8         1007a4c4     PictureEx.obj
 0002:0000d4cc       ??_R1A@?0A@EA@CPictureEx@@8 1007a4cc     PictureEx.obj
 0002:0000d4f0       ??_R4?$CMap@V?$CStringT@DV?$StrTraitMFC_DLL@DV?$ChTraitsCRT@D@ATL@@@@@ATL@@PBDPAVCSprFile@@AAPAV3@@@6B@ 1007a4f0     ResMan.obj
 0002:0000d508       ??_R3?$CMap@V?$CStringT@DV?$StrTraitMFC_DLL@DV?$ChTraitsCRT@D@ATL@@@@@ATL@@PBDPAVCSprFile@@AAPAV3@@@8 1007a508     ResMan.obj
 0002:0000d51c       ??_R2?$CMap@V?$CStringT@DV?$StrTraitMFC_DLL@DV?$ChTraitsCRT@D@ATL@@@@@ATL@@PBDPAVCSprFile@@AAPAV3@@@8 1007a51c     ResMan.obj
 0002:0000d528       ??_R1A@?0A@EA@?$CMap@V?$CStringT@DV?$StrTraitMFC_DLL@DV?$ChTraitsCRT@D@ATL@@@@@ATL@@PBDPAVCSprFile@@AAPAV3@@@8 1007a528     ResMan.obj
 0002:0000d54c       ??_R4CResMan@@6B@          1007a54c     ResMan.obj
 0002:0000d564       ??_R3CResMan@@8            1007a564     ResMan.obj
 0002:0000d578       ??_R2CResMan@@8            1007a578     ResMan.obj
 0002:0000d580       ??_R1A@?0A@EA@CResMan@@8   1007a580     ResMan.obj
 0002:0000d5a4       ??_R4CWin32Heap@ATL@@6B@   1007a5a4     dllmain.obj
 0002:0000d5bc       ??_R3CWin32Heap@ATL@@8     1007a5bc     dllmain.obj
 0002:0000d5d0       ??_R2CWin32Heap@ATL@@8     1007a5d0     dllmain.obj
 0002:0000d5dc       ??_R1A@?0A@EA@CWin32Heap@ATL@@8 1007a5dc     dllmain.obj
 0002:0000d600       ??_R1A@?0A@EA@IAtlMemMgr@ATL@@8 1007a600     dllmain.obj
 0002:0000d624       ??_R3IAtlMemMgr@ATL@@8     1007a624     dllmain.obj
 0002:0000d638       ??_R2IAtlMemMgr@ATL@@8     1007a638     dllmain.obj
 0002:0000d640       ??_R1A@?0A@EA@IAtlStringMgr@ATL@@8 1007a640     dllmain.obj
 0002:0000d664       ??_R3IAtlStringMgr@ATL@@8  1007a664     dllmain.obj
 0002:0000d678       ??_R2IAtlStringMgr@ATL@@8  1007a678     dllmain.obj
 0002:0000d680       ??_R4CAtlStringMgr@ATL@@6B@ 1007a680     dllmain.obj
 0002:0000d698       ??_R3CAtlStringMgr@ATL@@8  1007a698     dllmain.obj
 0002:0000d6ac       ??_R2CAtlStringMgr@ATL@@8  1007a6ac     dllmain.obj
 0002:0000d6b8       ??_R1A@?0A@EA@CAtlStringMgr@ATL@@8 1007a6b8     dllmain.obj
 0002:0000d6dc       ??_R4CLayerObj@@6B@        1007a6dc     xLayer.obj
 0002:0000d6f4       ??_R3CLayerObj@@8          1007a6f4     xLayer.obj
 0002:0000d708       ??_R2CLayerObj@@8          1007a708     xLayer.obj
 0002:0000d710       ??_R1A@?0A@EA@CLayerObj@@8 1007a710     xLayer.obj
 0002:0000d734       ??_R4CLayerSprObj@@6B@     1007a734     xLayer.obj
 0002:0000d74c       ??_R3CLayerSprObj@@8       1007a74c     xLayer.obj
 0002:0000d760       ??_R2CLayerSprObj@@8       1007a760     xLayer.obj
 0002:0000d76c       ??_R1A@?0A@EA@CLayerSprObj@@8 1007a76c     xLayer.obj
 0002:0000d790       ??_R4CUnzipFile@@6B@       1007a790     UnzipFile.obj
 0002:0000d7a8       ??_R3CUnzipFile@@8         1007a7a8     UnzipFile.obj
 0002:0000d7bc       ??_R2CUnzipFile@@8         1007a7bc     UnzipFile.obj
 0002:0000d7c8       ??_R1A@?0A@EA@CUnzipFile@@8 1007a7c8     UnzipFile.obj
 0002:0000d7ec       ??_R1A@?0A@EA@CZUBaseFile@@8 1007a7ec     UnzipFile.obj
 0002:0000d810       ??_R3CZUBaseFile@@8        1007a810     UnzipFile.obj
 0002:0000d824       ??_R2CZUBaseFile@@8        1007a824     UnzipFile.obj
 0002:0000d82c       ??_R4CZipException@@6B@    1007a82c     ZipException.obj
 0002:0000d844       ??_R3CZipException@@8      1007a844     ZipException.obj
 0002:0000d858       ??_R2CZipException@@8      1007a858     ZipException.obj
 0002:0000d868       ??_R1A@?0A@EA@CZipException@@8 1007a868     ZipException.obj
 0002:0000d88c       ??_R1A@?0A@EA@CException@@8 1007a88c     ZipException.obj
 0002:0000d8b0       ??_R3CException@@8         1007a8b0     ZipException.obj
 0002:0000d8c4       ??_R2CException@@8         1007a8c4     ZipException.obj
 0002:0000d8d0       ??_R4CZipFile@@6B@         1007a8d0     ZipFile.obj
 0002:0000d8e8       ??_R3CZipFile@@8           1007a8e8     ZipFile.obj
 0002:0000d8fc       ??_R2CZipFile@@8           1007a8fc     ZipFile.obj
 0002:0000d908       ??_R1A@?0A@EA@CZipFile@@8  1007a908     ZipFile.obj
 0002:0000d92c       ??_R4CZUBaseFile@@6B@      1007a92c     ZUBaseFile.obj
 0002:0000d944       ??_R4type_info@@6B@        1007a944     msvcrtd:std_type_info_static.obj
 0002:0000d95c       ??_R3type_info@@8          1007a95c     msvcrtd:std_type_info_static.obj
 0002:0000d970       ??_R2type_info@@8          1007a970     msvcrtd:std_type_info_static.obj
 0002:0000d978       ??_R1A@?0A@EA@type_info@@8 1007a978     msvcrtd:std_type_info_static.obj
 0002:0000dad0       ___safe_se_handler_table   1007aad0     <linker-defined>
 0002:0000dfac       ___rtc_iaa                 1007afac     msvcrtd:initsect.obj
 0002:0000e268       ___rtc_izz                 1007b268     msvcrtd:initsect.obj
 0002:0000e36c       ___rtc_taa                 1007b36c     msvcrtd:initsect.obj
 0002:0000e628       ___rtc_tzz                 1007b628     msvcrtd:initsect.obj
 0002:0000fe84       __TI4PAVCFileException@@   1007ce84     UnzipFile.obj
 0002:0000fe98       __CTA4PAVCFileException@@  1007ce98     UnzipFile.obj
 0002:0000feb0       __CT??_R0PAVCFileException@@@84 1007ceb0     UnzipFile.obj
 0002:0000fed0       __CT??_R0PAVCException@@@84 1007ced0     UnzipFile.obj
 0002:0000fef0       __CT??_R0PAVCObject@@@84   1007cef0     UnzipFile.obj
 0002:0000ff10       __CT??_R0PAX@84            1007cf10     UnzipFile.obj
 0002:0000ff9c       __TI4PAVCZipException@@    1007cf9c     ZipException.obj
 0002:0000ffb0       __CTA4PAVCZipException@@   1007cfb0     ZipException.obj
 0002:0000ffc8       __CT??_R0PAVCZipException@@@84 1007cfc8     ZipException.obj
 0002:000107a8       ___pobjMapEntryFirst       1007d7a8     dllmain.obj
 0002:000108ac       ___pobjMapEntryLast        1007d8ac     dllmain.obj
 0003:00000000       ?__LINE__Var@?0??RegOpenKeyExA@CAtlTransactionManager@ATL@@QAEJPAUHKEY__@@PBDKKPAPAU4@@Z@4JA 1007f000     Avatar.obj
 0003:00000004       ?__LINE__Var@?0??Open@CRegKey@ATL@@QAEJPAUHKEY__@@PBDK@Z@4JA 1007f004     Avatar.obj
 0003:00000008       ?__LINE__Var@?0??QueryStringValue@CRegKey@ATL@@QAEJPBDPADPAK@Z@4JA 1007f008     Avatar.obj
 0003:0000000c       ?m_nCategory@CTrace@ATL@@1IA 1007f00c     DownThread.obj
 0003:00000010       ?__LINE__Var@?0??AtlThrowImpl@ATL@@YGXJ@Z@4JA 1007f010     DownThread.obj
 0003:00000014       ?__LINE__Var@?0???0CTime@ATL@@QAE@HHHHHHH@Z@4JA 1007f014     DownThread.obj
 0003:00000018       ?__LINE__Var@?0??GetLocalTm@CTime@ATL@@QBEPAUtm@@PAU4@@Z@4JA 1007f018     FileTag.obj
 0003:00000070       ?__LINE__Var@?0??GetFile@CGetHttp@@QAEHPAUHWND__@@V?$CStringT@DV?$StrTraitMFC_DLL@DV?$ChTraitsCRT@D@ATL@@@@@ATL@@1@Z@4JA 1007f070     GetHttp.obj
 0003:00000074       ?__LINE__Var@?0??GetFileToMemory@CGetHttp@@QAEHPAUHWND__@@V?$CStringT@DV?$StrTraitMFC_DLL@DV?$ChTraitsCRT@D@ATL@@@@@ATL@@PAPAXPAK@Z@4JA 1007f074     GetHttp.obj
 0003:000000c8       ?__LINE__Var@?0??_Gif2Spr@@YAHAAVCPictureEx@@PAVxSprite@@H@Z@4JA 1007f0c8     Gif2Spr.obj
 0003:000000cc       ?__LINE__Var@?0??_Adjust_manually_vector_aligned@std@@YAXAAPAXAAI@Z@4JA 1007f0cc     PictureEx.obj
 0003:00000124       ?__LINE__Var@?0??Load@CPictureEx@@QAEHPAXK@Z@4JA 1007f124     PictureEx.obj
 0003:00000128       ?__LINE__Var@?0??Draw@CPictureEx@@QAEHXZ@4JA 1007f128     PictureEx.obj
 0003:0000012c       ?__LINE__Var@?0??Load@CPictureEx@@QAEHPBD@Z@4JA 1007f12c     PictureEx.obj
 0003:00000130       ?__LINE__Var@?0??Load@CPictureEx@@QAEHPBD0@Z@4JA 1007f130     PictureEx.obj
 0003:00000134       ?__LINE__Var@?0??LoadFromMemory@CPictureEx@@QAEHPAXK@Z@4JA 1007f134     PictureEx.obj
 0003:00000138       ?__LINE__Var@?0??_ThreadAnimation@CPictureEx@@SGIPAX@Z@4JA 1007f138     PictureEx.obj
 0003:0000013c       __pIncludeInitManaged      1007f13c     dllmain.obj
 0003:00000140       ?__LINE__Var@?0??AtlWinModuleInit@ATL@@YGJPAU_ATL_WIN_MODULE70@2@@Z@4JA 1007f140     dllmain.obj
 0003:00000144       ?__LINE__Var@?0??DllMain@@9@12@4JA 1007f144     dllmain.obj
 0003:00000148       ?RGBmix@@3P6AGHHH@ZA       1007f148     GraphMod.obj
 0003:0000014c       ?__LINE__Var@?0???0CTime@ATL@@QAE@GGH@Z@4JA 1007f14c     UnzipFile.obj
 0003:00000150       ?__LINE__Var@?0??OpenCurrentFile@CUnzipFile@@QAEXXZ@4JA 1007f150     UnzipFile.obj
 0003:00000154       ?__LINE__Var@?0??alloc_central_header@curfile_info@@QAEXXZ@4JA 1007f154     ZipFile.obj
 0003:000001a4       _WinbaseIsolationAwarePrivateT_UnPgpgk 1007f1a4     mfcs140d:nolib.obj
 0003:000001a8       ___scrt_native_dllmain_reason 1007f1a8     msvcrtd:utility.obj
 0003:000001ac       __Init_global_epoch        1007f1ac     msvcrtd:thread_safe_statics.obj
 0003:000001b0       ___security_cookie_complement 1007f1b0     msvcrtd:gs_cookie.obj
 0003:000001b4       ___security_cookie         1007f1b4     msvcrtd:gs_cookie.obj
 0003:000001c0       ?_RTC_ErrorLevels@@3PAHA   1007f1c0     msvcrtd:error.obj
 0003:000001d8       ___isa_enabled             1007f1d8     msvcrtd:cpu_disp.obj
 0003:000001dc       ___scrt_ucrt_dll_is_in_use 1007f1dc     msvcrtd:ucrt_stubs.obj
 0003:00000300       ??_R0?AVCAvatarResource@AVATAR@NMBASE@@@8 1007f300     Avatar.obj
 0003:00000334       ??_R0?AVCAvatar@AVATAR@NMBASE@@@8 1007f334     Avatar.obj
 0003:00000360       ??_R0PAVCException@@@8     1007f360     ExtractFile.obj
 0003:00000380       ??_R0?AVCObject@@@8        1007f380     FileList.obj
 0003:000003a0       ??_R0?AV?$CMap@V?$CStringT@DV?$StrTraitMFC_DLL@DV?$ChTraitsCRT@D@ATL@@@@@ATL@@PBDPAVCFileInfo@@AAPAV3@@@@8 1007f3a0     FileList.obj
 0003:00000424       ??_R0PAVCFileException@@@8 1007f424     GetHttp.obj
 0003:00000448       ??_R0?AVCGetHttp@@@8       1007f448     GetHttp.obj
 0003:00000464       ??_R0?AVCPictureEx@@@8     1007f464     PictureEx.obj
 0003:00000488       ??_R0?AV?$CMap@V?$CStringT@DV?$StrTraitMFC_DLL@DV?$ChTraitsCRT@D@ATL@@@@@ATL@@PBDPAVCSprFile@@AAPAV3@@@@8 1007f488     ResMan.obj
 0003:0000050c       ??_R0?AVCResMan@@@8        1007f50c     ResMan.obj
 0003:00000528       ??_R0?AVCWin32Heap@ATL@@@8 1007f528     dllmain.obj
 0003:0000054c       ??_R0?AUIAtlMemMgr@ATL@@@8 1007f54c     dllmain.obj
 0003:00000570       ??_R0?AUIAtlStringMgr@ATL@@@8 1007f570     dllmain.obj
 0003:00000598       ??_R0?AVCAtlStringMgr@ATL@@@8 1007f598     dllmain.obj
 0003:000005c0       ??_R0?AVCLayerObj@@@8      1007f5c0     xLayer.obj
 0003:000005dc       ??_R0?AVCLayerSprObj@@@8   1007f5dc     xLayer.obj
 0003:000005fc       ??_R0PAVCObject@@@8        1007f5fc     UnzipFile.obj
 0003:00000618       ??_R0PAX@8                 1007f618     UnzipFile.obj
 0003:00000628       ??_R0?AVCUnzipFile@@@8     1007f628     UnzipFile.obj
 0003:00000648       ??_R0?AVCZUBaseFile@@@8    1007f648     UnzipFile.obj
 0003:00000668       ??_R0PAVCZipException@@@8  1007f668     ZipException.obj
 0003:0000068c       ??_R0?AVCZipException@@@8  1007f68c     ZipException.obj
 0003:000006b0       ??_R0?AVCException@@@8     1007f6b0     ZipException.obj
 0003:000006d0       ??_R0?AVCZipFile@@@8       1007f6d0     ZipFile.obj
 0003:000006ec       ??_R0?AVtype_info@@@8      1007f6ec     msvcrtd:std_type_info_static.obj
 0003:00000820       ?_OptionsStorage@?1??__local_stdio_printf_options@@9@4_KA 1007f820     Avatar.obj
 0003:0000082c       ?atlTraceException@ATL@@3V?$CTraceCategoryEx@$0CAAA@$0A@@1@A 1007f82c     Avatar.obj
 0003:00000830       ?atlTraceString@ATL@@3V?$CTraceCategoryEx@$0CAAAA@$0A@@1@A 1007f830     Avatar.obj
 0003:00000834       ?m_nLastCategory@CTrace@ATL@@1IA 1007f834     Avatar.obj
 0003:00000838       ?m_nMap@CTrace@ATL@@1PAUCategoryMap@12@A 1007f838     Avatar.obj
 0003:000040a0       ?m_nLevel@CTrace@ATL@@1IA  100830a0     DownThread.obj
 0003:000040b4       ?atlTraceGeneral@ATL@@3V?$CTraceCategoryEx@$00$0A@@1@A 100830b4     PictureEx.obj
 0003:000040c8       ?_pPerfRegFunc@ATL@@3P6AJPAUHINSTANCE__@@@ZA 100830c8     dllmain.obj
 0003:000040cc       ?_pPerfUnRegFunc@ATL@@3P6AJXZA 100830cc     dllmain.obj
 0003:000040d0       ?_AtlRegisterPerUser@ATL@@3_NA 100830d0     dllmain.obj
 0003:000040d4       ?_pAtlModule@ATL@@3PAVCAtlModule@1@A 100830d4     dllmain.obj
 0003:000040d8       ?_pModule@ATL@@3PAVCComModule@1@A 100830d8     dllmain.obj
 0003:000040dc       ?_pAtlAutoThreadModule@ATL@@3PAUIAtlAutoThreadModule@1@A 100830dc     dllmain.obj
 0003:000040e0       __afxForceEXTDLL           100830e0     dllmain.obj
 0003:000040fc       ?atlTraceCOM@ATL@@3V?$CTraceCategoryEx@$01$0A@@1@A 100830fc     dllmain.obj
 0003:00004100       ?atlTraceQI@ATL@@3V?$CTraceCategoryEx@$03$0A@@1@A 10083100     dllmain.obj
 0003:00004104       ?atlTraceRegistrar@ATL@@3V?$CTraceCategoryEx@$07$0A@@1@A 10083104     dllmain.obj
 0003:00004108       ?atlTraceRefcount@ATL@@3V?$CTraceCategoryEx@$0BA@$0A@@1@A 10083108     dllmain.obj
 0003:0000410c       ?atlTraceWindowing@ATL@@3V?$CTraceCategoryEx@$0CA@$0A@@1@A 1008310c     dllmain.obj
 0003:00004110       ?atlTraceControls@ATL@@3V?$CTraceCategoryEx@$0EA@$0A@@1@A 10083110     dllmain.obj
 0003:00004114       ?atlTraceHosting@ATL@@3V?$CTraceCategoryEx@$0IA@$0A@@1@A 10083114     dllmain.obj
 0003:00004118       ?atlTraceDBClient@ATL@@3V?$CTraceCategoryEx@$0BAA@$0A@@1@A 10083118     dllmain.obj
 0003:0000411c       ?atlTraceDBProvider@ATL@@3V?$CTraceCategoryEx@$0CAA@$0A@@1@A 1008311c     dllmain.obj
 0003:00004120       ?atlTraceSnapin@ATL@@3V?$CTraceCategoryEx@$0EAA@$0A@@1@A 10083120     dllmain.obj
 0003:00004124       ?atlTraceNotImpl@ATL@@3V?$CTraceCategoryEx@$0IAA@$0A@@1@A 10083124     dllmain.obj
 0003:00004128       ?atlTraceAllocation@ATL@@3V?$CTraceCategoryEx@$0BAAA@$0A@@1@A 10083128     dllmain.obj
 0003:0000412c       ?atlTraceTime@ATL@@3V?$CTraceCategoryEx@$0EAAA@$0A@@1@A 1008312c     dllmain.obj
 0003:00004130       ?atlTraceCache@ATL@@3V?$CTraceCategoryEx@$0IAAA@$0A@@1@A 10083130     dllmain.obj
 0003:00004134       ?atlTraceStencil@ATL@@3V?$CTraceCategoryEx@$0BAAAA@$0A@@1@A 10083134     dllmain.obj
 0003:00004138       ?atlTraceMap@ATL@@3V?$CTraceCategoryEx@$0EAAAA@$0A@@1@A 10083138     dllmain.obj
 0003:0000413c       ?atlTraceUtil@ATL@@3V?$CTraceCategoryEx@$0IAAAA@$0A@@1@A 1008313c     dllmain.obj
 0003:00004140       ?atlTraceSecurity@ATL@@3V?$CTraceCategoryEx@$0BAAAAA@$0A@@1@A 10083140     dllmain.obj
 0003:00004144       ?atlTraceSync@ATL@@3V?$CTraceCategoryEx@$0CAAAAA@$0A@@1@A 10083144     dllmain.obj
 0003:00004148       ?atlTraceISAPI@ATL@@3V?$CTraceCategoryEx@$0EAAAAA@$0A@@1@A 10083148     dllmain.obj
 0003:0000414c       ?m_bInitFailed@CAtlBaseModule@ATL@@2_NA 1008314c     dllmain.obj
 0003:00004150       ?_AtlComModule@ATL@@3VCAtlComModule@1@A 10083150     dllmain.obj
 0003:00004180       ?_AtlWinModule@ATL@@3VCAtlWinModule@1@A 10083180     dllmain.obj
 0003:000041b4       ?strHeap@?1??GetInstance@CAtlStringMgr@ATL@@SAPAUIAtlStringMgr@3@XZ@4VCWin32Heap@3@A 100831b4     dllmain.obj
 0003:000041c4       ?$TSS0@?1??GetInstance@CAtlStringMgr@ATL@@SAPAUIAtlStringMgr@3@XZ@4HA 100831c4     dllmain.obj
 0003:000041c8       ?strMgr@?1??GetInstance@CAtlStringMgr@ATL@@SAPAUIAtlStringMgr@3@XZ@4V23@A 100831c8     dllmain.obj
 0003:000041ec       ?$TSS1@?1??GetInstance@CAtlStringMgr@ATL@@SAPAUIAtlStringMgr@3@XZ@4HA 100831ec     dllmain.obj
 0003:000041f0       ?InitializeCAtlStringMgr@ATLImplementationDetails@ATL@@3UCAtlStringMgrStaticInitializer@12@A 100831f0     dllmain.obj
 0003:000041f8       ?R@@3PAY0CA@GA             100831f8     GraphMod.obj
 0003:000049f8       ?G@@3PAY0CA@GA             100839f8     GraphMod.obj
 0003:000059f8       ?B@@3PAY0CA@GA             100849f8     GraphMod.obj
 0003:000061f8       ?LIGHT_R@@3PAY0CA@GA       100851f8     GraphMod.obj
 0003:000069f8       ?LIGHT_G@@3PAY0EA@GA       100859f8     GraphMod.obj
 0003:000089f8       ?LIGHT_B@@3PAY0CA@GA       100879f8     GraphMod.obj
 0003:000091f8       ?DARK_R@@3PAY0CA@GA        100881f8     GraphMod.obj
 0003:000099f8       ?DARK_G@@3PAY0EA@GA        100889f8     GraphMod.obj
 0003:0000b9f8       ?DARK_B@@3PAY0CA@GA        1008a9f8     GraphMod.obj
 0003:0000c1f8       ?MemCpyHB@@3P6IXPAG0H@ZA   1008b1f8     GraphMod.obj
 0003:0000c1fc       ?MemCpyAnti@@3P6IXPAG0H@ZA 1008b1fc     GraphMod.obj
 0003:0000c200       ?MemCpyGlow@@3P6IXPAG0HGH@ZA 1008b200     GraphMod.obj
 0003:0000c204       ?MemCpyGB@@3P6IXPAG0HH@ZA  1008b204     GraphMod.obj
 0003:0000c208       ?RvrsCpyGB@@3P6IXPAG0HH@ZA 1008b208     GraphMod.obj
 0003:0000c20c       ?MemCpyAB@@3P6IXPAG0HH@ZA  1008b20c     GraphMod.obj
 0003:0000c210       ?MemCpyLE@@3P6IXPAG0H@ZA   1008b210     GraphMod.obj
 0003:0000c214       ?MemCpyDE@@3P6IXPAG0H@ZA   1008b214     GraphMod.obj
 0003:0000dbc0       ?Ps@xAniMan@@2PAUPLAYSTUFF@@A 1008cbc0     xAniMan.obj
 0003:0000e340       ___@@_PchSym_@00@UdlipUxorvmgPkxUuiznvdlipPvcgvimzohUyfrowlfkfgUmnzezgziUwvyftUhgwzucOlyq@4B2008FD98C1DD4 1008d340     stdafx.obj
 0003:0000e344       __afxForceEXCLUDE          1008d344     mfcs140d:nolib.obj
 0003:0000e348       _IsolationAwarePrivateT_SqbjaYRiRY 1008d348     mfcs140d:nolib.obj
 0003:0000e34c       _IsolationAwarePrivateT_SAbnPgpgk 1008d34c     mfcs140d:nolib.obj
 0003:0000e350       _WinbaseIsolationAwarePrivateT_SpeRNgRQnPgpgk 1008d350     mfcs140d:nolib.obj
 0003:0000e354       _WinbaseIsolationAwarePrivateT_SpYRNahcpNYYRQ 1008d354     mfcs140d:nolib.obj
 0003:0000e358       ?s_pfn@?1??IsolationAwareCreateActCtxW@@9@4@4P6GPAXPBUtagACTCTXW@@@ZA 1008d358     mfcs140d:nolib.obj
 0003:0000e35c       ?s_pfn@?1??IsolationAwareActivateActCtx@@9@8@4P6GHPAXPAK@ZA 1008d35c     mfcs140d:nolib.obj
 0003:0000e360       ?s_pfn@?1??IsolationAwareDeactivateActCtx@@9@8@4P6GHKK@ZA 1008d360     mfcs140d:nolib.obj
 0003:0000e364       ?s_pfn@?1??IsolationAwareFindActCtxSectionStringW@@9@20@4P6GHKPBU_GUID@@KPB_WPAUtagACTCTX_SECTION_KEYED_DATA@@@ZA 1008d364     mfcs140d:nolib.obj
 0003:0000e368       ?s_pfn@?1??IsolationAwareQueryActCtxW@@9@28@4P6GHKPAX0K0KPAK@ZA 1008d368     mfcs140d:nolib.obj
 0003:0000e36c       ?m@?1??WinbaseIsolationAwarePrivatetRgCebPnQQeRff_xReaRYQP_QYY@@9@4@4UIsolationAwarePrivate_zHGnoyr_zBqHyr_vAsB@@A 1008d36c     mfcs140d:nolib.obj
 0003:0000e370       ??_B?1??GetInstance@CAtlStringMgr@ATL@@SAPAUIAtlStringMgr@2@XZ@51 1008d370     mfcs140d:nolib.obj
 0003:0000e374       __afxForceSTDAFX           1008d374     mfcs140d:stdafx.obj
 0003:0000e378       ___scrt_current_native_startup_state 1008d378     msvcrtd:utility.obj
 0003:0000e37c       ___scrt_native_startup_lock 1008d37c     msvcrtd:utility.obj
 0003:0000e3d8       __tls_index                1008d3d8     msvcrtd:tlssup.obj
 0003:0000e7a0       ___isa_available           1008d7a0     msvcrtd:cpu_disp.obj
 0003:0000e7a4       ___favor                   1008d7a4     msvcrtd:cpu_disp.obj
 0003:0000e7ac       ___scrt_debugger_hook_flag 1008d7ac     msvcrtd:utility_desktop.obj
 0003:0000e7c8       ?__type_info_root_node@@3U__type_info_node@@A 1008d7c8     msvcrtd:tncleanup.obj
 0003:0000e7d8       ?_OptionsStorage@?1??__local_stdio_scanf_options@@9@4_KA 1008d7d8     msvcrtd:default_local_stdio_options.obj
 0003:0000e7e4       ?_AtlBaseModule@ATL@@3VCAtlBaseModule@1@A 1008d7e4     atls:atlbase.obj
 0003:0000e828       ___@@_PchSym_@00@UztvmgUPdlipUDUhUrmgvinvwrzgvUexgllohUzgohOmzgrevkilqPBACIAJCBDBUlyqiPhkvxgivUcIGUhgwzucOlyq@4B2008FD98C1DD4 1008d828     atls:stdafx.obj
 0003:0000e830       ?_OptionsStorage@?1??__local_stdio_printf_options@@9@9 1008d830     <common>
 0003:0000e844       _dictId                    1008d844     <common>
 0003:0000e848       ___dyn_tls_init_callback   1008d848     <common>
 0004:00000000       __imp__RegOpenKeyExA@20    1008e000     advapi32:ADVAPI32.dll
 0004:00000004       __imp__RegQueryValueExA@24 1008e004     advapi32:ADVAPI32.dll
 0004:00000008       __imp__RegCloseKey@4       1008e008     advapi32:ADVAPI32.dll
 0004:0000000c       \177ADVAPI32_NULL_THUNK_DATA 1008e00c     advapi32:ADVAPI32.dll
 0004:00000038       __imp__CreatePalette@4     1008e038     gdi32:GDI32.dll
 0004:0000003c       __imp__CreateBitmap@20     1008e03c     gdi32:GDI32.dll
 0004:00000040       __imp__CreateDIBSection@24 1008e040     gdi32:GDI32.dll
 0004:00000044       __imp__StretchDIBits@52    1008e044     gdi32:GDI32.dll
 0004:00000048       __imp__SelectPalette@12    1008e048     gdi32:GDI32.dll
 0004:0000004c       __imp__RealizePalette@4    1008e04c     gdi32:GDI32.dll
 0004:00000050       __imp__FloodFill@16        1008e050     gdi32:GDI32.dll
 0004:00000054       __imp__BitBlt@36           1008e054     gdi32:GDI32.dll
 0004:00000058       __imp__CreateSolidBrush@4  1008e058     gdi32:GDI32.dll
 0004:0000005c       __imp__CreateCompatibleBitmap@12 1008e05c     gdi32:GDI32.dll
 0004:00000060       __imp__SetTextColor@8      1008e060     gdi32:GDI32.dll
 0004:00000064       __imp__SetBkColor@8        1008e064     gdi32:GDI32.dll
 0004:00000068       __imp__SelectObject@8      1008e068     gdi32:GDI32.dll
 0004:0000006c       __imp__DeleteObject@4      1008e06c     gdi32:GDI32.dll
 0004:00000070       __imp__DeleteDC@4          1008e070     gdi32:GDI32.dll
 0004:00000074       __imp__CreateCompatibleDC@4 1008e074     gdi32:GDI32.dll
 0004:00000078       \177GDI32_NULL_THUNK_DATA  1008e078     gdi32:GDI32.dll
 0004:000000b0       __imp__HeapFree@12         1008e0b0     kernel32:KERNEL32.dll
 0004:000000b4       __imp__InitializeSListHead@4 1008e0b4     kernel32:KERNEL32.dll
 0004:000000b8       __imp__GetSystemTimeAsFileTime@4 1008e0b8     kernel32:KERNEL32.dll
 0004:000000bc       __imp__GetCurrentThreadId@0 1008e0bc     kernel32:KERNEL32.dll
 0004:000000c0       __imp__GetCurrentProcessId@0 1008e0c0     kernel32:KERNEL32.dll
 0004:000000c4       __imp__QueryPerformanceCounter@4 1008e0c4     kernel32:KERNEL32.dll
 0004:000000c8       __imp__FreeLibrary@4       1008e0c8     kernel32:KERNEL32.dll
 0004:000000cc       __imp__VirtualQuery@12     1008e0cc     kernel32:KERNEL32.dll
 0004:000000d0       __imp__GetStartupInfoW@4   1008e0d0     kernel32:KERNEL32.dll
 0004:000000d4       __imp__IsProcessorFeaturePresent@4 1008e0d4     kernel32:KERNEL32.dll
 0004:000000d8       __imp__TerminateProcess@8  1008e0d8     kernel32:KERNEL32.dll
 0004:000000dc       __imp__GetCurrentProcess@0 1008e0dc     kernel32:KERNEL32.dll
 0004:000000e0       __imp__SetUnhandledExceptionFilter@4 1008e0e0     kernel32:KERNEL32.dll
 0004:000000e4       __imp__UnhandledExceptionFilter@4 1008e0e4     kernel32:KERNEL32.dll
 0004:000000e8       __imp__WideCharToMultiByte@32 1008e0e8     kernel32:KERNEL32.dll
 0004:000000ec       __imp__IsDebuggerPresent@0 1008e0ec     kernel32:KERNEL32.dll
 0004:000000f0       __imp__CreateEventW@16     1008e0f0     kernel32:KERNEL32.dll
 0004:000000f4       __imp__WaitForSingleObjectEx@12 1008e0f4     kernel32:KERNEL32.dll
 0004:000000f8       __imp__LeaveCriticalSection@4 1008e0f8     kernel32:KERNEL32.dll
 0004:000000fc       __imp__EnterCriticalSection@4 1008e0fc     kernel32:KERNEL32.dll
 0004:00000100       __imp__LoadLibraryW@4      1008e100     kernel32:KERNEL32.dll
 0004:00000104       __imp__GetModuleHandleW@4  1008e104     kernel32:KERNEL32.dll
 0004:00000108       __imp__GetModuleFileNameW@12 1008e108     kernel32:KERNEL32.dll
 0004:0000010c       __imp__OutputDebugStringA@4 1008e10c     kernel32:KERNEL32.dll
 0004:00000110       __imp__GetFileAttributesA@4 1008e110     kernel32:KERNEL32.dll
 0004:00000114       __imp__SetFileAttributesA@8 1008e114     kernel32:KERNEL32.dll
 0004:00000118       __imp__DeleteCriticalSection@4 1008e118     kernel32:KERNEL32.dll
 0004:0000011c       __imp__InitializeCriticalSectionAndSpinCount@8 1008e11c     kernel32:KERNEL32.dll
 0004:00000120       __imp__RaiseException@16   1008e120     kernel32:KERNEL32.dll
 0004:00000124       __imp__GetProcessHeap@0    1008e124     kernel32:KERNEL32.dll
 0004:00000128       __imp__HeapSize@12         1008e128     kernel32:KERNEL32.dll
 0004:0000012c       __imp__OutputDebugStringW@4 1008e12c     kernel32:KERNEL32.dll
 0004:00000130       __imp__HeapReAlloc@16      1008e130     kernel32:KERNEL32.dll
 0004:00000134       __imp__HeapAlloc@12        1008e134     kernel32:KERNEL32.dll
 0004:00000138       __imp__HeapDestroy@4       1008e138     kernel32:KERNEL32.dll
 0004:0000013c       __imp__DecodePointer@4     1008e13c     kernel32:KERNEL32.dll
 0004:00000140       __imp__CreateEventA@16     1008e140     kernel32:KERNEL32.dll
 0004:00000144       __imp__CloseHandle@4       1008e144     kernel32:KERNEL32.dll
 0004:00000148       __imp__ResetEvent@4        1008e148     kernel32:KERNEL32.dll
 0004:0000014c       __imp__SetEvent@4          1008e14c     kernel32:KERNEL32.dll
 0004:00000150       __imp__ResumeThread@4      1008e150     kernel32:KERNEL32.dll
 0004:00000154       __imp__FindFirstFileA@8    1008e154     kernel32:KERNEL32.dll
 0004:00000158       __imp__DeleteFileA@4       1008e158     kernel32:KERNEL32.dll
 0004:0000015c       __imp__RemoveDirectoryA@4  1008e15c     kernel32:KERNEL32.dll
 0004:00000160       __imp__CreateDirectoryA@8  1008e160     kernel32:KERNEL32.dll
 0004:00000164       __imp__GetCurrentDirectoryA@8 1008e164     kernel32:KERNEL32.dll
 0004:00000168       __imp__SetCurrentDirectoryA@4 1008e168     kernel32:KERNEL32.dll
 0004:0000016c       __imp__FindClose@4         1008e16c     kernel32:KERNEL32.dll
 0004:00000170       __imp__MultiByteToWideChar@24 1008e170     kernel32:KERNEL32.dll
 0004:00000174       __imp__Sleep@4             1008e174     kernel32:KERNEL32.dll
 0004:00000178       __imp__WaitForSingleObject@8 1008e178     kernel32:KERNEL32.dll
 0004:0000017c       __imp__SetLastError@4      1008e17c     kernel32:KERNEL32.dll
 0004:00000180       __imp__GetLastError@0      1008e180     kernel32:KERNEL32.dll
 0004:00000184       __imp__TerminateThread@8   1008e184     kernel32:KERNEL32.dll
 0004:00000188       __imp__FindResourceA@12    1008e188     kernel32:KERNEL32.dll
 0004:0000018c       __imp__GetModuleHandleA@4  1008e18c     kernel32:KERNEL32.dll
 0004:00000190       __imp__SizeofResource@8    1008e190     kernel32:KERNEL32.dll
 0004:00000194       __imp__LoadResource@8      1008e194     kernel32:KERNEL32.dll
 0004:00000198       __imp__GlobalFree@4        1008e198     kernel32:KERNEL32.dll
 0004:0000019c       __imp__GlobalUnlock@4      1008e19c     kernel32:KERNEL32.dll
 0004:000001a0       __imp__GlobalLock@4        1008e1a0     kernel32:KERNEL32.dll
 0004:000001a4       __imp__GlobalAlloc@8       1008e1a4     kernel32:KERNEL32.dll
 0004:000001a8       __imp__GetProcAddress@8    1008e1a8     kernel32:KERNEL32.dll
 0004:000001ac       __imp__LockResource@4      1008e1ac     kernel32:KERNEL32.dll
 0004:000001b0       __imp__FreeResource@4      1008e1b0     kernel32:KERNEL32.dll
 0004:000001b4       \177KERNEL32_NULL_THUNK_DATA 1008e1b4     kernel32:KERNEL32.dll
 0004:00000214       __imp_??1_Lockit@std@@QAE@XZ 1008e214     msvcprtd:MSVCP140D.dll
 0004:00000218       __imp_??0_Lockit@std@@QAE@H@Z 1008e218     msvcprtd:MSVCP140D.dll
 0004:0000021c       __imp_?_Xlength_error@std@@YAXPBD@Z 1008e21c     msvcprtd:MSVCP140D.dll
 0004:00000220       \177MSVCP140D_NULL_THUNK_DATA 1008e220     msvcprtd:MSVCP140D.dll
 0004:0000024c       __imp__OleLoadPicture@20   1008e24c     oleaut32:OLEAUT32.dll
 0004:00000250       __imp__SysFreeString@4     1008e250     oleaut32:OLEAUT32.dll
 0004:00000254       \177OLEAUT32_NULL_THUNK_DATA 1008e254     oleaut32:OLEAUT32.dll
 0004:00000280       __imp__CopyRect@8          1008e280     user32:USER32.dll
 0004:00000284       __imp__FillRect@12         1008e284     user32:USER32.dll
 0004:00000288       __imp__GetActiveWindow@0   1008e288     user32:USER32.dll
 0004:0000028c       __imp__ReleaseDC@8         1008e28c     user32:USER32.dll
 0004:00000290       __imp__GetClientRect@8     1008e290     user32:USER32.dll
 0004:00000294       __imp__InvalidateRect@12   1008e294     user32:USER32.dll
 0004:00000298       __imp__MessageBoxA@16      1008e298     user32:USER32.dll
 0004:0000029c       __imp__SetRect@20          1008e29c     user32:USER32.dll
 0004:000002a0       __imp__SendMessageA@16     1008e2a0     user32:USER32.dll
 0004:000002a4       __imp__PostQuitMessage@4   1008e2a4     user32:USER32.dll
 0004:000002a8       __imp__PeekMessageA@20     1008e2a8     user32:USER32.dll
 0004:000002ac       __imp__wsprintfA           1008e2ac     user32:USER32.dll
 0004:000002b0       __imp__UnregisterClassA@8  1008e2b0     user32:USER32.dll
 0004:000002b4       __imp__GetDC@4             1008e2b4     user32:USER32.dll
 0004:000002b8       \177USER32_NULL_THUNK_DATA 1008e2b8     user32:USER32.dll
 0004:000002ec       __imp____vcrt_LoadLibraryExW 1008e2ec     vcruntimed:VCRUNTIME140D.dll
 0004:000002f0       __imp____vcrt_GetModuleHandleW 1008e2f0     vcruntimed:VCRUNTIME140D.dll
 0004:000002f4       __imp____vcrt_GetModuleFileNameW 1008e2f4     vcruntimed:VCRUNTIME140D.dll
 0004:000002f8       __imp___except_handler4_common 1008e2f8     vcruntimed:VCRUNTIME140D.dll
 0004:000002fc       __imp___purecall           1008e2fc     vcruntimed:VCRUNTIME140D.dll
 0004:00000300       __imp___CxxThrowException@8 1008e300     vcruntimed:VCRUNTIME140D.dll
 0004:00000304       __imp__memmove             1008e304     vcruntimed:VCRUNTIME140D.dll
 0004:00000308       __imp__memcmp              1008e308     vcruntimed:VCRUNTIME140D.dll
 0004:0000030c       __imp__memset              1008e30c     vcruntimed:VCRUNTIME140D.dll
 0004:00000310       __imp__memcpy              1008e310     vcruntimed:VCRUNTIME140D.dll
 0004:00000314       __imp____std_type_info_destroy_list 1008e314     vcruntimed:VCRUNTIME140D.dll
 0004:00000318       __imp____CxxFrameHandler3  1008e318     vcruntimed:VCRUNTIME140D.dll
 0004:0000031c       \177VCRUNTIME140D_NULL_THUNK_DATA 1008e31c     vcruntimed:VCRUNTIME140D.dll
 0004:00000350       __imp__InternetOpenA@20    1008e350     wininet:WININET.dll
 0004:00000354       __imp__HttpQueryInfoA@20   1008e354     wininet:WININET.dll
 0004:00000358       __imp__HttpSendRequestA@20 1008e358     wininet:WININET.dll
 0004:0000035c       __imp__HttpOpenRequestA@32 1008e35c     wininet:WININET.dll
 0004:00000360       __imp__InternetReadFileExA@16 1008e360     wininet:WININET.dll
 0004:00000364       __imp__InternetReadFile@16 1008e364     wininet:WININET.dll
 0004:00000368       __imp__InternetOpenUrlA@24 1008e368     wininet:WININET.dll
 0004:0000036c       __imp__InternetConnectA@32 1008e36c     wininet:WININET.dll
 0004:00000370       __imp__InternetCloseHandle@4 1008e370     wininet:WININET.dll
 0004:00000374       \177WININET_NULL_THUNK_DATA 1008e374     wininet:WININET.dll
 0004:000003a4       __imp__timeGetTime@0       1008e3a4     winmm:WINMM.dll
 0004:000003a8       \177WINMM_NULL_THUNK_DATA  1008e3a8     winmm:WINMM.dll
 0004:000003d4       __imp_?SelectObject@CDC@@QAEPAXPAX@Z 1008e3d4     mfc140d:mfc140d.dll
 0004:000003d8       __imp_??1CDC@@UAE@XZ       1008e3d8     mfc140d:mfc140d.dll
 0004:000003dc       __imp_?CreateCompatibleDC@CDC@@QAEHPAV1@@Z 1008e3dc     mfc140d:mfc140d.dll
 0004:000003e0       __imp_??0CDC@@QAE@XZ       1008e3e0     mfc140d:mfc140d.dll
 0004:000003e4       __imp_?GetSafeHdc@CDC@@QBEPAUHDC__@@XZ 1008e3e4     mfc140d:mfc140d.dll
 0004:000003e8       __imp_?hFileNull@CFile@@2QAXA 1008e3e8     mfc140d:mfc140d.dll
 0004:000003ec       __imp_?AfxParseURL@@YGHPBDAAKAAV?$CStringT@DV?$StrTraitMFC_DLL@DV?$ChTraitsCRT@D@ATL@@@@@ATL@@2AAG@Z 1008e3ec     mfc140d:mfc140d.dll
 0004:000003f0       __imp_??1CByteArray@@UAE@XZ 1008e3f0     mfc140d:mfc140d.dll
 0004:000003f4       __imp_??ACByteArray@@QAEAAEH@Z 1008e3f4     mfc140d:mfc140d.dll
 0004:000003f8       __imp_?GetData@CByteArray@@QAEPAEXZ 1008e3f8     mfc140d:mfc140d.dll
 0004:000003fc       __imp_?SetSize@CByteArray@@QAEXHH@Z 1008e3fc     mfc140d:mfc140d.dll
 0004:00000400       __imp_??0CByteArray@@QAE@XZ 1008e400     mfc140d:mfc140d.dll
 0004:00000404       __imp_??0CFile@@QAE@XZ     1008e404     mfc140d:mfc140d.dll
 0004:00000408       __imp_??0AFX_EXCEPTION_LINK@@QAE@XZ 1008e408     mfc140d:mfc140d.dll
 0004:0000040c       __imp_?AfxTryCleanup@@YGXXZ 1008e40c     mfc140d:mfc140d.dll
 0004:00000410       __imp_??1CCriticalSection@@UAE@XZ 1008e410     mfc140d:mfc140d.dll
 0004:00000414       __imp_??0CCriticalSection@@QAE@XZ 1008e414     mfc140d:mfc140d.dll
 0004:00000418       __imp_??$SerializeElements@V?$CStringT@DV?$StrTraitMFC_DLL@DV?$ChTraitsCRT@D@ATL@@@@@ATL@@@@YGXAAVCArchive@@PAV?$CStringT@DV?$StrTraitMFC_DLL@DV?$ChTraitsCRT@D@ATL@@@@@ATL@@H@Z 1008e418     mfc140d:mfc140d.dll
 0004:0000041c       __imp_?FreeDataChain@CPlex@@QAEXXZ 1008e41c     mfc140d:mfc140d.dll
 0004:00000420       __imp_??6CDumpContext@@QAEAAV0@H@Z 1008e420     mfc140d:mfc140d.dll
 0004:00000424       __imp_??6CDumpContext@@QAEAAV0@PBD@Z 1008e424     mfc140d:mfc140d.dll
 0004:00000428       __imp_?GetDepth@CDumpContext@@QBEHXZ 1008e428     mfc140d:mfc140d.dll
 0004:0000042c       __imp_?WriteCount@CArchive@@QAEXK@Z 1008e42c     mfc140d:mfc140d.dll
 0004:00000430       __imp_?ReadCount@CArchive@@QAEKXZ 1008e430     mfc140d:mfc140d.dll
 0004:00000434       __imp_?Write@CArchive@@QAEXPBXI@Z 1008e434     mfc140d:mfc140d.dll
 0004:00000438       __imp_?EnsureRead@CArchive@@QAEXPAXI@Z 1008e438     mfc140d:mfc140d.dll
 0004:0000043c       __imp_?IsStoring@CArchive@@QBEHXZ 1008e43c     mfc140d:mfc140d.dll
 0004:00000440       __imp_?Dump@CObject@@UBEXAAVCDumpContext@@@Z 1008e440     mfc140d:mfc140d.dll
 0004:00000444       __imp_?AssertValid@CObject@@UBEXXZ 1008e444     mfc140d:mfc140d.dll
 0004:00000448       __imp_?Serialize@CObject@@UAEXAAVCArchive@@@Z 1008e448     mfc140d:mfc140d.dll
 0004:0000044c       __imp_??0CObject@@IAE@XZ   1008e44c     mfc140d:mfc140d.dll
 0004:00000450       __imp_??3CObject@@SGXPAX@Z 1008e450     mfc140d:mfc140d.dll
 0004:00000454       __imp_??1CObject@@UAE@XZ   1008e454     mfc140d:mfc140d.dll
 0004:00000458       __imp_?GetRuntimeClass@CObject@@UBEPAUCRuntimeClass@@XZ 1008e458     mfc140d:mfc140d.dll
 0004:0000045c       __imp_??1CFile@@UAE@XZ     1008e45c     mfc140d:mfc140d.dll
 0004:00000460       __imp_?Write@CFile@@UAEXPBXI@Z 1008e460     mfc140d:mfc140d.dll
 0004:00000464       __imp_?SetStatus@CFile@@SGXPBDABUCFileStatus@@PAVCAtlTransactionManager@ATL@@@Z 1008e464     mfc140d:mfc140d.dll
 0004:00000468       __imp_?GetStatus@CFile@@SGHPBDAAUCFileStatus@@PAVCAtlTransactionManager@ATL@@@Z 1008e468     mfc140d:mfc140d.dll
 0004:0000046c       __imp_??0CFile@@QAE@PBDI@Z 1008e46c     mfc140d:mfc140d.dll
 0004:00000470       __imp_?GetThisClass@CFileException@@SGPAUCRuntimeClass@@XZ 1008e470     mfc140d:mfc140d.dll
 0004:00000474       __imp_?Mid@?$CStringT@DV?$StrTraitMFC_DLL@DV?$ChTraitsCRT@D@ATL@@@@@ATL@@QBE?AV12@HH@Z 1008e474     mfc140d:mfc140d.dll
 0004:00000478       __imp_?GetManager@?$CStringT@DV?$StrTraitMFC_DLL@DV?$ChTraitsCRT@D@ATL@@@@@ATL@@QBEPAUIAtlStringMgr@2@XZ 1008e478     mfc140d:mfc140d.dll
 0004:0000047c       __imp_??0?$CStringT@DV?$StrTraitMFC_DLL@DV?$ChTraitsCRT@D@ATL@@@@@ATL@@QAE@PAUIAtlStringMgr@1@@Z 1008e47c     mfc140d:mfc140d.dll
 0004:00000480       __imp_?Concatenate@?$CSimpleStringT@D$00@ATL@@KAXAAV12@PBDH1H@Z 1008e480     mfc140d:mfc140d.dll
 0004:00000484       __imp_?StringLength@?$CSimpleStringT@D$00@ATL@@SAHPBD@Z 1008e484     mfc140d:mfc140d.dll
 0004:00000488       __imp_?SetAt@?$CSimpleStringT@D$00@ATL@@QAEXHD@Z 1008e488     mfc140d:mfc140d.dll
 0004:0000048c       __imp_?GetLength@?$CSimpleStringT@D$00@ATL@@QBEHXZ 1008e48c     mfc140d:mfc140d.dll
 0004:00000490       __imp_?GetAt@?$CSimpleStringT@D$00@ATL@@QBEDH@Z 1008e490     mfc140d:mfc140d.dll
 0004:00000494       __imp_?Delete@CException@@QAEXXZ 1008e494     mfc140d:mfc140d.dll
 0004:00000498       __imp_?IsKindOf@CObject@@QBEHPBUCRuntimeClass@@@Z 1008e498     mfc140d:mfc140d.dll
 0004:0000049c       __imp_??_U@YAPAXI@Z        1008e49c     mfc140d:mfc140d.dll
 0004:000004a0       __imp_??1CEvent@@UAE@XZ    1008e4a0     mfc140d:mfc140d.dll
 0004:000004a4       __imp_??0CEvent@@QAE@HHPBDPAU_SECURITY_ATTRIBUTES@@@Z 1008e4a4     mfc140d:mfc140d.dll
 0004:000004a8       __imp_?AfxMessageBox@@YGHPBDII@Z 1008e4a8     mfc140d:mfc140d.dll
 0004:000004ac       __imp_?AfxBeginThread@@YGPAVCWinThread@@P6AIPAX@Z0HIKPAU_SECURITY_ATTRIBUTES@@@Z 1008e4ac     mfc140d:mfc140d.dll
 0004:000004b0       __imp_?ResumeThread@CWinThread@@QAEKXZ 1008e4b0     mfc140d:mfc140d.dll
 0004:000004b4       __imp_??0?$CStringT@DV?$StrTraitMFC_DLL@DV?$ChTraitsCRT@D@ATL@@@@@ATL@@QAE@ABV01@@Z 1008e4b4     mfc140d:mfc140d.dll
 0004:000004b8       __imp_?AfxThrowOleException@@YGXJ@Z 1008e4b8     mfc140d:mfc140d.dll
 0004:000004bc       __imp_?AfxThrowMemoryException@@YGXXZ 1008e4bc     mfc140d:mfc140d.dll
 0004:000004c0       __imp_??3@YAXPAX@Z         1008e4c0     mfc140d:mfc140d.dll
 0004:000004c4       __imp_?CompareNoCase@?$CStringT@DV?$StrTraitMFC_DLL@DV?$ChTraitsCRT@D@ATL@@@@@ATL@@QBEHPBD@Z 1008e4c4     mfc140d:mfc140d.dll
 0004:000004c8       __imp_??0CFileFind@@QAE@XZ 1008e4c8     mfc140d:mfc140d.dll
 0004:000004cc       __imp_??1CFileFind@@UAE@XZ 1008e4cc     mfc140d:mfc140d.dll
 0004:000004d0       __imp_?IsDirectory@CFileFind@@QBEHXZ 1008e4d0     mfc140d:mfc140d.dll
 0004:000004d4       __imp_??1CPtrList@@UAE@XZ  1008e4d4     mfc140d:mfc140d.dll
 0004:000004d8       __imp_?Find@CPtrList@@QBEPAU__POSITION@@PAXPAU2@@Z 1008e4d8     mfc140d:mfc140d.dll
 0004:000004dc       __imp_?RemoveAt@CPtrList@@QAEXPAU__POSITION@@@Z 1008e4dc     mfc140d:mfc140d.dll
 0004:000004e0       __imp_?GetNext@CPtrList@@QAEAAPAXAAPAU__POSITION@@@Z 1008e4e0     mfc140d:mfc140d.dll
 0004:000004e4       __imp_?GetHeadPosition@CPtrList@@QBEPAU__POSITION@@XZ 1008e4e4     mfc140d:mfc140d.dll
 0004:000004e8       __imp_?AddTail@CPtrList@@QAEPAU__POSITION@@PAX@Z 1008e4e8     mfc140d:mfc140d.dll
 0004:000004ec       __imp_?GetCount@CPtrList@@QBEHXZ 1008e4ec     mfc140d:mfc140d.dll
 0004:000004f0       __imp_??0CPtrList@@QAE@H@Z 1008e4f0     mfc140d:mfc140d.dll
 0004:000004f4       __imp_?SeekToEnd@CFile@@QAE_KXZ 1008e4f4     mfc140d:mfc140d.dll
 0004:000004f8       __imp_?GetStatus@CFile@@QBEHAAUCFileStatus@@@Z 1008e4f8     mfc140d:mfc140d.dll
 0004:000004fc       __imp_?IsEmpty@?$CSimpleStringT@D$00@ATL@@QBE_NXZ 1008e4fc     mfc140d:mfc140d.dll
 0004:00000500       __imp_??1CException@@UAE@XZ 1008e500     mfc140d:mfc140d.dll
 0004:00000504       __imp_?Lock@CCriticalSection@@QAEHXZ 1008e504     mfc140d:mfc140d.dll
 0004:00000508       __imp_?AfxLoadLibrary@@YGPAUHINSTANCE__@@PBD@Z 1008e508     mfc140d:mfc140d.dll
 0004:0000050c       __imp_??$HashKey@PBD@@YGIPBD@Z 1008e50c     mfc140d:mfc140d.dll
 0004:00000510       __imp_?Create@CPlex@@SGPAU1@AAPAU1@II@Z 1008e510     mfc140d:mfc140d.dll
 0004:00000514       __imp_??_U@YAPAXIPBDH@Z    1008e514     mfc140d:mfc140d.dll
 0004:00000518       __imp_?AfxIsValidAddress@@YGHPBXIH@Z 1008e518     mfc140d:mfc140d.dll
 0004:0000051c       __imp_?Format@?$CStringT@DV?$StrTraitMFC_DLL@DV?$ChTraitsCRT@D@ATL@@@@@ATL@@QAAXPBDZZ 1008e51c     mfc140d:mfc140d.dll
 0004:00000520       __imp_?Compare@?$CStringT@DV?$StrTraitMFC_DLL@DV?$ChTraitsCRT@D@ATL@@@@@ATL@@QBEHPBD@Z 1008e520     mfc140d:mfc140d.dll
 0004:00000524       __imp_??Y?$CStringT@DV?$StrTraitMFC_DLL@DV?$ChTraitsCRT@D@ATL@@@@@ATL@@QAEAAV01@PBD@Z 1008e524     mfc140d:mfc140d.dll
 0004:00000528       __imp_??Y?$CStringT@DV?$StrTraitMFC_DLL@DV?$ChTraitsCRT@D@ATL@@@@@ATL@@QAEAAV01@ABV?$CSimpleStringT@D$00@1@@Z 1008e528     mfc140d:mfc140d.dll
 0004:0000052c       __imp_??4?$CStringT@DV?$StrTraitMFC_DLL@DV?$ChTraitsCRT@D@ATL@@@@@ATL@@QAEAAV01@PBD@Z 1008e52c     mfc140d:mfc140d.dll
 0004:00000530       __imp_??4?$CStringT@DV?$StrTraitMFC_DLL@DV?$ChTraitsCRT@D@ATL@@@@@ATL@@QAEAAV01@ABV01@@Z 1008e530     mfc140d:mfc140d.dll
 0004:00000534       __imp_??1?$CStringT@DV?$StrTraitMFC_DLL@DV?$ChTraitsCRT@D@ATL@@@@@ATL@@QAE@XZ 1008e534     mfc140d:mfc140d.dll
 0004:00000538       __imp_??0?$CStringT@DV?$StrTraitMFC_DLL@DV?$ChTraitsCRT@D@ATL@@@@@ATL@@QAE@PBD@Z 1008e538     mfc140d:mfc140d.dll
 0004:0000053c       __imp_??0?$CStringT@DV?$StrTraitMFC_DLL@DV?$ChTraitsCRT@D@ATL@@@@@ATL@@QAE@XZ 1008e53c     mfc140d:mfc140d.dll
 0004:00000540       __imp_??B?$CSimpleStringT@D$00@ATL@@QBEPBDXZ 1008e540     mfc140d:mfc140d.dll
 0004:00000544       __imp_?AfxThrowInvalidArgException@@YGXXZ 1008e544     mfc140d:mfc140d.dll
 0004:00000548       __imp_?AfxAssertValidObject@@YGXPBVCObject@@PBDH@Z 1008e548     mfc140d:mfc140d.dll
 0004:0000054c       __imp_??_V@YAXPAX@Z        1008e54c     mfc140d:mfc140d.dll
 0004:00000550       __imp_??2@YAPAXI@Z         1008e550     mfc140d:mfc140d.dll
 0004:00000554       __imp_??Y?$CStringT@DV?$StrTraitMFC_DLL@DV?$ChTraitsCRT@D@ATL@@@@@ATL@@QAEAAV01@D@Z 1008e554     mfc140d:mfc140d.dll
 0004:00000558       __imp_?Close@CFileFind@@QAEXXZ 1008e558     mfc140d:mfc140d.dll
 0004:0000055c       __imp_?FindFile@CFileFind@@UAEHPBDK@Z 1008e55c     mfc140d:mfc140d.dll
 0004:00000560       __imp_?ReportError@CException@@UAEHII@Z 1008e560     mfc140d:mfc140d.dll
 0004:00000564       __imp_?GetErrorMessage@CException@@UAEHPADIPAI@Z 1008e564     mfc140d:mfc140d.dll
 0004:00000568       __imp_?GetErrorMessage@CException@@UBEHPADIPAI@Z 1008e568     mfc140d:mfc140d.dll
 0004:0000056c       __imp_??0CException@@QAE@H@Z 1008e56c     mfc140d:mfc140d.dll
 0004:00000570       __imp_?GetThisClass@CException@@SGPAUCRuntimeClass@@XZ 1008e570     mfc140d:mfc140d.dll
 0004:00000574       __imp_??0CFileException@@QAE@HJPBD@Z 1008e574     mfc140d:mfc140d.dll
 0004:00000578       __imp_?CollateNoCase@?$CStringT@DV?$StrTraitMFC_DLL@DV?$ChTraitsCRT@D@ATL@@@@@ATL@@QBEHPBD@Z 1008e578     mfc140d:mfc140d.dll
 0004:0000057c       __imp_?Collate@?$CStringT@DV?$StrTraitMFC_DLL@DV?$ChTraitsCRT@D@ATL@@@@@ATL@@QBEHPBD@Z 1008e57c     mfc140d:mfc140d.dll
 0004:00000580       __imp_??3CException@@SGXPAX@Z 1008e580     mfc140d:mfc140d.dll
 0004:00000584       __imp_??2CObject@@SGPAXI@Z 1008e584     mfc140d:mfc140d.dll
 0004:00000588       __imp_?AfxTermExtensionModule@@YGXAAUAFX_EXTENSION_MODULE@@H@Z 1008e588     mfc140d:mfc140d.dll
 0004:0000058c       __imp_?AfxInitExtensionModule@@YGHAAUAFX_EXTENSION_MODULE@@PAUHINSTANCE__@@@Z 1008e58c     mfc140d:mfc140d.dll
 0004:00000590       __imp_??0CDynLinkLibrary@@QAE@AAUAFX_EXTENSION_MODULE@@H@Z 1008e590     mfc140d:mfc140d.dll
 0004:00000594       __imp_?AfxGetModuleState@@YGPAVAFX_MODULE_STATE@@XZ 1008e594     mfc140d:mfc140d.dll
 0004:00000598       __imp_??2CObject@@SGPAXIPBDH@Z 1008e598     mfc140d:mfc140d.dll
 0004:0000059c       __imp_?Close@CFile@@UAEXXZ 1008e59c     mfc140d:mfc140d.dll
 0004:000005a0       __imp_?Read@CFile@@UAEIPAXI@Z 1008e5a0     mfc140d:mfc140d.dll
 0004:000005a4       __imp_?GetLength@CFile@@UBE_KXZ 1008e5a4     mfc140d:mfc140d.dll
 0004:000005a8       __imp_?Open@CFile@@UAEHPBDIPAVCFileException@@@Z 1008e5a8     mfc140d:mfc140d.dll
 0004:000005ac       __imp_?AfxGetResourceHandle@@YGPAUHINSTANCE__@@XZ 1008e5ac     mfc140d:mfc140d.dll
 0004:000005b0       __imp_??1CStringArray@@UAE@XZ 1008e5b0     mfc140d:mfc140d.dll
 0004:000005b4       __imp_?Add@CStringArray@@QAEHABV?$CStringT@DV?$StrTraitMFC_DLL@DV?$ChTraitsCRT@D@ATL@@@@@ATL@@@Z 1008e5b4     mfc140d:mfc140d.dll
 0004:000005b8       __imp_?GetAt@CStringArray@@QBEABV?$CStringT@DV?$StrTraitMFC_DLL@DV?$ChTraitsCRT@D@ATL@@@@@ATL@@H@Z 1008e5b8     mfc140d:mfc140d.dll
 0004:000005bc       __imp_?RemoveAll@CStringArray@@QAEXXZ 1008e5bc     mfc140d:mfc140d.dll
 0004:000005c0       __imp_?GetSize@CStringArray@@QBEHXZ 1008e5c0     mfc140d:mfc140d.dll
 0004:000005c4       __imp_??0CStringArray@@QAE@XZ 1008e5c4     mfc140d:mfc140d.dll
 0004:000005c8       __imp_?FindNextFileA@CFileFind@@UAEHXZ 1008e5c8     mfc140d:mfc140d.dll
 0004:000005cc       __imp_?GetFileName@CFileFind@@UBE?AV?$CStringT@DV?$StrTraitMFC_DLL@DV?$ChTraitsCRT@D@ATL@@@@@ATL@@XZ 1008e5cc     mfc140d:mfc140d.dll
 0004:000005d0       \177mfc140d_NULL_THUNK_DATA 1008e5d0     mfc140d:mfc140d.dll
 0004:00000660       __imp__CreateStreamOnHGlobal@12 1008e660     ole32:ole32.dll
 0004:00000664       \177ole32_NULL_THUNK_DATA  1008e664     ole32:ole32.dll
 0004:00000690       __imp__strcpy              1008e690     ucrtd:ucrtbased.dll
 0004:00000694       __imp__strlen              1008e694     ucrtd:ucrtbased.dll
 0004:00000698       __imp__strncpy             1008e698     ucrtd:ucrtbased.dll
 0004:0000069c       __imp____stdio_common_vswprintf_s 1008e69c     ucrtd:ucrtbased.dll
 0004:000006a0       __imp___CrtDbgReport       1008e6a0     ucrtd:ucrtbased.dll
 0004:000006a4       __imp___CrtDbgReportW      1008e6a4     ucrtd:ucrtbased.dll
 0004:000006a8       __imp__wcslen              1008e6a8     ucrtd:ucrtbased.dll
 0004:000006ac       __imp____stdio_common_vsprintf 1008e6ac     ucrtd:ucrtbased.dll
 0004:000006b0       __imp____stdio_common_vsnprintf_s 1008e6b0     ucrtd:ucrtbased.dll
 0004:000006b4       __imp__free                1008e6b4     ucrtd:ucrtbased.dll
 0004:000006b8       __imp__malloc              1008e6b8     ucrtd:ucrtbased.dll
 0004:000006bc       __imp___mktime64           1008e6bc     ucrtd:ucrtbased.dll
 0004:000006c0       __imp___splitpath          1008e6c0     ucrtd:ucrtbased.dll
 0004:000006c4       __imp__strncmp             1008e6c4     ucrtd:ucrtbased.dll
 0004:000006c8       __imp__fclose              1008e6c8     ucrtd:ucrtbased.dll
 0004:000006cc       __imp___fileno             1008e6cc     ucrtd:ucrtbased.dll
 0004:000006d0       __imp__fopen               1008e6d0     ucrtd:ucrtbased.dll
 0004:000006d4       __imp__fread               1008e6d4     ucrtd:ucrtbased.dll
 0004:000006d8       __imp__fseek               1008e6d8     ucrtd:ucrtbased.dll
 0004:000006dc       __imp__fwrite              1008e6dc     ucrtd:ucrtbased.dll
 0004:000006e0       __imp___localtime64_s      1008e6e0     ucrtd:ucrtbased.dll
 0004:000006e4       __imp___time64             1008e6e4     ucrtd:ucrtbased.dll
 0004:000006e8       __imp___filelength         1008e6e8     ucrtd:ucrtbased.dll
 0004:000006ec       __imp__atol                1008e6ec     ucrtd:ucrtbased.dll
 0004:000006f0       __imp___invalid_parameter  1008e6f0     ucrtd:ucrtbased.dll
 0004:000006f4       __imp___beginthreadex      1008e6f4     ucrtd:ucrtbased.dll
 0004:000006f8       __imp__strcmp              1008e6f8     ucrtd:ucrtbased.dll
 0004:000006fc       __imp____acrt_iob_func     1008e6fc     ucrtd:ucrtbased.dll
 0004:00000700       __imp____stdio_common_vfprintf 1008e700     ucrtd:ucrtbased.dll
 0004:00000704       __imp__wcscpy_s            1008e704     ucrtd:ucrtbased.dll
 0004:00000708       __imp__exit                1008e708     ucrtd:ucrtbased.dll
 0004:0000070c       __imp__clearerr            1008e70c     ucrtd:ucrtbased.dll
 0004:00000710       __imp___fdopen             1008e710     ucrtd:ucrtbased.dll
 0004:00000714       __imp__ferror              1008e714     ucrtd:ucrtbased.dll
 0004:00000718       __imp__fflush              1008e718     ucrtd:ucrtbased.dll
 0004:0000071c       __imp__fputc               1008e71c     ucrtd:ucrtbased.dll
 0004:00000720       __imp__ftell               1008e720     ucrtd:ucrtbased.dll
 0004:00000724       __imp___errno              1008e724     ucrtd:ucrtbased.dll
 0004:00000728       __imp__strcat              1008e728     ucrtd:ucrtbased.dll
 0004:0000072c       __imp__strerror            1008e72c     ucrtd:ucrtbased.dll
 0004:00000730       __imp__terminate           1008e730     ucrtd:ucrtbased.dll
 0004:00000734       __imp___seh_filter_dll     1008e734     ucrtd:ucrtbased.dll
 0004:00000738       __imp___configure_narrow_argv 1008e738     ucrtd:ucrtbased.dll
 0004:0000073c       __imp___initialize_narrow_environment 1008e73c     ucrtd:ucrtbased.dll
 0004:00000740       __imp___initialize_onexit_table 1008e740     ucrtd:ucrtbased.dll
 0004:00000744       __imp___register_onexit_function 1008e744     ucrtd:ucrtbased.dll
 0004:00000748       __imp___execute_onexit_table 1008e748     ucrtd:ucrtbased.dll
 0004:0000074c       __imp___crt_atexit         1008e74c     ucrtd:ucrtbased.dll
 0004:00000750       __imp___crt_at_quick_exit  1008e750     ucrtd:ucrtbased.dll
 0004:00000754       __imp___cexit              1008e754     ucrtd:ucrtbased.dll
 0004:00000758       __imp__strcpy_s            1008e758     ucrtd:ucrtbased.dll
 0004:0000075c       __imp__strcat_s            1008e75c     ucrtd:ucrtbased.dll
 0004:00000760       __imp____stdio_common_vsprintf_s 1008e760     ucrtd:ucrtbased.dll
 0004:00000764       __imp___initterm           1008e764     ucrtd:ucrtbased.dll
 0004:00000768       __imp___initterm_e         1008e768     ucrtd:ucrtbased.dll
 0004:0000076c       __imp___wmakepath_s        1008e76c     ucrtd:ucrtbased.dll
 0004:00000770       __imp___wsplitpath_s       1008e770     ucrtd:ucrtbased.dll
 0004:00000774       __imp___invalid_parameter_noinfo 1008e774     ucrtd:ucrtbased.dll
 0004:00000778       __imp___recalloc           1008e778     ucrtd:ucrtbased.dll
 0004:0000077c       __imp__stricmp             1008e77c     ucrtd:ucrtbased.dll
 0004:0000077c       __imp___stricmp            1008e77c     ucrtd:ucrtbased.dll
 0004:00000780       __imp__calloc              1008e780     ucrtd:ucrtbased.dll
 0004:00000784       \177ucrtbased_NULL_THUNK_DATA 1008e784     ucrtd:ucrtbased.dll
 0004:000007e0       __IMPORT_DESCRIPTOR_WINMM  1008e7e0     winmm:WINMM.dll
 0004:000007f4       __IMPORT_DESCRIPTOR_mfc140d 1008e7f4     mfc140d:mfc140d.dll
 0004:00000808       __IMPORT_DESCRIPTOR_KERNEL32 1008e808     kernel32:KERNEL32.dll
 0004:0000081c       __IMPORT_DESCRIPTOR_USER32 1008e81c     user32:USER32.dll
 0004:00000830       __IMPORT_DESCRIPTOR_GDI32  1008e830     gdi32:GDI32.dll
 0004:00000844       __IMPORT_DESCRIPTOR_ADVAPI32 1008e844     advapi32:ADVAPI32.dll
 0004:00000858       __IMPORT_DESCRIPTOR_ole32  1008e858     ole32:ole32.dll
 0004:0000086c       __IMPORT_DESCRIPTOR_OLEAUT32 1008e86c     oleaut32:OLEAUT32.dll
 0004:00000880       __IMPORT_DESCRIPTOR_MSVCP140D 1008e880     msvcprtd:MSVCP140D.dll
 0004:00000894       __IMPORT_DESCRIPTOR_WININET 1008e894     wininet:WININET.dll
 0004:000008a8       __IMPORT_DESCRIPTOR_VCRUNTIME140D 1008e8a8     vcruntimed:VCRUNTIME140D.dll
 0004:000008bc       __IMPORT_DESCRIPTOR_ucrtbased 1008e8bc     ucrtd:ucrtbased.dll
 0004:000008d0       __NULL_IMPORT_DESCRIPTOR   1008e8d0     winmm:WINMM.dll
 0005:00000000       __tls_start                10091000     msvcrtd:tlssup.obj
 0005:00000104       __Init_thread_epoch        10091104     msvcrtd:thread_safe_statics.obj
 0005:00000208       __tls_end                  10091208     msvcrtd:tlssup.obj
 0006:00000000       ___guard_check_icall_fptr  10092000     msvcrtd:guard_support.obj

 entry point at        0001:00000c80

 Static symbols

 0002:fff93000       ?atlTraceNotImpl$initializer$@ATL@@3P6AXXZA 10000000     stdafx.obj
 0002:fff93000       ?atlTraceException$initializer$@ATL@@3P6AXXZA 10000000     ZUBaseFile.obj
 0002:fff93000       ?atlTraceException$initializer$@ATL@@3P6AXXZA 10000000     ZipFile.obj
 0002:fff93000       __unwindtable$??RCTraceFileAndLineInfo@ATL@@QBAXHIPBDZZ 10000000     ZipFile.obj
 0002:fff93000       __unwindtable$?TraceV@CTrace@ATL@@SAXPBDHII0PAD@Z 10000000     ZipFile.obj
 0001:fffff000       __unwindfunclet$??RCTraceFileAndLineInfo@ATL@@QBAXHIPBDZZ$0 10000000 f   ZipFile.obj
 0001:fffff000       __unwindfunclet$?TraceV@CTrace@ATL@@SAXPBDHII0PAD@Z$0 10000000 f   ZipFile.obj
 0002:fff93000       ?atlTraceException$initializer$@ATL@@3P6AXXZA 10000000     ZipException.obj
 0002:fff93000       ?atlTraceException$initializer$@ATL@@3P6AXXZA 10000000     UnzipFile.obj
 0002:fff93000       __unwindtable$??RCTraceFileAndLineInfo@ATL@@QBAXHIPBDZZ 10000000     UnzipFile.obj
 0002:fff93000       __unwindtable$?TraceV@CTrace@ATL@@SAXPBDHII0PAD@Z 10000000     UnzipFile.obj
 0002:fff93000       ?atlTraceException$initializer$@ATL@@3P6AXXZA 10000000     DownThread.obj
 0002:fff93000       ?atlTraceString$initializer$@ATL@@3P6AXXZA 10000000     DownThread.obj
 0001:fffff000       __unwindfunclet$??RCTraceFileAndLineInfo@ATL@@QBAXHIPBDZZ$0 10000000 f   UnzipFile.obj
 0001:fffff000       __unwindfunclet$?TraceV@CTrace@ATL@@SAXPBDHII0PAD@Z$0 10000000 f   UnzipFile.obj
 0002:fff93000       ?InitializeCAtlStringMgr$initializer$@ATLImplementationDetails@ATL@@3P6AXXZA 10000000     stdafx.obj
 0002:fff93000       ?atlTraceException$initializer$@ATL@@3P6AXXZA 10000000     ExtractFile.obj
 0002:fff93000       ?atlTraceString$initializer$@ATL@@3P6AXXZA 10000000     ExtractFile.obj
 0002:fff93000       ?_AtlWinModule$initializer$@ATL@@3P6AXXZA 10000000     stdafx.obj
 0002:fff93000       ?_AtlComModule$initializer$@ATL@@3P6AXXZA 10000000     stdafx.obj
 0002:fff93000       ?atlTraceISAPI$initializer$@ATL@@3P6AXXZA 10000000     stdafx.obj
 0002:fff93000       ?atlTraceSync$initializer$@ATL@@3P6AXXZA 10000000     stdafx.obj
 0000:fff5d000       .debug$S                   10000000     winmm:WINMM.dll
 0002:fff93000       ?atlTraceSecurity$initializer$@ATL@@3P6AXXZA 10000000     stdafx.obj
 0000:fff5d000       .debug$S                   10000000     mfc140d:mfc140d.dll
 0000:fff5d000       .debug$S                   10000000     mfc140d:mfc140d.dll
 0000:fff5d000       .debug$S                   10000000     mfc140d:mfc140d.dll
 0000:fff5d000       .debug$S                   10000000     mfc140d:mfc140d.dll
 0002:fff93000       ?atlTraceException$initializer$@ATL@@3P6AXXZA 10000000     FileList.obj
 0002:fff93000       ?atlTraceString$initializer$@ATL@@3P6AXXZA 10000000     FileList.obj
 0000:fff5d000       .debug$S                   10000000     mfc140d:mfc140d.dll
 0000:fff5d000       .debug$S                   10000000     mfc140d:mfc140d.dll
 0000:fff5d000       .debug$S                   10000000     mfc140d:mfc140d.dll
 0000:fff5d000       .debug$S                   10000000     mfc140d:mfc140d.dll
 0000:fff5d000       .debug$S                   10000000     mfc140d:mfc140d.dll
 0000:fff5d000       .debug$S                   10000000     mfc140d:mfc140d.dll
 0000:fff5d000       .debug$S                   10000000     mfc140d:mfc140d.dll
 0000:fff5d000       .debug$S                   10000000     mfc140d:mfc140d.dll
 0000:fff5d000       .debug$S                   10000000     mfc140d:mfc140d.dll
 0000:fff5d000       .debug$S                   10000000     mfc140d:mfc140d.dll
 0001:fffff000       __unwindfunclet$?TraceV@CTrace@ATL@@SAXPBDHII0PAD@Z$0 10000000 f   FileTag.obj
 0000:fff5d000       .debug$S                   10000000     mfc140d:mfc140d.dll
 0000:fff5d000       .debug$S                   10000000     mfc140d:mfc140d.dll
 0000:fff5d000       .debug$S                   10000000     mfc140d:mfc140d.dll
 0000:fff5d000       .debug$S                   10000000     mfc140d:mfc140d.dll
 0000:fff5d000       .debug$S                   10000000     mfc140d:mfc140d.dll
 0000:fff5d000       .debug$S                   10000000     mfc140d:mfc140d.dll
 0000:fff5d000       .debug$S                   10000000     mfc140d:mfc140d.dll
 0000:fff5d000       .debug$S                   10000000     mfc140d:mfc140d.dll
 0000:fff5d000       .debug$S                   10000000     mfc140d:mfc140d.dll
 0000:fff5d000       .debug$S                   10000000     mfc140d:mfc140d.dll
 0000:fff5d000       .debug$S                   10000000     mfc140d:mfc140d.dll
 0000:fff5d000       .debug$S                   10000000     mfc140d:mfc140d.dll
 0000:fff5d000       .debug$S                   10000000     mfc140d:mfc140d.dll
 0000:fff5d000       .debug$S                   10000000     mfc140d:mfc140d.dll
 0001:fffff000       __unwindfunclet$??RCTraceFileAndLineInfo@ATL@@QBAXHIPBDZZ$0 10000000 f   FileTag.obj
 0000:fff5d000       .debug$S                   10000000     mfc140d:mfc140d.dll
 0000:fff5d000       .debug$S                   10000000     mfc140d:mfc140d.dll
 0000:fff5d000       .debug$S                   10000000     mfc140d:mfc140d.dll
 0000:fff5d000       .debug$S                   10000000     mfc140d:mfc140d.dll
 0000:fff5d000       .debug$S                   10000000     mfc140d:mfc140d.dll
 0000:fff5d000       .debug$S                   10000000     mfc140d:mfc140d.dll
 0000:fff5d000       .debug$S                   10000000     mfc140d:mfc140d.dll
 0000:fff5d000       .debug$S                   10000000     mfc140d:mfc140d.dll
 0002:fff93000       __unwindtable$?TraceV@CTrace@ATL@@SAXPBDHII0PAD@Z 10000000     FileTag.obj
 0000:fff5d000       .debug$S                   10000000     nmavatar_d.exp
 0000:fff5d000       .debug$S                   10000000     mfc140d:mfc140d.dll
 0000:fff5d000       .debug$S                   10000000     kernel32:KERNEL32.dll
 0002:fff93000       __unwindtable$??RCTraceFileAndLineInfo@ATL@@QBAXHIPBDZZ 10000000     FileTag.obj
 0000:fff5d000       .debug$S                   10000000     ucrtd:ucrtbased.dll
 0000:fff5d000       .debug$S                   10000000     ucrtd:ucrtbased.dll
 0000:fff5d000       .debug$S                   10000000     ucrtd:ucrtbased.dll
 0000:fff5d000       .debug$S                   10000000     ucrtd:ucrtbased.dll
 0000:fff5d000       .debug$S                   10000000     ucrtd:ucrtbased.dll
 0000:fff5d000       .debug$S                   10000000     ucrtd:ucrtbased.dll
 0000:fff5d000       .debug$S                   10000000     ucrtd:ucrtbased.dll
 0000:fff5d000       .debug$S                   10000000     ucrtd:ucrtbased.dll
 0000:fff5d000       .debug$S                   10000000     ucrtd:ucrtbased.dll
 0000:fff5d000       .debug$S                   10000000     ucrtd:ucrtbased.dll
 0000:fff5d000       .debug$S                   10000000     ucrtd:ucrtbased.dll
 0000:fff5d000       .debug$S                   10000000     ucrtd:ucrtbased.dll
 0000:fff5d000       .debug$S                   10000000     ucrtd:ucrtbased.dll
 0000:fff5d000       .debug$S                   10000000     ucrtd:ucrtbased.dll
 0000:fff5d000       .debug$S                   10000000     ucrtd:ucrtbased.dll
 0000:fff5d000       .debug$S                   10000000     ucrtd:ucrtbased.dll
 0000:fff5d000       .debug$S                   10000000     ucrtd:ucrtbased.dll
 0000:fff5d000       .debug$S                   10000000     ucrtd:ucrtbased.dll
 0000:fff5d000       .debug$S                   10000000     ucrtd:ucrtbased.dll
 0000:fff5d000       .debug$S                   10000000     ucrtd:ucrtbased.dll
 0000:fff5d000       .debug$S                   10000000     ucrtd:ucrtbased.dll
 0000:fff5d000       .debug$S                   10000000     ucrtd:ucrtbased.dll
 0000:fff5d000       .debug$S                   10000000     ucrtd:ucrtbased.dll
 0000:fff5d000       .debug$S                   10000000     ucrtd:ucrtbased.dll
 0000:fff5d000       .debug$S                   10000000     ucrtd:ucrtbased.dll
 0000:fff5d000       .debug$S                   10000000     ucrtd:ucrtbased.dll
 0000:fff5d000       .debug$S                   10000000     ucrtd:ucrtbased.dll
 0000:fff5d000       .debug$S                   10000000     ucrtd:ucrtbased.dll
 0000:fff5d000       .debug$S                   10000000     ucrtd:ucrtbased.dll
 0000:fff5d000       .debug$S                   10000000     ucrtd:ucrtbased.dll
 0000:fff5d000       .debug$S                   10000000     ucrtd:ucrtbased.dll
 0000:fff5d000       .debug$S                   10000000     ucrtd:ucrtbased.dll
 0000:fff5d000       .debug$S                   10000000     ucrtd:ucrtbased.dll
 0000:fff5d000       .debug$S                   10000000     ucrtd:ucrtbased.dll
 0000:fff5d000       .debug$S                   10000000     ucrtd:ucrtbased.dll
 0000:fff5d000       .debug$S                   10000000     ucrtd:ucrtbased.dll
 0000:fff5d000       .debug$S                   10000000     ucrtd:ucrtbased.dll
 0000:fff5d000       .debug$S                   10000000     ucrtd:ucrtbased.dll
 0000:fff5d000       .debug$S                   10000000     ucrtd:ucrtbased.dll
 0000:fff5d000       .debug$S                   10000000     ucrtd:ucrtbased.dll
 0000:fff5d000       .debug$S                   10000000     ucrtd:ucrtbased.dll
 0000:fff5d000       .debug$S                   10000000     ucrtd:ucrtbased.dll
 0000:fff5d000       .debug$S                   10000000     ucrtd:ucrtbased.dll
 0000:fff5d000       .debug$S                   10000000     ucrtd:ucrtbased.dll
 0000:fff5d000       .debug$S                   10000000     ucrtd:ucrtbased.dll
 0000:fff5d000       .debug$S                   10000000     ucrtd:ucrtbased.dll
 0000:fff5d000       .debug$S                   10000000     ucrtd:ucrtbased.dll
 0000:fff5d000       .debug$S                   10000000     ucrtd:ucrtbased.dll
 0000:fff5d000       .debug$S                   10000000     ucrtd:ucrtbased.dll
 0000:fff5d000       .debug$S                   10000000     ucrtd:ucrtbased.dll
 0000:fff5d000       .debug$S                   10000000     ucrtd:ucrtbased.dll
 0000:fff5d000       .debug$S                   10000000     ucrtd:ucrtbased.dll
 0000:fff5d000       .debug$S                   10000000     ucrtd:ucrtbased.dll
 0000:fff5d000       .debug$S                   10000000     ucrtd:ucrtbased.dll
 0000:fff5d000       .debug$S                   10000000     ucrtd:ucrtbased.dll
 0000:fff5d000       .debug$S                   10000000     ucrtd:ucrtbased.dll
 0000:fff5d000       .debug$S                   10000000     ucrtd:ucrtbased.dll
 0000:fff5d000       .debug$S                   10000000     ucrtd:ucrtbased.dll
 0000:fff5d000       .debug$S                   10000000     ucrtd:ucrtbased.dll
 0000:fff5d000       .debug$S                   10000000     ucrtd:ucrtbased.dll
 0000:fff5d000       .debug$S                   10000000     ucrtd:ucrtbased.dll
 0002:fff93000       ?atlTraceException$initializer$@ATL@@3P6AXXZA 10000000     FileTag.obj
 0000:fff5d000       .debug$S                   10000000     vcruntimed:VCRUNTIME140D.dll
 0000:fff5d000       .debug$S                   10000000     vcruntimed:VCRUNTIME140D.dll
 0000:fff5d000       .debug$S                   10000000     vcruntimed:VCRUNTIME140D.dll
 0000:fff5d000       .debug$S                   10000000     vcruntimed:VCRUNTIME140D.dll
 0000:fff5d000       .debug$S                   10000000     vcruntimed:VCRUNTIME140D.dll
 0000:fff5d000       .debug$S                   10000000     vcruntimed:VCRUNTIME140D.dll
 0000:fff5d000       .debug$S                   10000000     vcruntimed:VCRUNTIME140D.dll
 0000:fff5d000       .debug$S                   10000000     vcruntimed:VCRUNTIME140D.dll
 0000:fff5d000       .debug$S                   10000000     vcruntimed:VCRUNTIME140D.dll
 0000:fff5d000       .debug$S                   10000000     vcruntimed:VCRUNTIME140D.dll
 0000:fff5d000       .debug$S                   10000000     vcruntimed:VCRUNTIME140D.dll
 0000:fff5d000       .debug$S                   10000000     vcruntimed:VCRUNTIME140D.dll
 0000:fff5d000       .debug$S                   10000000     mfc140d:mfc140d.dll
 0000:fff5d000       .debug$S                   10000000     wininet:WININET.dll
 0000:fff5d000       .debug$S                   10000000     wininet:WININET.dll
 0000:fff5d000       .debug$S                   10000000     wininet:WININET.dll
 0000:fff5d000       .debug$S                   10000000     wininet:WININET.dll
 0000:fff5d000       .debug$S                   10000000     wininet:WININET.dll
 0000:fff5d000       .debug$S                   10000000     wininet:WININET.dll
 0000:fff5d000       .debug$S                   10000000     wininet:WININET.dll
 0000:fff5d000       .debug$S                   10000000     wininet:WININET.dll
 0000:fff5d000       .debug$S                   10000000     wininet:WININET.dll
 0000:fff5d000       .debug$S                   10000000     mfc140d:mfc140d.dll
 0000:fff5d000       .debug$S                   10000000     msvcprtd:MSVCP140D.dll
 0000:fff5d000       .debug$S                   10000000     msvcprtd:MSVCP140D.dll
 0000:fff5d000       .debug$S                   10000000     msvcprtd:MSVCP140D.dll
 0000:fff5d000       .debug$S                   10000000     mfc140d:mfc140d.dll
 0000:fff5d000       .debug$S                   10000000     oleaut32:OLEAUT32.dll
 0000:fff5d000       .debug$S                   10000000     oleaut32:OLEAUT32.dll
 0000:fff5d000       .debug$S                   10000000     mfc140d:mfc140d.dll
 0000:fff5d000       .debug$S                   10000000     ole32:ole32.dll
 0000:fff6f000       __guard_fids__             10000000     atls:atlbase.obj
 0000:fff5d000       .debug$S                   10000000     mfc140d:mfc140d.dll
 0000:fff6f000       __guard_fids_??__E_AtlBaseModule@ATL@@YAXXZ 10000000     atls:atlbase.obj
 0000:fff5d000       .debug$S                   10000000     mfc140d:mfc140d.dll
 0002:fff93000       ?atlTraceException$initializer$@ATL@@3P6AXXZA 10000000     GetHttp.obj
 0002:fff93000       ?atlTraceString$initializer$@ATL@@3P6AXXZA 10000000     GetHttp.obj
 0000:fff5d000       .debug$S                   10000000     mfc140d:mfc140d.dll
 0000:fff5d000       .debug$S                   10000000     advapi32:ADVAPI32.dll
 0000:fff5d000       .debug$S                   10000000     advapi32:ADVAPI32.dll
 0000:fff5d000       .debug$S                   10000000     advapi32:ADVAPI32.dll
 0000:fff5d000       .debug$S                   10000000     mfc140d:mfc140d.dll
 0000:fff5d000       .debug$S                   10000000     gdi32:GDI32.dll
 0000:fff5d000       .debug$S                   10000000     gdi32:GDI32.dll
 0000:fff5d000       .debug$S                   10000000     gdi32:GDI32.dll
 0000:fff5d000       .debug$S                   10000000     gdi32:GDI32.dll
 0000:fff5d000       .debug$S                   10000000     gdi32:GDI32.dll
 0000:fff5d000       .debug$S                   10000000     gdi32:GDI32.dll
 0000:fff5d000       .debug$S                   10000000     gdi32:GDI32.dll
 0000:fff5d000       .debug$S                   10000000     gdi32:GDI32.dll
 0000:fff5d000       .debug$S                   10000000     gdi32:GDI32.dll
 0000:fff5d000       .debug$S                   10000000     gdi32:GDI32.dll
 0000:fff5d000       .debug$S                   10000000     gdi32:GDI32.dll
 0000:fff5d000       .debug$S                   10000000     gdi32:GDI32.dll
 0000:fff5d000       .debug$S                   10000000     gdi32:GDI32.dll
 0000:fff5d000       .debug$S                   10000000     gdi32:GDI32.dll
 0000:fff5d000       .debug$S                   10000000     gdi32:GDI32.dll
 0000:fff5d000       .debug$S                   10000000     gdi32:GDI32.dll
 0000:fff5d000       .debug$S                   10000000     mfc140d:mfc140d.dll
 0000:fff5d000       .debug$S                   10000000     user32:USER32.dll
 0000:fff5d000       .debug$S                   10000000     user32:USER32.dll
 0000:fff5d000       .debug$S                   10000000     user32:USER32.dll
 0000:fff5d000       .debug$S                   10000000     user32:USER32.dll
 0000:fff5d000       .debug$S                   10000000     user32:USER32.dll
 0000:fff5d000       .debug$S                   10000000     user32:USER32.dll
 0000:fff5d000       .debug$S                   10000000     user32:USER32.dll
 0000:fff5d000       .debug$S                   10000000     user32:USER32.dll
 0000:fff5d000       .debug$S                   10000000     user32:USER32.dll
 0000:fff5d000       .debug$S                   10000000     user32:USER32.dll
 0000:fff5d000       .debug$S                   10000000     user32:USER32.dll
 0000:fff5d000       .debug$S                   10000000     user32:USER32.dll
 0000:fff5d000       .debug$S                   10000000     user32:USER32.dll
 0000:fff5d000       .debug$S                   10000000     user32:USER32.dll
 0000:fff5d000       .debug$S                   10000000     mfc140d:mfc140d.dll
 0000:fff5d000       .debug$S                   10000000     kernel32:KERNEL32.dll
 0000:fff5d000       .debug$S                   10000000     kernel32:KERNEL32.dll
 0000:fff5d000       .debug$S                   10000000     kernel32:KERNEL32.dll
 0000:fff5d000       .debug$S                   10000000     kernel32:KERNEL32.dll
 0000:fff5d000       .debug$S                   10000000     kernel32:KERNEL32.dll
 0000:fff5d000       .debug$S                   10000000     kernel32:KERNEL32.dll
 0000:fff5d000       .debug$S                   10000000     kernel32:KERNEL32.dll
 0000:fff5d000       .debug$S                   10000000     kernel32:KERNEL32.dll
 0000:fff5d000       .debug$S                   10000000     kernel32:KERNEL32.dll
 0000:fff5d000       .debug$S                   10000000     kernel32:KERNEL32.dll
 0000:fff5d000       .debug$S                   10000000     kernel32:KERNEL32.dll
 0000:fff5d000       .debug$S                   10000000     kernel32:KERNEL32.dll
 0000:fff5d000       .debug$S                   10000000     kernel32:KERNEL32.dll
 0000:fff5d000       .debug$S                   10000000     kernel32:KERNEL32.dll
 0000:fff5d000       .debug$S                   10000000     kernel32:KERNEL32.dll
 0000:fff5d000       .debug$S                   10000000     kernel32:KERNEL32.dll
 0000:fff5d000       .debug$S                   10000000     kernel32:KERNEL32.dll
 0000:fff5d000       .debug$S                   10000000     kernel32:KERNEL32.dll
 0000:fff5d000       .debug$S                   10000000     kernel32:KERNEL32.dll
 0000:fff5d000       .debug$S                   10000000     kernel32:KERNEL32.dll
 0000:fff5d000       .debug$S                   10000000     kernel32:KERNEL32.dll
 0000:fff5d000       .debug$S                   10000000     kernel32:KERNEL32.dll
 0000:fff5d000       .debug$S                   10000000     kernel32:KERNEL32.dll
 0000:fff5d000       .debug$S                   10000000     kernel32:KERNEL32.dll
 0000:fff5d000       .debug$S                   10000000     kernel32:KERNEL32.dll
 0000:fff5d000       .debug$S                   10000000     kernel32:KERNEL32.dll
 0000:fff5d000       .debug$S                   10000000     kernel32:KERNEL32.dll
 0000:fff5d000       .debug$S                   10000000     kernel32:KERNEL32.dll
 0000:fff5d000       .debug$S                   10000000     kernel32:KERNEL32.dll
 0000:fff5d000       .debug$S                   10000000     kernel32:KERNEL32.dll
 0000:fff5d000       .debug$S                   10000000     kernel32:KERNEL32.dll
 0000:fff5d000       .debug$S                   10000000     kernel32:KERNEL32.dll
 0000:fff5d000       .debug$S                   10000000     kernel32:KERNEL32.dll
 0000:fff5d000       .debug$S                   10000000     kernel32:KERNEL32.dll
 0000:fff5d000       .debug$S                   10000000     kernel32:KERNEL32.dll
 0000:fff5d000       .debug$S                   10000000     kernel32:KERNEL32.dll
 0000:fff5d000       .debug$S                   10000000     kernel32:KERNEL32.dll
 0000:fff5d000       .debug$S                   10000000     kernel32:KERNEL32.dll
 0000:fff5d000       .debug$S                   10000000     kernel32:KERNEL32.dll
 0000:fff5d000       .debug$S                   10000000     kernel32:KERNEL32.dll
 0000:fff5d000       .debug$S                   10000000     kernel32:KERNEL32.dll
 0000:fff5d000       .debug$S                   10000000     kernel32:KERNEL32.dll
 0000:fff5d000       .debug$S                   10000000     kernel32:KERNEL32.dll
 0000:fff5d000       .debug$S                   10000000     kernel32:KERNEL32.dll
 0000:fff5d000       .debug$S                   10000000     kernel32:KERNEL32.dll
 0000:fff5d000       .debug$S                   10000000     kernel32:KERNEL32.dll
 0000:fff5d000       .debug$S                   10000000     kernel32:KERNEL32.dll
 0000:fff5d000       .debug$S                   10000000     kernel32:KERNEL32.dll
 0000:fff5d000       .debug$S                   10000000     kernel32:KERNEL32.dll
 0000:fff5d000       .debug$S                   10000000     kernel32:KERNEL32.dll
 0000:fff5d000       .debug$S                   10000000     kernel32:KERNEL32.dll
 0000:fff5d000       .debug$S                   10000000     kernel32:KERNEL32.dll
 0000:fff5d000       .debug$S                   10000000     kernel32:KERNEL32.dll
 0000:fff5d000       .debug$S                   10000000     kernel32:KERNEL32.dll
 0000:fff5d000       .debug$S                   10000000     kernel32:KERNEL32.dll
 0000:fff5d000       .debug$S                   10000000     kernel32:KERNEL32.dll
 0000:fff5d000       .debug$S                   10000000     kernel32:KERNEL32.dll
 0000:fff5d000       .debug$S                   10000000     kernel32:KERNEL32.dll
 0000:fff5d000       .debug$S                   10000000     kernel32:KERNEL32.dll
 0000:fff5d000       .debug$S                   10000000     kernel32:KERNEL32.dll
 0000:fff5d000       .debug$S                   10000000     kernel32:KERNEL32.dll
 0000:fff5d000       .debug$S                   10000000     kernel32:KERNEL32.dll
 0000:fff5d000       .debug$S                   10000000     kernel32:KERNEL32.dll
 0000:fff5d000       .debug$S                   10000000     kernel32:KERNEL32.dll
 0000:fff5d000       .debug$S                   10000000     mfc140d:mfc140d.dll
 0000:fff5d000       .debug$S                   10000000     mfc140d:mfc140d.dll
 0000:fff5d000       .debug$S                   10000000     mfc140d:mfc140d.dll
 0001:fffff000       __unwindfunclet$??HATL@@YA?AV?$CStringT@DV?$StrTraitMFC_DLL@DV?$ChTraitsCRT@D@ATL@@@@@0@ABV10@PBD@Z$0 10000000 f   MyMisc.obj
 0000:fff5d000       .debug$S                   10000000     mfc140d:mfc140d.dll
 0002:fff93000       __unwindtable$??HATL@@YA?AV?$CStringT@DV?$StrTraitMFC_DLL@DV?$ChTraitsCRT@D@ATL@@@@@0@ABV10@PBD@Z 10000000     MyMisc.obj
 0002:fff93000       ?atlTraceException$initializer$@ATL@@3P6AXXZA 10000000     MyMisc.obj
 0002:fff93000       ?atlTraceString$initializer$@ATL@@3P6AXXZA 10000000     MyMisc.obj
 0000:fff5d000       .debug$S                   10000000     mfc140d:mfc140d.dll
 0000:fff5d000       .debug$S                   10000000     mfc140d:mfc140d.dll
 0000:fff5d000       .debug$S                   10000000     mfc140d:mfc140d.dll
 0000:fff5d000       .debug$S                   10000000     mfc140d:mfc140d.dll
 0000:fff5d000       .debug$S                   10000000     mfc140d:mfc140d.dll
 0000:fff5d000       .debug$S                   10000000     mfc140d:mfc140d.dll
 0000:fff6f000       __guard_fids____scrt_set_unhandled_exception_filter 10000000     msvcrtd:utility_desktop.obj
 0000:fff6f000       __guard_fids___guard_icall_checks_enforced 10000000     msvcrtd:guard_support.obj
 0000:fff6f000       __guard_fids__             10000000     msvcrtd:guard_support.obj
 0000:fff6f000       __guard_fids___except_handler4 10000000     msvcrtd:chandler4gs.obj
 0000:fff5d000       .debug$S                   10000000     mfc140d:mfc140d.dll
 0000:fff5d000       .debug$S                   10000000     mfc140d:mfc140d.dll
 0000:fff6f000       __guard_fids_?dllmain_dispatch@@YAHQAUHINSTANCE__@@KQAX@Z 10000000     msvcrtd:dll_dllmain.obj
 0000:fff5d000       .debug$S                   10000000     mfc140d:mfc140d.dll
 0000:fff5d000       .debug$S                   10000000     mfc140d:mfc140d.dll
 0000:fff5d000       .debug$S                   10000000     mfc140d:mfc140d.dll
 0000:fff5d000       .debug$S                   10000000     mfc140d:mfc140d.dll
 0000:fff5d000       .debug$S                   10000000     mfc140d:mfc140d.dll
 0001:fffff000       __unwindfunclet$?TraceV@CTrace@ATL@@SAXPBDHII0PAD@Z$0 10000000 f   PictureEx.obj
 0000:fff5d000       .debug$S                   10000000     mfc140d:mfc140d.dll
 0000:fff5d000       .debug$S                   10000000     mfc140d:mfc140d.dll
 0000:fff5d000       .debug$S                   10000000     mfc140d:mfc140d.dll
 0000:fff5d000       .debug$S                   10000000     mfc140d:mfc140d.dll
 0000:fff5d000       .debug$S                   10000000     mfc140d:mfc140d.dll
 0000:fff5d000       .debug$S                   10000000     mfc140d:mfc140d.dll
 0000:fff5d000       .debug$S                   10000000     mfc140d:mfc140d.dll
 0000:fff5d000       .debug$S                   10000000     mfc140d:mfc140d.dll
 0000:fff5d000       .debug$S                   10000000     mfc140d:mfc140d.dll
 0000:fff5d000       .debug$S                   10000000     mfc140d:mfc140d.dll
 0001:fffff000       __ehhandler$??1AFX_EXCEPTION_LINK@@QAE@XZ 10000000 f   PictureEx.obj
 0000:fff5d000       .debug$S                   10000000     mfc140d:mfc140d.dll
 0002:fff93000       __unwindtable$?TraceV@CTrace@ATL@@SAXPBDHII0PAD@Z 10000000     PictureEx.obj
 0002:fff93000       __ehfuncinfo$??1AFX_EXCEPTION_LINK@@QAE@XZ 10000000     PictureEx.obj
 0000:fff5d000       .debug$S                   10000000     mfc140d:mfc140d.dll
 0000:fff5d000       .debug$S                   10000000     mfc140d:mfc140d.dll
 0000:fff5d000       .debug$S                   10000000     mfc140d:mfc140d.dll
 0000:fff5d000       .debug$S                   10000000     mfc140d:mfc140d.dll
 0000:fff5d000       .debug$S                   10000000     mfc140d:mfc140d.dll
 0000:fff5d000       .debug$S                   10000000     mfc140d:mfc140d.dll
 0002:fff93000       ?atlTraceException$initializer$@ATL@@3P6AXXZA 10000000     ResMan.obj
 0000:fff6f000       __guard_fids__             10000000     msvcrtd:std_type_info_static.obj
 0002:fff93000       ?atlTraceString$initializer$@ATL@@3P6AXXZA 10000000     ResMan.obj
 0000:fff6f000       __guard_fids___CRT_RTC_INITW 10000000     msvcrtd:init.obj
 0000:fff6f000       __guard_fids___CRT_RTC_INIT 10000000     msvcrtd:init.obj
 0000:fff5d000       .debug$S                   10000000     mfc140d:mfc140d.dll
 0000:fff5d000       .debug$S                   10000000     mfc140d:mfc140d.dll
 0000:fff5d000       .debug$S                   10000000     mfc140d:mfc140d.dll
 0000:fff5d000       .debug$S                   10000000     mfc140d:mfc140d.dll
 0000:fff5d000       .debug$S                   10000000     mfc140d:mfc140d.dll
 0000:fff6f000       __guard_fids_?__scrt_initialize_thread_safe_statics@@YAHXZ 10000000     msvcrtd:thread_safe_statics.obj
 0000:fff5d000       .debug$S                   10000000     mfc140d:mfc140d.dll
 0000:fff5d000       .debug$S                   10000000     mfc140d:mfc140d.dll
 0000:fff5d000       .debug$S                   10000000     mfc140d:mfc140d.dll
 0000:fff5d000       .debug$S                   10000000     mfc140d:mfc140d.dll
 0000:fff5d000       .debug$S                   10000000     mfc140d:mfc140d.dll
 0001:fffff000       __unwindfunclet$?TraceV@CTrace@ATL@@SAXPBDHII0PAD@Z$0 10000000 f   dllmain.obj
 0000:fff6f000       __guard_fids__             10000000     msvcrtd:thread_safe_statics.obj
 0000:fff5d000       .debug$S                   10000000     mfc140d:mfc140d.dll
 0000:fff5d000       .debug$S                   10000000     mfc140d:mfc140d.dll
 0000:fff5d000       .debug$S                   10000000     mfc140d:mfc140d.dll
 0000:fff5d000       .debug$S                   10000000     mfc140d:mfc140d.dll
 0000:fff5d000       .debug$S                   10000000     mfc140d:mfc140d.dll
 0000:fff5d000       .debug$S                   10000000     mfc140d:mfc140d.dll
 0000:fff5d000       .debug$S                   10000000     mfc140d:mfc140d.dll
 0000:fff5d000       .debug$S                   10000000     mfc140d:mfc140d.dll
 0000:fff5d000       .debug$S                   10000000     mfc140d:mfc140d.dll
 0000:fff5d000       .debug$S                   10000000     mfc140d:mfc140d.dll
 0000:fff5d000       .debug$S                   10000000     mfc140d:mfc140d.dll
 0000:fff5d000       .debug$S                   10000000     mfc140d:mfc140d.dll
 0000:fff6f000       __guard_fids__             10000000     mfcs140d:stdafx.obj
 0002:fff93000       ?InitializeCAtlStringMgr$initializer$@ATLImplementationDetails@ATL@@3P6AXXZA 10000000     mfcs140d:stdafx.obj
 0000:fff6f000       __guard_fids__             10000000     mfcs140d:stdafx.obj
 0002:fff93000       ?_AtlWinModule$initializer$@ATL@@3P6AXXZA 10000000     mfcs140d:stdafx.obj
 0000:fff6f000       __guard_fids__             10000000     mfcs140d:stdafx.obj
 0002:fff93000       ?_AtlComModule$initializer$@ATL@@3P6AXXZA 10000000     mfcs140d:stdafx.obj
 0000:fff6f000       __guard_fids__             10000000     mfcs140d:stdafx.obj
 0002:fff93000       ?atlTraceISAPI$initializer$@ATL@@3P6AXXZA 10000000     mfcs140d:stdafx.obj
 0000:fff6f000       __guard_fids__             10000000     mfcs140d:stdafx.obj
 0002:fff93000       ?atlTraceSync$initializer$@ATL@@3P6AXXZA 10000000     mfcs140d:stdafx.obj
 0000:fff6f000       __guard_fids__             10000000     mfcs140d:stdafx.obj
 0002:fff93000       ?atlTraceSecurity$initializer$@ATL@@3P6AXXZA 10000000     mfcs140d:stdafx.obj
 0000:fff6f000       __guard_fids__             10000000     mfcs140d:stdafx.obj
 0002:fff93000       ?atlTraceUtil$initializer$@ATL@@3P6AXXZA 10000000     mfcs140d:stdafx.obj
 0000:fff6f000       __guard_fids__             10000000     mfcs140d:stdafx.obj
 0002:fff93000       ?atlTraceMap$initializer$@ATL@@3P6AXXZA 10000000     mfcs140d:stdafx.obj
 0000:fff6f000       __guard_fids__             10000000     mfcs140d:stdafx.obj
 0002:fff93000       ?atlTraceString$initializer$@ATL@@3P6AXXZA 10000000     mfcs140d:stdafx.obj
 0000:fff6f000       __guard_fids__             10000000     mfcs140d:stdafx.obj
 0002:fff93000       ?atlTraceStencil$initializer$@ATL@@3P6AXXZA 10000000     mfcs140d:stdafx.obj
 0000:fff6f000       __guard_fids__             10000000     mfcs140d:stdafx.obj
 0002:fff93000       ?atlTraceCache$initializer$@ATL@@3P6AXXZA 10000000     mfcs140d:stdafx.obj
 0000:fff6f000       __guard_fids__             10000000     mfcs140d:stdafx.obj
 0002:fff93000       ?atlTraceTime$initializer$@ATL@@3P6AXXZA 10000000     mfcs140d:stdafx.obj
 0000:fff6f000       __guard_fids__             10000000     mfcs140d:stdafx.obj
 0002:fff93000       ?atlTraceException$initializer$@ATL@@3P6AXXZA 10000000     mfcs140d:stdafx.obj
 0000:fff6f000       __guard_fids__             10000000     mfcs140d:stdafx.obj
 0002:fff93000       ?atlTraceAllocation$initializer$@ATL@@3P6AXXZA 10000000     mfcs140d:stdafx.obj
 0000:fff6f000       __guard_fids__             10000000     mfcs140d:stdafx.obj
 0002:fff93000       ?atlTraceNotImpl$initializer$@ATL@@3P6AXXZA 10000000     mfcs140d:stdafx.obj
 0000:fff6f000       __guard_fids__             10000000     mfcs140d:stdafx.obj
 0002:fff93000       ?atlTraceSnapin$initializer$@ATL@@3P6AXXZA 10000000     mfcs140d:stdafx.obj
 0000:fff6f000       __guard_fids__             10000000     mfcs140d:stdafx.obj
 0002:fff93000       ?atlTraceDBProvider$initializer$@ATL@@3P6AXXZA 10000000     mfcs140d:stdafx.obj
 0000:fff6f000       __guard_fids__             10000000     mfcs140d:stdafx.obj
 0002:fff93000       ?atlTraceDBClient$initializer$@ATL@@3P6AXXZA 10000000     mfcs140d:stdafx.obj
 0000:fff6f000       __guard_fids__             10000000     mfcs140d:stdafx.obj
 0002:fff93000       ?atlTraceHosting$initializer$@ATL@@3P6AXXZA 10000000     mfcs140d:stdafx.obj
 0000:fff6f000       __guard_fids__             10000000     mfcs140d:stdafx.obj
 0002:fff93000       ?atlTraceControls$initializer$@ATL@@3P6AXXZA 10000000     mfcs140d:stdafx.obj
 0000:fff6f000       __guard_fids__             10000000     mfcs140d:stdafx.obj
 0002:fff93000       ?atlTraceWindowing$initializer$@ATL@@3P6AXXZA 10000000     mfcs140d:stdafx.obj
 0000:fff6f000       __guard_fids__             10000000     mfcs140d:stdafx.obj
 0002:fff93000       ?atlTraceRefcount$initializer$@ATL@@3P6AXXZA 10000000     mfcs140d:stdafx.obj
 0000:fff6f000       __guard_fids__             10000000     mfcs140d:stdafx.obj
 0002:fff93000       ?atlTraceRegistrar$initializer$@ATL@@3P6AXXZA 10000000     mfcs140d:stdafx.obj
 0000:fff6f000       __guard_fids__             10000000     mfcs140d:stdafx.obj
 0002:fff93000       ?atlTraceQI$initializer$@ATL@@3P6AXXZA 10000000     mfcs140d:stdafx.obj
 0000:fff6f000       __guard_fids__             10000000     mfcs140d:stdafx.obj
 0002:fff93000       ?atlTraceCOM$initializer$@ATL@@3P6AXXZA 10000000     mfcs140d:stdafx.obj
 0000:fff6f000       __guard_fids__             10000000     mfcs140d:stdafx.obj
 0000:fff6f000       __guard_fids__             10000000     mfcs140d:stdafx.obj
 0000:fff6f000       __guard_fids__             10000000     mfcs140d:stdafx.obj
 0000:fff6f000       __guard_fids__             10000000     mfcs140d:stdafx.obj
 0000:fff6f000       __guard_fids__             10000000     mfcs140d:stdafx.obj
 0000:fff6f000       __guard_fids__             10000000     mfcs140d:stdafx.obj
 0002:fff93000       ?atlTraceGeneral$initializer$@ATL@@3P6AXXZA 10000000     mfcs140d:stdafx.obj
 0000:fff5d000       .debug$S                   10000000     mfc140d:mfc140d.dll
 0000:fff5d000       .debug$S                   10000000     mfc140d:mfc140d.dll
 0002:fff93000       __ehfuncinfo$??_Estringdispid@CComTypeInfoHolder@ATL@@QAEPAXI@Z 10000000     mfcs140d:stdafx.obj
 0000:fff6f000       __guard_fids_??_Estringdispid@CComTypeInfoHolder@ATL@@QAEPAXI@Z 10000000     mfcs140d:stdafx.obj
 0000:fff6f000       __guard_fids_?GetInstance@CAtlStringMgr@ATL@@SAPAUIAtlStringMgr@2@XZ 10000000     mfcs140d:stdafx.obj
 0000:fff6f000       __guard_fids_??__E_AtlWinModule@ATL@@YAXXZ 10000000     mfcs140d:stdafx.obj
 0002:fff93000       __ehfuncinfo$??1CAtlWinModule@ATL@@QAE@XZ 10000000     mfcs140d:stdafx.obj
 0000:fff6f000       __guard_fids_??__E_AtlComModule@ATL@@YAXXZ 10000000     mfcs140d:stdafx.obj
 0002:fff93000       __ehfuncinfo$??1CAtlComModule@ATL@@QAE@XZ 10000000     mfcs140d:stdafx.obj
 0002:fff93000       __unwindtable$??0_ATL_WIN_MODULE70@ATL@@QAE@XZ 10000000     mfcs140d:stdafx.obj
 0000:fff5d000       .debug$S                   10000000     mfc140d:mfc140d.dll
 0002:fff93000       __ehfuncinfo$??1?$CSimpleArray@GV?$CSimpleArrayEqualHelper@G@ATL@@@ATL@@QAE@XZ 10000000     mfcs140d:stdafx.obj
 0002:fff93000       __unwindtable$??RCTraceFileAndLineInfo@ATL@@QBAXHIPBDZZ 10000000     mfcs140d:stdafx.obj
 0000:fff5d000       .debug$S                   10000000     mfc140d:mfc140d.dll
 0002:fff93000       __unwindtable$?TraceV@CTrace@ATL@@SAXPBDHII0PAD@Z 10000000     mfcs140d:stdafx.obj
 0000:fff5d000       .debug$S                   10000000     mfc140d:mfc140d.dll
 0002:fff93000       __sehtable$_IsolationAwareUnregisterClassA@8 10000000     mfcs140d:stdafx.obj
 0002:fff93000       __sehtable$_WinbaseIsolationAwarePrivatetRgzlnPgpgk@0 10000000     mfcs140d:stdafx.obj
 0001:fffff000       __ehhandler$??_Estringdispid@CComTypeInfoHolder@ATL@@QAEPAXI@Z 10000000 f   mfcs140d:stdafx.obj
 0000:fff5d000       .debug$S                   10000000     mfc140d:mfc140d.dll
 0000:fff5d000       .debug$S                   10000000     mfc140d:mfc140d.dll
 0000:fff5d000       .debug$S                   10000000     mfc140d:mfc140d.dll
 0000:fff5d000       .debug$S                   10000000     mfc140d:mfc140d.dll
 0000:fff5d000       .debug$S                   10000000     mfc140d:mfc140d.dll
 0000:fff5d000       .debug$S                   10000000     mfc140d:mfc140d.dll
 0000:fff5d000       .debug$S                   10000000     mfc140d:mfc140d.dll
 0000:fff5d000       .debug$S                   10000000     mfc140d:mfc140d.dll
 0001:fffff000       __ehhandler$??1CAtlWinModule@ATL@@QAE@XZ 10000000 f   mfcs140d:stdafx.obj
 0001:fffff000       __ehhandler$??1CAtlComModule@ATL@@QAE@XZ 10000000 f   mfcs140d:stdafx.obj
 0001:fffff000       __unwindfunclet$??0_ATL_WIN_MODULE70@ATL@@QAE@XZ$0 10000000 f   mfcs140d:stdafx.obj
 0000:fff5d000       .debug$S                   10000000     mfc140d:mfc140d.dll
 0001:fffff000       __ehhandler$??1?$CSimpleArray@GV?$CSimpleArrayEqualHelper@G@ATL@@@ATL@@QAE@XZ 10000000 f   mfcs140d:stdafx.obj
 0001:fffff000       __unwindfunclet$??RCTraceFileAndLineInfo@ATL@@QBAXHIPBDZZ$0 10000000 f   mfcs140d:stdafx.obj
 0002:fff93000       ?atlTraceString$initializer$@ATL@@3P6AXXZA 10000000     ZUBaseFile.obj
 0000:fff5d000       .debug$S                   10000000     mfc140d:mfc140d.dll
 0000:fff5d000       .debug$S                   10000000     mfc140d:mfc140d.dll
 0000:fff5d000       .debug$S                   10000000     mfc140d:mfc140d.dll
 0000:fff5d000       .debug$S                   10000000     mfc140d:mfc140d.dll
 0000:fff5d000       .debug$S                   10000000     mfc140d:mfc140d.dll
 0000:fff5d000       .debug$S                   10000000     mfc140d:mfc140d.dll
 0000:fff5d000       .debug$S                   10000000     mfc140d:mfc140d.dll
 0000:fff5d000       .debug$S                   10000000     mfc140d:mfc140d.dll
 0000:fff5d000       .debug$S                   10000000     mfc140d:mfc140d.dll
 0000:fff5d000       .debug$S                   10000000     mfc140d:mfc140d.dll
 0002:fff93000       ?atlTraceUtil$initializer$@ATL@@3P6AXXZA 10000000     stdafx.obj
 0000:fff6f000       __guard_fids__             10000000     mfcs140d:nolib.obj
 0002:fff93000       ?atlTraceMap$initializer$@ATL@@3P6AXXZA 10000000     stdafx.obj
 0001:fffff000       __unwindfunclet$?TraceV@CTrace@ATL@@SAXPBDHII0PAD@Z$0 10000000 f   mfcs140d:stdafx.obj
 0002:fff93000       ?atlTraceString$initializer$@ATL@@3P6AXXZA 10000000     stdafx.obj
 0002:fff93000       ?atlTraceStencil$initializer$@ATL@@3P6AXXZA 10000000     stdafx.obj
 0002:fff93000       ?atlTraceCache$initializer$@ATL@@3P6AXXZA 10000000     stdafx.obj
 0002:fff93000       ?atlTraceTime$initializer$@ATL@@3P6AXXZA 10000000     stdafx.obj
 0002:fff93000       ?atlTraceException$initializer$@ATL@@3P6AXXZA 10000000     stdafx.obj
 0002:fff93000       ?atlTraceAllocation$initializer$@ATL@@3P6AXXZA 10000000     stdafx.obj
 0002:fff93000       ?atlTraceSnapin$initializer$@ATL@@3P6AXXZA 10000000     stdafx.obj
 0002:fff93000       ?atlTraceDBProvider$initializer$@ATL@@3P6AXXZA 10000000     stdafx.obj
 0002:fff93000       ?atlTraceDBClient$initializer$@ATL@@3P6AXXZA 10000000     stdafx.obj
 0002:fff93000       ?atlTraceHosting$initializer$@ATL@@3P6AXXZA 10000000     stdafx.obj
 0002:fff93000       ?atlTraceControls$initializer$@ATL@@3P6AXXZA 10000000     stdafx.obj
 0002:fff93000       ?atlTraceWindowing$initializer$@ATL@@3P6AXXZA 10000000     stdafx.obj
 0002:fff93000       ?atlTraceRefcount$initializer$@ATL@@3P6AXXZA 10000000     stdafx.obj
 0002:fff93000       ?atlTraceRegistrar$initializer$@ATL@@3P6AXXZA 10000000     stdafx.obj
 0002:fff93000       ?atlTraceQI$initializer$@ATL@@3P6AXXZA 10000000     stdafx.obj
 0002:fff93000       ?atlTraceCOM$initializer$@ATL@@3P6AXXZA 10000000     stdafx.obj
 0002:fff93000       ?atlTraceGeneral$initializer$@ATL@@3P6AXXZA 10000000     stdafx.obj
 0002:fff93000       __ehfuncinfo$??1CAtlWinModule@ATL@@QAE@XZ 10000000     stdafx.obj
 0002:fff93000       __ehfuncinfo$??1CAtlComModule@ATL@@QAE@XZ 10000000     stdafx.obj
 0002:fff93000       __unwindtable$??0_ATL_WIN_MODULE70@ATL@@QAE@XZ 10000000     stdafx.obj
 0002:fff93000       __ehfuncinfo$??1?$CSimpleArray@GV?$CSimpleArrayEqualHelper@G@ATL@@@ATL@@QAE@XZ 10000000     stdafx.obj
 0002:fff93000       __unwindtable$??RCTraceFileAndLineInfo@ATL@@QBAXHIPBDZZ 10000000     stdafx.obj
 0001:fffff000       __unwindfunclet$??RCTraceFileAndLineInfo@ATL@@QBAXHIPBDZZ$0 10000000 f   dllmain.obj
 0002:fff93000       __unwindtable$?TraceV@CTrace@ATL@@SAXPBDHII0PAD@Z 10000000     stdafx.obj
 0001:fffff000       __ehhandler$??1CAtlWinModule@ATL@@QAE@XZ 10000000 f   stdafx.obj
 0001:fffff000       __ehhandler$??1CAtlComModule@ATL@@QAE@XZ 10000000 f   stdafx.obj
 0001:fffff000       __unwindfunclet$??0_ATL_WIN_MODULE70@ATL@@QAE@XZ$0 10000000 f   stdafx.obj
 0001:fffff000       __unwindfunclet$??RCTraceFileAndLineInfo@ATL@@QBAXPBDZZ$0 10000000 f   dllmain.obj
 0001:fffff000       __ehhandler$??1?$CSimpleArray@GV?$CSimpleArrayEqualHelper@G@ATL@@@ATL@@QAE@XZ 10000000 f   stdafx.obj
 0002:fff93000       __unwindtable$?TraceV@CTrace@ATL@@SAXPBDHII0PAD@Z 10000000     dllmain.obj
 0001:fffff000       __unwindfunclet$??RCTraceFileAndLineInfo@ATL@@QBAXHIPBDZZ$0 10000000 f   stdafx.obj
 0002:fff93000       __unwindtable$??RCTraceFileAndLineInfo@ATL@@QBAXHIPBDZZ 10000000     dllmain.obj
 0001:fffff000       __unwindfunclet$?TraceV@CTrace@ATL@@SAXPBDHII0PAD@Z$0 10000000 f   mfcs140d:nolib.obj
 0002:fff93000       __unwindtable$??RCTraceFileAndLineInfo@ATL@@QBAXPBDZZ 10000000     dllmain.obj
 0002:fff93000       ?atlTraceGeneral$initializer$@ATL@@3P6AXXZA 10000000     dllmain.obj
 0002:fff93000       ?atlTraceException$initializer$@ATL@@3P6AXXZA 10000000     dllmain.obj
 0002:fff93000       ?atlTraceString$initializer$@ATL@@3P6AXXZA 10000000     dllmain.obj
 0001:fffff000       __unwindfunclet$??RCTraceFileAndLineInfo@ATL@@QBAXHIPBDZZ$0 10000000 f   mfcs140d:nolib.obj
 0001:fffff000       __ehhandler$??1?$CSimpleArray@GV?$CSimpleArrayEqualHelper@G@ATL@@@ATL@@QAE@XZ 10000000 f   mfcs140d:nolib.obj
 0001:fffff000       __unwindfunclet$??0_ATL_WIN_MODULE70@ATL@@QAE@XZ$0 10000000 f   mfcs140d:nolib.obj
 0001:fffff000       __ehhandler$??1CAtlComModule@ATL@@QAE@XZ 10000000 f   mfcs140d:nolib.obj
 0001:fffff000       __ehhandler$??1CAtlWinModule@ATL@@QAE@XZ 10000000 f   mfcs140d:nolib.obj
 0002:fff93000       __unwindtable$?TraceV@CTrace@ATL@@SAXPBDHII0PAD@Z 10000000     mfcs140d:nolib.obj
 0002:fff93000       __unwindtable$??RCTraceFileAndLineInfo@ATL@@QBAXHIPBDZZ 10000000     mfcs140d:nolib.obj
 0002:fff93000       __ehfuncinfo$??1?$CSimpleArray@GV?$CSimpleArrayEqualHelper@G@ATL@@@ATL@@QAE@XZ 10000000     mfcs140d:nolib.obj
 0002:fff93000       __unwindtable$??0_ATL_WIN_MODULE70@ATL@@QAE@XZ 10000000     mfcs140d:nolib.obj
 0002:fff93000       __ehfuncinfo$??1CAtlComModule@ATL@@QAE@XZ 10000000     mfcs140d:nolib.obj
 0001:fffff000       __unwindfunclet$?TraceV@CTrace@ATL@@SAXPBDHII0PAD@Z$0 10000000 f   stdafx.obj
 0000:fff6f000       __guard_fids_??__E_AtlComModule@ATL@@YAXXZ 10000000     mfcs140d:nolib.obj
 0002:fff93000       __ehfuncinfo$??1CAtlWinModule@ATL@@QAE@XZ 10000000     mfcs140d:nolib.obj
 0000:fff6f000       __guard_fids__             10000000     mfcs140d:stdafx.obj
 0000:fff6f000       __guard_fids__             10000000     mfcs140d:nolib.obj
 0002:fff93000       ?InitializeCAtlStringMgr$initializer$@ATLImplementationDetails@ATL@@3P6AXXZA 10000000     mfcs140d:nolib.obj
 0000:fff6f000       __guard_fids__             10000000     mfcs140d:nolib.obj
 0002:fff93000       ?_AtlWinModule$initializer$@ATL@@3P6AXXZA 10000000     mfcs140d:nolib.obj
 0000:fff6f000       __guard_fids__             10000000     mfcs140d:nolib.obj
 0002:fff93000       ?_AtlComModule$initializer$@ATL@@3P6AXXZA 10000000     mfcs140d:nolib.obj
 0000:fff6f000       __guard_fids__             10000000     mfcs140d:nolib.obj
 0002:fff93000       ?atlTraceISAPI$initializer$@ATL@@3P6AXXZA 10000000     mfcs140d:nolib.obj
 0000:fff6f000       __guard_fids__             10000000     mfcs140d:nolib.obj
 0002:fff93000       ?atlTraceSync$initializer$@ATL@@3P6AXXZA 10000000     mfcs140d:nolib.obj
 0000:fff6f000       __guard_fids__             10000000     mfcs140d:nolib.obj
 0002:fff93000       ?atlTraceSecurity$initializer$@ATL@@3P6AXXZA 10000000     mfcs140d:nolib.obj
 0000:fff6f000       __guard_fids__             10000000     mfcs140d:nolib.obj
 0002:fff93000       ?atlTraceUtil$initializer$@ATL@@3P6AXXZA 10000000     mfcs140d:nolib.obj
 0000:fff6f000       __guard_fids__             10000000     mfcs140d:nolib.obj
 0002:fff93000       ?atlTraceMap$initializer$@ATL@@3P6AXXZA 10000000     mfcs140d:nolib.obj
 0000:fff6f000       __guard_fids__             10000000     mfcs140d:nolib.obj
 0002:fff93000       ?atlTraceString$initializer$@ATL@@3P6AXXZA 10000000     mfcs140d:nolib.obj
 0000:fff6f000       __guard_fids__             10000000     mfcs140d:nolib.obj
 0002:fff93000       ?atlTraceStencil$initializer$@ATL@@3P6AXXZA 10000000     mfcs140d:nolib.obj
 0000:fff6f000       __guard_fids__             10000000     mfcs140d:nolib.obj
 0002:fff93000       ?atlTraceCache$initializer$@ATL@@3P6AXXZA 10000000     mfcs140d:nolib.obj
 0000:fff6f000       __guard_fids__             10000000     mfcs140d:nolib.obj
 0002:fff93000       ?atlTraceTime$initializer$@ATL@@3P6AXXZA 10000000     mfcs140d:nolib.obj
 0000:fff6f000       __guard_fids__             10000000     mfcs140d:nolib.obj
 0002:fff93000       ?atlTraceException$initializer$@ATL@@3P6AXXZA 10000000     mfcs140d:nolib.obj
 0000:fff6f000       __guard_fids__             10000000     mfcs140d:nolib.obj
 0002:fff93000       ?atlTraceAllocation$initializer$@ATL@@3P6AXXZA 10000000     mfcs140d:nolib.obj
 0000:fff6f000       __guard_fids__             10000000     mfcs140d:nolib.obj
 0002:fff93000       ?atlTraceNotImpl$initializer$@ATL@@3P6AXXZA 10000000     mfcs140d:nolib.obj
 0000:fff6f000       __guard_fids__             10000000     mfcs140d:nolib.obj
 0002:fff93000       ?atlTraceSnapin$initializer$@ATL@@3P6AXXZA 10000000     mfcs140d:nolib.obj
 0000:fff6f000       __guard_fids__             10000000     mfcs140d:nolib.obj
 0002:fff93000       ?atlTraceDBProvider$initializer$@ATL@@3P6AXXZA 10000000     mfcs140d:nolib.obj
 0000:fff6f000       __guard_fids__             10000000     mfcs140d:nolib.obj
 0002:fff93000       ?atlTraceDBClient$initializer$@ATL@@3P6AXXZA 10000000     mfcs140d:nolib.obj
 0000:fff6f000       __guard_fids__             10000000     mfcs140d:nolib.obj
 0002:fff93000       ?atlTraceHosting$initializer$@ATL@@3P6AXXZA 10000000     mfcs140d:nolib.obj
 0000:fff6f000       __guard_fids__             10000000     mfcs140d:nolib.obj
 0002:fff93000       ?atlTraceControls$initializer$@ATL@@3P6AXXZA 10000000     mfcs140d:nolib.obj
 0000:fff6f000       __guard_fids__             10000000     mfcs140d:nolib.obj
 0002:fff93000       ?atlTraceWindowing$initializer$@ATL@@3P6AXXZA 10000000     mfcs140d:nolib.obj
 0000:fff6f000       __guard_fids__             10000000     mfcs140d:nolib.obj
 0002:fff93000       ?atlTraceRefcount$initializer$@ATL@@3P6AXXZA 10000000     mfcs140d:nolib.obj
 0000:fff6f000       __guard_fids__             10000000     mfcs140d:nolib.obj
 0002:fff93000       ?atlTraceRegistrar$initializer$@ATL@@3P6AXXZA 10000000     mfcs140d:nolib.obj
 0000:fff6f000       __guard_fids__             10000000     mfcs140d:nolib.obj
 0002:fff93000       ?atlTraceQI$initializer$@ATL@@3P6AXXZA 10000000     mfcs140d:nolib.obj
 0000:fff6f000       __guard_fids__             10000000     mfcs140d:nolib.obj
 0002:fff93000       ?atlTraceCOM$initializer$@ATL@@3P6AXXZA 10000000     mfcs140d:nolib.obj
 0000:fff6f000       __guard_fids__             10000000     mfcs140d:nolib.obj
 0000:fff6f000       __guard_fids__             10000000     mfcs140d:nolib.obj
 0000:fff6f000       __guard_fids__             10000000     mfcs140d:nolib.obj
 0000:fff6f000       __guard_fids__             10000000     mfcs140d:nolib.obj
 0000:fff6f000       __guard_fids__             10000000     mfcs140d:nolib.obj
 0000:fff6f000       __guard_fids__             10000000     mfcs140d:nolib.obj
 0002:fff93000       ?atlTraceGeneral$initializer$@ATL@@3P6AXXZA 10000000     mfcs140d:nolib.obj
 0000:fff6f000       __guard_fids_??__E_AtlWinModule@ATL@@YAXXZ 10000000     mfcs140d:nolib.obj
 0000:fff6f000       __guard_fids_?GetInstance@CAtlStringMgr@ATL@@SAPAUIAtlStringMgr@2@XZ 10000000     mfcs140d:nolib.obj
 0000:fff6f000       __guard_fids_??_Estringdispid@CComTypeInfoHolder@ATL@@QAEPAXI@Z 10000000     mfcs140d:nolib.obj
 0001:fffff008       __ehhandler$??RCTraceFileAndLineInfo@ATL@@QBAXHIPBDZZ 10000008 f   mfcs140d:nolib.obj
 0002:fff93008       __ehfuncinfo$??RCTraceFileAndLineInfo@ATL@@QBAXHIPBDZZ 10000008     ZipFile.obj
 0002:fff93008       __ehfuncinfo$??0_ATL_WIN_MODULE70@ATL@@QAE@XZ 10000008     mfcs140d:stdafx.obj
 0001:fffff008       __ehhandler$??RCTraceFileAndLineInfo@ATL@@QBAXHIPBDZZ 10000008 f   ZipFile.obj
 0001:fffff008       __unwindfunclet$?TraceV@CTrace@ATL@@SAXPBDHII0PAD@Z$1 10000008 f   stdafx.obj
 0001:fffff008       __ehhandler$??RCTraceFileAndLineInfo@ATL@@QBAXPBDZZ 10000008 f   dllmain.obj
 0002:fff93008       __ehfuncinfo$??RCTraceFileAndLineInfo@ATL@@QBAXHIPBDZZ 10000008     stdafx.obj
 0002:fff93008       __ehfuncinfo$??0_ATL_WIN_MODULE70@ATL@@QAE@XZ 10000008     mfcs140d:nolib.obj
 0001:fffff008       __unwindfunclet$?TraceV@CTrace@ATL@@SAXPBDHII0PAD@Z$1 10000008 f   ZipFile.obj
 0002:fff93008       __ehfuncinfo$??RCTraceFileAndLineInfo@ATL@@QBAXPBDZZ 10000008     dllmain.obj
 0002:fff93008       __ehfuncinfo$??RCTraceFileAndLineInfo@ATL@@QBAXHIPBDZZ 10000008     mfcs140d:nolib.obj
 0001:fffff008       __unwindfunclet$?TraceV@CTrace@ATL@@SAXPBDHII0PAD@Z$1 10000008 f   mfcs140d:nolib.obj
 0002:fff93008       __ehfuncinfo$??RCTraceFileAndLineInfo@ATL@@QBAXHIPBDZZ 10000008     mfcs140d:stdafx.obj
 0002:fff93008       __ehfuncinfo$??RCTraceFileAndLineInfo@ATL@@QBAXHIPBDZZ 10000008     UnzipFile.obj
 0001:fffff008       __unwindfunclet$?TraceV@CTrace@ATL@@SAXPBDHII0PAD@Z$1 10000008 f   dllmain.obj
 0002:fff93008       __ehfuncinfo$??0_ATL_WIN_MODULE70@ATL@@QAE@XZ 10000008     stdafx.obj
 0001:fffff008       __ehhandler$??RCTraceFileAndLineInfo@ATL@@QBAXHIPBDZZ 10000008 f   UnzipFile.obj
 0001:fffff008       __ehhandler$??RCTraceFileAndLineInfo@ATL@@QBAXHIPBDZZ 10000008 f   stdafx.obj
 0001:fffff008       __unwindfunclet$?TraceV@CTrace@ATL@@SAXPBDHII0PAD@Z$1 10000008 f   mfcs140d:stdafx.obj
 0001:fffff008       __unwindfunclet$?TraceV@CTrace@ATL@@SAXPBDHII0PAD@Z$1 10000008 f   UnzipFile.obj
 0001:fffff008       __ehhandler$??RCTraceFileAndLineInfo@ATL@@QBAXHIPBDZZ 10000008 f   mfcs140d:stdafx.obj
 0001:fffff008       __unwindfunclet$?TraceV@CTrace@ATL@@SAXPBDHII0PAD@Z$1 10000008 f   PictureEx.obj
 0001:fffff008       __unwindfunclet$?TraceV@CTrace@ATL@@SAXPBDHII0PAD@Z$1 10000008 f   FileTag.obj
 0001:fffff008       __ehhandler$??RCTraceFileAndLineInfo@ATL@@QBAXHIPBDZZ 10000008 f   dllmain.obj
 0002:fff93008       __ehfuncinfo$??HATL@@YA?AV?$CStringT@DV?$StrTraitMFC_DLL@DV?$ChTraitsCRT@D@ATL@@@@@0@ABV10@PBD@Z 10000008     MyMisc.obj
 0001:fffff008       __ehhandler$??RCTraceFileAndLineInfo@ATL@@QBAXHIPBDZZ 10000008 f   FileTag.obj
 0002:fff93008       __ehfuncinfo$??RCTraceFileAndLineInfo@ATL@@QBAXHIPBDZZ 10000008     dllmain.obj
 0002:fff93008       __ehfuncinfo$??RCTraceFileAndLineInfo@ATL@@QBAXHIPBDZZ 10000008     FileTag.obj
 0001:fffff00b       __ehhandler$??0_ATL_WIN_MODULE70@ATL@@QAE@XZ 1000000b f   mfcs140d:nolib.obj
 0001:fffff00b       __ehhandler$??0_ATL_WIN_MODULE70@ATL@@QAE@XZ 1000000b f   stdafx.obj
 0001:fffff00b       __ehhandler$??0_ATL_WIN_MODULE70@ATL@@QAE@XZ 1000000b f   mfcs140d:stdafx.obj
 0001:fffff010       __ehhandler$?TraceV@CTrace@ATL@@SAXPBDHII0PAD@Z 10000010 f   PictureEx.obj
 0001:fffff010       __ehhandler$?TraceV@CTrace@ATL@@SAXPBDHII0PAD@Z 10000010 f   FileTag.obj
 0002:fff93010       __ehfuncinfo$?TraceV@CTrace@ATL@@SAXPBDHII0PAD@Z 10000010     stdafx.obj
 0001:fffff010       __ehhandler$?TraceV@CTrace@ATL@@SAXPBDHII0PAD@Z 10000010 f   UnzipFile.obj
 0002:fff93010       __ehfuncinfo$?TraceV@CTrace@ATL@@SAXPBDHII0PAD@Z 10000010     dllmain.obj
 0002:fff93010       __ehfuncinfo$?TraceV@CTrace@ATL@@SAXPBDHII0PAD@Z 10000010     mfcs140d:stdafx.obj
 0002:fff93010       __ehfuncinfo$?TraceV@CTrace@ATL@@SAXPBDHII0PAD@Z 10000010     FileTag.obj
 0002:fff93010       __ehfuncinfo$?TraceV@CTrace@ATL@@SAXPBDHII0PAD@Z 10000010     PictureEx.obj
 0001:fffff010       __ehhandler$?TraceV@CTrace@ATL@@SAXPBDHII0PAD@Z 10000010 f   mfcs140d:stdafx.obj
 0001:fffff010       __ehhandler$?TraceV@CTrace@ATL@@SAXPBDHII0PAD@Z 10000010 f   dllmain.obj
 0002:fff93010       __ehfuncinfo$?TraceV@CTrace@ATL@@SAXPBDHII0PAD@Z 10000010     UnzipFile.obj
 0002:fff93010       __ehfuncinfo$?TraceV@CTrace@ATL@@SAXPBDHII0PAD@Z 10000010     mfcs140d:nolib.obj
 0001:fffff010       __ehhandler$?TraceV@CTrace@ATL@@SAXPBDHII0PAD@Z 10000010 f   stdafx.obj
 0001:fffff010       __ehhandler$?TraceV@CTrace@ATL@@SAXPBDHII0PAD@Z 10000010 f   ZipFile.obj
 0002:fff93010       __ehfuncinfo$?TraceV@CTrace@ATL@@SAXPBDHII0PAD@Z 10000010     ZipFile.obj
 0001:fffff010       __ehhandler$?TraceV@CTrace@ATL@@SAXPBDHII0PAD@Z 10000010 f   mfcs140d:nolib.obj
 0001:fffff012       __ehhandler$??HATL@@YA?AV?$CStringT@DV?$StrTraitMFC_DLL@DV?$ChTraitsCRT@D@ATL@@@@@0@ABV10@PBD@Z 10000012 f   MyMisc.obj
 0001:fffff068       $LN6                       10000068     mfcs140d:stdafx.obj
 0001:fffff068       $LN6                       10000068     mfcs140d:stdafx.obj
 0001:fffff068       $LN6                       10000068     mfcs140d:nolib.obj
 0001:fffff070       $LN5                       10000070     mfcs140d:nolib.obj
 0001:fffff070       $LN5                       10000070     mfcs140d:stdafx.obj
 0001:fffff070       $LN5                       10000070     mfcs140d:stdafx.obj
 0001:fffff078       $LN8                       10000078     PictureEx.obj
 0001:fffff078       $LN8                       10000078     dllmain.obj
 0001:fffff078       $LN8                       10000078     dllmain.obj
 0001:fffff078       $LN8                       10000078     PictureEx.obj
 0001:fffff078       $LN8                       10000078     FileTag.obj
 0001:fffff078       $LN8                       10000078     FileTag.obj
 0001:fffff078       $LN8                       10000078     UnzipFile.obj
 0001:fffff078       $LN8                       10000078     UnzipFile.obj
 0001:fffff078       $LN8                       10000078     stdafx.obj
 0001:fffff078       $LN8                       10000078     ZipFile.obj
 0001:fffff078       $LN8                       10000078     ZipFile.obj
 0001:fffff078       $LN8                       10000078     stdafx.obj
 0001:fffff07c       $LN4                       1000007c     mfcs140d:stdafx.obj
 0001:fffff07c       $LN4                       1000007c     mfcs140d:nolib.obj
 0001:fffff07c       $LN4                       1000007c     mfcs140d:stdafx.obj
 0001:fffff080       $LN7                       10000080     PictureEx.obj
 0001:fffff080       $LN7                       10000080     stdafx.obj
 0001:fffff080       $LN7                       10000080     dllmain.obj
 0001:fffff080       $LN7                       10000080     stdafx.obj
 0001:fffff080       $LN7                       10000080     UnzipFile.obj
 0001:fffff080       $LN7                       10000080     PictureEx.obj
 0001:fffff080       $LN7                       10000080     UnzipFile.obj
 0001:fffff080       $LN7                       10000080     FileTag.obj
 0001:fffff080       $LN7                       10000080     FileTag.obj
 0001:fffff080       $LN7                       10000080     dllmain.obj
 0001:fffff080       $LN7                       10000080     ZipFile.obj
 0001:fffff080       $LN7                       10000080     ZipFile.obj
 0001:fffff08c       $LN6                       1000008c     FileTag.obj
 0001:fffff08c       $LN6                       1000008c     stdafx.obj
 0001:fffff08c       $LN6                       1000008c     PictureEx.obj
 0001:fffff08c       $LN6                       1000008c     UnzipFile.obj
 0001:fffff08c       $LN6                       1000008c     dllmain.obj
 0001:fffff08c       $LN6                       1000008c     ZipFile.obj
 0001:fffff08c       $LN6                       1000008c     FileTag.obj
 0001:fffff08c       $LN6                       1000008c     UnzipFile.obj
 0001:fffff08c       $LN6                       1000008c     dllmain.obj
 0001:fffff08c       $LN6                       1000008c     stdafx.obj
 0001:fffff08c       $LN6                       1000008c     ZipFile.obj
 0001:fffff08c       $LN6                       1000008c     PictureEx.obj
 0001:fffff0a4       $LN7                       100000a4     DownThread.obj
 0001:fffff0a4       $LN7                       100000a4     ZipFile.obj
 0001:fffff0a4       $LN7                       100000a4     FileList.obj
 0001:fffff0a4       $LN7                       100000a4     UnzipFile.obj
 0001:fffff0a4       $LN7                       100000a4     PictureEx.obj
 0001:fffff0a4       $LN7                       100000a4     ResMan.obj
 0001:fffff0a4       $LN7                       100000a4     GetHttp.obj
 0001:fffff0ac       $LN6                       100000ac     DownThread.obj
 0001:fffff0ac       $LN6                       100000ac     PictureEx.obj
 0001:fffff0ac       $LN6                       100000ac     FileList.obj
 0001:fffff0ac       $LN6                       100000ac     UnzipFile.obj
 0001:fffff0ac       $LN6                       100000ac     GetHttp.obj
 0001:fffff0ac       $LN6                       100000ac     ZipFile.obj
 0001:fffff0ac       $LN6                       100000ac     ResMan.obj
 0001:fffff0b4       $LN7                       100000b4     mfcs140d:nolib.obj
 0001:fffff0b4       $LN7                       100000b4     mfcs140d:stdafx.obj
 0001:fffff0b8       $LN5                       100000b8     GetHttp.obj
 0001:fffff0b8       $LN5                       100000b8     DownThread.obj
 0001:fffff0b8       $LN5                       100000b8     PictureEx.obj
 0001:fffff0b8       $LN5                       100000b8     UnzipFile.obj
 0001:fffff0b8       $LN5                       100000b8     ZipFile.obj
 0001:fffff0b8       $LN5                       100000b8     FileList.obj
 0001:fffff0b8       $LN5                       100000b8     ResMan.obj
 0001:fffff0bc       $LN6                       100000bc     mfcs140d:nolib.obj
 0001:fffff0bc       $LN6                       100000bc     mfcs140d:stdafx.obj
 0001:fffff0c0       $LN8                       100000c0     UnzipFile.obj
 0001:fffff0c0       $LN8                       100000c0     ZipFile.obj
 0001:fffff0c0       $LN8                       100000c0     dllmain.obj
 0001:fffff0c0       $LN8                       100000c0     FileTag.obj
 0001:fffff0c0       $LN8                       100000c0     stdafx.obj
 0001:fffff0c4       $LN8                       100000c4     dllmain.obj
 0001:fffff0c8       $LN7                       100000c8     ZipFile.obj
 0001:fffff0c8       $LN4                       100000c8     mfcs140d:stdafx.obj
 0001:fffff0c8       $LN7                       100000c8     FileTag.obj
 0001:fffff0c8       $LN7                       100000c8     stdafx.obj
 0001:fffff0c8       $LN4                       100000c8     mfcs140d:nolib.obj
 0001:fffff0c8       $LN7                       100000c8     UnzipFile.obj
 0001:fffff0c8       $LN7                       100000c8     dllmain.obj
 0001:fffff0cc       $LN7                       100000cc     dllmain.obj
 0001:fffff0cc       $LN10                      100000cc     FileTag.obj
 0001:fffff0d4       $LN9                       100000d4     FileTag.obj
 0001:fffff0d4       $LN5                       100000d4     dllmain.obj
 0001:fffff0d4       $LN5                       100000d4     stdafx.obj
 0001:fffff0d4       $LN5                       100000d4     ZipFile.obj
 0001:fffff0d4       $LN5                       100000d4     UnzipFile.obj
 0001:fffff0d4       $LN5                       100000d4     FileTag.obj
 0001:fffff0d8       $LN5                       100000d8     dllmain.obj
 0001:fffff0ec       $LN8                       100000ec     FileTag.obj
 0001:fffff0f2       $LN7                       100000f2     FileTag.obj
 0001:fffff118       $LN21                      10000118     ZipFile.obj
 0001:fffff11c       $LN8                       1000011c     mfcs140d:stdafx.obj
 0001:fffff11c       $LN8                       1000011c     mfcs140d:nolib.obj
 0001:fffff120       $LN11                      10000120     FileTag.obj
 0001:fffff120       $LN11                      10000120     ExtractFile.obj
 0001:fffff120       $LN20                      10000120     ZipFile.obj
 0001:fffff120       $LN11                      10000120     UnzipFile.obj
 0001:fffff120       $LN11                      10000120     ZipFile.obj
 0001:fffff120       $LN11                      10000120     ResMan.obj
 0001:fffff120       $LN11                      10000120     GetHttp.obj
 0001:fffff120       $LN11                      10000120     MyMisc.obj
 0001:fffff120       $LN11                      10000120     FileList.obj
 0001:fffff120       $LN11                      10000120     ZUBaseFile.obj
 0001:fffff120       $LN11                      10000120     stdafx.obj
 0001:fffff120       $LN11                      10000120     DownThread.obj
 0001:fffff120       $LN11                      10000120     ZipException.obj
 0001:fffff120       $LN11                      10000120     PictureEx.obj
 0001:fffff120       $LN11                      10000120     dllmain.obj
 0001:fffff124       $LN7                       10000124     mfcs140d:nolib.obj
 0001:fffff124       $LN7                       10000124     mfcs140d:stdafx.obj
 0001:fffff128       $LN10                      10000128     ExtractFile.obj
 0001:fffff128       $LN10                      10000128     ZUBaseFile.obj
 0001:fffff128       $LN10                      10000128     FileList.obj
 0001:fffff128       $LN10                      10000128     FileTag.obj
 0001:fffff128       $LN10                      10000128     ZipException.obj
 0001:fffff128       $LN10                      10000128     PictureEx.obj
 0001:fffff128       $LN10                      10000128     ResMan.obj
 0001:fffff128       $LN10                      10000128     DownThread.obj
 0001:fffff128       $LN17                      10000128     FileList.obj
 0001:fffff128       $LN10                      10000128     ZipFile.obj
 0001:fffff128       $LN10                      10000128     stdafx.obj
 0001:fffff128       $LN10                      10000128     dllmain.obj
 0001:fffff128       $LN10                      10000128     UnzipFile.obj
 0001:fffff128       $LN10                      10000128     GetHttp.obj
 0001:fffff128       $LN10                      10000128     MyMisc.obj
 0001:fffff12c       $LN19                      1000012c     ZipFile.obj
 0001:fffff130       $LN6                       10000130     mfcs140d:nolib.obj
 0001:fffff130       $LN6                       10000130     mfcs140d:stdafx.obj
 0001:fffff130       $LN16                      10000130     FileList.obj
 0001:fffff134       $LN9                       10000134     GetHttp.obj
 0001:fffff134       $LN9                       10000134     ZUBaseFile.obj
 0001:fffff134       $LN9                       10000134     ZipFile.obj
 0001:fffff134       $LN9                       10000134     FileTag.obj
 0001:fffff134       $LN9                       10000134     UnzipFile.obj
 0001:fffff134       $LN9                       10000134     stdafx.obj
 0001:fffff134       $LN9                       10000134     ExtractFile.obj
 0001:fffff134       $LN9                       10000134     MyMisc.obj
 0001:fffff134       $LN9                       10000134     FileList.obj
 0001:fffff134       $LN9                       10000134     PictureEx.obj
 0001:fffff134       $LN9                       10000134     ResMan.obj
 0001:fffff134       $LN9                       10000134     dllmain.obj
 0001:fffff134       $LN9                       10000134     ZipException.obj
 0001:fffff134       $LN9                       10000134     DownThread.obj
 0001:fffff13c       $LN10                      1000013c     MyMisc.obj
 0001:fffff144       $LN9                       10000144     MyMisc.obj
 0001:fffff148       $LN15                      10000148     FileList.obj
 0001:fffff150       $LN7                       10000150     MyMisc.obj
 0001:fffff153       $LN14                      10000153     FileList.obj
 0001:fffff16c       $LN22                      1000016c     mfcs140d:stdafx.obj
 0001:fffff174       $LN21                      10000174     mfcs140d:stdafx.obj
 0001:fffff18c       $LN20                      1000018c     mfcs140d:stdafx.obj
 0001:fffff196       $LN19                      10000196     mfcs140d:stdafx.obj
 0001:fffff1d0       $LN24                      100001d0     mfcs140d:nolib.obj
 0001:fffff1d0       $LN24                      100001d0     mfcs140d:stdafx.obj
 0001:fffff1d4       $LN30                      100001d4     stdafx.obj
 0001:fffff1d8       $LN23                      100001d8     mfcs140d:stdafx.obj
 0001:fffff1d8       $LN23                      100001d8     mfcs140d:nolib.obj
 0001:fffff1dc       $LN29                      100001dc     stdafx.obj
 0001:fffff1f0       $LN22                      100001f0     mfcs140d:nolib.obj
 0001:fffff1f0       $LN25                      100001f0     mfcs140d:stdafx.obj
 0001:fffff1f0       $LN25                      100001f0     mfcs140d:nolib.obj
 0001:fffff1f0       $LN31                      100001f0     stdafx.obj
 0001:fffff1f0       $LN22                      100001f0     mfcs140d:stdafx.obj
 0001:fffff1f4       $LN28                      100001f4     stdafx.obj
 0001:fffff1f8       $LN20                      100001f8     stdafx.obj
 0001:fffff1f8       $LN20                      100001f8     UnzipFile.obj
 0001:fffff1f8       $LN24                      100001f8     mfcs140d:nolib.obj
 0001:fffff1f8       $LN20                      100001f8     FileTag.obj
 0001:fffff1f8       $LN14                      100001f8     mfcs140d:nolib.obj
 0001:fffff1f8       $LN24                      100001f8     mfcs140d:stdafx.obj
 0001:fffff1f8       $LN20                      100001f8     ZipFile.obj
 0001:fffff1f8       $LN20                      100001f8     dllmain.obj
 0001:fffff1f8       $LN20                      100001f8     PictureEx.obj
 0001:fffff1f8       $LN30                      100001f8     stdafx.obj
 0001:fffff1f8       $LN14                      100001f8     mfcs140d:stdafx.obj
 0001:fffff1fb       $LN21                      100001fb     mfcs140d:stdafx.obj
 0001:fffff1fb       $LN21                      100001fb     mfcs140d:nolib.obj
 0001:fffff1ff       $LN27                      100001ff     stdafx.obj
 0001:fffff200       $LN19                      10000200     UnzipFile.obj
 0001:fffff200       $LN19                      10000200     PictureEx.obj
 0001:fffff200       $LN19                      10000200     stdafx.obj
 0001:fffff200       $LN19                      10000200     FileTag.obj
 0001:fffff200       $LN13                      10000200     mfcs140d:stdafx.obj
 0001:fffff200       $LN13                      10000200     mfcs140d:nolib.obj
 0001:fffff200       $LN19                      10000200     ZipFile.obj
 0001:fffff200       $LN19                      10000200     dllmain.obj
 0001:fffff210       $LN23                      10000210     mfcs140d:nolib.obj
 0001:fffff210       $LN23                      10000210     mfcs140d:stdafx.obj
 0001:fffff210       $LN29                      10000210     stdafx.obj
 0001:fffff218       $LN17                      10000218     stdafx.obj
 0001:fffff218       $LN17                      10000218     dllmain.obj
 0001:fffff218       $LN17                      10000218     UnzipFile.obj
 0001:fffff218       $LN17                      10000218     FileTag.obj
 0001:fffff218       $LN17                      10000218     PictureEx.obj
 0001:fffff218       $LN17                      10000218     ZipFile.obj
 0001:fffff218       $LN11                      10000218     mfcs140d:nolib.obj
 0001:fffff218       $LN11                      10000218     mfcs140d:stdafx.obj
 0001:fffff21b       $LN28                      1000021b     stdafx.obj
 0001:fffff21b       $LN22                      1000021b     mfcs140d:nolib.obj
 0001:fffff21b       $LN22                      1000021b     mfcs140d:stdafx.obj
 0001:fffff21f       $LN16                      1000021f     dllmain.obj
 0001:fffff21f       $LN16                      1000021f     FileTag.obj
 0001:fffff21f       $LN16                      1000021f     PictureEx.obj
 0001:fffff21f       $LN10                      1000021f     mfcs140d:nolib.obj
 0001:fffff21f       $LN16                      1000021f     UnzipFile.obj
 0001:fffff21f       $LN16                      1000021f     ZipFile.obj
 0001:fffff21f       $LN10                      1000021f     mfcs140d:stdafx.obj
 0001:fffff21f       $LN16                      1000021f     stdafx.obj
 0001:fffff250       $LN25                      10000250     FileTag.obj
 0001:fffff250       $LN25                      10000250     dllmain.obj
 0001:fffff250       $LN25                      10000250     stdafx.obj
 0001:fffff250       $LN25                      10000250     PictureEx.obj
 0001:fffff250       $LN17                      10000250     mfcs140d:stdafx.obj
 0001:fffff250       $LN25                      10000250     UnzipFile.obj
 0001:fffff250       $LN25                      10000250     ZipFile.obj
 0001:fffff258       $LN24                      10000258     UnzipFile.obj
 0001:fffff258       $LN24                      10000258     PictureEx.obj
 0001:fffff258       $LN24                      10000258     stdafx.obj
 0001:fffff258       $LN24                      10000258     dllmain.obj
 0001:fffff258       $LN16                      10000258     mfcs140d:stdafx.obj
 0001:fffff258       $LN24                      10000258     FileTag.obj
 0001:fffff258       $LN24                      10000258     ZipFile.obj
 0001:fffff27c       $LN23                      1000027c     stdafx.obj
 0001:fffff27c       $LN23                      1000027c     ZipFile.obj
 0001:fffff27c       $LN23                      1000027c     FileTag.obj
 0001:fffff27c       $LN15                      1000027c     mfcs140d:stdafx.obj
 0001:fffff27c       $LN23                      1000027c     dllmain.obj
 0001:fffff27c       $LN23                      1000027c     UnzipFile.obj
 0001:fffff27c       $LN23                      1000027c     PictureEx.obj
 0001:fffff285       $LN22                      10000285     dllmain.obj
 0001:fffff285       $LN22                      10000285     FileTag.obj
 0001:fffff285       $LN22                      10000285     ZipFile.obj
 0001:fffff285       $LN22                      10000285     stdafx.obj
 0001:fffff285       $LN22                      10000285     PictureEx.obj
 0001:fffff285       $LN22                      10000285     UnzipFile.obj
 0001:fffff285       $LN14                      10000285     mfcs140d:stdafx.obj
 0001:fffff28c       $LN21                      1000028c     FileTag.obj
 0001:fffff28c       $LN21                      1000028c     ZipFile.obj
 0001:fffff28c       $LN21                      1000028c     dllmain.obj
 0001:fffff28c       $LN13                      1000028c     mfcs140d:stdafx.obj
 0001:fffff28c       $LN21                      1000028c     UnzipFile.obj
 0001:fffff28c       $LN21                      1000028c     PictureEx.obj
 0001:fffff28c       $LN21                      1000028c     stdafx.obj
 0001:fffff2cc       $LN36                      100002cc     mfcs140d:stdafx.obj
 0001:fffff2d4       $LN35                      100002d4     mfcs140d:stdafx.obj
 0001:fffff31c       $LN34                      1000031c     mfcs140d:stdafx.obj
 0001:fffff333       $LN33                      10000333     mfcs140d:stdafx.obj
 0001:fffff33c       $LN32                      1000033c     mfcs140d:stdafx.obj
 0001:fffff34f       $LN31                      1000034f     mfcs140d:stdafx.obj
 0001:fffff356       $LN30                      10000356     mfcs140d:stdafx.obj
 0001:fffff360       $LN29                      10000360     mfcs140d:stdafx.obj
 0001:fffff420       $LN78                      10000420     FileTag.obj
 0001:fffff428       $LN77                      10000428     FileTag.obj
 0001:fffff434       $LN76                      10000434     FileTag.obj
 0001:00002b80       ??__EAttachPage@AVATAR@NMBASE@@YAXXZ 10003b80 f   Avatar.obj
 0001:00002be0       ??__ELoadingSpr@AVATAR@NMBASE@@YAXXZ 10003be0 f   Avatar.obj
 0001:00002c40       ??__ELocalPage@AVATAR@NMBASE@@YAXXZ 10003c40 f   Avatar.obj
 0001:00002ca0       ??__EResMan@AVATAR@NMBASE@@YAXXZ 10003ca0 f   Avatar.obj
 0001:00002d00       ??__EatlTraceException@ATL@@YAXXZ 10003d00 f   Avatar.obj
 0001:00002d60       ??__EatlTraceString@ATL@@YAXXZ 10003d60 f   Avatar.obj
 0001:00002dc0       ??__Eg_AutoDestroy@AVATAR@NMBASE@@YAXXZ 10003dc0 f   Avatar.obj
 0001:00002e20       ??__EatlTraceException@ATL@@YAXXZ 10003e20 f   DownThread.obj
 0001:00002e80       ??__EatlTraceString@ATL@@YAXXZ 10003e80 f   DownThread.obj
 0001:00002ee0       ??__EatlTraceException@ATL@@YAXXZ 10003ee0 f   ExtractFile.obj
 0001:00002f40       ??__EatlTraceString@ATL@@YAXXZ 10003f40 f   ExtractFile.obj
 0001:00002fa0       ??__EatlTraceException@ATL@@YAXXZ 10003fa0 f   FileList.obj
 0001:00003000       ??__EatlTraceString@ATL@@YAXXZ 10004000 f   FileList.obj
 0001:00003060       ??__EatlTraceException@ATL@@YAXXZ 10004060 f   FileTag.obj
 0001:000030c0       ??__EatlTraceException@ATL@@YAXXZ 100040c0 f   GetHttp.obj
 0001:00003120       ??__EatlTraceString@ATL@@YAXXZ 10004120 f   GetHttp.obj
 0001:00003180       ??__EatlTraceException@ATL@@YAXXZ 10004180 f   MyMisc.obj
 0001:000031e0       ??__EatlTraceString@ATL@@YAXXZ 100041e0 f   MyMisc.obj
 0001:00003240       ??__EatlTraceGeneral@ATL@@YAXXZ 10004240 f   PictureEx.obj
 0001:000032a0       ??__EatlTraceException@ATL@@YAXXZ 100042a0 f   ResMan.obj
 0001:00003300       ??__EatlTraceString@ATL@@YAXXZ 10004300 f   ResMan.obj
 0001:00003360       ??__EInitializeCAtlStringMgr@ATLImplementationDetails@ATL@@YAXXZ 10004360 f   dllmain.obj
 0001:000033b0       ??__E_AtlComModule@ATL@@YAXXZ 100043b0 f   dllmain.obj
 0001:00003410       ??__E_AtlWinModule@ATL@@YAXXZ 10004410 f   dllmain.obj
 0001:00003470       ??__EatlTraceAllocation@ATL@@YAXXZ 10004470 f   dllmain.obj
 0001:000034d0       ??__EatlTraceCOM@ATL@@YAXXZ 100044d0 f   dllmain.obj
 0001:00003530       ??__EatlTraceCache@ATL@@YAXXZ 10004530 f   dllmain.obj
 0001:00003590       ??__EatlTraceControls@ATL@@YAXXZ 10004590 f   dllmain.obj
 0001:000035f0       ??__EatlTraceDBClient@ATL@@YAXXZ 100045f0 f   dllmain.obj
 0001:00003650       ??__EatlTraceDBProvider@ATL@@YAXXZ 10004650 f   dllmain.obj
 0001:000036b0       ??__EatlTraceException@ATL@@YAXXZ 100046b0 f   dllmain.obj
 0001:00003710       ??__EatlTraceGeneral@ATL@@YAXXZ 10004710 f   dllmain.obj
 0001:00003770       ??__EatlTraceHosting@ATL@@YAXXZ 10004770 f   dllmain.obj
 0001:000037d0       ??__EatlTraceISAPI@ATL@@YAXXZ 100047d0 f   dllmain.obj
 0001:00003830       ??__EatlTraceMap@ATL@@YAXXZ 10004830 f   dllmain.obj
 0001:00003890       ??__EatlTraceNotImpl@ATL@@YAXXZ 10004890 f   dllmain.obj
 0001:000038f0       ??__EatlTraceQI@ATL@@YAXXZ 100048f0 f   dllmain.obj
 0001:00003950       ??__EatlTraceRefcount@ATL@@YAXXZ 10004950 f   dllmain.obj
 0001:000039b0       ??__EatlTraceRegistrar@ATL@@YAXXZ 100049b0 f   dllmain.obj
 0001:00003a10       ??__EatlTraceSecurity@ATL@@YAXXZ 10004a10 f   dllmain.obj
 0001:00003a70       ??__EatlTraceSnapin@ATL@@YAXXZ 10004a70 f   dllmain.obj
 0001:00003ad0       ??__EatlTraceStencil@ATL@@YAXXZ 10004ad0 f   dllmain.obj
 0001:00003b30       ??__EatlTraceString@ATL@@YAXXZ 10004b30 f   dllmain.obj
 0001:00003b90       ??__EatlTraceSync@ATL@@YAXXZ 10004b90 f   dllmain.obj
 0001:00003bf0       ??__EatlTraceTime@ATL@@YAXXZ 10004bf0 f   dllmain.obj
 0001:00003c50       ??__EatlTraceUtil@ATL@@YAXXZ 10004c50 f   dllmain.obj
 0001:00003cb0       ??__EatlTraceWindowing@ATL@@YAXXZ 10004cb0 f   dllmain.obj
 0001:00003d10       ??__EInitializeCAtlStringMgr@ATLImplementationDetails@ATL@@YAXXZ 10004d10 f   stdafx.obj
 0001:00003d60       ??__E_AtlComModule@ATL@@YAXXZ 10004d60 f   stdafx.obj
 0001:00003dc0       ??__E_AtlWinModule@ATL@@YAXXZ 10004dc0 f   stdafx.obj
 0001:00003e20       ??__EatlTraceAllocation@ATL@@YAXXZ 10004e20 f   stdafx.obj
 0001:00003e80       ??__EatlTraceCOM@ATL@@YAXXZ 10004e80 f   stdafx.obj
 0001:00003ee0       ??__EatlTraceCache@ATL@@YAXXZ 10004ee0 f   stdafx.obj
 0001:00003f40       ??__EatlTraceControls@ATL@@YAXXZ 10004f40 f   stdafx.obj
 0001:00003fa0       ??__EatlTraceDBClient@ATL@@YAXXZ 10004fa0 f   stdafx.obj
 0001:00004000       ??__EatlTraceDBProvider@ATL@@YAXXZ 10005000 f   stdafx.obj
 0001:00004060       ??__EatlTraceException@ATL@@YAXXZ 10005060 f   stdafx.obj
 0001:000040c0       ??__EatlTraceGeneral@ATL@@YAXXZ 100050c0 f   stdafx.obj
 0001:00004120       ??__EatlTraceHosting@ATL@@YAXXZ 10005120 f   stdafx.obj
 0001:00004180       ??__EatlTraceISAPI@ATL@@YAXXZ 10005180 f   stdafx.obj
 0001:000041e0       ??__EatlTraceMap@ATL@@YAXXZ 100051e0 f   stdafx.obj
 0001:00004240       ??__EatlTraceNotImpl@ATL@@YAXXZ 10005240 f   stdafx.obj
 0001:000042a0       ??__EatlTraceQI@ATL@@YAXXZ 100052a0 f   stdafx.obj
 0001:00004300       ??__EatlTraceRefcount@ATL@@YAXXZ 10005300 f   stdafx.obj
 0001:00004360       ??__EatlTraceRegistrar@ATL@@YAXXZ 10005360 f   stdafx.obj
 0001:000043c0       ??__EatlTraceSecurity@ATL@@YAXXZ 100053c0 f   stdafx.obj
 0001:00004420       ??__EatlTraceSnapin@ATL@@YAXXZ 10005420 f   stdafx.obj
 0001:00004480       ??__EatlTraceStencil@ATL@@YAXXZ 10005480 f   stdafx.obj
 0001:000044e0       ??__EatlTraceString@ATL@@YAXXZ 100054e0 f   stdafx.obj
 0001:00004540       ??__EatlTraceSync@ATL@@YAXXZ 10005540 f   stdafx.obj
 0001:000045a0       ??__EatlTraceTime@ATL@@YAXXZ 100055a0 f   stdafx.obj
 0001:00004600       ??__EatlTraceUtil@ATL@@YAXXZ 10005600 f   stdafx.obj
 0001:00004660       ??__EatlTraceWindowing@ATL@@YAXXZ 10005660 f   stdafx.obj
 0001:000046c0       ??__EatlTraceException@ATL@@YAXXZ 100056c0 f   UnzipFile.obj
 0001:00004720       ??__EatlTraceException@ATL@@YAXXZ 10005720 f   ZipException.obj
 0001:00004780       ??__EatlTraceException@ATL@@YAXXZ 10005780 f   ZipFile.obj
 0001:000047e0       ??__EatlTraceException@ATL@@YAXXZ 100057e0 f   ZUBaseFile.obj
 0001:00004840       ??__EatlTraceString@ATL@@YAXXZ 10005840 f   ZUBaseFile.obj
 0001:000048a0       ??__EInitializeCAtlStringMgr@ATLImplementationDetails@ATL@@YAXXZ 100058a0 f   mfcs140d:nolib.obj
 0001:000048c0       ??__E_AtlComModule@ATL@@YAXXZ 100058c0 f   mfcs140d:nolib.obj
 0001:000048f0       ??__E_AtlWinModule@ATL@@YAXXZ 100058f0 f   mfcs140d:nolib.obj
 0001:00004920       ??__EatlTraceAllocation@ATL@@YAXXZ 10005920 f   mfcs140d:nolib.obj
 0001:00004950       ??__EatlTraceCOM@ATL@@YAXXZ 10005950 f   mfcs140d:nolib.obj
 0001:00004980       ??__EatlTraceCache@ATL@@YAXXZ 10005980 f   mfcs140d:nolib.obj
 0001:000049b0       ??__EatlTraceControls@ATL@@YAXXZ 100059b0 f   mfcs140d:nolib.obj
 0001:000049e0       ??__EatlTraceDBClient@ATL@@YAXXZ 100059e0 f   mfcs140d:nolib.obj
 0001:00004a10       ??__EatlTraceDBProvider@ATL@@YAXXZ 10005a10 f   mfcs140d:nolib.obj
 0001:00004a40       ??__EatlTraceException@ATL@@YAXXZ 10005a40 f   mfcs140d:nolib.obj
 0001:00004a70       ??__EatlTraceGeneral@ATL@@YAXXZ 10005a70 f   mfcs140d:nolib.obj
 0001:00004aa0       ??__EatlTraceHosting@ATL@@YAXXZ 10005aa0 f   mfcs140d:nolib.obj
 0001:00004ad0       ??__EatlTraceISAPI@ATL@@YAXXZ 10005ad0 f   mfcs140d:nolib.obj
 0001:00004b00       ??__EatlTraceMap@ATL@@YAXXZ 10005b00 f   mfcs140d:nolib.obj
 0001:00004b30       ??__EatlTraceNotImpl@ATL@@YAXXZ 10005b30 f   mfcs140d:nolib.obj
 0001:00004b60       ??__EatlTraceQI@ATL@@YAXXZ 10005b60 f   mfcs140d:nolib.obj
 0001:00004b90       ??__EatlTraceRefcount@ATL@@YAXXZ 10005b90 f   mfcs140d:nolib.obj
 0001:00004bc0       ??__EatlTraceRegistrar@ATL@@YAXXZ 10005bc0 f   mfcs140d:nolib.obj
 0001:00004bf0       ??__EatlTraceSecurity@ATL@@YAXXZ 10005bf0 f   mfcs140d:nolib.obj
 0001:00004c20       ??__EatlTraceSnapin@ATL@@YAXXZ 10005c20 f   mfcs140d:nolib.obj
 0001:00004c50       ??__EatlTraceStencil@ATL@@YAXXZ 10005c50 f   mfcs140d:nolib.obj
 0001:00004c80       ??__EatlTraceString@ATL@@YAXXZ 10005c80 f   mfcs140d:nolib.obj
 0001:00004cb0       ??__EatlTraceSync@ATL@@YAXXZ 10005cb0 f   mfcs140d:nolib.obj
 0001:00004ce0       ??__EatlTraceTime@ATL@@YAXXZ 10005ce0 f   mfcs140d:nolib.obj
 0001:00004d10       ??__EatlTraceUtil@ATL@@YAXXZ 10005d10 f   mfcs140d:nolib.obj
 0001:00004d40       ??__EatlTraceWindowing@ATL@@YAXXZ 10005d40 f   mfcs140d:nolib.obj
 0001:00004d70       ??__EInitializeCAtlStringMgr@ATLImplementationDetails@ATL@@YAXXZ 10005d70 f   mfcs140d:stdafx.obj
 0001:00004d90       ??__E_AtlComModule@ATL@@YAXXZ 10005d90 f   mfcs140d:stdafx.obj
 0001:00004dc0       ??__E_AtlWinModule@ATL@@YAXXZ 10005dc0 f   mfcs140d:stdafx.obj
 0001:00004df0       ??__EatlTraceAllocation@ATL@@YAXXZ 10005df0 f   mfcs140d:stdafx.obj
 0001:00004e20       ??__EatlTraceCOM@ATL@@YAXXZ 10005e20 f   mfcs140d:stdafx.obj
 0001:00004e50       ??__EatlTraceCache@ATL@@YAXXZ 10005e50 f   mfcs140d:stdafx.obj
 0001:00004e80       ??__EatlTraceControls@ATL@@YAXXZ 10005e80 f   mfcs140d:stdafx.obj
 0001:00004eb0       ??__EatlTraceDBClient@ATL@@YAXXZ 10005eb0 f   mfcs140d:stdafx.obj
 0001:00004ee0       ??__EatlTraceDBProvider@ATL@@YAXXZ 10005ee0 f   mfcs140d:stdafx.obj
 0001:00004f10       ??__EatlTraceException@ATL@@YAXXZ 10005f10 f   mfcs140d:stdafx.obj
 0001:00004f40       ??__EatlTraceGeneral@ATL@@YAXXZ 10005f40 f   mfcs140d:stdafx.obj
 0001:00004f70       ??__EatlTraceHosting@ATL@@YAXXZ 10005f70 f   mfcs140d:stdafx.obj
 0001:00004fa0       ??__EatlTraceISAPI@ATL@@YAXXZ 10005fa0 f   mfcs140d:stdafx.obj
 0001:00004fd0       ??__EatlTraceMap@ATL@@YAXXZ 10005fd0 f   mfcs140d:stdafx.obj
 0001:00005000       ??__EatlTraceNotImpl@ATL@@YAXXZ 10006000 f   mfcs140d:stdafx.obj
 0001:00005030       ??__EatlTraceQI@ATL@@YAXXZ 10006030 f   mfcs140d:stdafx.obj
 0001:00005060       ??__EatlTraceRefcount@ATL@@YAXXZ 10006060 f   mfcs140d:stdafx.obj
 0001:00005090       ??__EatlTraceRegistrar@ATL@@YAXXZ 10006090 f   mfcs140d:stdafx.obj
 0001:000050c0       ??__EatlTraceSecurity@ATL@@YAXXZ 100060c0 f   mfcs140d:stdafx.obj
 0001:000050f0       ??__EatlTraceSnapin@ATL@@YAXXZ 100060f0 f   mfcs140d:stdafx.obj
 0001:00005120       ??__EatlTraceStencil@ATL@@YAXXZ 10006120 f   mfcs140d:stdafx.obj
 0001:00005150       ??__EatlTraceString@ATL@@YAXXZ 10006150 f   mfcs140d:stdafx.obj
 0001:00005180       ??__EatlTraceSync@ATL@@YAXXZ 10006180 f   mfcs140d:stdafx.obj
 0001:000051b0       ??__EatlTraceTime@ATL@@YAXXZ 100061b0 f   mfcs140d:stdafx.obj
 0001:000051e0       ??__EatlTraceUtil@ATL@@YAXXZ 100061e0 f   mfcs140d:stdafx.obj
 0001:00005210       ??__EatlTraceWindowing@ATL@@YAXXZ 10006210 f   mfcs140d:stdafx.obj
 0001:00005231       ??__E_AtlBaseModule@ATL@@YAXXZ 10006231 f   atls:atlbase.obj
 0001:000078c8       $LN17                      100088c8     Avatar.obj
 0001:000078d0       $LN16                      100088d0     Avatar.obj
 0001:000078e8       $LN15                      100088e8     Avatar.obj
 0001:000078f3       $LN14                      100088f3     Avatar.obj
 0001:00007c14       $LN7                       10008c14     Avatar.obj
 0001:00007c1c       $LN6                       10008c1c     Avatar.obj
 0001:00007c28       $LN5                       10008c28     Avatar.obj
 0001:00009dd0       $LN57                      1000add0     Avatar.obj
 0001:00009dd8       $LN56                      1000add8     Avatar.obj
 0001:00009de4       $LN54                      1000ade4     Avatar.obj
 0001:0000a540       $LN27                      1000b540     Avatar.obj
 0001:0000a548       $LN26                      1000b548     Avatar.obj
 0001:0000a578       $LN24                      1000b578     Avatar.obj
 0001:0000a582       $LN23                      1000b582     Avatar.obj
 0001:0000a587       $LN22                      1000b587     Avatar.obj
 0001:0000a58b       $LN21                      1000b58b     Avatar.obj
 0001:0000a994       $LN35                      1000b994     Avatar.obj
 0001:0000a99c       $LN34                      1000b99c     Avatar.obj
 0001:0000a9cc       $LN33                      1000b9cc     Avatar.obj
 0001:0000a9d7       $LN32                      1000b9d7     Avatar.obj
 0001:0000a9df       $LN31                      1000b9df     Avatar.obj
 0001:0000a9ea       $LN30                      1000b9ea     Avatar.obj
 0001:0000af88       $LN8                       1000bf88     Avatar.obj
 0001:0000af90       $LN7                       1000bf90     Avatar.obj
 0001:0000af9c       $LN6                       1000bf9c     Avatar.obj
 0001:0000b884       $LN14                      1000c884     Avatar.obj
 0001:0000b88c       $LN13                      1000c88c     Avatar.obj
 0001:0000b898       $LN12                      1000c898     Avatar.obj
 0001:0000bd94       $LN33                      1000cd94     Avatar.obj
 0001:0000bd9c       $LN32                      1000cd9c     Avatar.obj
 0001:0000bdcc       $LN30                      1000cdcc     Avatar.obj
 0001:0000bdd7       $LN29                      1000cdd7     Avatar.obj
 0001:0000bddf       $LN28                      1000cddf     Avatar.obj
 0001:0000bdea       $LN27                      1000cdea     Avatar.obj
 0001:0000c460       $LN23                      1000d460     Avatar.obj
 0001:0000c468       $LN22                      1000d468     Avatar.obj
 0001:0000c480       $LN21                      1000d480     Avatar.obj
 0001:0000c487       $LN20                      1000d487     Avatar.obj
 0001:0000c790       $LN11                      1000d790     Avatar.obj
 0001:0000c798       $LN10                      1000d798     Avatar.obj
 0001:0000c7a4       $LN9                       1000d7a4     Avatar.obj
 0001:0000cd14       $LN13                      1000dd14     Avatar.obj
 0001:0000cd1c       $LN12                      1000dd1c     Avatar.obj
 0001:0000cd28       $LN11                      1000dd28     Avatar.obj
 0001:0000cf78       $LN13                      1000df78     Avatar.obj
 0001:0000cf80       $LN12                      1000df80     Avatar.obj
 0001:0000cf8c       $LN11                      1000df8c     Avatar.obj
 0001:0000d2f4       $LN21                      1000e2f4     Avatar.obj
 0001:0000d2fc       $LN20                      1000e2fc     Avatar.obj
 0001:0000d308       $LN19                      1000e308     Avatar.obj
 0001:0000d494       $LN21                      1000e494     Avatar.obj
 0001:0000d49c       $LN20                      1000e49c     Avatar.obj
 0001:0000d4a8       $LN19                      1000e4a8     Avatar.obj
 0001:0000dab0       $LN34                      1000eab0     Avatar.obj
 0001:0000dab8       $LN33                      1000eab8     Avatar.obj
 0001:0000dac4       $LN32                      1000eac4     Avatar.obj
 0001:0000dfb0       $LN34                      1000efb0     Avatar.obj
 0001:0000dfb8       $LN33                      1000efb8     Avatar.obj
 0001:0000dfc4       $LN32                      1000efc4     Avatar.obj
 0001:0000e51c       $LN45                      1000f51c     Avatar.obj
 0001:0000e524       $LN44                      1000f524     Avatar.obj
 0001:0000e530       $LN43                      1000f530     Avatar.obj
 0001:0000eb9c       $LN10                      1000fb9c     DownThread.obj
 0001:0000eba4       $LN9                       1000fba4     DownThread.obj
 0001:0000ebbc       $LN8                       1000fbbc     DownThread.obj
 0001:0000ebc2       $LN7                       1000fbc2     DownThread.obj
 0001:0000f030       $LN78                      10010030     DownThread.obj
 0001:0000f038       $LN77                      10010038     DownThread.obj
 0001:0000f044       $LN76                      10010044     DownThread.obj
 0001:0000f670       $LN8                       10010670     DownThread.obj
 0001:0000f678       $LN7                       10010678     DownThread.obj
 0001:0000f684       $LN5                       10010684     DownThread.obj
 0001:0000f738       $LN8                       10010738     DownThread.obj
 0001:0000f740       $LN7                       10010740     DownThread.obj
 0001:0000f74c       $LN6                       1001074c     DownThread.obj
 0001:0000f7f8       $LN8                       100107f8     DownThread.obj
 0001:0000f800       $LN7                       10010800     DownThread.obj
 0001:0000f80c       $LN6                       1001080c     DownThread.obj
 0001:0001086c       $LN113                     1001186c     DownThread.obj
 0001:00010874       $LN112                     10011874     DownThread.obj
 0001:00010964       $LN110                     10011964     DownThread.obj
 0001:0001096c       $LN109                     1001196c     DownThread.obj
 0001:00010975       $LN108                     10011975     DownThread.obj
 0001:00010980       $LN107                     10011980     DownThread.obj
 0001:00010984       $LN106                     10011984     DownThread.obj
 0001:00010988       $LN105                     10011988     DownThread.obj
 0001:0001098c       $LN104                     1001198c     DownThread.obj
 0001:00010997       $LN103                     10011997     DownThread.obj
 0001:0001099f       $LN102                     1001199f     DownThread.obj
 0001:000109a4       $LN101                     100119a4     DownThread.obj
 0001:000109a7       $LN100                     100119a7     DownThread.obj
 0001:000109aa       $LN99                      100119aa     DownThread.obj
 0001:000109b2       $LN98                      100119b2     DownThread.obj
 0001:000109bb       $LN97                      100119bb     DownThread.obj
 0001:000109bf       $LN96                      100119bf     DownThread.obj
 0001:000109c3       $LN95                      100119c3     DownThread.obj
 0001:000109ce       $LN94                      100119ce     DownThread.obj
 0001:000109da       $LN93                      100119da     DownThread.obj
 0001:000109de       $LN92                      100119de     DownThread.obj
 0001:000109e8       $LN91                      100119e8     DownThread.obj
 0001:000112b4       $LN10                      100122b4     DownThread.obj
 0001:000112bc       $LN9                       100122bc     DownThread.obj
 0001:000112c8       $LN7                       100122c8     DownThread.obj
 0001:00011680       $LN25                      10012680     DownThread.obj
 0001:00011688       $LN24                      10012688     DownThread.obj
 0001:000116ac       $LN23                      100126ac     DownThread.obj
 0001:000116b5       $LN22                      100126b5     DownThread.obj
 0001:000116bc       $LN21                      100126bc     DownThread.obj
 0001:00011968       $LN20                      10012968     DownThread.obj
 0001:00011970       $LN19                      10012970     DownThread.obj
 0001:00011988       $LN17                      10012988     DownThread.obj
 0001:0001198f       $LN16                      1001298f     DownThread.obj
 0001:0001201c       $LN10                      1001301c     ExtractFile.obj
 0001:00012024       $LN9                       10013024     ExtractFile.obj
 0001:00012030       $LN7                       10013030     ExtractFile.obj
 0001:00012110       ?ExtractThreadFunc@@YAIPAX@Z 10013110 f   ExtractFile.obj
 0001:000122b0       __catch$?GetZipFileSize@@YAHPBDPAI1@Z$0 100132b0 f   ExtractFile.obj
 0001:00012330       $LN22                      10013330     ExtractFile.obj
 0001:00012338       $LN21                      10013338     ExtractFile.obj
 0001:0001235c       $LN19                      1001335c     ExtractFile.obj
 0001:0001235e       $LN18                      1001335e     ExtractFile.obj
 0001:00012361       $LN17                      10013361     ExtractFile.obj
 0001:00012b88       __catch$?UnzipFile@@YAHPAUHWND__@@PBD1@Z$0 10013b88 f   ExtractFile.obj
 0001:00012c68       $LN69                      10013c68     ExtractFile.obj
 0001:00012c70       $LN68                      10013c70     ExtractFile.obj
 0001:00012d00       $LN66                      10013d00     ExtractFile.obj
 0001:00012d02       $LN65                      10013d02     ExtractFile.obj
 0001:00012d06       $LN64                      10013d06     ExtractFile.obj
 0001:00012d08       $LN63                      10013d08     ExtractFile.obj
 0001:00012d10       $LN62                      10013d10     ExtractFile.obj
 0001:00012d21       $LN61                      10013d21     ExtractFile.obj
 0001:00012d30       $LN60                      10013d30     ExtractFile.obj
 0001:00012d37       $LN59                      10013d37     ExtractFile.obj
 0001:00012d3f       $LN58                      10013d3f     ExtractFile.obj
 0001:00012d45       $LN57                      10013d45     ExtractFile.obj
 0001:00012d48       $LN56                      10013d48     ExtractFile.obj
 0001:00012d4b       $LN55                      10013d4b     ExtractFile.obj
 0001:00013d44       $LN18                      10014d44     FileList.obj
 0001:00013d4c       $LN17                      10014d4c     FileList.obj
 0001:00013d64       $LN15                      10014d64     FileList.obj
 0001:00013d6c       $LN14                      10014d6c     FileList.obj
 0001:0001406c       $LN15                      1001506c     FileList.obj
 0001:00014074       $LN14                      10015074     FileList.obj
 0001:0001408c       $LN12                      1001508c     FileList.obj
 0001:00014094       $LN11                      10015094     FileList.obj
 0001:000142c8       $LN16                      100152c8     FileList.obj
 0001:000142d0       $LN15                      100152d0     FileList.obj
 0001:000142f4       $LN13                      100152f4     FileList.obj
 0001:000142fe       $LN12                      100152fe     FileList.obj
 0001:00014303       $LN11                      10015303     FileList.obj
 0001:000144d0       $LN14                      100154d0     FileList.obj
 0001:000144d8       $LN13                      100154d8     FileList.obj
 0001:000144fc       $LN11                      100154fc     FileList.obj
 0001:00014500       $LN10                      10015500     FileList.obj
 0001:00014504       $LN9                       10015504     FileList.obj
 0001:0001468c       $LN11                      1001568c     FileList.obj
 0001:00014694       $LN10                      10015694     FileList.obj
 0001:000146ac       $LN8                       100156ac     FileList.obj
 0001:000146b4       $LN7                       100156b4     FileList.obj
 0001:000148bc       $LN12                      100158bc     FileList.obj
 0001:000148c4       $LN11                      100158c4     FileList.obj
 0001:000148e8       $LN9                       100158e8     FileList.obj
 0001:000148f2       $LN8                       100158f2     FileList.obj
 0001:000148f7       $LN7                       100158f7     FileList.obj
 0001:00014a4c       $LN10                      10015a4c     FileList.obj
 0001:00014a54       $LN9                       10015a54     FileList.obj
 0001:00014a60       $LN7                       10015a60     FileList.obj
 0001:00014be0       $LN13                      10015be0     FileList.obj
 0001:00014be8       $LN12                      10015be8     FileList.obj
 0001:00014bf4       $LN10                      10015bf4     FileList.obj
 0001:00014d70       $LN13                      10015d70     FileList.obj
 0001:00014d78       $LN12                      10015d78     FileList.obj
 0001:00014d84       $LN10                      10015d84     FileList.obj
 0001:00014f00       $LN13                      10015f00     FileList.obj
 0001:00014f08       $LN12                      10015f08     FileList.obj
 0001:00014f14       $LN10                      10015f14     FileList.obj
 0001:000151b0       $LN9                       100161b0     FileList.obj
 0001:000151b8       $LN8                       100161b8     FileList.obj
 0001:000151d0       $LN7                       100161d0     FileList.obj
 0001:000151db       $LN6                       100161db     FileList.obj
 0001:00015688       $LN29                      10016688     FileList.obj
 0001:00015690       $LN28                      10016690     FileList.obj
 0001:000156a8       $LN26                      100166a8     FileList.obj
 0001:000156b1       $LN25                      100166b1     FileList.obj
 0001:00015abc       $LN8                       10016abc     FileTag.obj
 0001:00015ac4       $LN7                       10016ac4     FileTag.obj
 0001:00015ad0       $LN6                       10016ad0     FileTag.obj
 0001:00015c38       $LN21                      10016c38     FileTag.obj
 0001:00015c40       $LN20                      10016c40     FileTag.obj
 0001:00015c4c       $LN19                      10016c4c     FileTag.obj
 0001:00015eac       $LN12                      10016eac     FileTag.obj
 0001:00015eb4       $LN11                      10016eb4     FileTag.obj
 0001:00015ecc       $LN10                      10016ecc     FileTag.obj
 0001:00015ed5       $LN9                       10016ed5     FileTag.obj
 0001:00016450       $LN22                      10017450     FileTag.obj
 0001:00016458       $LN21                      10017458     FileTag.obj
 0001:00016470       $LN19                      10017470     FileTag.obj
 0001:0001647a       $LN18                      1001747a     FileTag.obj
 0001:00016acc       $LN10                      10017acc     GetHttp.obj
 0001:00016ad4       $LN9                       10017ad4     GetHttp.obj
 0001:00016ae0       $LN7                       10017ae0     GetHttp.obj
 0001:00017dfb       __catch$?GetFile@CGetHttp@@QAEHPAUHWND__@@V?$CStringT@DV?$StrTraitMFC_DLL@DV?$ChTraitsCRT@D@ATL@@@@@ATL@@1@Z$0 10018dfb f   GetHttp.obj
 0001:00018068       $LN98                      10019068     GetHttp.obj
 0001:00018070       $LN97                      10019070     GetHttp.obj
 0001:0001810c       $LN95                      1001910c     GetHttp.obj
 0001:0001810e       $LN94                      1001910e     GetHttp.obj
 0001:00018120       $LN93                      10019120     GetHttp.obj
 0001:00018127       $LN92                      10019127     GetHttp.obj
 0001:00018131       $LN91                      10019131     GetHttp.obj
 0001:00018138       $LN90                      10019138     GetHttp.obj
 0001:0001813f       $LN89                      1001913f     GetHttp.obj
 0001:0001814a       $LN88                      1001914a     GetHttp.obj
 0001:00018157       $LN87                      10019157     GetHttp.obj
 0001:00018167       $LN86                      10019167     GetHttp.obj
 0001:00018170       $LN85                      10019170     GetHttp.obj
 0001:00018178       $LN84                      10019178     GetHttp.obj
 0001:0001817e       $LN83                      1001917e     GetHttp.obj
 0001:000189e8       $LN18                      100199e8     GetHttp.obj
 0001:000189f0       $LN17                      100199f0     GetHttp.obj
 0001:000189fc       $LN15                      100199fc     GetHttp.obj
 0001:00018ef4       $LN21                      10019ef4     GetHttp.obj
 0001:00018efc       $LN20                      10019efc     GetHttp.obj
 0001:00018f14       $LN18                      10019f14     GetHttp.obj
 0001:00018f27       $LN17                      10019f27     GetHttp.obj
 0001:00019444       $LN19                      1001a444     GetHttp.obj
 0001:0001944c       $LN18                      1001a44c     GetHttp.obj
 0001:00019464       $LN16                      1001a464     GetHttp.obj
 0001:00019477       $LN15                      1001a477     GetHttp.obj
 0001:0001a2dc       $LN74                      1001b2dc     GetHttp.obj
 0001:0001a2e4       $LN73                      1001b2e4     GetHttp.obj
 0001:0001a350       $LN71                      1001b350     GetHttp.obj
 0001:0001a358       $LN70                      1001b358     GetHttp.obj
 0001:0001a35f       $LN69                      1001b35f     GetHttp.obj
 0001:0001a369       $LN68                      1001b369     GetHttp.obj
 0001:0001a370       $LN67                      1001b370     GetHttp.obj
 0001:0001a377       $LN66                      1001b377     GetHttp.obj
 0001:0001a382       $LN65                      1001b382     GetHttp.obj
 0001:0001a38f       $LN64                      1001b38f     GetHttp.obj
 0001:0001a39f       $LN63                      1001b39f     GetHttp.obj
 0001:0001aad0       $LN12                      1001bad0     Gif2Spr.obj
 0001:0001aad8       $LN11                      1001bad8     Gif2Spr.obj
 0001:0001aae4       $LN9                       1001bae4     Gif2Spr.obj
 0001:0001ac3c       $LN12                      1001bc3c     Gif2Spr.obj
 0001:0001ac44       $LN11                      1001bc44     Gif2Spr.obj
 0001:0001ac50       $LN9                       1001bc50     Gif2Spr.obj
 0001:0001adcc       $LN16                      1001bdcc     Gif2Spr.obj
 0001:0001add4       $LN15                      1001bdd4     Gif2Spr.obj
 0001:0001ade0       $LN13                      1001bde0     Gif2Spr.obj
 0001:0001b8dc       $LN55                      1001c8dc     Gif2Spr.obj
 0001:0001b8e4       $LN54                      1001c8e4     Gif2Spr.obj
 0001:0001b914       $LN52                      1001c914     Gif2Spr.obj
 0001:0001b919       $LN51                      1001c919     Gif2Spr.obj
 0001:0001b91f       $LN50                      1001c91f     Gif2Spr.obj
 0001:0001b927       $LN49                      1001c927     Gif2Spr.obj
 0001:0001be78       $LN10                      1001ce78     MyMisc.obj
 0001:0001be80       $LN9                       1001ce80     MyMisc.obj
 0001:0001be8c       $LN7                       1001ce8c     MyMisc.obj
 0001:0001c32c       $LN32                      1001d32c     MyMisc.obj
 0001:0001c334       $LN31                      1001d334     MyMisc.obj
 0001:0001c358       $LN29                      1001d358     MyMisc.obj
 0001:0001c35c       $LN28                      1001d35c     MyMisc.obj
 0001:0001c362       $LN27                      1001d362     MyMisc.obj
 0001:0001cb30       $LN39                      1001db30     MyMisc.obj
 0001:0001cb38       $LN38                      1001db38     MyMisc.obj
 0001:0001cb74       $LN36                      1001db74     MyMisc.obj
 0001:0001cb7e       $LN35                      1001db7e     MyMisc.obj
 0001:0001cb8b       $LN34                      1001db8b     MyMisc.obj
 0001:0001cb9c       $LN33                      1001db9c     MyMisc.obj
 0001:0001cba8       $LN32                      1001dba8     MyMisc.obj
 0001:0001d443       __catch$??$_Emplace_reallocate@ABUTFrame@CPictureEx@@@?$vector@UTFrame@CPictureEx@@V?$allocator@UTFrame@CPictureEx@@@std@@@std@@QAEPAUTFrame@CPictureEx@@QAU23@ABU23@@Z$0 1001e443 f i PictureEx.obj
 0001:0001d980       $LN8                       1001e980     PictureEx.obj
 0001:0001d988       $LN7                       1001e988     PictureEx.obj
 0001:0001d9ac       $LN6                       1001e9ac     PictureEx.obj
 0001:0001d9b3       $LN5                       1001e9b3     PictureEx.obj
 0001:0001d9ba       $LN4                       1001e9ba     PictureEx.obj
 0001:0001e8b0       $LN7                       1001f8b0     PictureEx.obj
 0001:0001e8b8       $LN6                       1001f8b8     PictureEx.obj
 0001:0001e8c4       $LN4                       1001f8c4     PictureEx.obj
 0001:0001ea9c       $LN11                      1001fa9c     PictureEx.obj
 0001:0001eaa4       $LN10                      1001faa4     PictureEx.obj
 0001:0001eab0       $LN8                       1001fab0     PictureEx.obj
 0001:0001ef28       $LN10                      1001ff28     PictureEx.obj
 0001:0001ef30       $LN9                       1001ff30     PictureEx.obj
 0001:0001ef3c       $LN7                       1001ff3c     PictureEx.obj
 0001:0001f134       $LN8                       10020134     PictureEx.obj
 0001:0001f13c       $LN7                       1002013c     PictureEx.obj
 0001:0001f148       $LN5                       10020148     PictureEx.obj
 0001:0001f3d8       $LN20                      100203d8     PictureEx.obj
 0001:0001f3e0       $LN19                      100203e0     PictureEx.obj
 0001:0001f404       $LN18                      10020404     PictureEx.obj
 0001:0001f40d       $LN17                      1002040d     PictureEx.obj
 0001:0001f415       $LN16                      10020415     PictureEx.obj
 0001:0001f718       $LN29                      10020718     PictureEx.obj
 0001:0001f720       $LN28                      10020720     PictureEx.obj
 0001:0001f750       $LN27                      10020750     PictureEx.obj
 0001:0001f759       $LN26                      10020759     PictureEx.obj
 0001:0001f761       $LN25                      10020761     PictureEx.obj
 0001:0001f76a       $LN24                      1002076a     PictureEx.obj
 0001:0001faf8       $LN33                      10020af8     PictureEx.obj
 0001:0001fb0c       $LN32                      10020b0c     PictureEx.obj
 0001:0001fe00       $LN33                      10020e00     PictureEx.obj
 0001:000202f8       $LN16                      100212f8     PictureEx.obj
 0001:000203bc       $LN16                      100213bc     PictureEx.obj
 0001:00020b90       $LN45                      10021b90     PictureEx.obj
 0001:00020b98       $LN44                      10021b98     PictureEx.obj
 0001:00020be0       $LN43                      10021be0     PictureEx.obj
 0001:00020be8       $LN42                      10021be8     PictureEx.obj
 0001:00020bf2       $LN41                      10021bf2     PictureEx.obj
 0001:00020bf8       $LN40                      10021bf8     PictureEx.obj
 0001:00020c01       $LN39                      10021c01     PictureEx.obj
 0001:00020c09       $LN38                      10021c09     PictureEx.obj
 0001:0002125a       __catch$?Load@CPictureEx@@QAEHPBD@Z$0 1002225a f   PictureEx.obj
 0001:000213c4       $LN28                      100223c4     PictureEx.obj
 0001:000213cc       $LN27                      100223cc     PictureEx.obj
 0001:000213f0       $LN25                      100223f0     PictureEx.obj
 0001:000213f2       $LN24                      100223f2     PictureEx.obj
 0001:00021404       $LN23                      10022404     PictureEx.obj
 0001:00021820       $LN9                       10022820     PictureEx.obj
 0001:00021828       $LN8                       10022828     PictureEx.obj
 0001:00021834       $LN7                       10022834     PictureEx.obj
 0001:00022448       $LN36                      10023448     PictureEx.obj
 0001:00022450       $LN35                      10023450     PictureEx.obj
 0001:0002248c       $LN34                      1002348c     PictureEx.obj
 0001:00022491       $LN33                      10023491     PictureEx.obj
 0001:00022496       $LN32                      10023496     PictureEx.obj
 0001:0002249f       $LN31                      1002349f     PictureEx.obj
 0001:000224a7       $LN30                      100234a7     PictureEx.obj
 0001:000229f0       $LN19                      100239f0     PictureEx.obj
 0001:000229f8       $LN18                      100239f8     PictureEx.obj
 0001:00022a04       $LN16                      10023a04     PictureEx.obj
 0001:00022d98       $LN12                      10023d98     PictureEx.obj
 0001:00022da0       $LN11                      10023da0     PictureEx.obj
 0001:00022db8       $LN9                       10023db8     PictureEx.obj
 0001:00022dbe       $LN8                       10023dbe     PictureEx.obj
 0001:00022edc       $LN6                       10023edc     PictureEx.obj
 0001:00022ee4       $LN5                       10023ee4     PictureEx.obj
 0001:00022ef0       $LN4                       10023ef0     PictureEx.obj
 0001:00023350       $LN6                       10024350     PictureEx.obj
 0001:00023358       $LN5                       10024358     PictureEx.obj
 0001:00023364       $LN4                       10024364     PictureEx.obj
 0001:0002398c       $LN13                      1002498c     PictureEx.obj
 0001:00023994       $LN12                      10024994     PictureEx.obj
 0001:000239a0       $LN10                      100249a0     PictureEx.obj
 0001:00023c28       $LN16                      10024c28     PictureEx.obj
 0001:00023c30       $LN15                      10024c30     PictureEx.obj
 0001:00023c3c       $LN13                      10024c3c     PictureEx.obj
 0001:00024f88       $LN17                      10025f88     ResMan.obj
 0001:00024f90       $LN16                      10025f90     ResMan.obj
 0001:00024fa8       $LN15                      10025fa8     ResMan.obj
 0001:00024fb3       $LN14                      10025fb3     ResMan.obj
 0001:00025464       $LN16                      10026464     ResMan.obj
 0001:0002546c       $LN15                      1002646c     ResMan.obj
 0001:00025484       $LN13                      10026484     ResMan.obj
 0001:0002548c       $LN12                      1002648c     ResMan.obj
 0001:000256f0       $LN21                      100266f0     ResMan.obj
 0001:000256f8       $LN20                      100266f8     ResMan.obj
 0001:0002571c       $LN18                      1002671c     ResMan.obj
 0001:00025725       $LN17                      10026725     ResMan.obj
 0001:0002572a       $LN16                      1002672a     ResMan.obj
 0001:00025910       $LN14                      10026910     ResMan.obj
 0001:00025918       $LN13                      10026918     ResMan.obj
 0001:0002593c       $LN11                      1002693c     ResMan.obj
 0001:00025940       $LN10                      10026940     ResMan.obj
 0001:00025944       $LN9                       10026944     ResMan.obj
 0001:000262a0       $LN9                       100272a0     ResMan.obj
 0001:000262a8       $LN8                       100272a8     ResMan.obj
 0001:000262c0       $LN7                       100272c0     ResMan.obj
 0001:000262cb       $LN6                       100272cb     ResMan.obj
 0001:00026a6c       $LN40                      10027a6c     ResMan.obj
 0001:00026a74       $LN39                      10027a74     ResMan.obj
 0001:00026ab0       $LN37                      10027ab0     ResMan.obj
 0001:00026ab9       $LN36                      10027ab9     ResMan.obj
 0001:00026ac1       $LN35                      10027ac1     ResMan.obj
 0001:00026aca       $LN34                      10027aca     ResMan.obj
 0001:00026ace       $LN33                      10027ace     ResMan.obj
 0001:000270b8       $LN29                      100280b8     ResMan.obj
 0001:000270c0       $LN28                      100280c0     ResMan.obj
 0001:000270d8       $LN26                      100280d8     ResMan.obj
 0001:000270e1       $LN25                      100280e1     ResMan.obj
 0001:00028c14       $LN30                      10029c14     dllmain.obj
 0001:00028c1c       $LN29                      10029c1c     dllmain.obj
 0001:00028c34       $LN28                      10029c34     dllmain.obj
 0001:00028c3f       $LN27                      10029c3f     dllmain.obj
 0001:000296b0       $LN31                      1002a6b0     dllmain.obj
 0001:000296b8       $LN30                      1002a6b8     dllmain.obj
 0001:000296d0       $LN29                      1002a6d0     dllmain.obj
 0001:000296db       $LN28                      1002a6db     dllmain.obj
 0001:0002afe4       $LN30                      1002bfe4     Graphic.obj
 0001:0002aff8       $LN28                      1002bff8     Graphic.obj
 0001:0002cdac       $LN21                      1002ddac     Graphic.obj
 0001:0002cdb4       $LN20                      1002ddb4     Graphic.obj
 0001:0002cdc0       $LN19                      1002ddc0     Graphic.obj
 0001:00030394       $LN12                      10031394     GraphMod.obj
 0001:0003039c       $LN11                      1003139c     GraphMod.obj
 0001:000303a8       $LN10                      100313a8     GraphMod.obj
 0001:00039a28       $LN43                      1003aa28     xAniFile.obj
 0001:00039a30       $LN42                      1003aa30     xAniFile.obj
 0001:00039a78       $LN40                      1003aa78     xAniFile.obj
 0001:00039a7e       $LN39                      1003aa7e     xAniFile.obj
 0001:00039a85       $LN38                      1003aa85     xAniFile.obj
 0001:00039a8d       $LN37                      1003aa8d     xAniFile.obj
 0001:00039a94       $LN36                      1003aa94     xAniFile.obj
 0001:00039a9a       $LN35                      1003aa9a     xAniFile.obj
 0001:0003bcc8       $LN16                      1003ccc8     xAniMan.obj
 0001:0003bcd0       $LN15                      1003ccd0     xAniMan.obj
 0001:0003bcdc       $LN14                      1003ccdc     xAniMan.obj
 0001:0003be0c       $LN15                      1003ce0c     xAniMan.obj
 0001:0003be14       $LN14                      1003ce14     xAniMan.obj
 0001:0003be20       $LN13                      1003ce20     xAniMan.obj
 0001:0003ded0       $LN17                      1003eed0     xSprite.obj
 0001:0003ded8       $LN16                      1003eed8     xSprite.obj
 0001:0003dee4       $LN15                      1003eee4     xSprite.obj
 0001:0003e67c       $LN40                      1003f67c     xSprite.obj
 0001:0003e684       $LN39                      1003f684     xSprite.obj
 0001:0003e69c       $LN38                      1003f69c     xSprite.obj
 0001:0003e69f       $LN37                      1003f69f     xSprite.obj
 0001:0003f654       $LN90                      10040654     xSprite.obj
 0001:0003f65c       $LN89                      1004065c     xSprite.obj
 0001:0003f674       $LN88                      10040674     xSprite.obj
 0001:0003f67a       $LN87                      1004067a     xSprite.obj
 0001:0003f685       $LN55                      10040685     xSprite.obj
 0001:00040cac       $LN27                      10041cac     xSprite.obj
 0001:00040cb4       $LN26                      10041cb4     xSprite.obj
 0001:00040cc0       $LN25                      10041cc0     xSprite.obj
 0001:000410a0       ?_SPRFileSafeRead@@YAHPAU_iobuf@@PAXI@Z 100420a0 f   xSprite.obj
 0001:00041298       $LN12                      10042298     UnzipFile.obj
 0001:000412a0       $LN11                      100422a0     UnzipFile.obj
 0001:000412ac       $LN10                      100422ac     UnzipFile.obj
 0001:00041a28       $LN8                       10042a28     UnzipFile.obj
 0001:00041a30       $LN7                       10042a30     UnzipFile.obj
 0001:00041a48       $LN6                       10042a48     UnzipFile.obj
 0001:00041a4e       $LN5                       10042a4e     UnzipFile.obj
 0001:00042134       $LN20                      10043134     UnzipFile.obj
 0001:0004213c       $LN19                      1004313c     UnzipFile.obj
 0001:00042154       $LN17                      10043154     UnzipFile.obj
 0001:0004215b       $LN16                      1004315b     UnzipFile.obj
 0001:0004244c       $LN20                      1004344c     UnzipFile.obj
 0001:00042454       $LN19                      10043454     UnzipFile.obj
 0001:00042484       $LN17                      10043484     UnzipFile.obj
 0001:00042494       $LN16                      10043494     UnzipFile.obj
 0001:000424a8       $LN15                      100434a8     UnzipFile.obj
 0001:000424b4       $LN14                      100434b4     UnzipFile.obj
 0001:0004277c       $LN18                      1004377c     UnzipFile.obj
 0001:00042784       $LN17                      10043784     UnzipFile.obj
 0001:000427a8       $LN16                      100437a8     UnzipFile.obj
 0001:000427be       $LN15                      100437be     UnzipFile.obj
 0001:000427d6       $LN14                      100437d6     UnzipFile.obj
 0001:0004300c       $LN9                       1004400c     UnzipFile.obj
 0001:00043014       $LN8                       10044014     UnzipFile.obj
 0001:0004302c       $LN6                       1004402c     UnzipFile.obj
 0001:0004302f       $LN5                       1004402f     UnzipFile.obj
 0001:00043554       $LN17                      10044554     UnzipFile.obj
 0001:0004355c       $LN16                      1004455c     UnzipFile.obj
 0001:00043598       $LN15                      10044598     UnzipFile.obj
 0001:000435a9       $LN14                      100445a9     UnzipFile.obj
 0001:000435b7       $LN13                      100445b7     UnzipFile.obj
 0001:000435be       $LN12                      100445be     UnzipFile.obj
 0001:000435c4       $LN11                      100445c4     UnzipFile.obj
 0001:000436f0       $LN6                       100446f0     UnzipFile.obj
 0001:000436f8       $LN5                       100446f8     UnzipFile.obj
 0001:00043704       $LN4                       10044704     UnzipFile.obj
 0001:00043a74       $LN28                      10044a74     UnzipFile.obj
 0001:00043a7c       $LN27                      10044a7c     UnzipFile.obj
 0001:00043a88       $LN26                      10044a88     UnzipFile.obj
 0001:00043d60       __catch$?unzlocal_SearchCentralDir@CUnzipFile@@IAEKXZ$0 10044d60 f   UnzipFile.obj
 0001:00043ef4       $LN6                       10044ef4     UnzipFile.obj
 0001:00043efc       $LN5                       10044efc     UnzipFile.obj
 0001:00043f08       $LN4                       10044f08     UnzipFile.obj
 0001:00043fa8       $LN7                       10044fa8     UnzipFile.obj
 0001:00043fb0       $LN6                       10044fb0     UnzipFile.obj
 0001:00043fc8       $LN5                       10044fc8     UnzipFile.obj
 0001:00043fca       $LN4                       10044fca     UnzipFile.obj
 0001:0004407c       $LN6                       1004507c     UnzipFile.obj
 0001:00044084       $LN5                       10045084     UnzipFile.obj
 0001:00044090       $LN4                       10045090     UnzipFile.obj
 0001:0004452c       $LN32                      1004552c     ZipException.obj
 0001:0004455c       $LN31                      1004555c     ZipException.obj
 0001:00045530       $LN8                       10046530     ZipFile.obj
 0001:00045538       $LN7                       10046538     ZipFile.obj
 0001:00045544       $LN6                       10046544     ZipFile.obj
 0001:00045610       $LN8                       10046610     ZipFile.obj
 0001:00045618       $LN7                       10046618     ZipFile.obj
 0001:00045624       $LN6                       10046624     ZipFile.obj
 0001:000456f0       $LN8                       100466f0     ZipFile.obj
 0001:000456f8       $LN7                       100466f8     ZipFile.obj
 0001:00045704       $LN6                       10046704     ZipFile.obj
 0001:000457d4       $LN8                       100467d4     ZipFile.obj
 0001:000457dc       $LN7                       100467dc     ZipFile.obj
 0001:000457e8       $LN6                       100467e8     ZipFile.obj
 0001:000458b0       $LN8                       100468b0     ZipFile.obj
 0001:000458b8       $LN7                       100468b8     ZipFile.obj
 0001:000458c4       $LN6                       100468c4     ZipFile.obj
 0001:00045998       $LN8                       10046998     ZipFile.obj
 0001:000459a0       $LN7                       100469a0     ZipFile.obj
 0001:000459ac       $LN6                       100469ac     ZipFile.obj
 0001:000463e0       $LN7                       100473e0     ZipFile.obj
 0001:000463e8       $LN6                       100473e8     ZipFile.obj
 0001:000463f4       $LN5                       100473f4     ZipFile.obj
 0001:00046cb0       $LN11                      10047cb0     ZipFile.obj
 0001:00046cb8       $LN10                      10047cb8     ZipFile.obj
 0001:00046cc4       $LN9                       10047cc4     ZipFile.obj
 0001:00046ef4       $LN11                      10047ef4     ZUBaseFile.obj
 0001:00046efc       $LN10                      10047efc     ZUBaseFile.obj
 0001:00046f08       $LN8                       10047f08     ZUBaseFile.obj
 0001:00047238       $LN13                      10048238     ZUBaseFile.obj
 0001:00047240       $LN12                      10048240     ZUBaseFile.obj
 0001:0004724c       $LN10                      1004824c     ZUBaseFile.obj
 0001:00047be0       _adler32_combine_          10048be0 f   adler32.obj
 0001:00047e7c       $LN14                      10048e7c     compress.obj
 0001:00047e84       $LN13                      10048e84     compress.obj
 0001:00047e90       $LN12                      10048e90     compress.obj
 0001:00048240       _crc32_big                 10049240 f   crc32.obj
 0001:00048a40       _crc32_combine_            10049a40 f   crc32.obj
 0001:00048ba4       $LN21                      10049ba4     crc32.obj
 0001:00048bac       $LN20                      10049bac     crc32.obj
 0001:00048bc4       $LN19                      10049bc4     crc32.obj
 0001:00048bc8       $LN18                      10049bc8     crc32.obj
 0001:00048c30       _crc32_little              10049c30 f   crc32.obj
 0001:00049300       _gf2_matrix_square         1004a300 f   crc32.obj
 0001:00049390       _gf2_matrix_times          1004a390 f   crc32.obj
 0001:00049410       _deflate_stored            1004a410 f   deflate.obj
 0001:00049790       _deflate_fast              1004a790 f   deflate.obj
 0001:00049f20       _deflate_slow              1004af20 f   deflate.obj
 0001:0004d0c0       _deflate_huff              1004e0c0 f   deflate.obj
 0001:0004d400       _deflate_rle               1004e400 f   deflate.obj
 0001:0004dae0       _fill_window               1004eae0 f   deflate.obj
 0001:0004df20       _flush_pending             1004ef20 f   deflate.obj
 0001:0004e050       _lm_init                   1004f050 f   deflate.obj
 0001:0004e1b0       _longest_match             1004f1b0 f   deflate.obj
 0001:0004e5c0       _putShortMSB               1004f5c0 f   deflate.obj
 0001:0004e650       _read_buf                  1004f650 f   deflate.obj
 0001:0004eb14       $LN16                      1004fb14     example.obj
 0001:0004eb1c       $LN15                      1004fb1c     example.obj
 0001:0004eb28       $LN14                      1004fb28     example.obj
 0001:0004f03c       $LN23                      1005003c     example.obj
 0001:0004f044       $LN22                      10050044     example.obj
 0001:0004f050       $LN21                      10050050     example.obj
 0001:0004f2b4       $LN13                      100502b4     example.obj
 0001:0004f2bc       $LN12                      100502bc     example.obj
 0001:0004f2c8       $LN11                      100502c8     example.obj
 0001:0004f594       $LN25                      10050594     example.obj
 0001:0004f59c       $LN24                      1005059c     example.obj
 0001:0004f5a8       $LN23                      100505a8     example.obj
 0001:0004f860       $LN14                      10050860     example.obj
 0001:0004f868       $LN13                      10050868     example.obj
 0001:0004f874       $LN12                      10050874     example.obj
 0001:0004fd78       $LN32                      10050d78     example.obj
 0001:0004fd80       $LN31                      10050d80     example.obj
 0001:0004fd8c       $LN30                      10050d8c     example.obj
 0001:000500ac       $LN20                      100510ac     example.obj
 0001:000500b4       $LN19                      100510b4     example.obj
 0001:000500c0       $LN18                      100510c0     example.obj
 0001:00050424       $LN19                      10051424     example.obj
 0001:0005042c       $LN18                      1005142c     example.obj
 0001:00050438       $LN17                      10051438     example.obj
 0001:000506e0       $LN22                      100516e0     example.obj
 0001:000506e8       $LN21                      100516e8     example.obj
 0001:000506f4       $LN20                      100516f4     example.obj
 0001:000509b0       $LN15                      100519b0     example.obj
 0001:000509b8       $LN14                      100519b8     example.obj
 0001:000509c4       $LN13                      100519c4     example.obj
 0001:00050b70       _check_header              10051b70 f   gzio.obj
 0001:00050f40       _destroy                   10051f40 f   gzio.obj
 0001:00051130       _do_flush                  10052130 f   gzio.obj
 0001:00051330       _getLong                   10052330 f   gzio.obj
 0001:000513f0       _get_byte                  100523f0 f   gzio.obj
 0001:00051540       _gz_open                   10052540 f   gzio.obj
 0001:00051a1c       $LN50                      10052a1c     gzio.obj
 0001:00051a24       $LN49                      10052a24     gzio.obj
 0001:00051a30       $LN48                      10052a30     gzio.obj
 0001:00051dec       $LN8                       10052dec     gzio.obj
 0001:00051df4       $LN7                       10052df4     gzio.obj
 0001:00051e00       $LN6                       10052e00     gzio.obj
 0001:00052218       $LN8                       10053218     gzio.obj
 0001:00052220       $LN7                       10053220     gzio.obj
 0001:0005222c       $LN6                       1005322c     gzio.obj
 0001:000524f0       $LN11                      100534f0     gzio.obj
 0001:000524f8       $LN10                      100534f8     gzio.obj
 0001:00052504       $LN9                       10053504     gzio.obj
 0001:000525dc       $LN8                       100535dc     gzio.obj
 0001:000525e4       $LN7                       100535e4     gzio.obj
 0001:000525f0       $LN6                       100535f0     gzio.obj
 0001:00053480       _putLong                   10054480 f   gzio.obj
 0001:00053650       _fixedtables               10054650 f   infback.obj
 0001:00054c24       $LN451                     10055c24     infback.obj
 0001:00054c2c       $LN450                     10055c2c     infback.obj
 0001:00054c50       $LN449                     10055c50     infback.obj
 0001:00054c55       $LN448                     10055c55     infback.obj
 0001:00054c5a       $LN447                     10055c5a     infback.obj
 0001:00054c60       $LN452                     10055c60     infback.obj
 0001:00054c7c       $LN446                     10055c7c     infback.obj
 0001:00054c90       $LN453                     10055c90     infback.obj
 0001:00055e8c       $LN81                      10056e8c     inffast.obj
 0001:00055e94       $LN80                      10056e94     inffast.obj
 0001:00055ea0       $LN79                      10056ea0     inffast.obj
 0001:00056140       _fixedtables               10057140 f   inflate.obj
 0001:00058454       $LN669                     10059454     inflate.obj
 0001:0005845c       $LN668                     1005945c     inflate.obj
 0001:00058480       $LN667                     10059480     inflate.obj
 0001:00058485       $LN666                     10059485     inflate.obj
 0001:0005848a       $LN665                     1005948a     inflate.obj
 0001:00058490       $LN670                     10059490     inflate.obj
 0001:0005850c       $LN671                     1005950c     inflate.obj
 0001:00059bc0       $LN17                      1005abc0     inflate.obj
 0001:00059bc8       $LN16                      1005abc8     inflate.obj
 0001:00059bd4       $LN15                      1005abd4     inflate.obj
 0001:00059d90       _syncsearch                1005ad90 f   inflate.obj
 0001:00059e70       _updatewindow              1005ae70 f   inflate.obj
 0001:0005a884       $LN118                     1005b884     inftrees.obj
 0001:0005a88c       $LN117                     1005b88c     inftrees.obj
 0001:0005a8b0       $LN116                     1005b8b0     inftrees.obj
 0001:0005a8b5       $LN115                     1005b8b5     inftrees.obj
 0001:0005a8bb       $LN114                     1005b8bb     inftrees.obj
 0001:0005baa0       _bi_flush                  1005caa0 f   trees.obj
 0001:0005bbf0       _bi_reverse                1005cbf0 f   trees.obj
 0001:0005bc70       _bi_windup                 1005cc70 f   trees.obj
 0001:0005bd80       _build_bl_tree             1005cd80 f   trees.obj
 0001:0005bea0       _build_tree                1005cea0 f   trees.obj
 0001:0005c3e0       _compress_block            1005d3e0 f   trees.obj
 0001:0005ce70       _copy_block                1005de70 f   trees.obj
 0001:0005d000       _detect_data_type          1005e000 f   trees.obj
 0001:0005d130       _gen_bitlen                1005e130 f   trees.obj
 0001:0005d550       _gen_codes                 1005e550 f   trees.obj
 0001:0005d660       $LN17                      1005e660     trees.obj
 0001:0005d668       $LN16                      1005e668     trees.obj
 0001:0005d674       $LN15                      1005e674     trees.obj
 0001:0005d6d0       _init_block                1005e6d0 f   trees.obj
 0001:0005d800       _pqdownheap                1005e800 f   trees.obj
 0001:0005da20       _scan_tree                 1005ea20 f   trees.obj
 0001:0005dca0       _send_all_trees            1005eca0 f   trees.obj
 0001:0005e320       _send_tree                 1005f320 f   trees.obj
 0001:0005f170       _tr_static_init            10060170 f   trees.obj
 0001:0005f2b0       $LN17                      100602b0     uncompr.obj
 0001:0005f2b8       $LN16                      100602b8     uncompr.obj
 0001:0005f2c4       $LN15                      100602c4     uncompr.obj
 0001:0005fbc8       $LN6                       10060bc8     mfcs140d:nolib.obj
 0001:0005fbd0       $LN5                       10060bd0     mfcs140d:nolib.obj
 0001:0005fbdc       $LN4                       10060bdc     mfcs140d:nolib.obj
 0001:0005ffb0       $LN17                      10060fb0     mfcs140d:nolib.obj
 0001:0005ffb8       $LN16                      10060fb8     mfcs140d:nolib.obj
 0001:0005ffdc       $LN15                      10060fdc     mfcs140d:nolib.obj
 0001:0005ffe5       $LN14                      10060fe5     mfcs140d:nolib.obj
 0001:0005ffec       $LN13                      10060fec     mfcs140d:nolib.obj
 0001:0006084c       $LN22                      1006184c     mfcs140d:nolib.obj
 0001:00060854       $LN21                      10061854     mfcs140d:nolib.obj
 0001:0006086c       $LN20                      1006186c     mfcs140d:nolib.obj
 0001:00060876       $LN19                      10061876     mfcs140d:nolib.obj
 0001:00060bec       $LN36                      10061bec     mfcs140d:nolib.obj
 0001:00060bf4       $LN35                      10061bf4     mfcs140d:nolib.obj
 0001:00060c3c       $LN34                      10061c3c     mfcs140d:nolib.obj
 0001:00060c53       $LN33                      10061c53     mfcs140d:nolib.obj
 0001:00060c5c       $LN32                      10061c5c     mfcs140d:nolib.obj
 0001:00060c6f       $LN31                      10061c6f     mfcs140d:nolib.obj
 0001:00060c76       $LN30                      10061c76     mfcs140d:nolib.obj
 0001:00060c80       $LN29                      10061c80     mfcs140d:nolib.obj
 0001:00060ea0       ?ArrayUnwindFilter@@YAHPAU_EXCEPTION_POINTERS@@@Z 10061ea0 f   msvcrtd:ehvecdtr.obj
 0001:000610a0       ?find_pe_section@@YAPAU_IMAGE_SECTION_HEADER@@QAEI@Z 100620a0 f   msvcrtd:utility.obj
 0001:00061160       ?is_potentially_valid_image_base@@YA_NQAX@Z 10062160 f   msvcrtd:utility.obj
 0001:000618a0       ?__scrt_initialize_thread_safe_statics@@YAHXZ 100628a0 f   msvcrtd:thread_safe_statics.obj
 0001:000619c0       ?__scrt_initialize_thread_safe_statics_platform_specific@@YAXXZ 100629c0 f   msvcrtd:thread_safe_statics.obj
 0001:00061b60       ?__scrt_uninitialize_thread_safe_statics@@YAXXZ 10062b60 f   msvcrtd:thread_safe_statics.obj
 0001:000621a0       $$000000                   100631a0     msvcrtd:chkstk.obj
 0001:00062300       $$000000                   10063300     msvcrtd:lldiv.obj
 0001:000623e0       ?DebuggerProbe@@YA_NK@Z    100633e0 f   msvcrtd:error.obj
 0001:00062430       ?DebuggerRuntime@@YA_NKHPAXPB_W@Z 10063430 f   msvcrtd:error.obj
 0001:00062700       ?_getMemBlockDataString@@YAXPAD0PBDI@Z 10063700 f   msvcrtd:error.obj
 0001:00062790       ?_strlen_priv@@YAIPBD@Z    10063790 f   msvcrtd:error.obj
 0001:000627b0       ?failwithmessage@@YAXPAXHHPBD@Z 100637b0 f   msvcrtd:error.obj
 0001:00062a30       ?notify_debugger@@YAXABUtagEXCEPTION_VISUALCPP_DEBUG_INFO@@@Z 10063a30 f   msvcrtd:error.obj
 0001:00063040       ?dllmain_crt_dispatch@@YGHQAUHINSTANCE__@@KQAX@Z 10064040 f   msvcrtd:dll_dllmain.obj
 0001:000630ac       $LN11                      100640ac     msvcrtd:dll_dllmain.obj
 0001:000630e0       ?dllmain_crt_process_attach@@YAHQAUHINSTANCE__@@QAX@Z 100640e0 f   msvcrtd:dll_dllmain.obj
 0001:000632b0       ?dllmain_crt_process_detach@@YAH_N@Z 100642b0 f   msvcrtd:dll_dllmain.obj
 0001:000633c0       ?dllmain_dispatch@@YAHQAUHINSTANCE__@@KQAX@Z 100643c0 f   msvcrtd:dll_dllmain.obj
 0001:000635b0       ?dllmain_raw@@YGHQAUHINSTANCE__@@KQAX@Z 100645b0 f   msvcrtd:dll_dllmain.obj
 0001:00063f40       ?GetPdbDll@@YAPAUHINSTANCE__@@XZ 10064f40 f   msvcrtd:pdblkup.obj
 0001:000640d0       ?GetPdbDllFromInstallPath@@YAPAUHINSTANCE__@@XZ 100650d0 f   msvcrtd:pdblkup.obj
 0001:000643c0       ?GetPdbDllPathFromFilePath@@YAHPB_WPA_WI@Z 100653c0 f   msvcrtd:pdblkup.obj
 0001:000649a0       ___get_entropy             100659a0 f   msvcrtd:gs_support.obj
 0001:000652e9       _memmove_s                 100662e9 f   atls:atlbase.obj
 0001:000671f0       __ehhandler$??1CAutoDestroy@AVATAR@NMBASE@@QAE@XZ 100681f0 f   Avatar.obj
 0001:00067220       __ehhandler$??1CAvatar@AVATAR@NMBASE@@UAE@XZ 10068220 f   Avatar.obj
 0001:00067250       __ehhandler$??1CAvatarResource@AVATAR@NMBASE@@UAE@XZ 10068250 f   Avatar.obj
 0001:00067280       __ehhandler$??_ECAvatar@AVATAR@NMBASE@@UAEPAXI@Z 10068280 f   Avatar.obj
 0001:000672b0       __unwindfunclet$?CreateAvatarResource@AVATAR@NMBASE@@YAIXZ$0 100682b0 f   Avatar.obj
 0001:000672c5       __ehhandler$?CreateAvatarResource@AVATAR@NMBASE@@YAIXZ 100682c5 f   Avatar.obj
 0001:000672f0       __unwindfunclet$?CreateAvatarResource@CAvatar@AVATAR@NMBASE@@IAEIXZ$0 100682f0 f   Avatar.obj
 0001:00067305       __ehhandler$?CreateAvatarResource@CAvatar@AVATAR@NMBASE@@IAEIXZ 10068305 f   Avatar.obj
 0001:00067330       __unwindfunclet$?DrawAvatarToDC_SmoothZoom@CAvatar@AVATAR@NMBASE@@IAEHHHIPAUHDC__@@HHKH@Z$0 10068330 f   Avatar.obj
 0001:0006733c       __unwindfunclet$?DrawAvatarToDC_SmoothZoom@CAvatar@AVATAR@NMBASE@@IAEHHHIPAUHDC__@@HHKH@Z$1 1006833c f   Avatar.obj
 0001:00067348       __ehhandler$?DrawAvatarToDC_SmoothZoom@CAvatar@AVATAR@NMBASE@@IAEHHHIPAUHDC__@@HHKH@Z 10068348 f   Avatar.obj
 0001:00067380       __unwindfunclet$?DrawAvatarToPage@AVATAR@NMBASE@@YAHPAVCPage@@HHPAVCAvatarResource@12@HHH@Z$0 10068380 f   Avatar.obj
 0001:00067392       __ehhandler$?DrawAvatarToPage@AVATAR@NMBASE@@YAHPAVCPage@@HHPAVCAvatarResource@12@HHH@Z 10068392 f   Avatar.obj
 0001:000673c0       __unwindfunclet$?GetAvatarStatusString@CAvatar@AVATAR@NMBASE@@KAPADXZ$0 100683c0 f   Avatar.obj
 0001:000673d2       __unwindfunclet$?GetAvatarStatusString@CAvatar@AVATAR@NMBASE@@KAPADXZ$1 100683d2 f   Avatar.obj
 0001:000673e4       __ehhandler$?GetAvatarStatusString@CAvatar@AVATAR@NMBASE@@KAPADXZ 100683e4 f   Avatar.obj
 0001:00067420       __unwindfunclet$?OpenLoadingSprite@AVATAR@NMBASE@@YAHPAVxSprite@@@Z$0 10068420 f   Avatar.obj
 0001:00067428       __ehhandler$?OpenLoadingSprite@AVATAR@NMBASE@@YAHPAVxSprite@@@Z 10068428 f   Avatar.obj
 0001:00067460       __unwindfunclet$??0CDownThread@@QAE@XZ$0 10068460 f   DownThread.obj
 0001:0006746b       __unwindfunclet$??0CDownThread@@QAE@XZ$1 1006846b f   DownThread.obj
 0001:00067480       __unwindfunclet$??0CDownThread@@QAE@XZ$2 10068480 f   DownThread.obj
 0001:0006748b       __ehhandler$??0CDownThread@@QAE@XZ 1006848b f   DownThread.obj
 0001:000674c0       __ehhandler$??1CDownThread@@QAE@XZ 100684c0 f   DownThread.obj
 0001:000674f0       __unwindfunclet$??RCTraceFileAndLineInfo@ATL@@QBAXHIPBDZZ$0 100684f0 f   DownThread.obj
 0001:000674f8       __ehhandler$??RCTraceFileAndLineInfo@ATL@@QBAXHIPBDZZ 100684f8 f   DownThread.obj
 0001:00067520       __unwindfunclet$?DoThreadLoop@CDownThread@@QAEIXZ$5 10068520 f   DownThread.obj
 0001:00067532       __unwindfunclet$?DoThreadLoop@CDownThread@@QAEIXZ$6 10068532 f   DownThread.obj
 0001:00067547       __unwindfunclet$?DoThreadLoop@CDownThread@@QAEIXZ$8 10068547 f   DownThread.obj
 0001:0006755c       __unwindfunclet$?DoThreadLoop@CDownThread@@QAEIXZ$10 1006855c f   DownThread.obj
 0001:00067571       __unwindfunclet$?DoThreadLoop@CDownThread@@QAEIXZ$11 10068571 f   DownThread.obj
 0001:00067586       __unwindfunclet$?DoThreadLoop@CDownThread@@QAEIXZ$12 10068586 f   DownThread.obj
 0001:00067591       __unwindfunclet$?DoThreadLoop@CDownThread@@QAEIXZ$13 10068591 f   DownThread.obj
 0001:000675a6       __unwindfunclet$?DoThreadLoop@CDownThread@@QAEIXZ$15 100685a6 f   DownThread.obj
 0001:000675bb       __unwindfunclet$?DoThreadLoop@CDownThread@@QAEIXZ$17 100685bb f   DownThread.obj
 0001:000675d0       __unwindfunclet$?DoThreadLoop@CDownThread@@QAEIXZ$18 100685d0 f   DownThread.obj
 0001:000675db       __unwindfunclet$?DoThreadLoop@CDownThread@@QAEIXZ$19 100685db f   DownThread.obj
 0001:000675f0       __unwindfunclet$?DoThreadLoop@CDownThread@@QAEIXZ$21 100685f0 f   DownThread.obj
 0001:00067605       __unwindfunclet$?DoThreadLoop@CDownThread@@QAEIXZ$22 10068605 f   DownThread.obj
 0001:00067610       __ehhandler$?DoThreadLoop@CDownThread@@QAEIXZ 10068610 f   DownThread.obj
 0001:00067680       __unwindfunclet$?RecreateThread@CDownThread@@QAEHXZ$0 10068680 f   DownThread.obj
 0001:00067692       __ehhandler$?RecreateThread@CDownThread@@QAEHXZ 10068692 f   DownThread.obj
 0001:000676c0       __unwindfunclet$?TraceV@CTrace@ATL@@SAXPBDHII0PAD@Z$0 100686c0 f   DownThread.obj
 0001:000676c8       __unwindfunclet$?TraceV@CTrace@ATL@@SAXPBDHII0PAD@Z$1 100686c8 f   DownThread.obj
 0001:000676d0       __ehhandler$?TraceV@CTrace@ATL@@SAXPBDHII0PAD@Z 100686d0 f   DownThread.obj
 0001:00067700       __unwindfunclet$??HATL@@YA?AV?$CStringT@DV?$StrTraitMFC_DLL@DV?$ChTraitsCRT@D@ATL@@@@@0@ABV10@PBD@Z$0 10068700 f   ExtractFile.obj
 0001:00067712       __ehhandler$??HATL@@YA?AV?$CStringT@DV?$StrTraitMFC_DLL@DV?$ChTraitsCRT@D@ATL@@@@@0@ABV10@PBD@Z 10068712 f   ExtractFile.obj
 0001:00067740       __unwindfunclet$?GetZipFileSize@@YAHPBDPAI1@Z$2 10068740 f   ExtractFile.obj
 0001:0006774b       __ehhandler$?GetZipFileSize@@YAHPBDPAI1@Z 1006874b f   ExtractFile.obj
 0001:00067780       __unwindfunclet$?UnzipFile@@YAHPAUHWND__@@PBD1@Z$2 10068780 f   ExtractFile.obj
 0001:00067788       __unwindfunclet$?UnzipFile@@YAHPAUHWND__@@PBD1@Z$3 10068788 f   ExtractFile.obj
 0001:00067793       __unwindfunclet$?UnzipFile@@YAHPAUHWND__@@PBD1@Z$4 10068793 f   ExtractFile.obj
 0001:000677a8       __unwindfunclet$?UnzipFile@@YAHPAUHWND__@@PBD1@Z$5 100687a8 f   ExtractFile.obj
 0001:000677bd       __unwindfunclet$?UnzipFile@@YAHPAUHWND__@@PBD1@Z$6 100687bd f   ExtractFile.obj
 0001:000677d2       __unwindfunclet$?UnzipFile@@YAHPAUHWND__@@PBD1@Z$7 100687d2 f   ExtractFile.obj
 0001:000677e7       __unwindfunclet$?UnzipFile@@YAHPAUHWND__@@PBD1@Z$8 100687e7 f   ExtractFile.obj
 0001:000677fc       __unwindfunclet$?UnzipFile@@YAHPAUHWND__@@PBD1@Z$10 100687fc f   ExtractFile.obj
 0001:00067807       __ehhandler$?UnzipFile@@YAHPAUHWND__@@PBD1@Z 10068807 f   ExtractFile.obj
 0001:00067860       __unwindfunclet$??0?$CMap@V?$CStringT@DV?$StrTraitMFC_DLL@DV?$ChTraitsCRT@D@ATL@@@@@ATL@@PBDPAVCFileInfo@@AAPAV3@@@QAE@H@Z$0 10068860 f   FileList.obj
 0001:00067868       __ehhandler$??0?$CMap@V?$CStringT@DV?$StrTraitMFC_DLL@DV?$ChTraitsCRT@D@ATL@@@@@ATL@@PBDPAVCFileInfo@@AAPAV3@@@QAE@H@Z 10068868 f   FileList.obj
 0001:00067890       __unwindfunclet$??0CFileList@@QAE@XZ$0 10068890 f   FileList.obj
 0001:000678a2       __unwindfunclet$??0CFileList@@QAE@XZ$1 100688a2 f   FileList.obj
 0001:000678ad       __ehhandler$??0CFileList@@QAE@XZ 100688ad f   FileList.obj
 0001:000678e0       __unwindfunclet$??0CSprFile@@QAE@XZ$0 100688e0 f   FileList.obj
 0001:000678eb       __ehhandler$??0CSprFile@@QAE@XZ 100688eb f   FileList.obj
 0001:00067920       __ehhandler$??1?$CMap@V?$CStringT@DV?$StrTraitMFC_DLL@DV?$ChTraitsCRT@D@ATL@@@@@ATL@@PBDPAVCFileInfo@@AAPAV3@@@UAE@XZ 10068920 f   FileList.obj
 0001:00067950       __ehhandler$??1CFileList@@QAE@XZ 10068950 f   FileList.obj
 0001:00067980       __ehhandler$??1CSprFile@@QAE@XZ 10068980 f   FileList.obj
 0001:000679b0       __unwindfunclet$?Add@CFileList@@QAEPAVCFileInfo@@HHHHPAVCSprFile@@@Z$0 100689b0 f   FileList.obj
 0001:000679c2       __unwindfunclet$?Add@CFileList@@QAEPAVCFileInfo@@HHHHPAVCSprFile@@@Z$1 100689c2 f   FileList.obj
 0001:000679d4       __ehhandler$?Add@CFileList@@QAEPAVCFileInfo@@HHHHPAVCSprFile@@@Z 100689d4 f   FileList.obj
 0001:00067a10       __unwindfunclet$?Delete@CFileList@@QAEHHHH@Z$0 10068a10 f   FileList.obj
 0001:00067a22       __unwindfunclet$?Delete@CFileList@@QAEHHHH@Z$1 10068a22 f   FileList.obj
 0001:00067a37       __ehhandler$?Delete@CFileList@@QAEHHHH@Z 10068a37 f   FileList.obj
 0001:00067a70       __unwindfunclet$?Destroy@CFileList@@QAEXXZ$0 10068a70 f   FileList.obj
 0001:00067a82       __ehhandler$?Destroy@CFileList@@QAEXXZ 10068a82 f   FileList.obj
 0001:00067ab0       __unwindfunclet$?Dump@?$CMap@V?$CStringT@DV?$StrTraitMFC_DLL@DV?$ChTraitsCRT@D@ATL@@@@@ATL@@PBDPAVCFileInfo@@AAPAV3@@@UBEXAAVCDumpContext@@@Z$0 10068ab0 f   FileList.obj
 0001:00067ac4       __ehhandler$?Dump@?$CMap@V?$CStringT@DV?$StrTraitMFC_DLL@DV?$ChTraitsCRT@D@ATL@@@@@ATL@@PBDPAVCFileInfo@@AAPAV3@@@UBEXAAVCDumpContext@@@Z 10068ac4 f   FileList.obj
 0001:00067af0       __unwindfunclet$?Find@CFileList@@QAEPAVCFileInfo@@HHH@Z$0 10068af0 f   FileList.obj
 0001:00067b02       __ehhandler$?Find@CFileList@@QAEPAVCFileInfo@@HHH@Z 10068b02 f   FileList.obj
 0001:00067b30       __unwindfunclet$?GetFirst@CFileList@@QAEPAVCFileInfo@@XZ$0 10068b30 f   FileList.obj
 0001:00067b42       __ehhandler$?GetFirst@CFileList@@QAEPAVCFileInfo@@XZ 10068b42 f   FileList.obj
 0001:00067b70       __unwindfunclet$?GetFullpathOfDownFile@@YA?AV?$CStringT@DV?$StrTraitMFC_DLL@DV?$ChTraitsCRT@D@ATL@@@@@ATL@@PBDHH@Z$0 10068b70 f   FileList.obj
 0001:00067b82       __ehhandler$?GetFullpathOfDownFile@@YA?AV?$CStringT@DV?$StrTraitMFC_DLL@DV?$ChTraitsCRT@D@ATL@@@@@ATL@@PBDHH@Z 10068b82 f   FileList.obj
 0001:00067bb0       __unwindfunclet$?GetFullpathOfSprFile@@YA?AV?$CStringT@DV?$StrTraitMFC_DLL@DV?$ChTraitsCRT@D@ATL@@@@@ATL@@PBDHHH@Z$0 10068bb0 f   FileList.obj
 0001:00067bc2       __ehhandler$?GetFullpathOfSprFile@@YA?AV?$CStringT@DV?$StrTraitMFC_DLL@DV?$ChTraitsCRT@D@ATL@@@@@ATL@@PBDHHH@Z 10068bc2 f   FileList.obj
 0001:00067bf0       __unwindfunclet$?GetFullpathOfSprFolder@@YA?AV?$CStringT@DV?$StrTraitMFC_DLL@DV?$ChTraitsCRT@D@ATL@@@@@ATL@@PBDHH@Z$0 10068bf0 f   FileList.obj
 0001:00067c02       __ehhandler$?GetFullpathOfSprFolder@@YA?AV?$CStringT@DV?$StrTraitMFC_DLL@DV?$ChTraitsCRT@D@ATL@@@@@ATL@@PBDHH@Z 10068c02 f   FileList.obj
 0001:00067c30       __unwindfunclet$?GetMapKeyName@@YA?AV?$CStringT@DV?$StrTraitMFC_DLL@DV?$ChTraitsCRT@D@ATL@@@@@ATL@@HHH@Z$0 10068c30 f   FileList.obj
 0001:00067c42       __ehhandler$?GetMapKeyName@@YA?AV?$CStringT@DV?$StrTraitMFC_DLL@DV?$ChTraitsCRT@D@ATL@@@@@ATL@@HHH@Z 10068c42 f   FileList.obj
 0001:00067c70       __unwindfunclet$?Serialize@?$CMap@V?$CStringT@DV?$StrTraitMFC_DLL@DV?$ChTraitsCRT@D@ATL@@@@@ATL@@PBDPAVCFileInfo@@AAPAV3@@@UAEXAAVCArchive@@@Z$0 10068c70 f   FileList.obj
 0001:00067c84       __ehhandler$?Serialize@?$CMap@V?$CStringT@DV?$StrTraitMFC_DLL@DV?$ChTraitsCRT@D@ATL@@@@@ATL@@PBDPAVCFileInfo@@AAPAV3@@@UAEXAAVCArchive@@@Z 10068c84 f   FileList.obj
 0001:00067cb0       __unwindfunclet$?WriteTag@CFileTag@@QAEHPBDU_SYSTEMTIME@@@Z$0 10068cb0 f   FileTag.obj
 0001:00067cb8       __ehhandler$?WriteTag@CFileTag@@QAEHPBDU_SYSTEMTIME@@@Z 10068cb8 f   FileTag.obj
 0001:00067cf0       __unwindfunclet$??0CGetHttp@@QAE@XZ$0 10068cf0 f   GetHttp.obj
 0001:00067d05       __unwindfunclet$??0CGetHttp@@QAE@XZ$1 10068d05 f   GetHttp.obj
 0001:00067d1a       __unwindfunclet$??0CGetHttp@@QAE@XZ$2 10068d1a f   GetHttp.obj
 0001:00067d2f       __unwindfunclet$??0CGetHttp@@QAE@XZ$3 10068d2f f   GetHttp.obj
 0001:00067d44       __unwindfunclet$??0CGetHttp@@QAE@XZ$4 10068d44 f   GetHttp.obj
 0001:00067d59       __unwindfunclet$??0CGetHttp@@QAE@XZ$5 10068d59 f   GetHttp.obj
 0001:00067d6e       __unwindfunclet$??0CGetHttp@@QAE@XZ$6 10068d6e f   GetHttp.obj
 0001:00067d83       __unwindfunclet$??0CGetHttp@@QAE@XZ$7 10068d83 f   GetHttp.obj
 0001:00067d8e       __ehhandler$??0CGetHttp@@QAE@XZ 10068d8e f   GetHttp.obj
 0001:00067de0       __ehhandler$??1AFX_EXCEPTION_LINK@@QAE@XZ 10068de0 f   GetHttp.obj
 0001:00067e10       __ehhandler$??1CGetHttp@@UAE@XZ 10068e10 f   GetHttp.obj
 0001:00067e40       __unwindfunclet$??HATL@@YA?AV?$CStringT@DV?$StrTraitMFC_DLL@DV?$ChTraitsCRT@D@ATL@@@@@0@PBDABV10@@Z$0 10068e40 f   GetHttp.obj
 0001:00067e52       __ehhandler$??HATL@@YA?AV?$CStringT@DV?$StrTraitMFC_DLL@DV?$ChTraitsCRT@D@ATL@@@@@0@PBDABV10@@Z 10068e52 f   GetHttp.obj
 0001:00067e80       __unwindfunclet$?GetFile@CGetHttp@@QAEHPAUHWND__@@V?$CStringT@DV?$StrTraitMFC_DLL@DV?$ChTraitsCRT@D@ATL@@@@@ATL@@1@Z$2 10068e80 f   GetHttp.obj
 0001:00067e92       __unwindfunclet$?GetFile@CGetHttp@@QAEHPAUHWND__@@V?$CStringT@DV?$StrTraitMFC_DLL@DV?$ChTraitsCRT@D@ATL@@@@@ATL@@1@Z$3 10068e92 f   GetHttp.obj
 0001:00067ea4       __unwindfunclet$?GetFile@CGetHttp@@QAEHPAUHWND__@@V?$CStringT@DV?$StrTraitMFC_DLL@DV?$ChTraitsCRT@D@ATL@@@@@ATL@@1@Z$4 10068ea4 f   GetHttp.obj
 0001:00067eac       __unwindfunclet$?GetFile@CGetHttp@@QAEHPAUHWND__@@V?$CStringT@DV?$StrTraitMFC_DLL@DV?$ChTraitsCRT@D@ATL@@@@@ATL@@1@Z$5 10068eac f   GetHttp.obj
 0001:00067ec1       __unwindfunclet$?GetFile@CGetHttp@@QAEHPAUHWND__@@V?$CStringT@DV?$StrTraitMFC_DLL@DV?$ChTraitsCRT@D@ATL@@@@@ATL@@1@Z$6 10068ec1 f   GetHttp.obj
 0001:00067ed3       __unwindfunclet$?GetFile@CGetHttp@@QAEHPAUHWND__@@V?$CStringT@DV?$StrTraitMFC_DLL@DV?$ChTraitsCRT@D@ATL@@@@@ATL@@1@Z$7 10068ed3 f   GetHttp.obj
 0001:00067ee5       __unwindfunclet$?GetFile@CGetHttp@@QAEHPAUHWND__@@V?$CStringT@DV?$StrTraitMFC_DLL@DV?$ChTraitsCRT@D@ATL@@@@@ATL@@1@Z$8 10068ee5 f   GetHttp.obj
 0001:00067efa       __unwindfunclet$?GetFile@CGetHttp@@QAEHPAUHWND__@@V?$CStringT@DV?$StrTraitMFC_DLL@DV?$ChTraitsCRT@D@ATL@@@@@ATL@@1@Z$10 10068efa f   GetHttp.obj
 0001:00067f05       __ehhandler$?GetFile@CGetHttp@@QAEHPAUHWND__@@V?$CStringT@DV?$StrTraitMFC_DLL@DV?$ChTraitsCRT@D@ATL@@@@@ATL@@1@Z 10068f05 f   GetHttp.obj
 0001:00067f60       __unwindfunclet$?GetFileLastModifiedDate@CGetHttp@@QAEHV?$CStringT@DV?$StrTraitMFC_DLL@DV?$ChTraitsCRT@D@ATL@@@@@ATL@@PAU_SYSTEMTIME@@@Z$0 10068f60 f   GetHttp.obj
 0001:00067f72       __unwindfunclet$?GetFileLastModifiedDate@CGetHttp@@QAEHV?$CStringT@DV?$StrTraitMFC_DLL@DV?$ChTraitsCRT@D@ATL@@@@@ATL@@PAU_SYSTEMTIME@@@Z$1 10068f72 f   GetHttp.obj
 0001:00067f87       __ehhandler$?GetFileLastModifiedDate@CGetHttp@@QAEHV?$CStringT@DV?$StrTraitMFC_DLL@DV?$ChTraitsCRT@D@ATL@@@@@ATL@@PAU_SYSTEMTIME@@@Z 10068f87 f   GetHttp.obj
 0001:00067fc0       __unwindfunclet$?GetFileSize@CGetHttp@@QAEHV?$CStringT@DV?$StrTraitMFC_DLL@DV?$ChTraitsCRT@D@ATL@@@@@ATL@@PAH@Z$0 10068fc0 f   GetHttp.obj
 0001:00067fd2       __unwindfunclet$?GetFileSize@CGetHttp@@QAEHV?$CStringT@DV?$StrTraitMFC_DLL@DV?$ChTraitsCRT@D@ATL@@@@@ATL@@PAH@Z$1 10068fd2 f   GetHttp.obj
 0001:00067fe7       __ehhandler$?GetFileSize@CGetHttp@@QAEHV?$CStringT@DV?$StrTraitMFC_DLL@DV?$ChTraitsCRT@D@ATL@@@@@ATL@@PAH@Z 10068fe7 f   GetHttp.obj
 0001:00068030       __unwindfunclet$?GetFileStatusCode@CGetHttp@@QAEHV?$CStringT@DV?$StrTraitMFC_DLL@DV?$ChTraitsCRT@D@ATL@@@@@ATL@@PAH@Z$0 10069030 f   GetHttp.obj
 0001:00068042       __unwindfunclet$?GetFileStatusCode@CGetHttp@@QAEHV?$CStringT@DV?$StrTraitMFC_DLL@DV?$ChTraitsCRT@D@ATL@@@@@ATL@@PAH@Z$1 10069042 f   GetHttp.obj
 0001:00068057       __ehhandler$?GetFileStatusCode@CGetHttp@@QAEHV?$CStringT@DV?$StrTraitMFC_DLL@DV?$ChTraitsCRT@D@ATL@@@@@ATL@@PAH@Z 10069057 f   GetHttp.obj
 0001:000680a0       __unwindfunclet$?GetFileToMemory@CGetHttp@@QAEHPAUHWND__@@V?$CStringT@DV?$StrTraitMFC_DLL@DV?$ChTraitsCRT@D@ATL@@@@@ATL@@PAPAXPAK@Z$0 100690a0 f   GetHttp.obj
 0001:000680b2       __unwindfunclet$?GetFileToMemory@CGetHttp@@QAEHPAUHWND__@@V?$CStringT@DV?$StrTraitMFC_DLL@DV?$ChTraitsCRT@D@ATL@@@@@ATL@@PAPAXPAK@Z$1 100690b2 f   GetHttp.obj
 0001:000680ba       __unwindfunclet$?GetFileToMemory@CGetHttp@@QAEHPAUHWND__@@V?$CStringT@DV?$StrTraitMFC_DLL@DV?$ChTraitsCRT@D@ATL@@@@@ATL@@PAPAXPAK@Z$2 100690ba f   GetHttp.obj
 0001:000680cf       __unwindfunclet$?GetFileToMemory@CGetHttp@@QAEHPAUHWND__@@V?$CStringT@DV?$StrTraitMFC_DLL@DV?$ChTraitsCRT@D@ATL@@@@@ATL@@PAPAXPAK@Z$3 100690cf f   GetHttp.obj
 0001:000680da       __ehhandler$?GetFileToMemory@CGetHttp@@QAEHPAUHWND__@@V?$CStringT@DV?$StrTraitMFC_DLL@DV?$ChTraitsCRT@D@ATL@@@@@ATL@@PAPAXPAK@Z 100690da f   GetHttp.obj
 0001:00068120       __unwindfunclet$?SetAccessRight@CGetHttp@@QAEHV?$CStringT@DV?$StrTraitMFC_DLL@DV?$ChTraitsCRT@D@ATL@@@@@ATL@@0@Z$0 10069120 f   GetHttp.obj
 0001:00068132       __unwindfunclet$?SetAccessRight@CGetHttp@@QAEHV?$CStringT@DV?$StrTraitMFC_DLL@DV?$ChTraitsCRT@D@ATL@@@@@ATL@@0@Z$1 10069132 f   GetHttp.obj
 0001:00068144       __ehhandler$?SetAccessRight@CGetHttp@@QAEHV?$CStringT@DV?$StrTraitMFC_DLL@DV?$ChTraitsCRT@D@ATL@@@@@ATL@@0@Z 10069144 f   GetHttp.obj
 0001:00068180       __unwindfunclet$?ConvertGif2Spr@@YAHPADPAVxSprite@@H@Z$0 10069180 f   Gif2Spr.obj
 0001:0006818b       __ehhandler$?ConvertGif2Spr@@YAHPADPAVxSprite@@H@Z 1006918b f   Gif2Spr.obj
 0001:000681c0       __unwindfunclet$?ConvertGif2SprFile@@YAHPAD0H@Z$0 100691c0 f   Gif2Spr.obj
 0001:000681c8       __ehhandler$?ConvertGif2SprFile@@YAHPAD0H@Z 100691c8 f   Gif2Spr.obj
 0001:00068200       __unwindfunclet$?ConvertGif2SprFromMemory@@YAHPAXKPAVxSprite@@H@Z$0 10069200 f   Gif2Spr.obj
 0001:0006820b       __ehhandler$?ConvertGif2SprFromMemory@@YAHPAXKPAVxSprite@@H@Z 1006920b f   Gif2Spr.obj
 0001:00068240       __unwindfunclet$?_Gif2Spr@@YAHAAVCPictureEx@@PAVxSprite@@H@Z$0 10069240 f   Gif2Spr.obj
 0001:00068248       __unwindfunclet$?_Gif2Spr@@YAHAAVCPictureEx@@PAVxSprite@@H@Z$1 10069248 f   Gif2Spr.obj
 0001:00068253       __unwindfunclet$?_Gif2Spr@@YAHAAVCPictureEx@@PAVxSprite@@H@Z$2 10069253 f   Gif2Spr.obj
 0001:0006825e       __ehhandler$?_Gif2Spr@@YAHAAVCPictureEx@@PAVxSprite@@H@Z 1006925e f   Gif2Spr.obj
 0001:000682a0       __unwindfunclet$??HATL@@YA?AV?$CStringT@DV?$StrTraitMFC_DLL@DV?$ChTraitsCRT@D@ATL@@@@@0@ABV10@0@Z$0 100692a0 f   MyMisc.obj
 0001:000682b2       __ehhandler$??HATL@@YA?AV?$CStringT@DV?$StrTraitMFC_DLL@DV?$ChTraitsCRT@D@ATL@@@@@0@ABV10@0@Z 100692b2 f   MyMisc.obj
 0001:000682e0       __unwindfunclet$?CreateMultipleDirectory@@YAHV?$CStringT@DV?$StrTraitMFC_DLL@DV?$ChTraitsCRT@D@ATL@@@@@ATL@@@Z$0 100692e0 f   MyMisc.obj
 0001:000682f2       __unwindfunclet$?CreateMultipleDirectory@@YAHV?$CStringT@DV?$StrTraitMFC_DLL@DV?$ChTraitsCRT@D@ATL@@@@@ATL@@@Z$1 100692f2 f   MyMisc.obj
 0001:000682fd       __unwindfunclet$?CreateMultipleDirectory@@YAHV?$CStringT@DV?$StrTraitMFC_DLL@DV?$ChTraitsCRT@D@ATL@@@@@ATL@@@Z$2 100692fd f   MyMisc.obj
 0001:00068312       __ehhandler$?CreateMultipleDirectory@@YAHV?$CStringT@DV?$StrTraitMFC_DLL@DV?$ChTraitsCRT@D@ATL@@@@@ATL@@@Z 10069312 f   MyMisc.obj
 0001:00068350       __unwindfunclet$?RemoveDirectoryAll@@YAJV?$CStringT@DV?$StrTraitMFC_DLL@DV?$ChTraitsCRT@D@ATL@@@@@ATL@@H@Z$0 10069350 f   MyMisc.obj
 0001:00068362       __unwindfunclet$?RemoveDirectoryAll@@YAJV?$CStringT@DV?$StrTraitMFC_DLL@DV?$ChTraitsCRT@D@ATL@@@@@ATL@@H@Z$1 10069362 f   MyMisc.obj
 0001:0006836a       __unwindfunclet$?RemoveDirectoryAll@@YAJV?$CStringT@DV?$StrTraitMFC_DLL@DV?$ChTraitsCRT@D@ATL@@@@@ATL@@H@Z$2 1006936a f   MyMisc.obj
 0001:0006837c       __unwindfunclet$?RemoveDirectoryAll@@YAJV?$CStringT@DV?$StrTraitMFC_DLL@DV?$ChTraitsCRT@D@ATL@@@@@ATL@@H@Z$3 1006937c f   MyMisc.obj
 0001:0006838e       __unwindfunclet$?RemoveDirectoryAll@@YAJV?$CStringT@DV?$StrTraitMFC_DLL@DV?$ChTraitsCRT@D@ATL@@@@@ATL@@H@Z$4 1006938e f   MyMisc.obj
 0001:000683a0       __unwindfunclet$?RemoveDirectoryAll@@YAJV?$CStringT@DV?$StrTraitMFC_DLL@DV?$ChTraitsCRT@D@ATL@@@@@ATL@@H@Z$5 100693a0 f   MyMisc.obj
 0001:000683b5       __unwindfunclet$?RemoveDirectoryAll@@YAJV?$CStringT@DV?$StrTraitMFC_DLL@DV?$ChTraitsCRT@D@ATL@@@@@ATL@@H@Z$6 100693b5 f   MyMisc.obj
 0001:000683ca       __unwindfunclet$?RemoveDirectoryAll@@YAJV?$CStringT@DV?$StrTraitMFC_DLL@DV?$ChTraitsCRT@D@ATL@@@@@ATL@@H@Z$7 100693ca f   MyMisc.obj
 0001:000683df       __unwindfunclet$?RemoveDirectoryAll@@YAJV?$CStringT@DV?$StrTraitMFC_DLL@DV?$ChTraitsCRT@D@ATL@@@@@ATL@@H@Z$9 100693df f   MyMisc.obj
 0001:000683f4       __unwindfunclet$?RemoveDirectoryAll@@YAJV?$CStringT@DV?$StrTraitMFC_DLL@DV?$ChTraitsCRT@D@ATL@@@@@ATL@@H@Z$10 100693f4 f   MyMisc.obj
 0001:00068409       __ehhandler$?RemoveDirectoryAll@@YAJV?$CStringT@DV?$StrTraitMFC_DLL@DV?$ChTraitsCRT@D@ATL@@@@@ATL@@H@Z 10069409 f   MyMisc.obj
 0001:00068470       __ehhandler$??$_Emplace_reallocate@ABUTFrame@CPictureEx@@@?$vector@UTFrame@CPictureEx@@V?$allocator@UTFrame@CPictureEx@@@std@@@std@@QAEPAUTFrame@CPictureEx@@QAU23@ABU23@@Z 10069470 f   PictureEx.obj
 0001:000684a0       __ehhandler$??0?$vector@UTFrame@CPictureEx@@V?$allocator@UTFrame@CPictureEx@@@std@@@std@@QAE@XZ 100694a0 f   PictureEx.obj
 0001:000684d0       __ehhandler$??1?$_Vector_alloc@U?$_Vec_base_types@UTFrame@CPictureEx@@V?$allocator@UTFrame@CPictureEx@@@std@@@std@@@std@@QAE@XZ 100694d0 f   PictureEx.obj
 0001:00068500       __ehhandler$??1?$vector@UTFrame@CPictureEx@@V?$allocator@UTFrame@CPictureEx@@@std@@@std@@QAE@XZ 10069500 f   PictureEx.obj
 0001:00068530       __ehhandler$??1CPictureEx@@UAE@XZ 10069530 f   PictureEx.obj
 0001:00068560       __ehhandler$??1_Iterator_base12@std@@QAE@XZ 10069560 f   PictureEx.obj
 0001:00068590       __ehhandler$??4_Iterator_base12@std@@QAEAAU01@ABU01@@Z 10069590 f   PictureEx.obj
 0001:000685c0       __unwindfunclet$??E?$_Vector_iterator@V?$_Vector_val@U?$_Simple_types@UTFrame@CPictureEx@@@std@@@std@@@std@@QAE?AV01@H@Z$0 100695c0 f   PictureEx.obj
 0001:000685c8       __ehhandler$??E?$_Vector_iterator@V?$_Vector_val@U?$_Simple_types@UTFrame@CPictureEx@@@std@@@std@@@std@@QAE?AV01@H@Z 100695c8 f   PictureEx.obj
 0001:000685f0       __unwindfunclet$??RCTraceFileAndLineInfo@ATL@@QBAXPBDZZ$0 100695f0 f   PictureEx.obj
 0001:000685f8       __ehhandler$??RCTraceFileAndLineInfo@ATL@@QBAXPBDZZ 100695f8 f   PictureEx.obj
 0001:00068620       __unwindfunclet$?Load@CPictureEx@@QAEHPBD@Z$2 10069620 f   PictureEx.obj
 0001:00068628       __unwindfunclet$?Load@CPictureEx@@QAEHPBD@Z$3 10069628 f   PictureEx.obj
 0001:00068630       __ehhandler$?Load@CPictureEx@@QAEHPBD@Z 10069630 f   PictureEx.obj
 0001:00068660       __unwindfunclet$?UnLoad@CPictureEx@@QAEXXZ$0 10069660 f   PictureEx.obj
 0001:00068668       __unwindfunclet$?UnLoad@CPictureEx@@QAEXXZ$3 10069668 f   PictureEx.obj
 0001:00068673       __ehhandler$?UnLoad@CPictureEx@@QAEXXZ 10069673 f   PictureEx.obj
 0001:000686a0       __ehhandler$?_Adopt@_Iterator_base12@std@@QAEXPBU_Container_base12@2@@Z 100696a0 f   PictureEx.obj
 0001:000686d0       __ehhandler$?_Orphan_all@_Container_base12@std@@QAEXXZ 100696d0 f   PictureEx.obj
 0001:00068700       __unwindfunclet$?_Orphan_range@?$vector@UTFrame@CPictureEx@@V?$allocator@UTFrame@CPictureEx@@@std@@@std@@ABEXPAUTFrame@CPictureEx@@0@Z$0 10069700 f   PictureEx.obj
 0001:00068712       __ehhandler$?_Orphan_range@?$vector@UTFrame@CPictureEx@@V?$allocator@UTFrame@CPictureEx@@@std@@@std@@ABEXPAUTFrame@CPictureEx@@0@Z 10069712 f   PictureEx.obj
 0001:00068740       __ehhandler$?begin@?$vector@UTFrame@CPictureEx@@V?$allocator@UTFrame@CPictureEx@@@std@@@std@@QAE?AV?$_Vector_iterator@V?$_Vector_val@U?$_Simple_types@UTFrame@CPictureEx@@@std@@@std@@@2@XZ 10069740 f   PictureEx.obj
 0001:00068770       __ehhandler$?clear@?$vector@UTFrame@CPictureEx@@V?$allocator@UTFrame@CPictureEx@@@std@@@std@@QAEXXZ 10069770 f   PictureEx.obj
 0001:000687a0       __ehhandler$?end@?$vector@UTFrame@CPictureEx@@V?$allocator@UTFrame@CPictureEx@@@std@@@std@@QAE?AV?$_Vector_iterator@V?$_Vector_val@U?$_Simple_types@UTFrame@CPictureEx@@@std@@@std@@@2@XZ 100697a0 f   PictureEx.obj
 0001:000687d0       __unwindfunclet$??0?$CMap@V?$CStringT@DV?$StrTraitMFC_DLL@DV?$ChTraitsCRT@D@ATL@@@@@ATL@@PBDPAVCSprFile@@AAPAV3@@@QAE@H@Z$0 100697d0 f   ResMan.obj
 0001:000687d8       __ehhandler$??0?$CMap@V?$CStringT@DV?$StrTraitMFC_DLL@DV?$ChTraitsCRT@D@ATL@@@@@ATL@@PBDPAVCSprFile@@AAPAV3@@@QAE@H@Z 100697d8 f   ResMan.obj
 0001:00068800       __unwindfunclet$??0CResMan@@QAE@XZ$0 10069800 f   ResMan.obj
 0001:00068815       __unwindfunclet$??0CResMan@@QAE@XZ$1 10069815 f   ResMan.obj
 0001:00068820       __unwindfunclet$??0CResMan@@QAE@XZ$2 10069820 f   ResMan.obj
 0001:0006882b       __unwindfunclet$??0CResMan@@QAE@XZ$3 1006982b f   ResMan.obj
 0001:00068844       __ehhandler$??0CResMan@@QAE@XZ 10069844 f   ResMan.obj
 0001:00068880       __ehhandler$??1?$CMap@V?$CStringT@DV?$StrTraitMFC_DLL@DV?$ChTraitsCRT@D@ATL@@@@@ATL@@PBDPAVCSprFile@@AAPAV3@@@UAE@XZ 10069880 f   ResMan.obj
 0001:000688b0       __ehhandler$??1CResMan@@UAE@XZ 100698b0 f   ResMan.obj
 0001:000688e0       __unwindfunclet$?CloseSpr@CResMan@@QAEHHHH@Z$0 100698e0 f   ResMan.obj
 0001:000688f2       __ehhandler$?CloseSpr@CResMan@@QAEHHHH@Z 100698f2 f   ResMan.obj
 0001:00068920       __unwindfunclet$?Destroy@CResMan@@QAEXXZ$0 10069920 f   ResMan.obj
 0001:00068932       __ehhandler$?Destroy@CResMan@@QAEXXZ 10069932 f   ResMan.obj
 0001:00068960       __unwindfunclet$?Dump@?$CMap@V?$CStringT@DV?$StrTraitMFC_DLL@DV?$ChTraitsCRT@D@ATL@@@@@ATL@@PBDPAVCSprFile@@AAPAV3@@@UBEXAAVCDumpContext@@@Z$0 10069960 f   ResMan.obj
 0001:00068974       __ehhandler$?Dump@?$CMap@V?$CStringT@DV?$StrTraitMFC_DLL@DV?$ChTraitsCRT@D@ATL@@@@@ATL@@PBDPAVCSprFile@@AAPAV3@@@UBEXAAVCDumpContext@@@Z 10069974 f   ResMan.obj
 0001:000689a0       __unwindfunclet$?OpenSpr@CResMan@@QAEPAVCSprFile@@HHH@Z$0 100699a0 f   ResMan.obj
 0001:000689b2       __unwindfunclet$?OpenSpr@CResMan@@QAEPAVCSprFile@@HHH@Z$1 100699b2 f   ResMan.obj
 0001:000689c4       __unwindfunclet$?OpenSpr@CResMan@@QAEPAVCSprFile@@HHH@Z$2 100699c4 f   ResMan.obj
 0001:000689d6       __unwindfunclet$?OpenSpr@CResMan@@QAEPAVCSprFile@@HHH@Z$3 100699d6 f   ResMan.obj
 0001:000689eb       __unwindfunclet$?OpenSpr@CResMan@@QAEPAVCSprFile@@HHH@Z$4 100699eb f   ResMan.obj
 0001:00068a00       __ehhandler$?OpenSpr@CResMan@@QAEPAVCSprFile@@HHH@Z 10069a00 f   ResMan.obj
 0001:00068a40       __unwindfunclet$?Serialize@?$CMap@V?$CStringT@DV?$StrTraitMFC_DLL@DV?$ChTraitsCRT@D@ATL@@@@@ATL@@PBDPAVCSprFile@@AAPAV3@@@UAEXAAVCArchive@@@Z$0 10069a40 f   ResMan.obj
 0001:00068a54       __ehhandler$?Serialize@?$CMap@V?$CStringT@DV?$StrTraitMFC_DLL@DV?$ChTraitsCRT@D@ATL@@@@@ATL@@PBDPAVCSprFile@@AAPAV3@@@UAEXAAVCArchive@@@Z 10069a54 f   ResMan.obj
 0001:00068a80       __unwindfunclet$??0_ATL_WIN_MODULE70@ATL@@QAE@XZ$0 10069a80 f   dllmain.obj
 0001:00068a8b       __ehhandler$??0_ATL_WIN_MODULE70@ATL@@QAE@XZ 10069a8b f   dllmain.obj
 0001:00068ac0       __ehhandler$??1?$CSimpleArray@GV?$CSimpleArrayEqualHelper@G@ATL@@@ATL@@QAE@XZ 10069ac0 f   dllmain.obj
 0001:00068af0       __ehhandler$??1CAtlComModule@ATL@@QAE@XZ 10069af0 f   dllmain.obj
 0001:00068b20       __ehhandler$??1CAtlWinModule@ATL@@QAE@XZ 10069b20 f   dllmain.obj
 0001:00068b50       __ehhandler$??1CPage@@QAE@XZ 10069b50 f   Graphic.obj
 0001:00068b80       __ehhandler$??1Action@@QAE@XZ 10069b80 f   xAniFile.obj
 0001:00068bb0       __ehhandler$??1Character@@QAE@XZ 10069bb0 f   xAniFile.obj
 0001:00068be0       __ehhandler$??1Frame@@QAE@XZ 10069be0 f   xAniFile.obj
 0001:00068c10       __ehhandler$??1Group@@QAE@XZ 10069c10 f   xAniFile.obj
 0001:00068c40       __ehhandler$??1xAniFile@@QAE@XZ 10069c40 f   xAniFile.obj
 0001:00068c70       __unwindfunclet$?AddAction@Group@@QAEXPAD@Z$0 10069c70 f   xAniFile.obj
 0001:00068c82       __ehhandler$?AddAction@Group@@QAEXPAD@Z 10069c82 f   xAniFile.obj
 0001:00068cb0       __unwindfunclet$?AddCell@Frame@@QAEXHHHH@Z$0 10069cb0 f   xAniFile.obj
 0001:00068cc2       __ehhandler$?AddCell@Frame@@QAEXHHHH@Z 10069cc2 f   xAniFile.obj
 0001:00068cf0       __unwindfunclet$?AddCharacter@xAniFile@@QAEXPAD@Z$0 10069cf0 f   xAniFile.obj
 0001:00068d02       __ehhandler$?AddCharacter@xAniFile@@QAEXPAD@Z 10069d02 f   xAniFile.obj
 0001:00068d30       __unwindfunclet$?AddFrame@Action@@QAEXH@Z$0 10069d30 f   xAniFile.obj
 0001:00068d42       __ehhandler$?AddFrame@Action@@QAEXH@Z 10069d42 f   xAniFile.obj
 0001:00068d70       __unwindfunclet$?AddGroup@Character@@QAEXPAD@Z$0 10069d70 f   xAniFile.obj
 0001:00068d82       __ehhandler$?AddGroup@Character@@QAEXPAD@Z 10069d82 f   xAniFile.obj
 0001:00068db0       __unwindfunclet$?Load@xAniFile@@QAEHPAU_iobuf@@@Z$0 10069db0 f   xAniFile.obj
 0001:00068dbb       __unwindfunclet$?Load@xAniFile@@QAEHPAU_iobuf@@@Z$1 10069dbb f   xAniFile.obj
 0001:00068dc6       __unwindfunclet$?Load@xAniFile@@QAEHPAU_iobuf@@@Z$2 10069dc6 f   xAniFile.obj
 0001:00068dd1       __unwindfunclet$?Load@xAniFile@@QAEHPAU_iobuf@@@Z$3 10069dd1 f   xAniFile.obj
 0001:00068ddc       __ehhandler$?Load@xAniFile@@QAEHPAU_iobuf@@@Z 10069ddc f   xAniFile.obj
 0001:00068e20       __ehhandler$??1xLayer@@QAE@XZ 10069e20 f   xLayer.obj
 0001:00068e50       __unwindfunclet$?Init@xLayer@@QAEHPAVCPage@@HH@Z$0 10069e50 f   xLayer.obj
 0001:00068e77       __ehhandler$?Init@xLayer@@QAEHPAVCPage@@HH@Z 10069e77 f   xLayer.obj
 0001:00068eb0       __unwindfunclet$?SetObject@CLayerPlane@@QAEXHHPAUSPRITE30@@KHG@Z$0 10069eb0 f   xLayer.obj
 0001:00068ec2       __ehhandler$?SetObject@CLayerPlane@@QAEXHHPAUSPRITE30@@KHG@Z 10069ec2 f   xLayer.obj
 0001:00068ef0       __ehhandler$??1xSprite@@QAE@XZ 10069ef0 f   xSprite.obj
 0001:00068f20       __unwindfunclet$??0CUnzipFile@@QAE@PBD@Z$0 10069f20 f   UnzipFile.obj
 0001:00068f28       __unwindfunclet$??0CUnzipFile@@QAE@PBD@Z$1 10069f28 f   UnzipFile.obj
 0001:00068f33       __ehhandler$??0CUnzipFile@@QAE@PBD@Z 10069f33 f   UnzipFile.obj
 0001:00068f60       __unwindfunclet$??0CUnzipFile@@QAE@XZ$0 10069f60 f   UnzipFile.obj
 0001:00068f68       __ehhandler$??0CUnzipFile@@QAE@XZ 10069f68 f   UnzipFile.obj
 0001:00068f90       __ehhandler$??1unz_s@@QAE@XZ 10069f90 f   UnzipFile.obj
 0001:00068fc0       __unwindfunclet$?LocateFile@CUnzipFile@@QAE_NV?$CStringT@DV?$StrTraitMFC_DLL@DV?$ChTraitsCRT@D@ATL@@@@@ATL@@_N@Z$0 10069fc0 f   UnzipFile.obj
 0001:00068fd2       __unwindfunclet$?LocateFile@CUnzipFile@@QAE_NV?$CStringT@DV?$StrTraitMFC_DLL@DV?$ChTraitsCRT@D@ATL@@@@@ATL@@_N@Z$1 10069fd2 f   UnzipFile.obj
 0001:00068fe7       __unwindfunclet$?LocateFile@CUnzipFile@@QAE_NV?$CStringT@DV?$StrTraitMFC_DLL@DV?$ChTraitsCRT@D@ATL@@@@@ATL@@_N@Z$2 10069fe7 f   UnzipFile.obj
 0001:00068ffc       __ehhandler$?LocateFile@CUnzipFile@@QAE_NV?$CStringT@DV?$StrTraitMFC_DLL@DV?$ChTraitsCRT@D@ATL@@@@@ATL@@_N@Z 10069ffc f   UnzipFile.obj
 0001:00069040       __unwindfunclet$?Open@CUnzipFile@@QAEXPBD@Z$0 1006a040 f   UnzipFile.obj
 0001:0006904d       __ehhandler$?Open@CUnzipFile@@QAEXPBD@Z 1006a04d f   UnzipFile.obj
 0001:00069080       __unwindfunclet$?UpdateFileStatus@CUnzipFile@@QAEXAAVCFile@@AAUunz_file_info@@@Z$0 1006a080 f   UnzipFile.obj
 0001:00069092       __ehhandler$?UpdateFileStatus@CUnzipFile@@QAEXAAVCFile@@AAUunz_file_info@@@Z 1006a092 f   UnzipFile.obj
 0001:000690d0       __unwindfunclet$?alloc_pfile_in_zip_read@unz_s@@QAEXXZ$0 1006a0d0 f   UnzipFile.obj
 0001:000690e2       __ehhandler$?alloc_pfile_in_zip_read@unz_s@@QAEXXZ 1006a0e2 f   UnzipFile.obj
 0001:00069110       __ehhandler$?unzlocal_SearchCentralDir@CUnzipFile@@IAEKXZ 1006a110 f   UnzipFile.obj
 0001:00069140       __unwindfunclet$??0CZipException@@QAE@HPBD_N@Z$0 1006a140 f   ZipException.obj
 0001:00069148       __unwindfunclet$??0CZipException@@QAE@HPBD_N@Z$1 1006a148 f   ZipException.obj
 0001:0006915d       __ehhandler$??0CZipException@@QAE@HPBD_N@Z 1006a15d f   ZipException.obj
 0001:00069190       __unwindfunclet$?AfxThrowZipException@@YAXHPBD_N@Z$0 1006a190 f   ZipException.obj
 0001:0006919d       __ehhandler$?AfxThrowZipException@@YAXHPBD_N@Z 1006a19d f   ZipException.obj
 0001:000691d0       __unwindfunclet$??0CZipFile@@QAE@PBD_N@Z$0 1006a1d0 f   ZipFile.obj
 0001:000691d8       __unwindfunclet$??0CZipFile@@QAE@PBD_N@Z$1 1006a1d8 f   ZipFile.obj
 0001:000691e3       __ehhandler$??0CZipFile@@QAE@PBD_N@Z 1006a1e3 f   ZipFile.obj
 0001:00069210       __unwindfunclet$??0CZipFile@@QAE@XZ$0 1006a210 f   ZipFile.obj
 0001:00069218       __ehhandler$??0CZipFile@@QAE@XZ 1006a218 f   ZipFile.obj
 0001:00069240       __unwindfunclet$??0zip_internal@@QAE@XZ$0 1006a240 f   ZipFile.obj
 0001:00069248       __unwindfunclet$??0zip_internal@@QAE@XZ$1 1006a248 f   ZipFile.obj
 0001:00069253       __ehhandler$??0zip_internal@@QAE@XZ 1006a253 f   ZipFile.obj
 0001:00069280       __ehhandler$??1curfile_info@@QAE@XZ 1006a280 f   ZipFile.obj
 0001:000692b0       __unwindfunclet$?Close@CZipFile@@QAEXV?$CStringT@DV?$StrTraitMFC_DLL@DV?$ChTraitsCRT@D@ATL@@@@@ATL@@@Z$0 1006a2b0 f   ZipFile.obj
 0001:000692c2       __ehhandler$?Close@CZipFile@@QAEXV?$CStringT@DV?$StrTraitMFC_DLL@DV?$ChTraitsCRT@D@ATL@@@@@ATL@@@Z 1006a2c2 f   ZipFile.obj
 0001:000692f0       __unwindfunclet$?Open@CZipFile@@QAEXPBD_N@Z$0 1006a2f0 f   ZipFile.obj
 0001:000692fd       __ehhandler$?Open@CZipFile@@QAEXPBD_N@Z 1006a2fd f   ZipFile.obj
 0001:00069330       __unwindfunclet$?OpenNewFileInZip@CZipFile@@QAEXV?$CStringT@DV?$StrTraitMFC_DLL@DV?$ChTraitsCRT@D@ATL@@@@@ATL@@AAUzip_fileinfo@@H0PBXI2IH@Z$0 1006a330 f   ZipFile.obj
 0001:00069342       __unwindfunclet$?OpenNewFileInZip@CZipFile@@QAEXV?$CStringT@DV?$StrTraitMFC_DLL@DV?$ChTraitsCRT@D@ATL@@@@@ATL@@AAUzip_fileinfo@@H0PBXI2IH@Z$1 1006a342 f   ZipFile.obj
 0001:00069354       __ehhandler$?OpenNewFileInZip@CZipFile@@QAEXV?$CStringT@DV?$StrTraitMFC_DLL@DV?$ChTraitsCRT@D@ATL@@@@@ATL@@AAUzip_fileinfo@@H0PBXI2IH@Z 1006a354 f   ZipFile.obj
 0001:00069390       __unwindfunclet$?add_data_in_datablock@linkedlist_data@@QAEXPADK@Z$0 1006a390 f   ZipFile.obj
 0001:000693a2       __unwindfunclet$?add_data_in_datablock@linkedlist_data@@QAEXPADK@Z$1 1006a3a2 f   ZipFile.obj
 0001:000693b4       __ehhandler$?add_data_in_datablock@linkedlist_data@@QAEXPADK@Z 1006a3b4 f   ZipFile.obj
 0001:000693f0       __ehhandler$??1CZUBaseFile@@UAE@XZ 1006a3f0 f   ZUBaseFile.obj
 0001:00069420       __unwindfunclet$?ThrowError@CZUBaseFile@@IAEXH@Z$0 1006a420 f   ZUBaseFile.obj
 0001:0006944c       __unwindfunclet$?ThrowError@CZUBaseFile@@IAEXH@Z$1 1006a44c f   ZUBaseFile.obj
 0001:0006945e       __ehhandler$?ThrowError@CZUBaseFile@@IAEXH@Z 1006a45e f   ZUBaseFile.obj
 0001:000694a0       __ehhandler$??_Estringdispid@CComTypeInfoHolder@ATL@@QAEPAXI@Z 1006a4a0 f   mfcs140d:nolib.obj
 0001:000694d0       __ehhandler$?__scrt_initialize_thread_safe_statics_platform_specific@@YAXXZ 1006a4d0 f   msvcrtd:thread_safe_statics.obj
 0001:00069500       __ehhandler$?__scrt_uninitialize_thread_safe_statics@@YAXXZ 1006a500 f   msvcrtd:thread_safe_statics.obj
 0001:0006a640       ??__FAttachPage@AVATAR@NMBASE@@YAXXZ 1006b640 f   Avatar.obj
 0001:0006a690       ??__FLoadingSpr@AVATAR@NMBASE@@YAXXZ 1006b690 f   Avatar.obj
 0001:0006a6e0       ??__FLocalPage@AVATAR@NMBASE@@YAXXZ 1006b6e0 f   Avatar.obj
 0001:0006a730       ??__FResMan@AVATAR@NMBASE@@YAXXZ 1006b730 f   Avatar.obj
 0001:0006a780       ??__FSrcPage@?1??DrawAvatarToDC_SmoothZoom@CAvatar@AVATAR@NMBASE@@IAEHHHIPAUHDC__@@HHKH@Z@YAXXZ 1006b780 f   Avatar.obj
 0001:0006a7d0       ??__FTarPage@?1??DrawAvatarToDC_SmoothZoom@CAvatar@AVATAR@NMBASE@@IAEHHHIPAUHDC__@@HHKH@Z@YAXXZ 1006b7d0 f   Avatar.obj
 0001:0006a820       ??__Fg_AutoDestroy@AVATAR@NMBASE@@YAXXZ 1006b820 f   Avatar.obj
 0001:0006a870       ??__FsStatus@?1??GetAvatarStatusString@CAvatar@AVATAR@NMBASE@@KAPADXZ@YAXXZ 1006b870 f   Avatar.obj
 0001:0006a8d0       ??__F_AtlComModule@ATL@@YAXXZ 1006b8d0 f   dllmain.obj
 0001:0006a920       ??__F_AtlWinModule@ATL@@YAXXZ 1006b920 f   dllmain.obj
 0001:0006aa10       ??__F_AtlComModule@ATL@@YAXXZ 1006ba10 f   stdafx.obj
 0001:0006aa60       ??__F_AtlWinModule@ATL@@YAXXZ 1006ba60 f   stdafx.obj
 0001:0006aab0       ??__F_AtlComModule@ATL@@YAXXZ 1006bab0 f   mfcs140d:nolib.obj
 0001:0006aad0       ??__F_AtlWinModule@ATL@@YAXXZ 1006bad0 f   mfcs140d:nolib.obj
 0001:0006aaf0       ??__F_AtlComModule@ATL@@YAXXZ 1006baf0 f   mfcs140d:stdafx.obj
 0001:0006ab10       ??__F_AtlWinModule@ATL@@YAXXZ 1006bb10 f   mfcs140d:stdafx.obj
 0001:0006ab2b       ??__F_AtlBaseModule@ATL@@YAXXZ 1006bb2b f   atls:atlbase.obj
 0002:00000104       ?_AtlBaseModule$initializer$@ATL@@3P6AXXZA 1006d104     atls:atlbase.obj
 0002:00000208       ?atlTraceException$initializer$@ATL@@3P6AXXZA 1006d208     Avatar.obj
 0002:0000020c       ?atlTraceString$initializer$@ATL@@3P6AXXZA 1006d20c     Avatar.obj
 0002:00000210       ?ResMan$initializer$@AVATAR@NMBASE@@3P6AXXZA 1006d210     Avatar.obj
 0002:00000214       ?LocalPage$initializer$@AVATAR@NMBASE@@3P6AXXZA 1006d214     Avatar.obj
 0002:00000218       ?AttachPage$initializer$@AVATAR@NMBASE@@3P6AXXZA 1006d218     Avatar.obj
 0002:0000021c       ?LoadingSpr$initializer$@AVATAR@NMBASE@@3P6AXXZA 1006d21c     Avatar.obj
 0002:00000220       ?g_AutoDestroy$initializer$@AVATAR@NMBASE@@3P6AXXZA 1006d220     Avatar.obj
 0002:00000228       ?atlTraceGeneral$initializer$@ATL@@3P6AXXZA 1006d228     PictureEx.obj
 0002:0000022c       ?atlTraceCOM$initializer$@ATL@@3P6AXXZA 1006d22c     dllmain.obj
 0002:00000230       ?atlTraceQI$initializer$@ATL@@3P6AXXZA 1006d230     dllmain.obj
 0002:00000234       ?atlTraceRegistrar$initializer$@ATL@@3P6AXXZA 1006d234     dllmain.obj
 0002:00000238       ?atlTraceRefcount$initializer$@ATL@@3P6AXXZA 1006d238     dllmain.obj
 0002:0000023c       ?atlTraceWindowing$initializer$@ATL@@3P6AXXZA 1006d23c     dllmain.obj
 0002:00000240       ?atlTraceControls$initializer$@ATL@@3P6AXXZA 1006d240     dllmain.obj
 0002:00000244       ?atlTraceHosting$initializer$@ATL@@3P6AXXZA 1006d244     dllmain.obj
 0002:00000248       ?atlTraceDBClient$initializer$@ATL@@3P6AXXZA 1006d248     dllmain.obj
 0002:0000024c       ?atlTraceDBProvider$initializer$@ATL@@3P6AXXZA 1006d24c     dllmain.obj
 0002:00000250       ?atlTraceSnapin$initializer$@ATL@@3P6AXXZA 1006d250     dllmain.obj
 0002:00000254       ?atlTraceNotImpl$initializer$@ATL@@3P6AXXZA 1006d254     dllmain.obj
 0002:00000258       ?atlTraceAllocation$initializer$@ATL@@3P6AXXZA 1006d258     dllmain.obj
 0002:0000025c       ?atlTraceTime$initializer$@ATL@@3P6AXXZA 1006d25c     dllmain.obj
 0002:00000260       ?atlTraceCache$initializer$@ATL@@3P6AXXZA 1006d260     dllmain.obj
 0002:00000264       ?atlTraceStencil$initializer$@ATL@@3P6AXXZA 1006d264     dllmain.obj
 0002:00000268       ?atlTraceMap$initializer$@ATL@@3P6AXXZA 1006d268     dllmain.obj
 0002:0000026c       ?atlTraceUtil$initializer$@ATL@@3P6AXXZA 1006d26c     dllmain.obj
 0002:00000270       ?atlTraceSecurity$initializer$@ATL@@3P6AXXZA 1006d270     dllmain.obj
 0002:00000274       ?atlTraceSync$initializer$@ATL@@3P6AXXZA 1006d274     dllmain.obj
 0002:00000278       ?atlTraceISAPI$initializer$@ATL@@3P6AXXZA 1006d278     dllmain.obj
 0002:0000027c       ?_AtlComModule$initializer$@ATL@@3P6AXXZA 1006d27c     dllmain.obj
 0002:00000280       ?_AtlWinModule$initializer$@ATL@@3P6AXXZA 1006d280     dllmain.obj
 0002:00000284       ?InitializeCAtlStringMgr$initializer$@ATLImplementationDetails@ATL@@3P6AXXZA 1006d284     dllmain.obj
 0002:000005a4       ?__scrt_initialize_tss_var@@3P6AHXZA 1006d5a4     msvcrtd:thread_safe_statics.obj
 0002:000065a8       _crc_table                 100735a8     crc32.obj
 0002:00008c58       _configuration_table       10075c58     deflate.obj
 0002:00008cd0       ?my_version@?1??deflateInit2_@@9@9 10075cd0     deflate.obj
 0002:00009154       _gz_magic                  10076154     gzio.obj
 0002:00009190       ?lenfix@?1??fixedtables@@9@9 10076190     infback.obj
 0002:00009990       ?distfix@?1??fixedtables@@9@9 10076990     infback.obj
 0002:00009a10       ?order@?1??inflateBack@@9@9 10076a10     infback.obj
 0002:00009d68       ?lenfix@?1??fixedtables@@9@9 10076d68     inflate.obj
 0002:0000a568       ?distfix@?1??fixedtables@@9@9 10077568     inflate.obj
 0002:0000a5e8       ?order@?1??inflate@@9@9    100775e8     inflate.obj
 0002:0000a8c0       ?lbase@?1??inflate_table@@9@9 100778c0     inftrees.obj
 0002:0000a900       ?lext@?1??inflate_table@@9@9 10077900     inftrees.obj
 0002:0000a940       ?dbase@?1??inflate_table@@9@9 10077940     inftrees.obj
 0002:0000a980       ?dext@?1??inflate_table@@9@9 10077980     inftrees.obj
 0002:0000ad00       _extra_lbits               10077d00     trees.obj
 0002:0000ad74       _bl_order                  10077d74     trees.obj
 0002:0000ad88       _extra_dbits               10077d88     trees.obj
 0002:0000ae00       _extra_blbits              10077e00     trees.obj
 0002:0000ae50       _static_ltree              10077e50     trees.obj
 0002:0000b2d0       _static_dtree              100782d0     trees.obj
 0002:0000b348       _base_length               10078348     trees.obj
 0002:0000b3c0       _base_dist                 100783c0     trees.obj
 0002:0000bef0       ?_RTC_ErrorMessages@@3QBQBDB 10078ef0     msvcrtd:error.obj
 0002:0000bf08       ?_RTC_NoFalsePositives@@3QBHB 10078f08     msvcrtd:error.obj
 0002:0000bf20       ?stack_premsg@@3QBDB       10078f20     msvcrtd:error.obj
 0002:0000bf3c       ?stack_postmsg@@3QBDB      10078f3c     msvcrtd:error.obj
 0002:0000bf50       ?uninit_premsg@@3QBDB      10078f50     msvcrtd:error.obj
 0002:0000bf60       ?uninit_postmsg@@3QBDB     10078f60     msvcrtd:error.obj
 0002:0000c5a8       _GS_ExceptionPointers      100795a8     msvcrtd:gs_report.obj
 0002:0000c5b8       ?_RTC_errlist@@3QBQBDB     100795b8     msvcrtd:userapi.obj
 0002:0000c69c       ?mspdbName@@3QB_WB         1007969c     msvcrtd:pdblkup.obj
 0002:0000c6c0       ?debugCrtFileName@@3QB_WB  100796c0     msvcrtd:pdblkup.obj
 0002:0000c850       ?dllExt@?1??GetPdbDllPathFromFilePath@@YAHPB_WPA_WI@Z@4QB_WB 10079850     msvcrtd:pdblkup.obj
 0002:0000c85c       ?mspdbFilename@?1??GetPdbDllPathFromFilePath@@YAHPB_WPA_WI@Z@4QB_WB 1007985c     msvcrtd:pdblkup.obj
 0002:0000e0b0       __RTC_InitBase.rtc$IMZ     1007b0b0     Avatar.obj
 0002:0000e0b4       __RTC_InitBase.rtc$IMZ     1007b0b4     DownThread.obj
 0002:0000e0b8       __RTC_InitBase.rtc$IMZ     1007b0b8     ExtractFile.obj
 0002:0000e0bc       __RTC_InitBase.rtc$IMZ     1007b0bc     FileList.obj
 0002:0000e0c0       __RTC_InitBase.rtc$IMZ     1007b0c0     FileTag.obj
 0002:0000e0c4       __RTC_InitBase.rtc$IMZ     1007b0c4     GetHttp.obj
 0002:0000e0c8       __RTC_InitBase.rtc$IMZ     1007b0c8     Gif2Spr.obj
 0002:0000e0cc       __RTC_InitBase.rtc$IMZ     1007b0cc     MyMisc.obj
 0002:0000e0d0       __RTC_InitBase.rtc$IMZ     1007b0d0     PictureEx.obj
 0002:0000e0d4       __RTC_InitBase.rtc$IMZ     1007b0d4     ResMan.obj
 0002:0000e0d8       __RTC_InitBase.rtc$IMZ     1007b0d8     dllmain.obj
 0002:0000e0dc       __RTC_InitBase.rtc$IMZ     1007b0dc     Graphic.obj
 0002:0000e0e0       __RTC_InitBase.rtc$IMZ     1007b0e0     GraphMod.obj
 0002:0000e0e4       __RTC_InitBase.rtc$IMZ     1007b0e4     xAniFile.obj
 0002:0000e0e8       __RTC_InitBase.rtc$IMZ     1007b0e8     xAniMan.obj
 0002:0000e0ec       __RTC_InitBase.rtc$IMZ     1007b0ec     xLayer.obj
 0002:0000e0f0       __RTC_InitBase.rtc$IMZ     1007b0f0     xSprite.obj
 0002:0000e0f4       __RTC_InitBase.rtc$IMZ     1007b0f4     NMAvatar.obj
 0002:0000e0f8       __RTC_InitBase.rtc$IMZ     1007b0f8     stdafx.obj
 0002:0000e0fc       __RTC_InitBase.rtc$IMZ     1007b0fc     UnzipFile.obj
 0002:0000e100       __RTC_InitBase.rtc$IMZ     1007b100     ZipException.obj
 0002:0000e104       __RTC_InitBase.rtc$IMZ     1007b104     ZipFile.obj
 0002:0000e108       __RTC_InitBase.rtc$IMZ     1007b108     ZUBaseFile.obj
 0002:0000e10c       __RTC_InitBase.rtc$IMZ     1007b10c     adler32.obj
 0002:0000e110       __RTC_InitBase.rtc$IMZ     1007b110     compress.obj
 0002:0000e114       __RTC_InitBase.rtc$IMZ     1007b114     crc32.obj
 0002:0000e118       __RTC_InitBase.rtc$IMZ     1007b118     deflate.obj
 0002:0000e11c       __RTC_InitBase.rtc$IMZ     1007b11c     example.obj
 0002:0000e120       __RTC_InitBase.rtc$IMZ     1007b120     gzio.obj
 0002:0000e124       __RTC_InitBase.rtc$IMZ     1007b124     infback.obj
 0002:0000e128       __RTC_InitBase.rtc$IMZ     1007b128     inffast.obj
 0002:0000e12c       __RTC_InitBase.rtc$IMZ     1007b12c     inflate.obj
 0002:0000e130       __RTC_InitBase.rtc$IMZ     1007b130     inftrees.obj
 0002:0000e134       __RTC_InitBase.rtc$IMZ     1007b134     trees.obj
 0002:0000e138       __RTC_InitBase.rtc$IMZ     1007b138     uncompr.obj
 0002:0000e13c       __RTC_InitBase.rtc$IMZ     1007b13c     zutil.obj
 0002:0000e140       __RTC_InitBase.rtc$IMZ     1007b140     mfcs140d:nolib.obj
 0002:0000e144       __RTC_InitBase.rtc$IMZ     1007b144     mfcs140d:stdafx.obj
 0002:0000e470       __RTC_Shutdown.rtc$TMZ     1007b470     Avatar.obj
 0002:0000e474       __RTC_Shutdown.rtc$TMZ     1007b474     DownThread.obj
 0002:0000e478       __RTC_Shutdown.rtc$TMZ     1007b478     ExtractFile.obj
 0002:0000e47c       __RTC_Shutdown.rtc$TMZ     1007b47c     FileList.obj
 0002:0000e480       __RTC_Shutdown.rtc$TMZ     1007b480     FileTag.obj
 0002:0000e484       __RTC_Shutdown.rtc$TMZ     1007b484     GetHttp.obj
 0002:0000e488       __RTC_Shutdown.rtc$TMZ     1007b488     Gif2Spr.obj
 0002:0000e48c       __RTC_Shutdown.rtc$TMZ     1007b48c     MyMisc.obj
 0002:0000e490       __RTC_Shutdown.rtc$TMZ     1007b490     PictureEx.obj
 0002:0000e494       __RTC_Shutdown.rtc$TMZ     1007b494     ResMan.obj
 0002:0000e498       __RTC_Shutdown.rtc$TMZ     1007b498     dllmain.obj
 0002:0000e49c       __RTC_Shutdown.rtc$TMZ     1007b49c     Graphic.obj
 0002:0000e4a0       __RTC_Shutdown.rtc$TMZ     1007b4a0     GraphMod.obj
 0002:0000e4a4       __RTC_Shutdown.rtc$TMZ     1007b4a4     xAniFile.obj
 0002:0000e4a8       __RTC_Shutdown.rtc$TMZ     1007b4a8     xAniMan.obj
 0002:0000e4ac       __RTC_Shutdown.rtc$TMZ     1007b4ac     xLayer.obj
 0002:0000e4b0       __RTC_Shutdown.rtc$TMZ     1007b4b0     xSprite.obj
 0002:0000e4b4       __RTC_Shutdown.rtc$TMZ     1007b4b4     NMAvatar.obj
 0002:0000e4b8       __RTC_Shutdown.rtc$TMZ     1007b4b8     stdafx.obj
 0002:0000e4bc       __RTC_Shutdown.rtc$TMZ     1007b4bc     UnzipFile.obj
 0002:0000e4c0       __RTC_Shutdown.rtc$TMZ     1007b4c0     ZipException.obj
 0002:0000e4c4       __RTC_Shutdown.rtc$TMZ     1007b4c4     ZipFile.obj
 0002:0000e4c8       __RTC_Shutdown.rtc$TMZ     1007b4c8     ZUBaseFile.obj
 0002:0000e4cc       __RTC_Shutdown.rtc$TMZ     1007b4cc     adler32.obj
 0002:0000e4d0       __RTC_Shutdown.rtc$TMZ     1007b4d0     compress.obj
 0002:0000e4d4       __RTC_Shutdown.rtc$TMZ     1007b4d4     crc32.obj
 0002:0000e4d8       __RTC_Shutdown.rtc$TMZ     1007b4d8     deflate.obj
 0002:0000e4dc       __RTC_Shutdown.rtc$TMZ     1007b4dc     example.obj
 0002:0000e4e0       __RTC_Shutdown.rtc$TMZ     1007b4e0     gzio.obj
 0002:0000e4e4       __RTC_Shutdown.rtc$TMZ     1007b4e4     infback.obj
 0002:0000e4e8       __RTC_Shutdown.rtc$TMZ     1007b4e8     inffast.obj
 0002:0000e4ec       __RTC_Shutdown.rtc$TMZ     1007b4ec     inflate.obj
 0002:0000e4f0       __RTC_Shutdown.rtc$TMZ     1007b4f0     inftrees.obj
 0002:0000e4f4       __RTC_Shutdown.rtc$TMZ     1007b4f4     trees.obj
 0002:0000e4f8       __RTC_Shutdown.rtc$TMZ     1007b4f8     uncompr.obj
 0002:0000e4fc       __RTC_Shutdown.rtc$TMZ     1007b4fc     zutil.obj
 0002:0000e500       __RTC_Shutdown.rtc$TMZ     1007b500     mfcs140d:nolib.obj
 0002:0000e504       __RTC_Shutdown.rtc$TMZ     1007b504     mfcs140d:stdafx.obj
 0002:0000e730       __ehfuncinfo$??1CAvatar@AVATAR@NMBASE@@UAE@XZ 1007b730     Avatar.obj
 0002:0000e758       __unwindtable$?GetAvatarStatusString@CAvatar@AVATAR@NMBASE@@KAPADXZ 1007b758     Avatar.obj
 0002:0000e768       __ehfuncinfo$?GetAvatarStatusString@CAvatar@AVATAR@NMBASE@@KAPADXZ 1007b768     Avatar.obj
 0002:0000e794       __unwindtable$?DrawAvatarToDC_SmoothZoom@CAvatar@AVATAR@NMBASE@@IAEHHHIPAUHDC__@@HHKH@Z 1007b794     Avatar.obj
 0002:0000e7a4       __ehfuncinfo$?DrawAvatarToDC_SmoothZoom@CAvatar@AVATAR@NMBASE@@IAEHHHIPAUHDC__@@HHKH@Z 1007b7a4     Avatar.obj
 0002:0000e7d0       __unwindtable$?CreateAvatarResource@CAvatar@AVATAR@NMBASE@@IAEIXZ 1007b7d0     Avatar.obj
 0002:0000e7d8       __ehfuncinfo$?CreateAvatarResource@CAvatar@AVATAR@NMBASE@@IAEIXZ 1007b7d8     Avatar.obj
 0002:0000e800       __ehfuncinfo$??_ECAvatar@AVATAR@NMBASE@@UAEPAXI@Z 1007b800     Avatar.obj
 0002:0000e828       __ehfuncinfo$??1CAvatarResource@AVATAR@NMBASE@@UAE@XZ 1007b828     Avatar.obj
 0002:0000e850       __ehfuncinfo$??1CAutoDestroy@AVATAR@NMBASE@@QAE@XZ 1007b850     Avatar.obj
 0002:0000e878       __unwindtable$?OpenLoadingSprite@AVATAR@NMBASE@@YAHPAVxSprite@@@Z 1007b878     Avatar.obj
 0002:0000e880       __ehfuncinfo$?OpenLoadingSprite@AVATAR@NMBASE@@YAHPAVxSprite@@@Z 1007b880     Avatar.obj
 0002:0000e8a8       __unwindtable$?DrawAvatarToPage@AVATAR@NMBASE@@YAHPAVCPage@@HHPAVCAvatarResource@12@HHH@Z 1007b8a8     Avatar.obj
 0002:0000e8b0       __ehfuncinfo$?DrawAvatarToPage@AVATAR@NMBASE@@YAHPAVCPage@@HHPAVCAvatarResource@12@HHH@Z 1007b8b0     Avatar.obj
 0002:0000e8d8       __unwindtable$?CreateAvatarResource@AVATAR@NMBASE@@YAIXZ 1007b8d8     Avatar.obj
 0002:0000e8e0       __ehfuncinfo$?CreateAvatarResource@AVATAR@NMBASE@@YAIXZ 1007b8e0     Avatar.obj
 0002:0000e908       __unwindtable$?TraceV@CTrace@ATL@@SAXPBDHII0PAD@Z 1007b908     DownThread.obj
 0002:0000e918       __ehfuncinfo$?TraceV@CTrace@ATL@@SAXPBDHII0PAD@Z 1007b918     DownThread.obj
 0002:0000e944       __unwindtable$??RCTraceFileAndLineInfo@ATL@@QBAXHIPBDZZ 1007b944     DownThread.obj
 0002:0000e94c       __ehfuncinfo$??RCTraceFileAndLineInfo@ATL@@QBAXHIPBDZZ 1007b94c     DownThread.obj
 0002:0000e974       __unwindtable$??0CDownThread@@QAE@XZ 1007b974     DownThread.obj
 0002:0000e98c       __ehfuncinfo$??0CDownThread@@QAE@XZ 1007b98c     DownThread.obj
 0002:0000e9b8       __ehfuncinfo$??1CDownThread@@QAE@XZ 1007b9b8     DownThread.obj
 0002:0000e9e0       __unwindtable$?RecreateThread@CDownThread@@QAEHXZ 1007b9e0     DownThread.obj
 0002:0000e9e8       __ehfuncinfo$?RecreateThread@CDownThread@@QAEHXZ 1007b9e8     DownThread.obj
 0002:0000ea10       __ehfuncinfo$?DoThreadLoop@CDownThread@@QAEIXZ 1007ba10     DownThread.obj
 0002:0000ea34       __unwindtable$?DoThreadLoop@CDownThread@@QAEIXZ 1007ba34     DownThread.obj
 0002:0000eaac       __unwindtable$??HATL@@YA?AV?$CStringT@DV?$StrTraitMFC_DLL@DV?$ChTraitsCRT@D@ATL@@@@@0@ABV10@PBD@Z 1007baac     ExtractFile.obj
 0002:0000eab4       __ehfuncinfo$??HATL@@YA?AV?$CStringT@DV?$StrTraitMFC_DLL@DV?$ChTraitsCRT@D@ATL@@@@@0@ABV10@PBD@Z 1007bab4     ExtractFile.obj
 0002:0000eadc       __catchsym$?GetZipFileSize@@YAHPBDPAI1@Z$3 1007badc     ExtractFile.obj
 0002:0000eaec       __tryblocktable$?GetZipFileSize@@YAHPBDPAI1@Z 1007baec     ExtractFile.obj
 0002:0000eb00       __unwindtable$?GetZipFileSize@@YAHPBDPAI1@Z 1007bb00     ExtractFile.obj
 0002:0000eb18       __ehfuncinfo$?GetZipFileSize@@YAHPBDPAI1@Z 1007bb18     ExtractFile.obj
 0002:0000eb48       __catchsym$?UnzipFile@@YAHPAUHWND__@@PBD1@Z$11 1007bb48     ExtractFile.obj
 0002:0000eb58       __tryblocktable$?UnzipFile@@YAHPAUHWND__@@PBD1@Z 1007bb58     ExtractFile.obj
 0002:0000eb6c       __ehfuncinfo$?UnzipFile@@YAHPAUHWND__@@PBD1@Z 1007bb6c     ExtractFile.obj
 0002:0000eb90       __unwindtable$?UnzipFile@@YAHPAUHWND__@@PBD1@Z 1007bb90     ExtractFile.obj
 0002:0000ebf8       __unwindtable$?GetMapKeyName@@YA?AV?$CStringT@DV?$StrTraitMFC_DLL@DV?$ChTraitsCRT@D@ATL@@@@@ATL@@HHH@Z 1007bbf8     FileList.obj
 0002:0000ec00       __ehfuncinfo$?GetMapKeyName@@YA?AV?$CStringT@DV?$StrTraitMFC_DLL@DV?$ChTraitsCRT@D@ATL@@@@@ATL@@HHH@Z 1007bc00     FileList.obj
 0002:0000ec28       __unwindtable$?GetFullpathOfSprFolder@@YA?AV?$CStringT@DV?$StrTraitMFC_DLL@DV?$ChTraitsCRT@D@ATL@@@@@ATL@@PBDHH@Z 1007bc28     FileList.obj
 0002:0000ec30       __ehfuncinfo$?GetFullpathOfSprFolder@@YA?AV?$CStringT@DV?$StrTraitMFC_DLL@DV?$ChTraitsCRT@D@ATL@@@@@ATL@@PBDHH@Z 1007bc30     FileList.obj
 0002:0000ec58       __unwindtable$?GetFullpathOfSprFile@@YA?AV?$CStringT@DV?$StrTraitMFC_DLL@DV?$ChTraitsCRT@D@ATL@@@@@ATL@@PBDHHH@Z 1007bc58     FileList.obj
 0002:0000ec60       __ehfuncinfo$?GetFullpathOfSprFile@@YA?AV?$CStringT@DV?$StrTraitMFC_DLL@DV?$ChTraitsCRT@D@ATL@@@@@ATL@@PBDHHH@Z 1007bc60     FileList.obj
 0002:0000ec88       __unwindtable$?GetFullpathOfDownFile@@YA?AV?$CStringT@DV?$StrTraitMFC_DLL@DV?$ChTraitsCRT@D@ATL@@@@@ATL@@PBDHH@Z 1007bc88     FileList.obj
 0002:0000ec90       __ehfuncinfo$?GetFullpathOfDownFile@@YA?AV?$CStringT@DV?$StrTraitMFC_DLL@DV?$ChTraitsCRT@D@ATL@@@@@ATL@@PBDHH@Z 1007bc90     FileList.obj
 0002:0000ecb8       __unwindtable$??0CSprFile@@QAE@XZ 1007bcb8     FileList.obj
 0002:0000ecc0       __ehfuncinfo$??0CSprFile@@QAE@XZ 1007bcc0     FileList.obj
 0002:0000ece8       __ehfuncinfo$??1CSprFile@@QAE@XZ 1007bce8     FileList.obj
 0002:0000ed10       __unwindtable$??0?$CMap@V?$CStringT@DV?$StrTraitMFC_DLL@DV?$ChTraitsCRT@D@ATL@@@@@ATL@@PBDPAVCFileInfo@@AAPAV3@@@QAE@H@Z 1007bd10     FileList.obj
 0002:0000ed18       __ehfuncinfo$??0?$CMap@V?$CStringT@DV?$StrTraitMFC_DLL@DV?$ChTraitsCRT@D@ATL@@@@@ATL@@PBDPAVCFileInfo@@AAPAV3@@@QAE@H@Z 1007bd18     FileList.obj
 0002:0000ed40       __ehfuncinfo$??1?$CMap@V?$CStringT@DV?$StrTraitMFC_DLL@DV?$ChTraitsCRT@D@ATL@@@@@ATL@@PBDPAVCFileInfo@@AAPAV3@@@UAE@XZ 1007bd40     FileList.obj
 0002:0000ed68       __unwindtable$?Serialize@?$CMap@V?$CStringT@DV?$StrTraitMFC_DLL@DV?$ChTraitsCRT@D@ATL@@@@@ATL@@PBDPAVCFileInfo@@AAPAV3@@@UAEXAAVCArchive@@@Z 1007bd68     FileList.obj
 0002:0000ed70       __ehfuncinfo$?Serialize@?$CMap@V?$CStringT@DV?$StrTraitMFC_DLL@DV?$ChTraitsCRT@D@ATL@@@@@ATL@@PBDPAVCFileInfo@@AAPAV3@@@UAEXAAVCArchive@@@Z 1007bd70     FileList.obj
 0002:0000ed98       __unwindtable$?Dump@?$CMap@V?$CStringT@DV?$StrTraitMFC_DLL@DV?$ChTraitsCRT@D@ATL@@@@@ATL@@PBDPAVCFileInfo@@AAPAV3@@@UBEXAAVCDumpContext@@@Z 1007bd98     FileList.obj
 0002:0000eda0       __ehfuncinfo$?Dump@?$CMap@V?$CStringT@DV?$StrTraitMFC_DLL@DV?$ChTraitsCRT@D@ATL@@@@@ATL@@PBDPAVCFileInfo@@AAPAV3@@@UBEXAAVCDumpContext@@@Z 1007bda0     FileList.obj
 0002:0000edc8       __unwindtable$??0CFileList@@QAE@XZ 1007bdc8     FileList.obj
 0002:0000edd8       __ehfuncinfo$??0CFileList@@QAE@XZ 1007bdd8     FileList.obj
 0002:0000ee04       __ehfuncinfo$??1CFileList@@QAE@XZ 1007be04     FileList.obj
 0002:0000ee2c       __unwindtable$?Destroy@CFileList@@QAEXXZ 1007be2c     FileList.obj
 0002:0000ee34       __ehfuncinfo$?Destroy@CFileList@@QAEXXZ 1007be34     FileList.obj
 0002:0000ee5c       __unwindtable$?Add@CFileList@@QAEPAVCFileInfo@@HHHHPAVCSprFile@@@Z 1007be5c     FileList.obj
 0002:0000ee6c       __ehfuncinfo$?Add@CFileList@@QAEPAVCFileInfo@@HHHHPAVCSprFile@@@Z 1007be6c     FileList.obj
 0002:0000ee98       __unwindtable$?Find@CFileList@@QAEPAVCFileInfo@@HHH@Z 1007be98     FileList.obj
 0002:0000eea0       __ehfuncinfo$?Find@CFileList@@QAEPAVCFileInfo@@HHH@Z 1007bea0     FileList.obj
 0002:0000eec8       __unwindtable$?Delete@CFileList@@QAEHHHH@Z 1007bec8     FileList.obj
 0002:0000eed8       __ehfuncinfo$?Delete@CFileList@@QAEHHHH@Z 1007bed8     FileList.obj
 0002:0000ef04       __unwindtable$?GetFirst@CFileList@@QAEPAVCFileInfo@@XZ 1007bf04     FileList.obj
 0002:0000ef0c       __ehfuncinfo$?GetFirst@CFileList@@QAEPAVCFileInfo@@XZ 1007bf0c     FileList.obj
 0002:0000ef34       __unwindtable$?WriteTag@CFileTag@@QAEHPBDU_SYSTEMTIME@@@Z 1007bf34     FileTag.obj
 0002:0000ef3c       __ehfuncinfo$?WriteTag@CFileTag@@QAEHPBDU_SYSTEMTIME@@@Z 1007bf3c     FileTag.obj
 0002:0000ef64       __unwindtable$??HATL@@YA?AV?$CStringT@DV?$StrTraitMFC_DLL@DV?$ChTraitsCRT@D@ATL@@@@@0@PBDABV10@@Z 1007bf64     GetHttp.obj
 0002:0000ef6c       __ehfuncinfo$??HATL@@YA?AV?$CStringT@DV?$StrTraitMFC_DLL@DV?$ChTraitsCRT@D@ATL@@@@@0@PBDABV10@@Z 1007bf6c     GetHttp.obj
 0002:0000ef94       __ehfuncinfo$??1AFX_EXCEPTION_LINK@@QAE@XZ 1007bf94     GetHttp.obj
 0002:0000efbc       __unwindtable$?SetAccessRight@CGetHttp@@QAEHV?$CStringT@DV?$StrTraitMFC_DLL@DV?$ChTraitsCRT@D@ATL@@@@@ATL@@0@Z 1007bfbc     GetHttp.obj
 0002:0000efcc       __ehfuncinfo$?SetAccessRight@CGetHttp@@QAEHV?$CStringT@DV?$StrTraitMFC_DLL@DV?$ChTraitsCRT@D@ATL@@@@@ATL@@0@Z 1007bfcc     GetHttp.obj
 0002:0000eff8       __unwindtable$?GetFileSize@CGetHttp@@QAEHV?$CStringT@DV?$StrTraitMFC_DLL@DV?$ChTraitsCRT@D@ATL@@@@@ATL@@PAH@Z 1007bff8     GetHttp.obj
 0002:0000f008       __ehfuncinfo$?GetFileSize@CGetHttp@@QAEHV?$CStringT@DV?$StrTraitMFC_DLL@DV?$ChTraitsCRT@D@ATL@@@@@ATL@@PAH@Z 1007c008     GetHttp.obj
 0002:0000f034       __unwindtable$?GetFileLastModifiedDate@CGetHttp@@QAEHV?$CStringT@DV?$StrTraitMFC_DLL@DV?$ChTraitsCRT@D@ATL@@@@@ATL@@PAU_SYSTEMTIME@@@Z 1007c034     GetHttp.obj
 0002:0000f044       __ehfuncinfo$?GetFileLastModifiedDate@CGetHttp@@QAEHV?$CStringT@DV?$StrTraitMFC_DLL@DV?$ChTraitsCRT@D@ATL@@@@@ATL@@PAU_SYSTEMTIME@@@Z 1007c044     GetHttp.obj
 0002:0000f070       __unwindtable$?GetFileStatusCode@CGetHttp@@QAEHV?$CStringT@DV?$StrTraitMFC_DLL@DV?$ChTraitsCRT@D@ATL@@@@@ATL@@PAH@Z 1007c070     GetHttp.obj
 0002:0000f080       __ehfuncinfo$?GetFileStatusCode@CGetHttp@@QAEHV?$CStringT@DV?$StrTraitMFC_DLL@DV?$ChTraitsCRT@D@ATL@@@@@ATL@@PAH@Z 1007c080     GetHttp.obj
 0002:0000f0ac       __catchsym$?GetFile@CGetHttp@@QAEHPAUHWND__@@V?$CStringT@DV?$StrTraitMFC_DLL@DV?$ChTraitsCRT@D@ATL@@@@@ATL@@1@Z$11 1007c0ac     GetHttp.obj
 0002:0000f0bc       __tryblocktable$?GetFile@CGetHttp@@QAEHPAUHWND__@@V?$CStringT@DV?$StrTraitMFC_DLL@DV?$ChTraitsCRT@D@ATL@@@@@ATL@@1@Z 1007c0bc     GetHttp.obj
 0002:0000f0d0       __ehfuncinfo$?GetFile@CGetHttp@@QAEHPAUHWND__@@V?$CStringT@DV?$StrTraitMFC_DLL@DV?$ChTraitsCRT@D@ATL@@@@@ATL@@1@Z 1007c0d0     GetHttp.obj
 0002:0000f0f4       __unwindtable$?GetFile@CGetHttp@@QAEHPAUHWND__@@V?$CStringT@DV?$StrTraitMFC_DLL@DV?$ChTraitsCRT@D@ATL@@@@@ATL@@1@Z 1007c0f4     GetHttp.obj
 0002:0000f154       __unwindtable$?GetFileToMemory@CGetHttp@@QAEHPAUHWND__@@V?$CStringT@DV?$StrTraitMFC_DLL@DV?$ChTraitsCRT@D@ATL@@@@@ATL@@PAPAXPAK@Z 1007c154     GetHttp.obj
 0002:0000f174       __ehfuncinfo$?GetFileToMemory@CGetHttp@@QAEHPAUHWND__@@V?$CStringT@DV?$StrTraitMFC_DLL@DV?$ChTraitsCRT@D@ATL@@@@@ATL@@PAPAXPAK@Z 1007c174     GetHttp.obj
 0002:0000f1a0       __ehfuncinfo$??0CGetHttp@@QAE@XZ 1007c1a0     GetHttp.obj
 0002:0000f1c4       __unwindtable$??0CGetHttp@@QAE@XZ 1007c1c4     GetHttp.obj
 0002:0000f210       __ehfuncinfo$??1CGetHttp@@UAE@XZ 1007c210     GetHttp.obj
 0002:0000f238       __unwindtable$?ConvertGif2Spr@@YAHPADPAVxSprite@@H@Z 1007c238     Gif2Spr.obj
 0002:0000f240       __ehfuncinfo$?ConvertGif2Spr@@YAHPADPAVxSprite@@H@Z 1007c240     Gif2Spr.obj
 0002:0000f268       __unwindtable$?ConvertGif2SprFromMemory@@YAHPAXKPAVxSprite@@H@Z 1007c268     Gif2Spr.obj
 0002:0000f270       __ehfuncinfo$?ConvertGif2SprFromMemory@@YAHPAXKPAVxSprite@@H@Z 1007c270     Gif2Spr.obj
 0002:0000f298       __unwindtable$?ConvertGif2SprFile@@YAHPAD0H@Z 1007c298     Gif2Spr.obj
 0002:0000f2a0       __ehfuncinfo$?ConvertGif2SprFile@@YAHPAD0H@Z 1007c2a0     Gif2Spr.obj
 0002:0000f2c8       __unwindtable$?_Gif2Spr@@YAHAAVCPictureEx@@PAVxSprite@@H@Z 1007c2c8     Gif2Spr.obj
 0002:0000f2e0       __ehfuncinfo$?_Gif2Spr@@YAHAAVCPictureEx@@PAVxSprite@@H@Z 1007c2e0     Gif2Spr.obj
 0002:0000f30c       __unwindtable$??HATL@@YA?AV?$CStringT@DV?$StrTraitMFC_DLL@DV?$ChTraitsCRT@D@ATL@@@@@0@ABV10@0@Z 1007c30c     MyMisc.obj
 0002:0000f314       __ehfuncinfo$??HATL@@YA?AV?$CStringT@DV?$StrTraitMFC_DLL@DV?$ChTraitsCRT@D@ATL@@@@@0@ABV10@0@Z 1007c314     MyMisc.obj
 0002:0000f33c       __unwindtable$?CreateMultipleDirectory@@YAHV?$CStringT@DV?$StrTraitMFC_DLL@DV?$ChTraitsCRT@D@ATL@@@@@ATL@@@Z 1007c33c     MyMisc.obj
 0002:0000f354       __ehfuncinfo$?CreateMultipleDirectory@@YAHV?$CStringT@DV?$StrTraitMFC_DLL@DV?$ChTraitsCRT@D@ATL@@@@@ATL@@@Z 1007c354     MyMisc.obj
 0002:0000f380       __ehfuncinfo$?RemoveDirectoryAll@@YAJV?$CStringT@DV?$StrTraitMFC_DLL@DV?$ChTraitsCRT@D@ATL@@@@@ATL@@H@Z 1007c380     MyMisc.obj
 0002:0000f3a4       __unwindtable$?RemoveDirectoryAll@@YAJV?$CStringT@DV?$StrTraitMFC_DLL@DV?$ChTraitsCRT@D@ATL@@@@@ATL@@H@Z 1007c3a4     MyMisc.obj
 0002:0000f400       __unwindtable$??RCTraceFileAndLineInfo@ATL@@QBAXPBDZZ 1007c400     PictureEx.obj
 0002:0000f408       __ehfuncinfo$??RCTraceFileAndLineInfo@ATL@@QBAXPBDZZ 1007c408     PictureEx.obj
 0002:0000f430       __ehfuncinfo$?_Orphan_all@_Container_base12@std@@QAEXXZ 1007c430     PictureEx.obj
 0002:0000f458       __ehfuncinfo$??4_Iterator_base12@std@@QAEAAU01@ABU01@@Z 1007c458     PictureEx.obj
 0002:0000f480       __ehfuncinfo$??1_Iterator_base12@std@@QAE@XZ 1007c480     PictureEx.obj
 0002:0000f4a8       __ehfuncinfo$?_Adopt@_Iterator_base12@std@@QAEXPBU_Container_base12@2@@Z 1007c4a8     PictureEx.obj
 0002:0000f4d0       __ehfuncinfo$??1CPictureEx@@UAE@XZ 1007c4d0     PictureEx.obj
 0002:0000f4f8       __unwindtable$?UnLoad@CPictureEx@@QAEXXZ 1007c4f8     PictureEx.obj
 0002:0000f508       __ehfuncinfo$?UnLoad@CPictureEx@@QAEXXZ 1007c508     PictureEx.obj
 0002:0000f534       __catchsym$?Load@CPictureEx@@QAEHPBD@Z$4 1007c534     PictureEx.obj
 0002:0000f544       __tryblocktable$?Load@CPictureEx@@QAEHPBD@Z 1007c544     PictureEx.obj
 0002:0000f558       __unwindtable$?Load@CPictureEx@@QAEHPBD@Z 1007c558     PictureEx.obj
 0002:0000f578       __ehfuncinfo$?Load@CPictureEx@@QAEHPBD@Z 1007c578     PictureEx.obj
 0002:0000f5a8       __ehfuncinfo$??1?$_Vector_alloc@U?$_Vec_base_types@UTFrame@CPictureEx@@V?$allocator@UTFrame@CPictureEx@@@std@@@std@@@std@@QAE@XZ 1007c5a8     PictureEx.obj
 0002:0000f5d0       __ehfuncinfo$??0?$vector@UTFrame@CPictureEx@@V?$allocator@UTFrame@CPictureEx@@@std@@@std@@QAE@XZ 1007c5d0     PictureEx.obj
 0002:0000f5f8       __ehfuncinfo$??1?$vector@UTFrame@CPictureEx@@V?$allocator@UTFrame@CPictureEx@@@std@@@std@@QAE@XZ 1007c5f8     PictureEx.obj
 0002:0000f620       __ehfuncinfo$?clear@?$vector@UTFrame@CPictureEx@@V?$allocator@UTFrame@CPictureEx@@@std@@@std@@QAEXXZ 1007c620     PictureEx.obj
 0002:0000f648       __ehfuncinfo$?begin@?$vector@UTFrame@CPictureEx@@V?$allocator@UTFrame@CPictureEx@@@std@@@std@@QAE?AV?$_Vector_iterator@V?$_Vector_val@U?$_Simple_types@UTFrame@CPictureEx@@@std@@@std@@@2@XZ 1007c648     PictureEx.obj
 0002:0000f670       __ehfuncinfo$?end@?$vector@UTFrame@CPictureEx@@V?$allocator@UTFrame@CPictureEx@@@std@@@std@@QAE?AV?$_Vector_iterator@V?$_Vector_val@U?$_Simple_types@UTFrame@CPictureEx@@@std@@@std@@@2@XZ 1007c670     PictureEx.obj
 0002:0000f698       __unwindtable$?_Orphan_range@?$vector@UTFrame@CPictureEx@@V?$allocator@UTFrame@CPictureEx@@@std@@@std@@ABEXPAUTFrame@CPictureEx@@0@Z 1007c698     PictureEx.obj
 0002:0000f6a0       __ehfuncinfo$?_Orphan_range@?$vector@UTFrame@CPictureEx@@V?$allocator@UTFrame@CPictureEx@@@std@@@std@@ABEXPAUTFrame@CPictureEx@@0@Z 1007c6a0     PictureEx.obj
 0002:0000f6c8       __unwindtable$??E?$_Vector_iterator@V?$_Vector_val@U?$_Simple_types@UTFrame@CPictureEx@@@std@@@std@@@std@@QAE?AV01@H@Z 1007c6c8     PictureEx.obj
 0002:0000f6d0       __ehfuncinfo$??E?$_Vector_iterator@V?$_Vector_val@U?$_Simple_types@UTFrame@CPictureEx@@@std@@@std@@@std@@QAE?AV01@H@Z 1007c6d0     PictureEx.obj
 0002:0000f6f8       __catchsym$??$_Emplace_reallocate@ABUTFrame@CPictureEx@@@?$vector@UTFrame@CPictureEx@@V?$allocator@UTFrame@CPictureEx@@@std@@@std@@QAEPAUTFrame@CPictureEx@@QAU23@ABU23@@Z$2 1007c6f8     PictureEx.obj
 0002:0000f708       __unwindtable$??$_Emplace_reallocate@ABUTFrame@CPictureEx@@@?$vector@UTFrame@CPictureEx@@V?$allocator@UTFrame@CPictureEx@@@std@@@std@@QAEPAUTFrame@CPictureEx@@QAU23@ABU23@@Z 1007c708     PictureEx.obj
 0002:0000f718       __tryblocktable$??$_Emplace_reallocate@ABUTFrame@CPictureEx@@@?$vector@UTFrame@CPictureEx@@V?$allocator@UTFrame@CPictureEx@@@std@@@std@@QAEPAUTFrame@CPictureEx@@QAU23@ABU23@@Z 1007c718     PictureEx.obj
 0002:0000f72c       __ehfuncinfo$??$_Emplace_reallocate@ABUTFrame@CPictureEx@@@?$vector@UTFrame@CPictureEx@@V?$allocator@UTFrame@CPictureEx@@@std@@@std@@QAEPAUTFrame@CPictureEx@@QAU23@ABU23@@Z 1007c72c     PictureEx.obj
 0002:0000f758       __unwindtable$??0?$CMap@V?$CStringT@DV?$StrTraitMFC_DLL@DV?$ChTraitsCRT@D@ATL@@@@@ATL@@PBDPAVCSprFile@@AAPAV3@@@QAE@H@Z 1007c758     ResMan.obj
 0002:0000f760       __ehfuncinfo$??0?$CMap@V?$CStringT@DV?$StrTraitMFC_DLL@DV?$ChTraitsCRT@D@ATL@@@@@ATL@@PBDPAVCSprFile@@AAPAV3@@@QAE@H@Z 1007c760     ResMan.obj
 0002:0000f788       __ehfuncinfo$??1?$CMap@V?$CStringT@DV?$StrTraitMFC_DLL@DV?$ChTraitsCRT@D@ATL@@@@@ATL@@PBDPAVCSprFile@@AAPAV3@@@UAE@XZ 1007c788     ResMan.obj
 0002:0000f7b0       __unwindtable$?Serialize@?$CMap@V?$CStringT@DV?$StrTraitMFC_DLL@DV?$ChTraitsCRT@D@ATL@@@@@ATL@@PBDPAVCSprFile@@AAPAV3@@@UAEXAAVCArchive@@@Z 1007c7b0     ResMan.obj
 0002:0000f7b8       __ehfuncinfo$?Serialize@?$CMap@V?$CStringT@DV?$StrTraitMFC_DLL@DV?$ChTraitsCRT@D@ATL@@@@@ATL@@PBDPAVCSprFile@@AAPAV3@@@UAEXAAVCArchive@@@Z 1007c7b8     ResMan.obj
 0002:0000f7e0       __unwindtable$?Dump@?$CMap@V?$CStringT@DV?$StrTraitMFC_DLL@DV?$ChTraitsCRT@D@ATL@@@@@ATL@@PBDPAVCSprFile@@AAPAV3@@@UBEXAAVCDumpContext@@@Z 1007c7e0     ResMan.obj
 0002:0000f7e8       __ehfuncinfo$?Dump@?$CMap@V?$CStringT@DV?$StrTraitMFC_DLL@DV?$ChTraitsCRT@D@ATL@@@@@ATL@@PBDPAVCSprFile@@AAPAV3@@@UBEXAAVCDumpContext@@@Z 1007c7e8     ResMan.obj
 0002:0000f810       __unwindtable$??0CResMan@@QAE@XZ 1007c810     ResMan.obj
 0002:0000f830       __ehfuncinfo$??0CResMan@@QAE@XZ 1007c830     ResMan.obj
 0002:0000f85c       __ehfuncinfo$??1CResMan@@UAE@XZ 1007c85c     ResMan.obj
 0002:0000f884       __unwindtable$?Destroy@CResMan@@QAEXXZ 1007c884     ResMan.obj
 0002:0000f88c       __ehfuncinfo$?Destroy@CResMan@@QAEXXZ 1007c88c     ResMan.obj
 0002:0000f8b4       __ehfuncinfo$?OpenSpr@CResMan@@QAEPAVCSprFile@@HHH@Z 1007c8b4     ResMan.obj
 0002:0000f8d8       __unwindtable$?OpenSpr@CResMan@@QAEPAVCSprFile@@HHH@Z 1007c8d8     ResMan.obj
 0002:0000f908       __unwindtable$?CloseSpr@CResMan@@QAEHHHH@Z 1007c908     ResMan.obj
 0002:0000f910       __ehfuncinfo$?CloseSpr@CResMan@@QAEHHHH@Z 1007c910     ResMan.obj
 0002:0000f938       __ehfuncinfo$??1?$CSimpleArray@GV?$CSimpleArrayEqualHelper@G@ATL@@@ATL@@QAE@XZ 1007c938     dllmain.obj
 0002:0000f960       __unwindtable$??0_ATL_WIN_MODULE70@ATL@@QAE@XZ 1007c960     dllmain.obj
 0002:0000f968       __ehfuncinfo$??0_ATL_WIN_MODULE70@ATL@@QAE@XZ 1007c968     dllmain.obj
 0002:0000f990       __ehfuncinfo$??1CAtlComModule@ATL@@QAE@XZ 1007c990     dllmain.obj
 0002:0000f9b8       __ehfuncinfo$??1CAtlWinModule@ATL@@QAE@XZ 1007c9b8     dllmain.obj
 0002:0000f9e0       __ehfuncinfo$??1CPage@@QAE@XZ 1007c9e0     Graphic.obj
 0002:0000fa08       __ehfuncinfo$??1xAniFile@@QAE@XZ 1007ca08     xAniFile.obj
 0002:0000fa30       __unwindtable$?Load@xAniFile@@QAEHPAU_iobuf@@@Z 1007ca30     xAniFile.obj
 0002:0000fa50       __ehfuncinfo$?Load@xAniFile@@QAEHPAU_iobuf@@@Z 1007ca50     xAniFile.obj
 0002:0000fa7c       __unwindtable$?AddCharacter@xAniFile@@QAEXPAD@Z 1007ca7c     xAniFile.obj
 0002:0000fa84       __ehfuncinfo$?AddCharacter@xAniFile@@QAEXPAD@Z 1007ca84     xAniFile.obj
 0002:0000faac       __ehfuncinfo$??1Character@@QAE@XZ 1007caac     xAniFile.obj
 0002:0000fad4       __unwindtable$?AddGroup@Character@@QAEXPAD@Z 1007cad4     xAniFile.obj
 0002:0000fadc       __ehfuncinfo$?AddGroup@Character@@QAEXPAD@Z 1007cadc     xAniFile.obj
 0002:0000fb04       __ehfuncinfo$??1Group@@QAE@XZ 1007cb04     xAniFile.obj
 0002:0000fb2c       __unwindtable$?AddAction@Group@@QAEXPAD@Z 1007cb2c     xAniFile.obj
 0002:0000fb34       __ehfuncinfo$?AddAction@Group@@QAEXPAD@Z 1007cb34     xAniFile.obj
 0002:0000fb5c       __ehfuncinfo$??1Action@@QAE@XZ 1007cb5c     xAniFile.obj
 0002:0000fb84       __unwindtable$?AddFrame@Action@@QAEXH@Z 1007cb84     xAniFile.obj
 0002:0000fb8c       __ehfuncinfo$?AddFrame@Action@@QAEXH@Z 1007cb8c     xAniFile.obj
 0002:0000fbb4       __ehfuncinfo$??1Frame@@QAE@XZ 1007cbb4     xAniFile.obj
 0002:0000fbdc       __unwindtable$?AddCell@Frame@@QAEXHHHH@Z 1007cbdc     xAniFile.obj
 0002:0000fbe4       __ehfuncinfo$?AddCell@Frame@@QAEXHHHH@Z 1007cbe4     xAniFile.obj
 0002:0000fc0c       __unwindtable$?SetObject@CLayerPlane@@QAEXHHPAUSPRITE30@@KHG@Z 1007cc0c     xLayer.obj
 0002:0000fc14       __ehfuncinfo$?SetObject@CLayerPlane@@QAEXHHPAUSPRITE30@@KHG@Z 1007cc14     xLayer.obj
 0002:0000fc3c       __ehfuncinfo$??1xLayer@@QAE@XZ 1007cc3c     xLayer.obj
 0002:0000fc64       __unwindtable$?Init@xLayer@@QAEHPAVCPage@@HH@Z 1007cc64     xLayer.obj
 0002:0000fc6c       __ehfuncinfo$?Init@xLayer@@QAEHPAVCPage@@HH@Z 1007cc6c     xLayer.obj
 0002:0000fc94       __ehfuncinfo$??1xSprite@@QAE@XZ 1007cc94     xSprite.obj
 0002:0000fcbc       __ehfuncinfo$??1unz_s@@QAE@XZ 1007ccbc     UnzipFile.obj
 0002:0000fce4       __unwindtable$?alloc_pfile_in_zip_read@unz_s@@QAEXXZ 1007cce4     UnzipFile.obj
 0002:0000fcec       __ehfuncinfo$?alloc_pfile_in_zip_read@unz_s@@QAEXXZ 1007ccec     UnzipFile.obj
 0002:0000fd14       __unwindtable$?UpdateFileStatus@CUnzipFile@@QAEXAAVCFile@@AAUunz_file_info@@@Z 1007cd14     UnzipFile.obj
 0002:0000fd1c       __ehfuncinfo$?UpdateFileStatus@CUnzipFile@@QAEXAAVCFile@@AAUunz_file_info@@@Z 1007cd1c     UnzipFile.obj
 0002:0000fd44       __unwindtable$??0CUnzipFile@@QAE@XZ 1007cd44     UnzipFile.obj
 0002:0000fd4c       __ehfuncinfo$??0CUnzipFile@@QAE@XZ 1007cd4c     UnzipFile.obj
 0002:0000fd74       __unwindtable$?Open@CUnzipFile@@QAEXPBD@Z 1007cd74     UnzipFile.obj
 0002:0000fd7c       __ehfuncinfo$?Open@CUnzipFile@@QAEXPBD@Z 1007cd7c     UnzipFile.obj
 0002:0000fda4       __unwindtable$?LocateFile@CUnzipFile@@QAE_NV?$CStringT@DV?$StrTraitMFC_DLL@DV?$ChTraitsCRT@D@ATL@@@@@ATL@@_N@Z 1007cda4     UnzipFile.obj
 0002:0000fdbc       __ehfuncinfo$?LocateFile@CUnzipFile@@QAE_NV?$CStringT@DV?$StrTraitMFC_DLL@DV?$ChTraitsCRT@D@ATL@@@@@ATL@@_N@Z 1007cdbc     UnzipFile.obj
 0002:0000fde8       __unwindtable$??0CUnzipFile@@QAE@PBD@Z 1007cde8     UnzipFile.obj
 0002:0000fdf8       __ehfuncinfo$??0CUnzipFile@@QAE@PBD@Z 1007cdf8     UnzipFile.obj
 0002:0000fe24       __catchsym$?unzlocal_SearchCentralDir@CUnzipFile@@IAEKXZ$2 1007ce24     UnzipFile.obj
 0002:0000fe34       __unwindtable$?unzlocal_SearchCentralDir@CUnzipFile@@IAEKXZ 1007ce34     UnzipFile.obj
 0002:0000fe44       __tryblocktable$?unzlocal_SearchCentralDir@CUnzipFile@@IAEKXZ 1007ce44     UnzipFile.obj
 0002:0000fe58       __ehfuncinfo$?unzlocal_SearchCentralDir@CUnzipFile@@IAEKXZ 1007ce58     UnzipFile.obj
 0002:0000ff30       __unwindtable$??0CZipException@@QAE@HPBD_N@Z 1007cf30     ZipException.obj
 0002:0000ff40       __ehfuncinfo$??0CZipException@@QAE@HPBD_N@Z 1007cf40     ZipException.obj
 0002:0000ff6c       __unwindtable$?AfxThrowZipException@@YAXHPBD_N@Z 1007cf6c     ZipException.obj
 0002:0000ff74       __ehfuncinfo$?AfxThrowZipException@@YAXHPBD_N@Z 1007cf74     ZipException.obj
 0002:0000ffe8       __ehfuncinfo$??1curfile_info@@QAE@XZ 1007cfe8     ZipFile.obj
 0002:00010010       __unwindtable$?add_data_in_datablock@linkedlist_data@@QAEXPADK@Z 1007d010     ZipFile.obj
 0002:00010020       __ehfuncinfo$?add_data_in_datablock@linkedlist_data@@QAEXPADK@Z 1007d020     ZipFile.obj
 0002:0001004c       __unwindtable$??0zip_internal@@QAE@XZ 1007d04c     ZipFile.obj
 0002:0001005c       __ehfuncinfo$??0zip_internal@@QAE@XZ 1007d05c     ZipFile.obj
 0002:00010088       __unwindtable$??0CZipFile@@QAE@XZ 1007d088     ZipFile.obj
 0002:00010090       __ehfuncinfo$??0CZipFile@@QAE@XZ 1007d090     ZipFile.obj
 0002:000100b8       __unwindtable$?Open@CZipFile@@QAEXPBD_N@Z 1007d0b8     ZipFile.obj
 0002:000100c0       __ehfuncinfo$?Open@CZipFile@@QAEXPBD_N@Z 1007d0c0     ZipFile.obj
 0002:000100e8       __unwindtable$??0CZipFile@@QAE@PBD_N@Z 1007d0e8     ZipFile.obj
 0002:000100f8       __ehfuncinfo$??0CZipFile@@QAE@PBD_N@Z 1007d0f8     ZipFile.obj
 0002:00010124       __unwindtable$?OpenNewFileInZip@CZipFile@@QAEXV?$CStringT@DV?$StrTraitMFC_DLL@DV?$ChTraitsCRT@D@ATL@@@@@ATL@@AAUzip_fileinfo@@H0PBXI2IH@Z 1007d124     ZipFile.obj
 0002:00010134       __ehfuncinfo$?OpenNewFileInZip@CZipFile@@QAEXV?$CStringT@DV?$StrTraitMFC_DLL@DV?$ChTraitsCRT@D@ATL@@@@@ATL@@AAUzip_fileinfo@@H0PBXI2IH@Z 1007d134     ZipFile.obj
 0002:00010160       __unwindtable$?Close@CZipFile@@QAEXV?$CStringT@DV?$StrTraitMFC_DLL@DV?$ChTraitsCRT@D@ATL@@@@@ATL@@@Z 1007d160     ZipFile.obj
 0002:00010168       __ehfuncinfo$?Close@CZipFile@@QAEXV?$CStringT@DV?$StrTraitMFC_DLL@DV?$ChTraitsCRT@D@ATL@@@@@ATL@@@Z 1007d168     ZipFile.obj
 0002:00010190       __ehfuncinfo$??1CZUBaseFile@@UAE@XZ 1007d190     ZUBaseFile.obj
 0002:000101b8       __unwindtable$?ThrowError@CZUBaseFile@@IAEXH@Z 1007d1b8     ZUBaseFile.obj
 0002:000101d0       __ehfuncinfo$?ThrowError@CZUBaseFile@@IAEXH@Z 1007d1d0     ZUBaseFile.obj
 0002:00010200       __sehtable$_WinbaseIsolationAwarePrivatetRgzlnPgpgk@0 1007d200     mfcs140d:nolib.obj
 0002:00010220       __sehtable$_IsolationAwareUnregisterClassA@8 1007d220     mfcs140d:nolib.obj
 0002:00010240       __ehfuncinfo$??_Estringdispid@CComTypeInfoHolder@ATL@@QAEPAXI@Z 1007d240     mfcs140d:nolib.obj
 0002:00010268       __sehtable$??_M@YGXPAXIIP6EX0@Z@Z 1007d268     msvcrtd:ehvecdtr.obj
 0002:00010288       __sehtable$?__ArrayUnwind@@YGXPAXIIP6EX0@Z@Z 1007d288     msvcrtd:ehvecdtr.obj
 0002:000102a8       __sehtable$___scrt_is_nonwritable_in_current_image 1007d2a8     msvcrtd:utility.obj
 0002:000102c8       __ehfuncinfo$?__scrt_initialize_thread_safe_statics_platform_specific@@YAXXZ 1007d2c8     msvcrtd:thread_safe_statics.obj
 0002:000102f0       __ehfuncinfo$?__scrt_uninitialize_thread_safe_statics@@YAXXZ 1007d2f0     msvcrtd:thread_safe_statics.obj
 0002:00010318       __sehtable$??_L@YGXPAXIIP6EX0@Z1@Z 1007d318     msvcrtd:ehvecctr.obj
 0002:00010338       __sehtable$?notify_debugger@@YAXABUtagEXCEPTION_VISUALCPP_DEBUG_INFO@@@Z 1007d338     msvcrtd:error.obj
 0002:00010358       __sehtable$?dllmain_crt_process_attach@@YAHQAUHINSTANCE__@@QAX@Z 1007d358     msvcrtd:dll_dllmain.obj
 0002:00010378       __sehtable$?dllmain_crt_process_detach@@YAH_N@Z 1007d378     msvcrtd:dll_dllmain.obj
 0002:00010398       __sehtable$?dllmain_dispatch@@YAHQAUHINSTANCE__@@KQAX@Z 1007d398     msvcrtd:dll_dllmain.obj
 0002:000109b0       .edata                     1007d9b0     nmavatar_d.exp
 0002:000109d8       rgpv                       1007d9d8     nmavatar_d.exp
 0002:00010ac0       rgszName                   1007dac0     nmavatar_d.exp
 0002:00010ba8       rgwOrd                     1007dba8     nmavatar_d.exp
 0002:00010c1c       szName                     1007dc1c     nmavatar_d.exp
 0002:00010c2b       $N00001                    1007dc2b     nmavatar_d.exp
 0002:00010c53       $N00002                    1007dc53     nmavatar_d.exp
 0002:00010c74       $N00003                    1007dc74     nmavatar_d.exp
 0002:00010c95       $N00004                    1007dc95     nmavatar_d.exp
 0002:00010cc3       $N00005                    1007dcc3     nmavatar_d.exp
 0002:00010ce2       $N00006                    1007dce2     nmavatar_d.exp
 0002:00010d0d       $N00007                    1007dd0d     nmavatar_d.exp
 0002:00010d38       $N00008                    1007dd38     nmavatar_d.exp
 0002:00010d63       $N00009                    1007dd63     nmavatar_d.exp
 0002:00010d8c       $N00010                    1007dd8c     nmavatar_d.exp
 0002:00010db5       $N00011                    1007ddb5     nmavatar_d.exp
 0002:00010ddb       $N00012                    1007dddb     nmavatar_d.exp
 0002:00010e0f       $N00013                    1007de0f     nmavatar_d.exp
 0002:00010e36       $N00014                    1007de36     nmavatar_d.exp
 0002:00010e6c       $N00015                    1007de6c     nmavatar_d.exp
 0002:00010e9a       $N00016                    1007de9a     nmavatar_d.exp
 0002:00010ecb       $N00017                    1007decb     nmavatar_d.exp
 0002:00010f07       $N00018                    1007df07     nmavatar_d.exp
 0002:00010f51       $N00019                    1007df51     nmavatar_d.exp
 0002:00010f8e       $N00020                    1007df8e     nmavatar_d.exp
 0002:00010fcd       $N00021                    1007dfcd     nmavatar_d.exp
 0002:00010ffd       $N00022                    1007dffd     nmavatar_d.exp
 0002:00011033       $N00023                    1007e033     nmavatar_d.exp
 0002:0001105e       $N00024                    1007e05e     nmavatar_d.exp
 0002:00011085       $N00025                    1007e085     nmavatar_d.exp
 0002:000110b7       $N00026                    1007e0b7     nmavatar_d.exp
 0002:000110eb       $N00027                    1007e0eb     nmavatar_d.exp
 0002:0001111e       $N00028                    1007e11e     nmavatar_d.exp
 0002:0001114c       $N00029                    1007e14c     nmavatar_d.exp
 0002:00011180       $N00030                    1007e180     nmavatar_d.exp
 0002:000111c9       $N00031                    1007e1c9     nmavatar_d.exp
 0002:00011200       $N00032                    1007e200     nmavatar_d.exp
 0002:0001122e       $N00033                    1007e22e     nmavatar_d.exp
 0002:00011263       $N00034                    1007e263     nmavatar_d.exp
 0002:00011294       $N00035                    1007e294     nmavatar_d.exp
 0002:000112c0       $N00036                    1007e2c0     nmavatar_d.exp
 0002:000112ec       $N00037                    1007e2ec     nmavatar_d.exp
 0002:00011324       $N00038                    1007e324     nmavatar_d.exp
 0002:00011368       $N00039                    1007e368     nmavatar_d.exp
 0002:00011398       $N00040                    1007e398     nmavatar_d.exp
 0002:000113ca       $N00041                    1007e3ca     nmavatar_d.exp
 0002:000113fa       $N00042                    1007e3fa     nmavatar_d.exp
 0002:00011434       $N00043                    1007e434     nmavatar_d.exp
 0002:00011471       $N00044                    1007e471     nmavatar_d.exp
 0002:000114a7       $N00045                    1007e4a7     nmavatar_d.exp
 0002:000114dc       $N00046                    1007e4dc     nmavatar_d.exp
 0002:00011506       $N00047                    1007e506     nmavatar_d.exp
 0002:00011539       $N00048                    1007e539     nmavatar_d.exp
 0002:0001156c       $N00049                    1007e56c     nmavatar_d.exp
 0002:0001159e       $N00050                    1007e59e     nmavatar_d.exp
 0002:000115d0       $N00051                    1007e5d0     nmavatar_d.exp
 0002:000115fb       $N00052                    1007e5fb     nmavatar_d.exp
 0002:00011624       $N00053                    1007e624     nmavatar_d.exp
 0002:00011656       $N00054                    1007e656     nmavatar_d.exp
 0002:00011688       $N00055                    1007e688     nmavatar_d.exp
 0002:000116b9       $N00056                    1007e6b9     nmavatar_d.exp
 0002:000116ea       $N00057                    1007e6ea     nmavatar_d.exp
 0002:0001171e       $N00058                    1007e71e     nmavatar_d.exp
 0003:00000020       ?THIS_FILE@@3PADA          1007f020     GetHttp.obj
 0003:00000078       ?THIS_FILE@@3PADA          1007f078     Gif2Spr.obj
 0003:000000d0       ?THIS_FILE@@3PADA          1007f0d0     PictureEx.obj
 0003:00000158       ?myVersion@?1??main@@9@9   1007f158     example.obj
 0003:0000015c       _static_l_desc             1007f15c     trees.obj
 0003:00000170       _static_d_desc             1007f170     trees.obj
 0003:00000184       _static_bl_desc            1007f184     trees.obj
 0003:00002f38       ?ResMan@AVATAR@NMBASE@@3VCResMan@@A 10081f38     Avatar.obj
 0003:000030b0       ?LocalPage@AVATAR@NMBASE@@3VCPage@@A 100820b0     Avatar.obj
 0003:00003114       ?g_AutoDestroy@AVATAR@NMBASE@@3VCAutoDestroy@12@A 10082114     Avatar.obj
 0003:00003118       ?AttachPage@AVATAR@NMBASE@@3VCPage@@A 10082118     Avatar.obj
 0003:0000317c       ?LoadingSpr@AVATAR@NMBASE@@3VxSprite@@A 1008217c     Avatar.obj
 0003:000031a4       ?g_bAvatarInited@AVATAR@NMBASE@@3HA 100821a4     Avatar.obj
 0003:000031a8       ?AvatarRes@AVATAR@NMBASE@@3PAPAVCAvatarResource@12@A 100821a8     Avatar.obj
 0003:000039a8       ?BaseAvatarDir@AVATAR@NMBASE@@3PADA 100829a8     Avatar.obj
 0003:00003ba8       ?bAvatarInitialized@AVATAR@NMBASE@@3HA 10082ba8     Avatar.obj
 0003:00003bac       ?bSetBaseAvaterDir@AVATAR@NMBASE@@3HA 10082bac     Avatar.obj
 0003:00003bb0       ?strBaseAvatarDir@AVATAR@NMBASE@@3PADA 10082bb0     Avatar.obj
 0003:00003cb4       ?g_strSiteName@AVATAR@NMBASE@@3PADA 10082cb4     Avatar.obj
 0003:00003cdc       ?tottick@?CL@??DrawAvatarToPage@AVATAR@NMBASE@@YAHPAVCPage@@HHPAVCAvatarResource@23@HHH@Z@4IA 10082cdc     Avatar.obj
 0003:00003ce0       ?sStatus@?1??GetAvatarStatusString@CAvatar@AVATAR@NMBASE@@KAPADXZ@4V?$CStringT@DV?$StrTraitMFC_DLL@DV?$ChTraitsCRT@D@ATL@@@@@ATL@@A 10082ce0     Avatar.obj
 0003:00003ce4       ?$TSS0@?1??GetAvatarStatusString@CAvatar@AVATAR@NMBASE@@KAPADXZ@4HA 10082ce4     Avatar.obj
 0003:00003ce8       ?TarPage@?1??DrawAvatarToDC_SmoothZoom@CAvatar@AVATAR@NMBASE@@IAEHHHIPAUHDC__@@HHKH@Z@4VCPage@@A 10082ce8     Avatar.obj
 0003:00003d4c       ?$TSS0@?1??DrawAvatarToDC_SmoothZoom@CAvatar@AVATAR@NMBASE@@IAEHHHIPAUHDC__@@HHKH@Z@4HA 10082d4c     Avatar.obj
 0003:00003d50       ?SrcPage@?1??DrawAvatarToDC_SmoothZoom@CAvatar@AVATAR@NMBASE@@IAEHHHIPAUHDC__@@HHKH@Z@4VCPage@@A 10082d50     Avatar.obj
 0003:00003db4       ?$TSS1@?1??DrawAvatarToDC_SmoothZoom@CAvatar@AVATAR@NMBASE@@IAEHHHIPAUHDC__@@HHKH@Z@4HA 10082db4     Avatar.obj
 0003:000040a4       ?hWndNotify@@3PAUHWND__@@A 100830a4     ExtractFile.obj
 0003:000040a8       ?pExtractThread@@3PAVCWinThread@@A 100830a8     ExtractFile.obj
 0003:000040ac       ?bExtractThreadStop@@3HA   100830ac     ExtractFile.obj
 0003:000040b8       ?lastchecktime@?1??OpenSpr@CResMan@@QAEPAVCSprFile@@HHH@Z@4IA 100830b8     ResMan.obj
 0003:000040bc       ?$TSS0@?1??OpenSpr@CResMan@@QAEPAVCSprFile@@HHH@Z@4HA 100830bc     ResMan.obj
 0003:000040c0       ?bChecking@?1??OpenSpr@CResMan@@QAEPAVCSprFile@@HHH@Z@4HA 100830c0     ResMan.obj
 0003:000040e4       ?NMAvatarDLL@@3UAFX_EXTENSION_MODULE@@A 100830e4     dllmain.obj
 0003:0000c218       ?g_bInitedAlphaTable@@3HA  1008b218     GraphMod.obj
 0003:0000e380       ?is_initialized_as_dll@@3_NA 1008d380     msvcrtd:utility.obj
 0003:0000e381       ?module_local_atexit_table_initialized@@3_NA 1008d381     msvcrtd:utility.obj
 0003:0000e384       ?module_local_atexit_table@@3U_onexit_table_t@@A 1008d384     msvcrtd:utility.obj
 0003:0000e390       ?module_local_at_quick_exit_table@@3U_onexit_table_t@@A 1008d390     msvcrtd:utility.obj
 0003:0000e3a4       ?_Tss_mutex@@3U_RTL_CRITICAL_SECTION@@A 1008d3a4     msvcrtd:thread_safe_statics.obj
 0003:0000e3bc       ?_Tss_cv@@3U_RTL_CONDITION_VARIABLE@@A 1008d3bc     msvcrtd:thread_safe_statics.obj
 0003:0000e3c0       ?_Tss_event@@3PAXA         1008d3c0     msvcrtd:thread_safe_statics.obj
 0003:0000e3c4       ?encoded_sleep_condition_variable_cs@@3P6GHPAU_RTL_CONDITION_VARIABLE@@PAU_RTL_CRITICAL_SECTION@@K@ZA 1008d3c4     msvcrtd:thread_safe_statics.obj
 0003:0000e3c8       ?encoded_wake_all_condition_variable@@3P6GXPAU_RTL_CONDITION_VARIABLE@@@ZA 1008d3c8     msvcrtd:thread_safe_statics.obj
 0003:0000e3d4       ?init@?1??_RTC_InitBase@@9@4_NA 1008d3d4     msvcrtd:init.obj
 0003:0000e3e0       _GS_ExceptionRecord        1008d3e0     msvcrtd:gs_report.obj
 0003:0000e430       _GS_ContextRecord          1008d430     msvcrtd:gs_report.obj
 0003:0000e79c       ?__proc_attached@@3HA      1008d79c     msvcrtd:dll_dllmain.obj
 0003:0000e7b0       ?_RTC_ErrorReportFunc@@3P6AHHPBDH00ZZA 1008d7b0     msvcrtd:userapi.obj
 0003:0000e7b4       ?_RTC_ErrorReportFuncW@@3P6AHHPB_WH00ZZA 1008d7b4     msvcrtd:userapi.obj
 0003:0000e7bc       ?mspdb@@3PAUHINSTANCE__@@A 1008d7bc     msvcrtd:pdblkup.obj
 0003:0000e7c0       ?alreadyTried@?1??GetPdbDll@@YAPAUHINSTANCE__@@XZ@4_NA 1008d7c0     msvcrtd:pdblkup.obj
 0003:0000e7c1       ?PDBOK@?1??_RTC_GetSrcLine@@YAHPAEPA_WKPAH1K@Z@4_NA 1008d7c1     msvcrtd:pdblkup.obj
 0004:000010d2       .idata$6                   1008f0d2     winmm:WINMM.dll
 0004:000010dc       .idata$6                   1008f0dc     mfc140d:mfc140d.dll
 0004:000015a2       .idata$6                   1008f5a2     kernel32:KERNEL32.dll
 0004:0000167a       .idata$6                   1008f67a     user32:USER32.dll
 0004:00001790       .idata$6                   1008f790     gdi32:GDI32.dll
 0004:000017cc       .idata$6                   1008f7cc     advapi32:ADVAPI32.dll
 0004:000017f2       .idata$6                   1008f7f2     ole32:ole32.dll
 0004:000017fc       .idata$6                   1008f7fc     oleaut32:OLEAUT32.dll
 0004:0000185e       .idata$6                   1008f85e     msvcprtd:MSVCP140D.dll
 0004:0000191e       .idata$6                   1008f91e     wininet:WININET.dll
 0004:00001a12       .idata$6                   1008fa12     vcruntimed:VCRUNTIME140D.dll
 0004:00001db2       .idata$6                   1008fdb2     ucrtd:ucrtbased.dll
 0007:00000220       $R000000                   10093220     NMAvatar.res
 0007:00000518       $R0002F8                   10093518     NMAvatar.res
 0007:000097d0       $R0095B0                   1009c7d0     NMAvatar.res
