 nmskingdi_d

 Timestamp is 5d6e1e30 (Tue Sep  3 17:02:56 2019)

 Preferred load address is 10000000

 Start         Length     Name                   Class
 0001:00000000 0006c815H .textbss                DATA
 0002:00000000 00011bf0H .text$di                CODE
 0002:00011bf0 000d1660H .text$mn                CODE
 0002:000e3250 00009630H .text$x                 CODE
 0002:000ec880 0000138fH .text$yd                CODE
 0003:00000000 00000104H .CRT$XCA                DATA
 0003:00000104 00000104H .CRT$XCL                DATA
 0003:00000208 000001b8H .CRT$XCU                DATA
 0003:000003c0 00000104H .CRT$XCZ                DATA
 0003:000004c4 00000104H .CRT$XIA                DATA
 0003:000005c8 00000104H .CRT$XIC                DATA
 0003:000006cc 00000104H .CRT$XIZ                DATA
 0003:000007d0 00000004H .CRT$XLA                DATA
 0003:000007d4 00000004H .CRT$XLZ                DATA
 0003:000007d8 00000104H .CRT$XPA                DATA
 0003:000008dc 00000104H .CRT$XPZ                DATA
 0003:000009e0 00000104H .CRT$XTA                DATA
 0003:00000ae4 0000010cH .CRT$XTZ                DATA
 0003:00000bf0 000170b8H .rdata                  DATA
 0003:00017ca8 0000011cH .rdata$T                DATA
 0003:00017dc4 00002338H .rdata$r                DATA
 0003:0001a0fc 00000184H .rdata$zzzdbg           DATA
 0003:0001a280 00000104H .rtc$IAA                DATA
 0003:0001a384 0000026cH .rtc$IMZ                DATA
 0003:0001a5f0 00000104H .rtc$IZZ                DATA
 0003:0001a6f4 00000104H .rtc$TAA                DATA
 0003:0001a7f8 0000026cH .rtc$TMZ                DATA
 0003:0001aa64 00000104H .rtc$TZZ                DATA
 0003:0001ab68 0000868cH .xdata$x                DATA
 0003:000231f4 00000104H ATL$__a                 DATA
 0003:000232f8 00000108H ATL$__z                 DATA
 0003:00023400 000147f8H .edata                  DATA
 0004:00000000 00000560H .data                   DATA
 0004:00000560 000012a8H .data$r                 DATA
 0004:00001808 000031c9H .bss                    DATA
 0005:00000000 00001018H .idata$5                DATA
 0005:00001018 00000104H .idata$2                DATA
 0005:0000111c 00000014H .idata$3                DATA
 0005:00001130 00001018H .idata$4                DATA
 0005:00002148 00001d17H .idata$6                DATA
 0006:00000000 00000104H .tls                    DATA
 0006:00000104 00000104H .tls$                   DATA
 0006:00000208 00000101H .tls$ZZZ                DATA
 0007:00000000 00000104H .00cfg                  DATA
 0008:00000000 000001c0H .rsrc$01                DATA
 0008:000001c0 00000726H .rsrc$02                DATA

  Address         Publics by Value              Rva+Base       Lib:Object

 0000:00000000       ___volatile_metadata       00000000     <absolute>
 0000:00000000       ___guard_longjmp_count     00000000     <absolute>
 0000:00000000       ___hybrid_auxiliary_iat    00000000     <absolute>
 0000:00000000       ___guard_iat_count         00000000     <absolute>
 0000:00000000       ___guard_fids_table        00000000     <absolute>
 0000:00000000       ___guard_longjmp_table     00000000     <absolute>
 0000:00000000       ___safe_se_handler_table   00000000     <absolute>
 0000:00000000       ___enclave_config          00000000     <absolute>
 0000:00000000       ___dynamic_value_reloc_table 00000000     <absolute>
 0000:00000000       ___guard_iat_table         00000000     <absolute>
 0000:00000000       ___guard_fids_count        00000000     <absolute>
 0000:00000000       ___safe_se_handler_count   00000000     <absolute>
 0000:00000000       ___hybrid_code_map         00000000     <absolute>
 0000:00000000       ___hybrid_code_map_count   00000000     <absolute>
 0000:0000002c       __tls_array                0000002c     <absolute>
 0000:00000100       ___guard_flags             00000100     <absolute>
 0000:00000000       ___ImageBase               10000000     <linker-defined>
 0001:00000000       __enc$textbss$begin        10001000     <linker-defined>
 0001:0006c815       __enc$textbss$end          1006d815     <linker-defined>
 0002:00011bf0       ??$pop@Utable@lua_tinker@@@lua_tinker@@YA?AUtable@0@PAUlua_State@@@Z 1007fbf0 f   lua_tinker.obj
 0002:00011c70       ??$pop@X@lua_tinker@@YAXPAUlua_State@@@Z 1007fc70 f   lua_tinker.obj
 0002:00011cc0       ??$push@D@lua_tinker@@YAXPAUlua_State@@D@Z 1007fcc0 f   lua_tinker.obj
 0002:00011d30       ??$push@E@lua_tinker@@YAXPAUlua_State@@E@Z 1007fd30 f   lua_tinker.obj
 0002:00011da0       ??$push@F@lua_tinker@@YAXPAUlua_State@@F@Z 1007fda0 f   lua_tinker.obj
 0002:00011e10       ??$push@G@lua_tinker@@YAXPAUlua_State@@G@Z 1007fe10 f   lua_tinker.obj
 0002:00011e80       ??$push@H@lua_tinker@@YAXPAUlua_State@@H@Z 1007fe80 f   lua_tinker.obj
 0002:00011ee0       ??$push@I@lua_tinker@@YAXPAUlua_State@@I@Z 1007fee0 f   lua_tinker.obj
 0002:00011f70       ??$push@J@lua_tinker@@YAXPAUlua_State@@J@Z 1007ff70 f   lua_tinker.obj
 0002:00011fd0       ??$push@K@lua_tinker@@YAXPAUlua_State@@K@Z 1007ffd0 f   lua_tinker.obj
 0002:00012060       ??$push@M@lua_tinker@@YAXPAUlua_State@@M@Z 10080060 f   lua_tinker.obj
 0002:000120c0       ??$push@N@lua_tinker@@YAXPAUlua_State@@N@Z 100800c0 f   lua_tinker.obj
 0002:00012120       ??$push@PAD@lua_tinker@@YAXPAUlua_State@@PAD@Z 10080120 f   lua_tinker.obj
 0002:00012180       ??$push@PAUlua_value@lua_tinker@@@lua_tinker@@YAXPAUlua_State@@PAUlua_value@0@@Z 10080180 f   lua_tinker.obj
 0002:00012200       ??$push@PBD@lua_tinker@@YAXPAUlua_State@@PBD@Z 10080200 f   lua_tinker.obj
 0002:00012260       ??$push@Utable@lua_tinker@@@lua_tinker@@YAXPAUlua_State@@Utable@0@@Z 10080260 f   lua_tinker.obj
 0002:00012330       ??$push@_J@lua_tinker@@YAXPAUlua_State@@_J@Z 10080330 f   lua_tinker.obj
 0002:000123d0       ??$push@_K@lua_tinker@@YAXPAUlua_State@@_K@Z 100803d0 f   lua_tinker.obj
 0002:00012470       ??$push@_N@lua_tinker@@YAXPAUlua_State@@_N@Z 10080470 f   lua_tinker.obj
 0002:000124d0       ??$read@D@lua_tinker@@YADPAUlua_State@@H@Z 100804d0 f   lua_tinker.obj
 0002:00012540       ??$read@E@lua_tinker@@YAEPAUlua_State@@H@Z 10080540 f   lua_tinker.obj
 0002:000125b0       ??$read@F@lua_tinker@@YAFPAUlua_State@@H@Z 100805b0 f   lua_tinker.obj
 0002:00012620       ??$read@G@lua_tinker@@YAGPAUlua_State@@H@Z 10080620 f   lua_tinker.obj
 0002:00012690       ??$read@H@lua_tinker@@YAHPAUlua_State@@H@Z 10080690 f   lua_tinker.obj
 0002:00012700       ??$read@I@lua_tinker@@YAIPAUlua_State@@H@Z 10080700 f   lua_tinker.obj
 0002:00012770       ??$read@J@lua_tinker@@YAJPAUlua_State@@H@Z 10080770 f   lua_tinker.obj
 0002:000127e0       ??$read@K@lua_tinker@@YAKPAUlua_State@@H@Z 100807e0 f   lua_tinker.obj
 0002:00012850       ??$read@M@lua_tinker@@YAMPAUlua_State@@H@Z 10080850 f   lua_tinker.obj
 0002:000128c0       ??$read@N@lua_tinker@@YANPAUlua_State@@H@Z 100808c0 f   lua_tinker.obj
 0002:00012920       ??$read@PAD@lua_tinker@@YAPADPAUlua_State@@H@Z 10080920 f   lua_tinker.obj
 0002:00012980       ??$read@PBD@lua_tinker@@YAPBDPAUlua_State@@H@Z 10080980 f   lua_tinker.obj
 0002:000129e0       ??$read@Utable@lua_tinker@@@lua_tinker@@YA?AUtable@0@PAUlua_State@@H@Z 100809e0 f   lua_tinker.obj
 0002:00012a60       ??$read@X@lua_tinker@@YAXPAUlua_State@@H@Z 10080a60 f   lua_tinker.obj
 0002:00012a90       ??$read@_J@lua_tinker@@YA_JPAUlua_State@@H@Z 10080a90 f   lua_tinker.obj
 0002:00012b40       ??$read@_K@lua_tinker@@YA_KPAUlua_State@@H@Z 10080b40 f   lua_tinker.obj
 0002:00012bf0       ??$read@_N@lua_tinker@@YA_NPAUlua_State@@H@Z 10080bf0 f   lua_tinker.obj
 0002:00012cf0       ??0table@lua_tinker@@QAE@ABU01@@Z 10080cf0 f   lua_tinker.obj
 0002:00012d60       ??0table@lua_tinker@@QAE@PAUlua_State@@@Z 10080d60 f   lua_tinker.obj
 0002:00012e90       ??0table@lua_tinker@@QAE@PAUlua_State@@H@Z 10080e90 f   lua_tinker.obj
 0002:00012fc0       ??0table@lua_tinker@@QAE@PAUlua_State@@PBD@Z 10080fc0 f   lua_tinker.obj
 0002:000131b0       ??0table_obj@lua_tinker@@QAE@PAUlua_State@@H@Z 100811b0 f   lua_tinker.obj
 0002:00013240       ??1table@lua_tinker@@QAE@XZ 10081240 f   lua_tinker.obj
 0002:000132d0       ??1table_obj@lua_tinker@@QAE@XZ 100812d0 f   lua_tinker.obj
 0002:00013380       ??_Gtable_obj@lua_tinker@@QAEPAXI@Z 10081380 f i lua_tinker.obj
 0002:000133f0       ?__empty_global_delete@@YAXPAX@Z 100813f0 f i lua_tinker.obj
 0002:00013420       ?__empty_global_delete@@YAXPAXI@Z 10081420 f i lua_tinker.obj
 0002:000135d0       ?dec_ref@table_obj@lua_tinker@@QAEXXZ 100815d0 f   lua_tinker.obj
 0002:00013690       ?dobuffer@lua_tinker@@YAXPAUlua_State@@PBDI@Z 10081690 f   lua_tinker.obj
 0002:000137a0       ?dofile@lua_tinker@@YAXPAUlua_State@@PBD@Z 100817a0 f   lua_tinker.obj
 0002:000138b0       ?dostring@lua_tinker@@YAXPAUlua_State@@PBD@Z 100818b0 f   lua_tinker.obj
 0002:00013920       ?enum_stack@lua_tinker@@YAXPAUlua_State@@@Z 10081920 f   lua_tinker.obj
 0002:00013e90       ?inc_ref@table_obj@lua_tinker@@QAEXXZ 10081e90 f   lua_tinker.obj
 0002:00013ee0       ?init@lua_tinker@@YAXPAUlua_State@@@Z 10081ee0 f   lua_tinker.obj
 0002:00013f40       ?init_s64@lua_tinker@@YAXPAUlua_State@@@Z 10081f40 f   lua_tinker.obj
 0002:00014100       ?init_u64@lua_tinker@@YAXPAUlua_State@@@Z 10082100 f   lua_tinker.obj
 0002:000142c0       ?invoke@?$user2type@PAUvar_base@lua_tinker@@@lua_tinker@@SAPAUvar_base@2@PAUlua_State@@H@Z 100822c0 f i lua_tinker.obj
 0002:00014320       ?invoke@?$void2ptr@Uvar_base@lua_tinker@@@lua_tinker@@SAPAUvar_base@2@PAX@Z 10082320 f i lua_tinker.obj
 0002:00014360       ?invoke@?$void2type@PAUvar_base@lua_tinker@@@lua_tinker@@SAPAUvar_base@2@PAX@Z 10082360 f i lua_tinker.obj
 0002:00014770       ?meta_get@lua_tinker@@YAHPAUlua_State@@@Z 10082770 f   lua_tinker.obj
 0002:000148f0       ?meta_push@lua_tinker@@YAXPAUlua_State@@PBD@Z 100828f0 f   lua_tinker.obj
 0002:00014960       ?meta_set@lua_tinker@@YAHPAUlua_State@@@Z 10082960 f   lua_tinker.obj
 0002:00014a90       ?on_error@lua_tinker@@YAHPAUlua_State@@@Z 10082a90 f   lua_tinker.obj
 0002:00014b10       ?print_error@lua_tinker@@YAXPAUlua_State@@PBDZZ 10082b10 f   lua_tinker.obj
 0002:00014e40       ?validate@table_obj@lua_tinker@@QAE_NXZ 10082e40 f   lua_tinker.obj
 0002:00014f40       ___local_stdio_printf_options 10082f40 f i lua_tinker.obj
 0002:00014f80       __vfprintf_l               10082f80 f i lua_tinker.obj
 0002:00015000       __vsnprintf_l              10083000 f i lua_tinker.obj
 0002:000150b0       __vsprintf_l               100830b0 f i lua_tinker.obj
 0002:00015110       _printf                    10083110 f i lua_tinker.obj
 0002:000151a0       _sprintf                   100831a0 f i lua_tinker.obj
 0002:00015220       _vsprintf                  10083220 f i lua_tinker.obj
 0002:00015280       ?_AfxInitManaged@@YAHXZ    10083280 f i dllmain.obj
 0002:000152b0       _ExtRawDllMain@12          100832b0 f   dllmain.obj
 0002:00015350       ??$AtlAdd@H@ATL@@YAJPAHHH@Z 10083350 f i dllmain.obj
 0002:000153d0       ??$AtlAdd@I@ATL@@YAJPAIII@Z 100833d0 f i dllmain.obj
 0002:00015440       ??$AtlAdd@K@ATL@@YAJPAKKK@Z 10083440 f i dllmain.obj
 0002:000154b0       ??$AtlAlignUp@H@ATL@@YGHHK@Z 100834b0 f i dllmain.obj
 0002:00015500       ??$AtlMultiply@I@ATL@@YAJPAIII@Z 10083500 f i dllmain.obj
 0002:00015580       ??$AtlMultiply@K@ATL@@YAJPAKKK@Z 10083580 f i dllmain.obj
 0002:00015600       ??0?$CHeapPtr@DVCCRTAllocator@ATL@@@ATL@@QAE@XZ 10083600 f i dllmain.obj
 0002:00015660       ??0?$CHeapPtr@_WVCCRTAllocator@ATL@@@ATL@@QAE@XZ 10083660 f i dllmain.obj
 0002:000156c0       ??0?$CHeapPtrBase@DVCCRTAllocator@ATL@@@ATL@@IAE@XZ 100836c0 f i dllmain.obj
 0002:00015710       ??0?$CHeapPtrBase@_WVCCRTAllocator@ATL@@@ATL@@IAE@XZ 10083710 f i dllmain.obj
 0002:00015760       ??0?$CSimpleArray@GV?$CSimpleArrayEqualHelper@G@ATL@@@ATL@@QAE@XZ 10083760 f i dllmain.obj
 0002:000157c0       ??0?$CTraceCategoryEx@$00$0A@@ATL@@QAE@PBD@Z 100837c0 f i dllmain.obj
 0002:00015820       ??0?$CTraceCategoryEx@$01$0A@@ATL@@QAE@PBD@Z 10083820 f i dllmain.obj
 0002:00015880       ??0?$CTraceCategoryEx@$03$0A@@ATL@@QAE@PBD@Z 10083880 f i dllmain.obj
 0002:000158e0       ??0?$CTraceCategoryEx@$07$0A@@ATL@@QAE@PBD@Z 100838e0 f i dllmain.obj
 0002:00015940       ??0?$CTraceCategoryEx@$0BA@$0A@@ATL@@QAE@PBD@Z 10083940 f i dllmain.obj
 0002:000159a0       ??0?$CTraceCategoryEx@$0BAA@$0A@@ATL@@QAE@PBD@Z 100839a0 f i dllmain.obj
 0002:00015a00       ??0?$CTraceCategoryEx@$0BAAA@$0A@@ATL@@QAE@PBD@Z 10083a00 f i dllmain.obj
 0002:00015a60       ??0?$CTraceCategoryEx@$0BAAAA@$0A@@ATL@@QAE@PBD@Z 10083a60 f i dllmain.obj
 0002:00015ac0       ??0?$CTraceCategoryEx@$0BAAAAA@$0A@@ATL@@QAE@PBD@Z 10083ac0 f i dllmain.obj
 0002:00015b20       ??0?$CTraceCategoryEx@$0CA@$0A@@ATL@@QAE@PBD@Z 10083b20 f i dllmain.obj
 0002:00015b80       ??0?$CTraceCategoryEx@$0CAA@$0A@@ATL@@QAE@PBD@Z 10083b80 f i dllmain.obj
 0002:00015be0       ??0?$CTraceCategoryEx@$0CAAA@$0A@@ATL@@QAE@PBD@Z 10083be0 f i dllmain.obj
 0002:00015c40       ??0?$CTraceCategoryEx@$0CAAAA@$0A@@ATL@@QAE@PBD@Z 10083c40 f i dllmain.obj
 0002:00015ca0       ??0?$CTraceCategoryEx@$0CAAAAA@$0A@@ATL@@QAE@PBD@Z 10083ca0 f i dllmain.obj
 0002:00015d00       ??0?$CTraceCategoryEx@$0EA@$0A@@ATL@@QAE@PBD@Z 10083d00 f i dllmain.obj
 0002:00015d60       ??0?$CTraceCategoryEx@$0EAA@$0A@@ATL@@QAE@PBD@Z 10083d60 f i dllmain.obj
 0002:00015dc0       ??0?$CTraceCategoryEx@$0EAAA@$0A@@ATL@@QAE@PBD@Z 10083dc0 f i dllmain.obj
 0002:00015e20       ??0?$CTraceCategoryEx@$0EAAAA@$0A@@ATL@@QAE@PBD@Z 10083e20 f i dllmain.obj
 0002:00015e80       ??0?$CTraceCategoryEx@$0EAAAAA@$0A@@ATL@@QAE@PBD@Z 10083e80 f i dllmain.obj
 0002:00015ee0       ??0?$CTraceCategoryEx@$0IA@$0A@@ATL@@QAE@PBD@Z 10083ee0 f i dllmain.obj
 0002:00015f40       ??0?$CTraceCategoryEx@$0IAA@$0A@@ATL@@QAE@PBD@Z 10083f40 f i dllmain.obj
 0002:00015fa0       ??0?$CTraceCategoryEx@$0IAAA@$0A@@ATL@@QAE@PBD@Z 10083fa0 f i dllmain.obj
 0002:00016000       ??0?$CTraceCategoryEx@$0IAAAA@$0A@@ATL@@QAE@PBD@Z 10084000 f i dllmain.obj
 0002:00016060       ??0CAtlComModule@ATL@@QAE@XZ 10084060 f i dllmain.obj
 0002:00016190       ??0CAtlStringMgr@ATL@@QAE@PAUIAtlMemMgr@1@@Z 10084190 f i dllmain.obj
 0002:00016220       ??0CAtlStringMgrStaticInitializer@ATLImplementationDetails@ATL@@QAE@XZ 10084220 f i dllmain.obj
 0002:00016270       ??0CAtlWinModule@ATL@@QAE@XZ 10084270 f i dllmain.obj
 0002:00016340       ??0CComCriticalSection@ATL@@QAE@XZ 10084340 f i dllmain.obj
 0002:000163a0       ??0CNilStringData@ATL@@QAE@XZ 100843a0 f i dllmain.obj
 0002:00016440       ??0CPreserveLastError@ATL@@QAE@XZ 10084440 f i dllmain.obj
 0002:000164b0       ??0CTraceFileAndLineInfo@ATL@@QAE@PBDH@Z 100844b0 f i dllmain.obj
 0002:00016500       ??0CWin32Heap@ATL@@QAE@PAX@Z 10084500 f i dllmain.obj
 0002:000165b0       ??0_ATL_COM_MODULE70@ATL@@QAE@XZ 100845b0 f i dllmain.obj
 0002:00016610       ??0_ATL_WIN_MODULE70@ATL@@QAE@XZ 10084610 f i dllmain.obj
 0002:000166c0       ??1?$CHeapPtr@DVCCRTAllocator@ATL@@@ATL@@QAE@XZ 100846c0 f i dllmain.obj
 0002:00016710       ??1?$CHeapPtr@_WVCCRTAllocator@ATL@@@ATL@@QAE@XZ 10084710 f i dllmain.obj
 0002:00016760       ??1?$CHeapPtrBase@DVCCRTAllocator@ATL@@@ATL@@QAE@XZ 10084760 f i dllmain.obj
 0002:000167b0       ??1?$CHeapPtrBase@_WVCCRTAllocator@ATL@@@ATL@@QAE@XZ 100847b0 f i dllmain.obj
 0002:00016800       ??1?$CSimpleArray@GV?$CSimpleArrayEqualHelper@G@ATL@@@ATL@@QAE@XZ 10084800 f i dllmain.obj
 0002:00016890       ??1CAtlComModule@ATL@@QAE@XZ 10084890 f i dllmain.obj
 0002:00016920       ??1CAtlStringMgr@ATL@@UAE@XZ 10084920 f i dllmain.obj
 0002:00016960       ??1CAtlWinModule@ATL@@QAE@XZ 10084960 f i dllmain.obj
 0002:000169f0       ??1CComBSTR@ATL@@QAE@XZ    100849f0 f i dllmain.obj
 0002:00016a50       ??1CComCriticalSection@ATL@@QAE@XZ 10084a50 f i dllmain.obj
 0002:00016a90       ??1CPreserveLastError@ATL@@QAE@XZ 10084a90 f i dllmain.obj
 0002:00016af0       ??1CWin32Heap@ATL@@UAE@XZ  10084af0 f i dllmain.obj
 0002:00016bc0       ??1_ATL_COM_MODULE70@ATL@@QAE@XZ 10084bc0 f i dllmain.obj
 0002:00016c20       ??1_ATL_WIN_MODULE70@ATL@@QAE@XZ 10084c20 f i dllmain.obj
 0002:00016c80       ??1stringdispid@CComTypeInfoHolder@ATL@@QAE@XZ 10084c80 f i dllmain.obj
 0002:00016cd0       ??A?$CSimpleArray@GV?$CSimpleArrayEqualHelper@G@ATL@@@ATL@@QAEAAGH@Z 10084cd0 f i dllmain.obj
 0002:00016da0       ??B?$CHeapPtrBase@DVCCRTAllocator@ATL@@@ATL@@QBEPADXZ 10084da0 f i dllmain.obj
 0002:00016de0       ??B?$CHeapPtrBase@_WVCCRTAllocator@ATL@@@ATL@@QBEPA_WXZ 10084de0 f i dllmain.obj
 0002:00016e20       ??B?$CTraceCategoryEx@$00$0A@@ATL@@QAEIXZ 10084e20 f i dllmain.obj
 0002:00016e60       ??B?$CTraceCategoryEx@$01$0A@@ATL@@QAEIXZ 10084e60 f i dllmain.obj
 0002:00016ea0       ??B?$CTraceCategoryEx@$0CA@$0A@@ATL@@QAEIXZ 10084ea0 f i dllmain.obj
 0002:00016ee0       ??B?$CTypedSimpleList@PAUCRuntimeClass@@@@QAEPAUCRuntimeClass@@XZ 10084ee0 f i dllmain.obj
 0002:00016f30       ??B?$CTypedSimpleList@PAVCOleObjectFactory@@@@QAEPAVCOleObjectFactory@@XZ 10084f30 f i dllmain.obj
 0002:00016f80       ??RCTraceFileAndLineInfo@ATL@@QBAXHIPBDZZ 10084f80 f i dllmain.obj
 0002:00017090       ??RCTraceFileAndLineInfo@ATL@@QBAXPBDZZ 10085090 f i dllmain.obj
 0002:000171b0       ??_Estringdispid@CComTypeInfoHolder@ATL@@QAEPAXI@Z 100851b0 f i dllmain.obj
 0002:000172b0       ??_ECAtlStringMgr@ATL@@UAEPAXI@Z 100852b0 f i dllmain.obj
 0002:000172b0       ??_GCAtlStringMgr@ATL@@UAEPAXI@Z 100852b0 f i dllmain.obj
 0002:00017320       ??_ECWin32Heap@ATL@@UAEPAXI@Z 10085320 f i dllmain.obj
 0002:00017320       ??_GCWin32Heap@ATL@@UAEPAXI@Z 10085320 f i dllmain.obj
 0002:00017390       ??_H@YGXPAXIIP6EPAX0@Z@Z   10085390 f i dllmain.obj
 0002:00017440       ?AddRef@CStringData@ATL@@QAEXXZ 10085440 f i dllmain.obj
 0002:000174e0       ?Allocate@?$CHeapPtr@DVCCRTAllocator@ATL@@@ATL@@QAE_NI@Z 100854e0 f i dllmain.obj
 0002:000175a0       ?Allocate@?$CHeapPtr@_WVCCRTAllocator@ATL@@@ATL@@QAE_NI@Z 100855a0 f i dllmain.obj
 0002:00017660       ?Allocate@CAtlStringMgr@ATL@@UAEPAUCStringData@2@HH@Z 10085660 f i dllmain.obj
 0002:000178f0       ?Allocate@CCRTAllocator@ATL@@SAPAXI@Z 100858f0 f i dllmain.obj
 0002:00017950       ?Allocate@CWin32Heap@ATL@@UAEPAXI@Z 10085950 f i dllmain.obj
 0002:000179c0       ?AllocateBytes@?$CHeapPtrBase@DVCCRTAllocator@ATL@@@ATL@@QAE_NI@Z 100859c0 f i dllmain.obj
 0002:00017a80       ?AllocateBytes@?$CHeapPtrBase@_WVCCRTAllocator@ATL@@@ATL@@QAE_NI@Z 10085a80 f i dllmain.obj
 0002:00017b40       ?AtlWinModuleInit@ATL@@YGJPAU_ATL_WIN_MODULE70@1@@Z 10085b40 f i dllmain.obj
 0002:00017c60       ?AtlWinModuleTerm@ATL@@YGJPAU_ATL_WIN_MODULE70@1@PAUHINSTANCE__@@@Z 10085c60 f i dllmain.obj
 0002:00017d60       ?Clone@CAtlStringMgr@ATL@@UAEPAUIAtlStringMgr@2@XZ 10085d60 f i dllmain.obj
 0002:00017da0       ?Free@?$CHeapPtrBase@DVCCRTAllocator@ATL@@@ATL@@QAEXXZ 10085da0 f i dllmain.obj
 0002:00017e10       ?Free@?$CHeapPtrBase@_WVCCRTAllocator@ATL@@@ATL@@QAEXXZ 10085e10 f i dllmain.obj
 0002:00017e80       ?Free@CAtlStringMgr@ATL@@UAEXPAUCStringData@2@@Z 10085e80 f i dllmain.obj
 0002:00017f80       ?Free@CCRTAllocator@ATL@@SAXPAX@Z 10085f80 f i dllmain.obj
 0002:00017fe0       ?Free@CWin32Heap@ATL@@UAEXPAX@Z 10085fe0 f i dllmain.obj
 0002:000180a0       ?GetCategoryName@CTrace@ATL@@CAPA_WI@Z 100860a0 f i dllmain.obj
 0002:00018120       ?GetHead@CSimpleList@@QBEPAXXZ 10086120 f i dllmain.obj
 0002:00018160       ?GetInstance@CAtlStringMgr@ATL@@SAPAUIAtlStringMgr@2@XZ 10086160 f i dllmain.obj
 0002:000182a0       ?GetModuleInstance@CAtlBaseModule@ATL@@QAEPAUHINSTANCE__@@XZ 100862a0 f i dllmain.obj
 0002:000182e0       ?GetNilString@CAtlStringMgr@ATL@@UAEPAUCStringData@2@XZ 100862e0 f i dllmain.obj
 0002:00018340       ?GetSize@?$CSimpleArray@GV?$CSimpleArrayEqualHelper@G@ATL@@@ATL@@QBEHXZ 10086340 f i dllmain.obj
 0002:00018380       ?GetSize@CWin32Heap@ATL@@UAEIPAX@Z 10086380 f i dllmain.obj
 0002:000183f0       ?Init@CComCriticalSection@ATL@@QAEJXZ 100863f0 f i dllmain.obj
 0002:00018480       ?Reallocate@CAtlStringMgr@ATL@@UAEPAUCStringData@2@PAU32@HH@Z 10086480 f i dllmain.obj
 0002:00018730       ?Reallocate@CWin32Heap@ATL@@UAEPAXPAXI@Z 10086730 f i dllmain.obj
 0002:00018800       ?RegisterCategory@CTrace@ATL@@SAXPBDI@Z 10086800 f i dllmain.obj
 0002:00018990       ?RemoveAll@?$CSimpleArray@GV?$CSimpleArrayEqualHelper@G@ATL@@@ATL@@QAEXXZ 10086990 f i dllmain.obj
 0002:00018a50       ?SetManager@CNilStringData@ATL@@QAEXPAUIAtlStringMgr@2@@Z 10086a50 f i dllmain.obj
 0002:00018af0       ?Term@CAtlComModule@ATL@@QAEXXZ 10086af0 f i dllmain.obj
 0002:00018c00       ?Term@CAtlWinModule@ATL@@QAEXXZ 10086c00 f i dllmain.obj
 0002:00018c60       ?Term@CComCriticalSection@ATL@@QAEJXZ 10086c60 f i dllmain.obj
 0002:00018cc0       ?TraceV@CTrace@ATL@@CAXPBDHIIPB_W@Z 10086cc0 f i dllmain.obj
 0002:00019000       ?TraceV@CTrace@ATL@@SAXPBDHII0PAD@Z 10087000 f i dllmain.obj
 0002:000192b0       ?_AtlInitializeCriticalSectionEx@ATL@@YAHPAU_RTL_CRITICAL_SECTION@@KK@Z 100872b0 f i dllmain.obj
 0002:00019310       ?_AtlRaiseException@ATL@@YAXKK@Z 10087310 f i dllmain.obj
 0002:00019370       _DllMain@12                10087370 f   dllmain.obj
 0002:000194e0       _HRESULT_FROM_WIN32        100874e0 f i dllmain.obj
 0002:000195d0       __vscprintf                100875d0 f i dllmain.obj
 0002:00019630       __vscprintf_l              10087630 f i dllmain.obj
 0002:000196e0       __vsnprintf_s              100876e0 f i dllmain.obj
 0002:00019750       __vsnprintf_s_l            10087750 f i dllmain.obj
 0002:00019800       __vswprintf_s_l            10087800 f i dllmain.obj
 0002:000198b0       _swprintf_s                100878b0 f i dllmain.obj
 0002:00019930       ?OnClicked@CBmpCheckButton@SKINGDI@NMBASE@@IAEXXZ 10087930 f   BmpCheckButton.obj
 0002:00019a00       ?OnPaint@CBmpCheckButton@SKINGDI@NMBASE@@IAEXXZ 10087a00 f   BmpCheckButton.obj
 0002:00019c60       ?OnLButtonDown@CBmpCheckButton@SKINGDI@NMBASE@@IAEXIVCPoint@@@Z 10087c60 f   BmpCheckButton.obj
 0002:00019d80       ?OnEraseBkgnd@CBmpCheckButton@SKINGDI@NMBASE@@IAEHPAVCDC@@@Z 10087d80 f   BmpCheckButton.obj
 0002:00019dc0       ?OnShowWindow@CBmpCheckButton@SKINGDI@NMBASE@@IAEXHI@Z 10087dc0 f   BmpCheckButton.obj
 0002:00019e20       ?OnLButtonUp@CBmpCheckButton@SKINGDI@NMBASE@@IAEXIVCPoint@@@Z 10087e20 f   BmpCheckButton.obj
 0002:00019e80       ?OnMouseMove@CBmpCheckButton@SKINGDI@NMBASE@@IAEXIVCPoint@@@Z 10087e80 f   BmpCheckButton.obj
 0002:00019ee0       ?OnActivate@CBmpCheckButton@SKINGDI@NMBASE@@IAEXIPAVCWnd@@H@Z 10087ee0 f   BmpCheckButton.obj
 0002:00019f40       ?CtlColor@CBmpCheckButton@SKINGDI@NMBASE@@IAEPAUHBRUSH__@@PAVCDC@@I@Z 10087f40 f   BmpCheckButton.obj
 0002:0001a150       ?OnLButtonDblClk@CBmpCheckButton@SKINGDI@NMBASE@@IAEXIVCPoint@@@Z 10088150 f   BmpCheckButton.obj
 0002:0001a1b0       ??0CBmpCheckButton@SKINGDI@NMBASE@@QAE@XZ 100881b0 f   BmpCheckButton.obj
 0002:0001a2b0       ??0CRect@@QAE@XZ           100882b0 f i BmpCheckButton.obj
 0002:0001a320       ??1CBmpCheckButton@SKINGDI@NMBASE@@UAE@XZ 10088320 f   BmpCheckButton.obj
 0002:0001a3d0       ??BCRect@@QAEPAUtagRECT@@XZ 100883d0 f i BmpCheckButton.obj
 0002:0001a410       ??_ECBmpCheckButton@SKINGDI@NMBASE@@UAEPAXI@Z 10088410 f i BmpCheckButton.obj
 0002:0001a540       ??_GCBmpCheckButton@SKINGDI@NMBASE@@UAEPAXI@Z 10088540 f i BmpCheckButton.obj
 0002:0001a5d0       ?AfxAssertFailedLine@@YGHPBDH@Z 100885d0 f i BmpCheckButton.obj
 0002:0001a6c0       ?DrawItem@CBmpCheckButton@SKINGDI@NMBASE@@UAEXPAUtagDRAWITEMSTRUCT@@@Z 100886c0 f   BmpCheckButton.obj
 0002:0001a8d0       ?GetCheck@CBmpCheckButton@SKINGDI@NMBASE@@QBEHXZ 100888d0 f i BmpCheckButton.obj
 0002:0001a910       ?GetHeight@CMyBitmap@SKINGDI@NMBASE@@QAEHXZ 10088910 f i BmpCheckButton.obj
 0002:0001a950       ?GetMessageMap@CBmpCheckButton@SKINGDI@NMBASE@@MBEPBUAFX_MSGMAP@@XZ 10088950 f   BmpCheckButton.obj
 0002:0001a9a0       ?GetThisMessageMap@CBmpCheckButton@SKINGDI@NMBASE@@KGPBUAFX_MSGMAP@@XZ 100889a0 f   BmpCheckButton.obj
 0002:0001a9e0       ?GetWidth@CMyBitmap@SKINGDI@NMBASE@@QAEHXZ 100889e0 f i BmpCheckButton.obj
 0002:0001aa20       ?Init@CBmpCheckButton@SKINGDI@NMBASE@@QAEXHHPAD0PAVCWnd@@H@Z 10088a20 f   BmpCheckButton.obj
 0002:0001aba0       ?OffsetRect@CRect@@QAEXHH@Z 10088ba0 f i BmpCheckButton.obj
 0002:0001ac10       ?PtInRect@CRect@@QBEHUtagPOINT@@@Z 10088c10 f i BmpCheckButton.obj
 0002:0001ac80       ?SetCheck@CBmpCheckButton@SKINGDI@NMBASE@@QAEXH@Z 10088c80 f   BmpCheckButton.obj
 0002:0001ae10       ?SetSizeToBmp@CBmpCheckButton@SKINGDI@NMBASE@@QAEXXZ 10088e10 f   BmpCheckButton.obj
 0002:0001af30       ?__global_array_delete@@YAXPAX@Z 10088f30 f i BmpCheckButton.obj
 0002:0001af80       ?__global_array_delete@@YAXPAXI@Z 10088f80 f i BmpCheckButton.obj
 0002:0001afe0       ?__global_delete@@YAXPAX@Z 10088fe0 f i BmpCheckButton.obj
 0002:0001b030       ?__global_delete@@YAXPAXI@Z 10089030 f i BmpCheckButton.obj
 0002:0001b090       ?OnClicked@CBmpRadioBtn@SKINGDI@NMBASE@@QAEXXZ 10089090 f   BmpRadioBtn.obj
 0002:0001b130       ?OnPaint@CBmpRadioBtn@SKINGDI@NMBASE@@QAEXXZ 10089130 f   BmpRadioBtn.obj
 0002:0001b380       ?OnLButtonDown@CBmpRadioBtn@SKINGDI@NMBASE@@QAEXIVCPoint@@@Z 10089380 f   BmpRadioBtn.obj
 0002:0001b480       ?OnEraseBkgnd@CBmpRadioBtn@SKINGDI@NMBASE@@QAEHPAVCDC@@@Z 10089480 f   BmpRadioBtn.obj
 0002:0001b4c0       ?OnShowWindow@CBmpRadioBtn@SKINGDI@NMBASE@@QAEXHI@Z 100894c0 f   BmpRadioBtn.obj
 0002:0001b520       ?OnLButtonUp@CBmpRadioBtn@SKINGDI@NMBASE@@QAEXIVCPoint@@@Z 10089520 f   BmpRadioBtn.obj
 0002:0001b580       ?OnMouseMove@CBmpRadioBtn@SKINGDI@NMBASE@@QAEXIVCPoint@@@Z 10089580 f   BmpRadioBtn.obj
 0002:0001b5e0       ?OnActivate@CBmpRadioBtn@SKINGDI@NMBASE@@QAEXIPAVCWnd@@H@Z 100895e0 f   BmpRadioBtn.obj
 0002:0001b640       ?CtlColor@CBmpRadioBtn@SKINGDI@NMBASE@@QAEPAUHBRUSH__@@PAVCDC@@I@Z 10089640 f   BmpRadioBtn.obj
 0002:0001b850       ?OnLButtonDblClk@CBmpRadioBtn@SKINGDI@NMBASE@@QAEXIVCPoint@@@Z 10089850 f   BmpRadioBtn.obj
 0002:0001b8b0       ??0CBmpRadioBtn@SKINGDI@NMBASE@@QAE@XZ 100898b0 f   BmpRadioBtn.obj
 0002:0001b9c0       ??1CBmpRadioBtn@SKINGDI@NMBASE@@UAE@XZ 100899c0 f   BmpRadioBtn.obj
 0002:0001ba70       ??_ECBmpRadioBtn@SKINGDI@NMBASE@@UAEPAXI@Z 10089a70 f i BmpRadioBtn.obj
 0002:0001bba0       ??_GCBmpRadioBtn@SKINGDI@NMBASE@@UAEPAXI@Z 10089ba0 f i BmpRadioBtn.obj
 0002:0001bc30       ?AddToGroup@CBmpRadioBtn@SKINGDI@NMBASE@@QAEXPAV123@@Z 10089c30 f   BmpRadioBtn.obj
 0002:0001bce0       ?DrawItem@CBmpRadioBtn@SKINGDI@NMBASE@@UAEXPAUtagDRAWITEMSTRUCT@@@Z 10089ce0 f   BmpRadioBtn.obj
 0002:0001bee0       ?GetCheck@CBmpRadioBtn@SKINGDI@NMBASE@@QBEHXZ 10089ee0 f i BmpRadioBtn.obj
 0002:0001bf20       ?GetMessageMap@CBmpRadioBtn@SKINGDI@NMBASE@@MBEPBUAFX_MSGMAP@@XZ 10089f20 f   BmpRadioBtn.obj
 0002:0001bf70       ?GetThisMessageMap@CBmpRadioBtn@SKINGDI@NMBASE@@KGPBUAFX_MSGMAP@@XZ 10089f70 f   BmpRadioBtn.obj
 0002:0001bfb0       ?GroupCheck@CBmpRadioBtn@SKINGDI@NMBASE@@IAEXH@Z 10089fb0 f   BmpRadioBtn.obj
 0002:0001c0c0       ?Init@CBmpRadioBtn@SKINGDI@NMBASE@@QAEXHHPAD0PAVCWnd@@@Z 1008a0c0 f   BmpRadioBtn.obj
 0002:0001c230       ?RemoveFromGroup@CBmpRadioBtn@SKINGDI@NMBASE@@QAEXXZ 1008a230 f   BmpRadioBtn.obj
 0002:0001c2d0       ?SetCheck@CBmpRadioBtn@SKINGDI@NMBASE@@QAEXH@Z 1008a2d0 f   BmpRadioBtn.obj
 0002:0001c460       ?SetNext@CBmpRadioBtn@SKINGDI@NMBASE@@IAEXPAV123@@Z 1008a460 f i BmpRadioBtn.obj
 0002:0001c4b0       ?SetPrev@CBmpRadioBtn@SKINGDI@NMBASE@@IAEXPAV123@@Z 1008a4b0 f i BmpRadioBtn.obj
 0002:0001c500       ?SetSizeToBmp@CBmpRadioBtn@SKINGDI@NMBASE@@QAEXXZ 1008a500 f   BmpRadioBtn.obj
 0002:0001c620       ??0CBmpRegion@SKINGDI@NMBASE@@QAE@XZ 1008a620 f i BmpToRegion.obj
 0002:0001c670       ??1CBmpRegion@SKINGDI@NMBASE@@QAE@XZ 1008a670 f i BmpToRegion.obj
 0002:0001c6f0       ??4CBmpRegion@SKINGDI@NMBASE@@QAEAAV012@ABV012@@Z 1008a6f0 f i BmpToRegion.obj
 0002:0001c740       ?BitmapToRegion@SKINGDI@NMBASE@@YAPAUHRGN__@@PAUHBITMAP__@@KK@Z 1008a740 f   BmpToRegion.obj
 0002:0001d2e0       ?SetWindowRgn@CBmpRegion@SKINGDI@NMBASE@@QAEHPAUHWND__@@PAUHBITMAP__@@KK@Z 1008b2e0 f   BmpToRegion.obj
 0002:0001d3b0       ?WindowResize2Bitmap@SKINGDI@NMBASE@@YAHPAUHWND__@@PAX@Z 1008b3b0 f   BmpToRegion.obj
 0002:0001d4c0       ?WindowResize2Bitmap@SKINGDI@NMBASE@@YAHPAUHWND__@@PBD@Z 1008b4c0 f   BmpToRegion.obj
 0002:0001d650       ?OnSetFocus@CChatViewEdit@SKINGDI@NMBASE@@IAEXPAVCWnd@@@Z 1008b650 f   ChatViewEdit.obj
 0002:0001d6d0       ??0CChatViewEdit@SKINGDI@NMBASE@@QAE@XZ 1008b6d0 f   ChatViewEdit.obj
 0002:0001d740       ??1CChatViewEdit@SKINGDI@NMBASE@@UAE@XZ 1008b740 f   ChatViewEdit.obj
 0002:0001d7a0       ??_ECChatViewEdit@SKINGDI@NMBASE@@UAEPAXI@Z 1008b7a0 f i ChatViewEdit.obj
 0002:0001d8d0       ??_GCChatViewEdit@SKINGDI@NMBASE@@UAEPAXI@Z 1008b8d0 f i ChatViewEdit.obj
 0002:0001d960       ?AddLinkText@CChatViewEdit@SKINGDI@NMBASE@@QAEXV?$CStringT@DV?$StrTraitMFC_DLL@DV?$ChTraitsCRT@D@ATL@@@@@ATL@@K@Z 1008b960 f   ChatViewEdit.obj
 0002:0001dad0       ?AddText@CChatViewEdit@SKINGDI@NMBASE@@QAEXPADKHH@Z 1008bad0 f   ChatViewEdit.obj
 0002:0001ddd0       ?AddText@CChatViewEdit@SKINGDI@NMBASE@@QAEXPAV?$CStringT@DV?$StrTraitMFC_DLL@DV?$ChTraitsCRT@D@ATL@@@@@ATL@@KHH@Z 1008bdd0 f   ChatViewEdit.obj
 0002:0001de50       ?Create@CChatViewEdit@SKINGDI@NMBASE@@QAEHKABUtagRECT@@PAVCWnd@@I@Z 1008be50 f   ChatViewEdit.obj
 0002:0001def0       ?GetMessageMap@CChatViewEdit@SKINGDI@NMBASE@@MBEPBUAFX_MSGMAP@@XZ 1008bef0 f   ChatViewEdit.obj
 0002:0001df40       ?GetThisMessageMap@CChatViewEdit@SKINGDI@NMBASE@@KGPBUAFX_MSGMAP@@XZ 1008bf40 f   ChatViewEdit.obj
 0002:0001df80       ?SetTextFormat@CChatViewEdit@SKINGDI@NMBASE@@QAEXH@Z 1008bf80 f   ChatViewEdit.obj
 0002:0001dfc0       ?WindowProc@CChatViewEdit@SKINGDI@NMBASE@@MAEJIIJ@Z 1008bfc0 f   ChatViewEdit.obj
 0002:0001e020       ?_GetBaseClass@CCustomHtml@SKINGDI@NMBASE@@KGPAUCRuntimeClass@@XZ 1008c020 f   CustomHtml.obj
 0002:0001e070       ?CreateObject@CCustomHtml@SKINGDI@NMBASE@@SGPAVCObject@@XZ 1008c070 f   CustomHtml.obj
 0002:0001e150       ??$?0UIDispatch@@@?$_com_ptr_t@V?$_com_IIID@UIHTMLDocument2@MSHTML@@$1?_GUID_332c4425_26cb_11d0_b483_00c04fd90119@@3U__s_GUID@@B@@@@QAE@PAUIDispatch@@@Z 1008c150 f i CustomHtml.obj
 0002:0001e1e0       ??$?4UIHTMLDocument2@MSHTML@@@?$_com_ptr_t@V?$_com_IIID@UIHTMLDocument2@MSHTML@@$1?_GUID_332c4425_26cb_11d0_b483_00c04fd90119@@3U__s_GUID@@B@@@@QAEAAV0@PAUIHTMLDocument2@MSHTML@@@Z 1008c1e0 f i CustomHtml.obj
 0002:0001e280       ??$?4UIHTMLStyleSheet@MSHTML@@@?$_com_ptr_t@V?$_com_IIID@UIHTMLStyleSheet@MSHTML@@$1?_GUID_3050f2e3_98b5_11cf_bb82_00aa00bdce0b@@3U__s_GUID@@B@@@@QAEAAV0@PAUIHTMLStyleSheet@MSHTML@@@Z 1008c280 f i CustomHtml.obj
 0002:0001e320       ??$_QueryInterface@PAUIDispatch@@@?$_com_ptr_t@V?$_com_IIID@UIHTMLDocument2@MSHTML@@$1?_GUID_332c4425_26cb_11d0_b483_00c04fd90119@@3U__s_GUID@@B@@@@AAEJPAUIDispatch@@@Z 1008c320 f i CustomHtml.obj
 0002:0001e440       ??0?$_com_ptr_t@V?$_com_IIID@UIHTMLElement@MSHTML@@$1?_GUID_3050f1ff_98b5_11cf_bb82_00aa00bdce0b@@3U__s_GUID@@B@@@@QAE@PAUIHTMLElement@MSHTML@@_N@Z 1008c440 f i CustomHtml.obj
 0002:0001e4b0       ??0?$_com_ptr_t@V?$_com_IIID@UIHTMLStyle@MSHTML@@$1?_GUID_3050f25e_98b5_11cf_bb82_00aa00bdce0b@@3U__s_GUID@@B@@@@QAE@PAUIHTMLStyle@MSHTML@@_N@Z 1008c4b0 f i CustomHtml.obj
 0002:0001e520       ??0?$_com_ptr_t@V?$_com_IIID@UIHTMLStyleSheet@MSHTML@@$1?_GUID_3050f2e3_98b5_11cf_bb82_00aa00bdce0b@@3U__s_GUID@@B@@@@QAE@PAUIHTMLStyleSheet@MSHTML@@_N@Z 1008c520 f i CustomHtml.obj
 0002:0001e590       ??0CCustomHtml@SKINGDI@NMBASE@@QAE@XZ 1008c590 f   CustomHtml.obj
 0002:0001e5f0       ??0Data_t@_bstr_t@@QAE@PBD@Z 1008c5f0 f i CustomHtml.obj
 0002:0001e670       ??0Data_t@_bstr_t@@QAE@PB_W@Z 1008c670 f i CustomHtml.obj
 0002:0001e710       ??0_bstr_t@@QAE@PBD@Z      1008c710 f i CustomHtml.obj
 0002:0001e820       ??0_bstr_t@@QAE@PB_W@Z     1008c820 f i CustomHtml.obj
 0002:0001e930       ??1?$_com_ptr_t@V?$_com_IIID@UIHTMLDocument2@MSHTML@@$1?_GUID_332c4425_26cb_11d0_b483_00c04fd90119@@3U__s_GUID@@B@@@@QAE@XZ 1008c930 f i CustomHtml.obj
 0002:0001e980       ??1?$_com_ptr_t@V?$_com_IIID@UIHTMLElement@MSHTML@@$1?_GUID_3050f1ff_98b5_11cf_bb82_00aa00bdce0b@@3U__s_GUID@@B@@@@QAE@XZ 1008c980 f i CustomHtml.obj
 0002:0001e9d0       ??1?$_com_ptr_t@V?$_com_IIID@UIHTMLStyle@MSHTML@@$1?_GUID_3050f25e_98b5_11cf_bb82_00aa00bdce0b@@3U__s_GUID@@B@@@@QAE@XZ 1008c9d0 f i CustomHtml.obj
 0002:0001ea20       ??1?$_com_ptr_t@V?$_com_IIID@UIHTMLStyleSheet@MSHTML@@$1?_GUID_3050f2e3_98b5_11cf_bb82_00aa00bdce0b@@3U__s_GUID@@B@@@@QAE@XZ 1008ca20 f i CustomHtml.obj
 0002:0001ea70       ??1CCustomHtml@SKINGDI@NMBASE@@UAE@XZ 1008ca70 f   CustomHtml.obj
 0002:0001ead0       ??1Data_t@_bstr_t@@AAE@XZ  1008cad0 f i CustomHtml.obj
 0002:0001eb20       ??1_bstr_t@@QAE@XZ         1008cb20 f i CustomHtml.obj
 0002:0001eb70       ??2Data_t@_bstr_t@@SAPAXI@Z 1008cb70 f i CustomHtml.obj
 0002:0001ebc0       ??4?$_com_ptr_t@V?$_com_IIID@UIHTMLStyleSheet@MSHTML@@$1?_GUID_3050f2e3_98b5_11cf_bb82_00aa00bdce0b@@3U__s_GUID@@B@@@@QAEAAV0@H@Z 1008cbc0 f i CustomHtml.obj
 0002:0001ec30       ??8?$_com_ptr_t@V?$_com_IIID@UIHTMLDocument2@MSHTML@@$1?_GUID_332c4425_26cb_11d0_b483_00c04fd90119@@3U__s_GUID@@B@@@@QBE_NH@Z 1008cc30 f i CustomHtml.obj
 0002:0001ecc0       ??8?$_com_ptr_t@V?$_com_IIID@UIHTMLElement@MSHTML@@$1?_GUID_3050f1ff_98b5_11cf_bb82_00aa00bdce0b@@3U__s_GUID@@B@@@@QBE_NH@Z 1008ccc0 f i CustomHtml.obj
 0002:0001ed50       ??8?$_com_ptr_t@V?$_com_IIID@UIHTMLStyleSheet@MSHTML@@$1?_GUID_3050f2e3_98b5_11cf_bb82_00aa00bdce0b@@3U__s_GUID@@B@@@@QBE_NH@Z 1008cd50 f i CustomHtml.obj
 0002:0001ede0       ??9?$_com_ptr_t@V?$_com_IIID@UIHTMLDocument2@MSHTML@@$1?_GUID_332c4425_26cb_11d0_b483_00c04fd90119@@3U__s_GUID@@B@@@@QBE_NH@Z 1008cde0 f i CustomHtml.obj
 0002:0001ee70       ??9?$_com_ptr_t@V?$_com_IIID@UIHTMLElement@MSHTML@@$1?_GUID_3050f1ff_98b5_11cf_bb82_00aa00bdce0b@@3U__s_GUID@@B@@@@QBE_NH@Z 1008ce70 f i CustomHtml.obj
 0002:0001ef00       ??9?$_com_ptr_t@V?$_com_IIID@UIHTMLStyleSheet@MSHTML@@$1?_GUID_3050f2e3_98b5_11cf_bb82_00aa00bdce0b@@3U__s_GUID@@B@@@@QBE_NH@Z 1008cf00 f i CustomHtml.obj
 0002:0001ef90       ??B_bstr_t@@QBEPA_WXZ      1008cf90 f i CustomHtml.obj
 0002:0001f010       ??C?$_com_ptr_t@V?$_com_IIID@UIHTMLDocument2@MSHTML@@$1?_GUID_332c4425_26cb_11d0_b483_00c04fd90119@@3U__s_GUID@@B@@@@QBEPAUIHTMLDocument2@MSHTML@@XZ 1008d010 f i CustomHtml.obj
 0002:0001f080       ??C?$_com_ptr_t@V?$_com_IIID@UIHTMLElement@MSHTML@@$1?_GUID_3050f1ff_98b5_11cf_bb82_00aa00bdce0b@@3U__s_GUID@@B@@@@QBEPAUIHTMLElement@MSHTML@@XZ 1008d080 f i CustomHtml.obj
 0002:0001f0f0       ??C?$_com_ptr_t@V?$_com_IIID@UIHTMLStyle@MSHTML@@$1?_GUID_3050f25e_98b5_11cf_bb82_00aa00bdce0b@@3U__s_GUID@@B@@@@QBEPAUIHTMLStyle@MSHTML@@XZ 1008d0f0 f i CustomHtml.obj
 0002:0001f160       ??C?$_com_ptr_t@V?$_com_IIID@UIHTMLStyleSheet@MSHTML@@$1?_GUID_3050f2e3_98b5_11cf_bb82_00aa00bdce0b@@3U__s_GUID@@B@@@@QBEPAUIHTMLStyleSheet@MSHTML@@XZ 1008d160 f i CustomHtml.obj
 0002:0001f1d0       ??_ECCustomHtml@SKINGDI@NMBASE@@UAEPAXI@Z 1008d1d0 f i CustomHtml.obj
 0002:0001f300       ??_GCCustomHtml@SKINGDI@NMBASE@@UAEPAXI@Z 1008d300 f i CustomHtml.obj
 0002:0001f390       ??_GData_t@_bstr_t@@AAEPAXI@Z 1008d390 f i CustomHtml.obj
 0002:0001f400       ?AssertValid@CCustomHtml@SKINGDI@NMBASE@@UBEXXZ 1008d400 f   CustomHtml.obj
 0002:0001f450       ?Attach@?$_com_ptr_t@V?$_com_IIID@UIHTMLDocument2@MSHTML@@$1?_GUID_332c4425_26cb_11d0_b483_00c04fd90119@@3U__s_GUID@@B@@@@QAEXPAUIHTMLDocument2@MSHTML@@@Z 1008d450 f i CustomHtml.obj
 0002:0001f4b0       ?DoDataExchange@CCustomHtml@SKINGDI@NMBASE@@MAEXPAVCDataExchange@@@Z 1008d4b0 f   CustomHtml.obj
 0002:0001f510       ?Dump@CCustomHtml@SKINGDI@NMBASE@@UBEXAAVCDumpContext@@@Z 1008d510 f   CustomHtml.obj
 0002:0001f570       ?GetIID@?$_com_IIID@UIHTMLDocument2@MSHTML@@$1?_GUID_332c4425_26cb_11d0_b483_00c04fd90119@@3U__s_GUID@@B@@SAABU_GUID@@XZ 1008d570 f i CustomHtml.obj
 0002:0001f5b0       ?GetIID@?$_com_ptr_t@V?$_com_IIID@UIHTMLDocument2@MSHTML@@$1?_GUID_332c4425_26cb_11d0_b483_00c04fd90119@@3U__s_GUID@@B@@@@SAABU_GUID@@XZ 1008d5b0 f i CustomHtml.obj
 0002:0001f600       ?GetMessageMap@CCustomHtml@SKINGDI@NMBASE@@MBEPBUAFX_MSGMAP@@XZ 1008d600 f   CustomHtml.obj
 0002:0001f650       ?GetRuntimeClass@CCustomHtml@SKINGDI@NMBASE@@UBEPAUCRuntimeClass@@XZ 1008d650 f   CustomHtml.obj
 0002:0001f690       ?GetThisClass@CCustomHtml@SKINGDI@NMBASE@@SGPAUCRuntimeClass@@XZ 1008d690 f   CustomHtml.obj
 0002:0001f6d0       ?GetThisMessageMap@CCustomHtml@SKINGDI@NMBASE@@KGPBUAFX_MSGMAP@@XZ 1008d6d0 f   CustomHtml.obj
 0002:0001f710       ?GetWString@Data_t@_bstr_t@@QAEAAPA_WXZ 1008d710 f i CustomHtml.obj
 0002:0001f750       ?Getbody@IHTMLDocument2@MSHTML@@QAE?AV?$_com_ptr_t@V?$_com_IIID@UIHTMLElement@MSHTML@@$1?_GUID_3050f1ff_98b5_11cf_bb82_00aa00bdce0b@@3U__s_GUID@@B@@@@XZ 1008d750 f i CustomHtml.obj
 0002:0001f860       ?Getstyle@IHTMLElement@MSHTML@@QAE?AV?$_com_ptr_t@V?$_com_IIID@UIHTMLStyle@MSHTML@@$1?_GUID_3050f25e_98b5_11cf_bb82_00aa00bdce0b@@3U__s_GUID@@B@@@@XZ 1008d860 f i CustomHtml.obj
 0002:0001f970       ?InsertHtml@CCustomHtml@SKINGDI@NMBASE@@QAEXPBD@Z 1008d970 f   CustomHtml.obj
 0002:0001fb60       ?Putborder@IHTMLStyle@MSHTML@@QAEXV_bstr_t@@@Z 1008db60 f i CustomHtml.obj
 0002:0001fc50       ?Release@Data_t@_bstr_t@@QAEKXZ 1008dc50 f i CustomHtml.obj
 0002:0001fd10       ?SetNoBorder@CCustomHtml@SKINGDI@NMBASE@@QAEXXZ 1008dd10 f   CustomHtml.obj
 0002:0001fef0       ?SetStyle@CCustomHtml@SKINGDI@NMBASE@@QAEXPBD@Z 1008def0 f   CustomHtml.obj
 0002:00020140       ?_AddRef@?$_com_ptr_t@V?$_com_IIID@UIHTMLDocument2@MSHTML@@$1?_GUID_332c4425_26cb_11d0_b483_00c04fd90119@@3U__s_GUID@@B@@@@AAEXXZ 1008e140 f i CustomHtml.obj
 0002:000201b0       ?_AddRef@?$_com_ptr_t@V?$_com_IIID@UIHTMLElement@MSHTML@@$1?_GUID_3050f1ff_98b5_11cf_bb82_00aa00bdce0b@@3U__s_GUID@@B@@@@AAEXXZ 1008e1b0 f i CustomHtml.obj
 0002:00020220       ?_AddRef@?$_com_ptr_t@V?$_com_IIID@UIHTMLStyle@MSHTML@@$1?_GUID_3050f25e_98b5_11cf_bb82_00aa00bdce0b@@3U__s_GUID@@B@@@@AAEXXZ 1008e220 f i CustomHtml.obj
 0002:00020290       ?_AddRef@?$_com_ptr_t@V?$_com_IIID@UIHTMLStyleSheet@MSHTML@@$1?_GUID_3050f2e3_98b5_11cf_bb82_00aa00bdce0b@@3U__s_GUID@@B@@@@AAEXXZ 1008e290 f i CustomHtml.obj
 0002:00020300       ?_Free@Data_t@_bstr_t@@AAEXXZ 1008e300 f i CustomHtml.obj
 0002:000203b0       ?_Free@_bstr_t@@AAEXXZ     1008e3b0 f i CustomHtml.obj
 0002:00020420       ?_Release@?$_com_ptr_t@V?$_com_IIID@UIHTMLDocument2@MSHTML@@$1?_GUID_332c4425_26cb_11d0_b483_00c04fd90119@@3U__s_GUID@@B@@@@AAEXXZ 1008e420 f i CustomHtml.obj
 0002:00020490       ?_Release@?$_com_ptr_t@V?$_com_IIID@UIHTMLElement@MSHTML@@$1?_GUID_3050f1ff_98b5_11cf_bb82_00aa00bdce0b@@3U__s_GUID@@B@@@@AAEXXZ 1008e490 f i CustomHtml.obj
 0002:00020500       ?_Release@?$_com_ptr_t@V?$_com_IIID@UIHTMLStyle@MSHTML@@$1?_GUID_3050f25e_98b5_11cf_bb82_00aa00bdce0b@@3U__s_GUID@@B@@@@AAEXXZ 1008e500 f i CustomHtml.obj
 0002:00020570       ?_Release@?$_com_ptr_t@V?$_com_IIID@UIHTMLStyleSheet@MSHTML@@$1?_GUID_3050f2e3_98b5_11cf_bb82_00aa00bdce0b@@3U__s_GUID@@B@@@@AAEXXZ 1008e570 f i CustomHtml.obj
 0002:000205e0       ?accHitTest@CFormView@@UAEJJJPAUtagVARIANT@@@Z 1008e5e0 f i CustomHtml.obj
 0002:00020640       ?accLocation@CFormView@@UAEJPAJ000UtagVARIANT@@@Z 1008e640 f i CustomHtml.obj
 0002:000206d0       ?createStyleSheet@IHTMLDocument2@MSHTML@@QAE?AV?$_com_ptr_t@V?$_com_IIID@UIHTMLStyleSheet@MSHTML@@$1?_GUID_3050f2e3_98b5_11cf_bb82_00aa00bdce0b@@3U__s_GUID@@B@@@@V_bstr_t@@J@Z 1008e6d0 f i CustomHtml.obj
 0002:00020840       ?get_accChild@CFormView@@UAEJUtagVARIANT@@PAPAUIDispatch@@@Z 1008e840 f i CustomHtml.obj
 0002:000208c0       ?get_accChildCount@CFormView@@UAEJPAJ@Z 1008e8c0 f i CustomHtml.obj
 0002:00020920       ?get_accName@CFormView@@UAEJUtagVARIANT@@PAPA_W@Z 1008e920 f i CustomHtml.obj
 0002:000209a0       ?insertAdjacentHTML@IHTMLElement@MSHTML@@QAEJV_bstr_t@@0@Z 1008e9a0 f i CustomHtml.obj
 0002:00020ac0       ??0CAniGraphButton@SKINGDI@NMBASE@@QAE@ABV012@@Z 1008eac0 f i GraphButton.obj
 0002:00020be0       ??0CAniGraphButton@SKINGDI@NMBASE@@QAE@XZ 1008ebe0 f   GraphButton.obj
 0002:00020db0       ??0CGraphButton@SKINGDI@NMBASE@@QAE@ABV012@@Z 1008edb0 f i GraphButton.obj
 0002:00021040       ??0CGraphButton@SKINGDI@NMBASE@@QAE@XZ 1008f040 f   GraphButton.obj
 0002:00021220       ??0CGraphCheckButton@SKINGDI@NMBASE@@QAE@ABV012@@Z 1008f220 f i GraphButton.obj
 0002:000212a0       ??0CGraphCheckButton@SKINGDI@NMBASE@@QAE@XZ 1008f2a0 f   GraphButton.obj
 0002:00021300       ??0CGraphRadioButton@SKINGDI@NMBASE@@QAE@ABV012@@Z 1008f300 f i GraphButton.obj
 0002:000213b0       ??0CGraphRadioButton@SKINGDI@NMBASE@@QAE@XZ 1008f3b0 f   GraphButton.obj
 0002:00021460       ??0CPoint@@QAE@HH@Z        1008f460 f i GraphButton.obj
 0002:000214b0       ??0CSliderButton@SKINGDI@NMBASE@@QAE@ABV012@@Z 1008f4b0 f i GraphButton.obj
 0002:00021660       ??0CSliderButton@SKINGDI@NMBASE@@QAE@XZ 1008f660 f   GraphButton.obj
 0002:000217c0       ??1CAniGraphButton@SKINGDI@NMBASE@@UAE@XZ 1008f7c0 f   GraphButton.obj
 0002:00021840       ??1CGraphButton@SKINGDI@NMBASE@@UAE@XZ 1008f840 f   GraphButton.obj
 0002:000218e0       ??1CGraphCheckButton@SKINGDI@NMBASE@@UAE@XZ 1008f8e0 f   GraphButton.obj
 0002:00021940       ??1CGraphRadioButton@SKINGDI@NMBASE@@UAE@XZ 1008f940 f   GraphButton.obj
 0002:000219a0       ??1CSliderButton@SKINGDI@NMBASE@@UAE@XZ 1008f9a0 f   GraphButton.obj
 0002:000219e0       ??4CAniGraphButton@SKINGDI@NMBASE@@QAEAAV012@ABV012@@Z 1008f9e0 f i GraphButton.obj
 0002:00021ab0       ??4CGraphButton@SKINGDI@NMBASE@@QAEAAV012@ABV012@@Z 1008fab0 f i GraphButton.obj
 0002:00021ce0       ??4CGraphCheckButton@SKINGDI@NMBASE@@QAEAAV012@ABV012@@Z 1008fce0 f i GraphButton.obj
 0002:00021d50       ??4CGraphRadioButton@SKINGDI@NMBASE@@QAEAAV012@ABV012@@Z 1008fd50 f i GraphButton.obj
 0002:00021df0       ??4CSliderButton@SKINGDI@NMBASE@@QAEAAV012@ABV012@@Z 1008fdf0 f i GraphButton.obj
 0002:00021fa0       ??9ATL@@YA_NABV?$CStringT@DV?$StrTraitMFC_DLL@DV?$ChTraitsCRT@D@ATL@@@@@0@PBD@Z 1008ffa0 f i GraphButton.obj
 0002:00022030       ??_ECAniGraphButton@SKINGDI@NMBASE@@UAEPAXI@Z 10090030 f i GraphButton.obj
 0002:00022140       ??_ECGraphButton@SKINGDI@NMBASE@@UAEPAXI@Z 10090140 f i GraphButton.obj
 0002:00022240       ??_ECGraphCheckButton@SKINGDI@NMBASE@@UAEPAXI@Z 10090240 f i GraphButton.obj
 0002:00022340       ??_ECGraphRadioButton@SKINGDI@NMBASE@@UAEPAXI@Z 10090340 f i GraphButton.obj
 0002:00022450       ??_ECSliderButton@SKINGDI@NMBASE@@UAEPAXI@Z 10090450 f i GraphButton.obj
 0002:00022550       ??_GCAniGraphButton@SKINGDI@NMBASE@@UAEPAXI@Z 10090550 f i GraphButton.obj
 0002:000225d0       ??_GCGraphButton@SKINGDI@NMBASE@@UAEPAXI@Z 100905d0 f i GraphButton.obj
 0002:00022640       ??_GCGraphCheckButton@SKINGDI@NMBASE@@UAEPAXI@Z 10090640 f i GraphButton.obj
 0002:000226b0       ??_GCGraphRadioButton@SKINGDI@NMBASE@@UAEPAXI@Z 100906b0 f i GraphButton.obj
 0002:00022730       ??_GCSliderButton@SKINGDI@NMBASE@@UAEPAXI@Z 10090730 f i GraphButton.obj
 0002:000227a0       ?ClearRadioData@CGraphRadioButton@SKINGDI@NMBASE@@QAEXXZ 100907a0 f   GraphButton.obj
 0002:00022810       ?Draw@CAniGraphButton@SKINGDI@NMBASE@@UAEXPAVCDC@@HH@Z 10090810 f   GraphButton.obj
 0002:00022b30       ?Draw@CGraphButton@SKINGDI@NMBASE@@UAEXPAVCDC@@HH@Z 10090b30 f   GraphButton.obj
 0002:00022dc0       ?Draw@CGraphCheckButton@SKINGDI@NMBASE@@UAEXPAVCDC@@HH@Z 10090dc0 f   GraphButton.obj
 0002:00023020       ?Draw@CGraphRadioButton@SKINGDI@NMBASE@@UAEXPAVCDC@@HH@Z 10091020 f   GraphButton.obj
 0002:00023280       ?Draw@CSliderButton@SKINGDI@NMBASE@@QAEXPAVCDC@@@Z 10091280 f   GraphButton.obj
 0002:000234f0       ?DrawBtnText@CAniGraphButton@SKINGDI@NMBASE@@QAEXPAVCDC@@K@Z 100914f0 f   GraphButton.obj
 0002:00023710       ?DrawScene@CAniGraphButton@SKINGDI@NMBASE@@QAEXPAVCDC@@HH@Z 10091710 f   GraphButton.obj
 0002:00023a30       ?DrawScene@CGraphButton@SKINGDI@NMBASE@@AAEXHH@Z 10091a30 f   GraphButton.obj
 0002:00023b40       ?DrawSprite@CGraphButton@SKINGDI@NMBASE@@AAEXHHHH@Z 10091b40 f   GraphButton.obj
 0002:00023c30       ?DrawToolTip@CGraphButton@SKINGDI@NMBASE@@QAEXPAVCDC@@HKK_N@Z 10091c30 f   GraphButton.obj
 0002:000240e0       ?Enable@CGraphButton@SKINGDI@NMBASE@@QAEXH@Z 100920e0 f   GraphButton.obj
 0002:00024160       ?Enable@CSliderButton@SKINGDI@NMBASE@@QAEXH@Z 10092160 f   GraphButton.obj
 0002:000241d0       ?GetButtonNumber@CGraphButton@SKINGDI@NMBASE@@QAEHXZ 100921d0 f i GraphButton.obj
 0002:00024210       ?GetButtonPoint@CGraphButton@SKINGDI@NMBASE@@QAE?AUtagPOINT@@XZ 10092210 f   GraphButton.obj
 0002:00024290       ?GetButtonState@CGraphButton@SKINGDI@NMBASE@@UAEHXZ 10092290 f   GraphButton.obj
 0002:00024330       ?GetButtonState@CGraphCheckButton@SKINGDI@NMBASE@@UAEHXZ 10092330 f   GraphButton.obj
 0002:00024380       ?GetButtonState@CGraphRadioButton@SKINGDI@NMBASE@@UAEHXZ 10092380 f   GraphButton.obj
 0002:00024420       ?GetNowPageNum@CSliderButton@SKINGDI@NMBASE@@QAEHXZ 10092420 f i GraphButton.obj
 0002:00024460       ?GetParent@CGraphButton@SKINGDI@NMBASE@@QAEPAVCWnd@@XZ 10092460 f i GraphButton.obj
 0002:000244a0       ?GetSprite@CGraphButton@SKINGDI@NMBASE@@QAEPAVxSprite@GRAPHICGDI@3@XZ 100924a0 f i GraphButton.obj
 0002:000244e0       ?Init@CAniGraphButton@SKINGDI@NMBASE@@QAEXPAVCWnd@@PAVCPage@GRAPHICGDI@3@HHPAVxSprite@63@HHH_N@Z 100924e0 f   GraphButton.obj
 0002:00024640       ?Init@CGraphButton@SKINGDI@NMBASE@@QAEXPAVCWnd@@PAVCPage@GRAPHICGDI@3@HHPAVxSprite@63@HHH_N3@Z 10092640 f   GraphButton.obj
 0002:00024900       ?Init@CSliderButton@SKINGDI@NMBASE@@QAEXPAVCWnd@@PAVCPage@GRAPHICGDI@3@HHPAVxSprite@63@HHHH_N@Z 10092900 f   GraphButton.obj
 0002:00024a90       ?InitAdd@CGraphButton@SKINGDI@NMBASE@@QAEXPAVCWnd@@PAVCPage@GRAPHICGDI@3@HHPAVxSprite@63@HHHH_N3@Z 10092a90 f   GraphButton.obj
 0002:00024d50       ?InitBtn@CGraphButton@SKINGDI@NMBASE@@UAEXXZ 10092d50 f i GraphButton.obj
 0002:00024d90       ?InitBtn@CGraphRadioButton@SKINGDI@NMBASE@@UAEXXZ 10092d90 f   GraphButton.obj
 0002:00024e00       ?IsEnable@CGraphButton@SKINGDI@NMBASE@@QBEHXZ 10092e00 f i GraphButton.obj
 0002:00024e40       ?IsShow@CGraphButton@SKINGDI@NMBASE@@QBEHXZ 10092e40 f i GraphButton.obj
 0002:00024e80       ?IsStyleVertical@CSliderButton@SKINGDI@NMBASE@@QAE_NXZ 10092e80 f i GraphButton.obj
 0002:00024ec0       ?LinkButton@CGraphRadioButton@SKINGDI@NMBASE@@QAEXPAVCGraphButton@23@@Z 10092ec0 f   GraphButton.obj
 0002:00024f60       ?MouseClickSoundNoUse@CGraphButton@SKINGDI@NMBASE@@QAEXXZ 10092f60 f   GraphButton.obj
 0002:00024fd0       ?MouseOverSoundNoUse@CGraphButton@SKINGDI@NMBASE@@QAEXXZ 10092fd0 f   GraphButton.obj
 0002:00025040       ?MoveWindow@CGraphButton@SKINGDI@NMBASE@@QAEXHH@Z 10093040 f i GraphButton.obj
 0002:00025090       ?MoveWindow@CGraphButton@SKINGDI@NMBASE@@QAEXUtagPOINT@@@Z 10093090 f i GraphButton.obj
 0002:000250f0       ?MoveWindow@CSliderButton@SKINGDI@NMBASE@@QAEXHH@Z 100930f0 f i GraphButton.obj
 0002:00025140       ?MoveWindow@CSliderButton@SKINGDI@NMBASE@@QAEXUtagPOINT@@@Z 10093140 f i GraphButton.obj
 0002:000251a0       ?MoveWindowEx@CGraphButton@SKINGDI@NMBASE@@QAEXHH@Z 100931a0 f i GraphButton.obj
 0002:00025200       ?OnLButtonDown@CGraphButton@SKINGDI@NMBASE@@UAEHHH@Z 10093200 f   GraphButton.obj
 0002:000252c0       ?OnLButtonDown@CGraphCheckButton@SKINGDI@NMBASE@@UAEHHH@Z 100932c0 f   GraphButton.obj
 0002:00025360       ?OnLButtonDown@CGraphRadioButton@SKINGDI@NMBASE@@UAEHHH@Z 10093360 f   GraphButton.obj
 0002:00025400       ?OnLButtonDown@CSliderButton@SKINGDI@NMBASE@@QAEHHH@Z 10093400 f   GraphButton.obj
 0002:00025520       ?OnLButtonUp@CGraphButton@SKINGDI@NMBASE@@UAEHHH@Z 10093520 f   GraphButton.obj
 0002:00025690       ?OnLButtonUp@CGraphCheckButton@SKINGDI@NMBASE@@UAEHHH@Z 10093690 f   GraphButton.obj
 0002:00025790       ?OnLButtonUp@CGraphRadioButton@SKINGDI@NMBASE@@UAEHHH@Z 10093790 f   GraphButton.obj
 0002:00025890       ?OnLButtonUp@CSliderButton@SKINGDI@NMBASE@@QAEHHH@Z 10093890 f   GraphButton.obj
 0002:00025980       ?OnMouseMove@CGraphButton@SKINGDI@NMBASE@@UAEHHH@Z 10093980 f   GraphButton.obj
 0002:00025ae0       ?OnMouseMove@CGraphCheckButton@SKINGDI@NMBASE@@UAEHHH@Z 10093ae0 f   GraphButton.obj
 0002:00025b90       ?OnMouseMove@CGraphRadioButton@SKINGDI@NMBASE@@UAEHHH@Z 10093b90 f   GraphButton.obj
 0002:00025c50       ?OnMouseMove@CSliderButton@SKINGDI@NMBASE@@QAEHHH@Z 10093c50 f   GraphButton.obj
 0002:00025f70       ?PtInRect@CGraphButton@SKINGDI@NMBASE@@QAEHHH@Z 10093f70 f i GraphButton.obj
 0002:00026010       ?SetBodyLength@CSliderButton@SKINGDI@NMBASE@@QAEXH@Z 10094010 f   GraphButton.obj
 0002:000260e0       ?SetBtnText@CAniGraphButton@SKINGDI@NMBASE@@QAEXHHV?$CStringT@DV?$StrTraitMFC_DLL@DV?$ChTraitsCRT@D@ATL@@@@@ATL@@PAVCFont@@@Z 100940e0 f   GraphButton.obj
 0002:000261f0       ?SetButtonPos@CGraphButton@SKINGDI@NMBASE@@QAEXHH@Z 100941f0 f   GraphButton.obj
 0002:00026240       ?SetButtonPos@CGraphButton@SKINGDI@NMBASE@@QAEXHHPAVxSprite@GRAPHICGDI@3@@Z 10094240 f   GraphButton.obj
 0002:00026300       ?SetButtonState@CGraphButton@SKINGDI@NMBASE@@UAEXH@Z 10094300 f   GraphButton.obj
 0002:000263a0       ?SetButtonState@CGraphCheckButton@SKINGDI@NMBASE@@UAEXH@Z 100943a0 f   GraphButton.obj
 0002:000263f0       ?SetButtonState@CGraphRadioButton@SKINGDI@NMBASE@@UAEXH@Z 100943f0 f   GraphButton.obj
 0002:000264b0       ?SetMouseClickSound@CGraphButton@SKINGDI@NMBASE@@QAEXV?$CStringT@DV?$StrTraitMFC_DLL@DV?$ChTraitsCRT@D@ATL@@@@@ATL@@@Z 100944b0 f   GraphButton.obj
 0002:000265a0       ?SetMouseOverSound@CGraphButton@SKINGDI@NMBASE@@QAEXV?$CStringT@DV?$StrTraitMFC_DLL@DV?$ChTraitsCRT@D@ATL@@@@@ATL@@@Z 100945a0 f   GraphButton.obj
 0002:00026690       ?SetNowPage@CSliderButton@SKINGDI@NMBASE@@QAEXH@Z 10094690 f   GraphButton.obj
 0002:00026850       ?SetOverImage@CGraphButton@SKINGDI@NMBASE@@QAEHPAVxSprite@GRAPHICGDI@3@HHHH@Z 10094850 f   GraphButton.obj
 0002:000268e0       ?SetOverImageIndex@CGraphButton@SKINGDI@NMBASE@@QAEXH@Z 100948e0 f   GraphButton.obj
 0002:00026930       ?SetOverImageUseFlag@CGraphButton@SKINGDI@NMBASE@@QAEXH@Z 10094930 f i GraphButton.obj
 0002:00026980       ?SetRect@CRect@@QAEXHHHH@Z 10094980 f i GraphButton.obj
 0002:00026a00       ?SetSprite@CGraphButton@SKINGDI@NMBASE@@QAEXPAVxSprite@GRAPHICGDI@3@H@Z 10094a00 f   GraphButton.obj
 0002:00026ad0       ?SetSprite@CGraphButton@SKINGDI@NMBASE@@QAEXPAVxSprite@GRAPHICGDI@3@HH@Z 10094ad0 f   GraphButton.obj
 0002:00026ba0       ?SetSprite@CSliderButton@SKINGDI@NMBASE@@QAEXPAVxSprite@GRAPHICGDI@3@@Z 10094ba0 f   GraphButton.obj
 0002:00026c50       ?SetToolTip@CGraphButton@SKINGDI@NMBASE@@QAEXPADPAVCFont@@@Z 10094c50 f   GraphButton.obj
 0002:00026e00       ?SetTotPage@CSliderButton@SKINGDI@NMBASE@@QAEXH@Z 10094e00 f   GraphButton.obj
 0002:00026e60       ?Show@CGraphButton@SKINGDI@NMBASE@@QAEXH@Z 10094e60 f   GraphButton.obj
 0002:00026ee0       ?ShowBtnText@CAniGraphButton@SKINGDI@NMBASE@@QAEXH@Z 10094ee0 f   GraphButton.obj
 0002:00026f30       ?ShowToolTip@CGraphButton@SKINGDI@NMBASE@@QAEX_N@Z 10094f30 f   GraphButton.obj
 0002:00026fc0       ?Width@CRect@@QBEHXZ       10094fc0 f i GraphButton.obj
 0002:00027010       ??0CGraphButtonEx@SKINGDI@NMBASE@@QAE@ABV012@@Z 10095010 f i GraphButtonEx.obj
 0002:00027080       ??0CGraphButtonEx@SKINGDI@NMBASE@@QAE@XZ 10095080 f   GraphButtonEx.obj
 0002:000270e0       ??1CGraphButtonEx@SKINGDI@NMBASE@@UAE@XZ 100950e0 f   GraphButtonEx.obj
 0002:00027140       ??4CGraphButtonEx@SKINGDI@NMBASE@@QAEAAV012@ABV012@@Z 10095140 f i GraphButtonEx.obj
 0002:000271a0       ??_ECGraphButtonEx@SKINGDI@NMBASE@@UAEPAXI@Z 100951a0 f i GraphButtonEx.obj
 0002:000272a0       ??_GCGraphButtonEx@SKINGDI@NMBASE@@UAEPAXI@Z 100952a0 f i GraphButtonEx.obj
 0002:00027310       ?SetSprite@CGraphButtonEx@SKINGDI@NMBASE@@QAEXPAVxSprite@GRAPHICGDI@3@HH@Z 10095310 f   GraphButtonEx.obj
 0002:000273c0       ??$?0$$V@?$_Compressed_pair@V?$allocator@U?$_Tree_node@U?$pair@$$CBHPAVCGraphButton@SKINGDI@NMBASE@@@std@@PAX@std@@@std@@V?$_Tree_val@U?$_Tree_simple_types@U?$pair@$$CBHPAVCGraphButton@SKINGDI@NMBASE@@@std@@@std@@@2@$00@std@@QAE@U_Zero_then_variadic_args_t@1@@Z 100953c0 f i GraphButtonList.obj
 0002:00027420       ??$?0$$V@?$_Compressed_pair@V?$allocator@U?$_Tree_node@U?$pair@$$CBHPAVCGraphButtonEx@SKINGDI@NMBASE@@@std@@PAX@std@@@std@@V?$_Tree_val@U?$_Tree_simple_types@U?$pair@$$CBHPAVCGraphButtonEx@SKINGDI@NMBASE@@@std@@@std@@@2@$00@std@@QAE@U_Zero_then_variadic_args_t@1@@Z 10095420 f i GraphButtonList.obj
 0002:00027480       ??$?0AAV?$_Tree_iterator@V?$_Tree_val@U?$_Tree_simple_types@U?$pair@$$CBHPAVCGraphButton@SKINGDI@NMBASE@@@std@@@std@@@std@@@std@@_N$0A@@?$pair@V?$_Tree_iterator@V?$_Tree_val@U?$_Tree_simple_types@U?$pair@$$CBHPAVCGraphButton@SKINGDI@NMBASE@@@std@@@std@@@std@@@std@@_N@std@@QAE@AAV?$_Tree_iterator@V?$_Tree_val@U?$_Tree_simple_types@U?$pair@$$CBHPAVCGraphButton@SKINGDI@NMBASE@@@std@@@std@@@std@@@1@$$QA_N@Z 10095480 f i GraphButtonList.obj
 0002:00027500       ??$?0AAV?$_Tree_iterator@V?$_Tree_val@U?$_Tree_simple_types@U?$pair@$$CBHPAVCGraphButtonEx@SKINGDI@NMBASE@@@std@@@std@@@std@@@std@@_N$0A@@?$pair@V?$_Tree_iterator@V?$_Tree_val@U?$_Tree_simple_types@U?$pair@$$CBHPAVCGraphButtonEx@SKINGDI@NMBASE@@@std@@@std@@@std@@@std@@_N@std@@QAE@AAV?$_Tree_iterator@V?$_Tree_val@U?$_Tree_simple_types@U?$pair@$$CBHPAVCGraphButtonEx@SKINGDI@NMBASE@@@std@@@std@@@std@@@1@$$QA_N@Z 10095500 f i GraphButtonList.obj
 0002:00027580       ??$?0ABH$$Z$$V@?$pair@$$CBHPAVCGraphButton@SKINGDI@NMBASE@@@std@@QAE@Upiecewise_construct_t@1@V?$tuple@ABH@1@V?$tuple@$$V@1@@Z 10095580 f i GraphButtonList.obj
 0002:00027600       ??$?0ABH$$Z$$V@?$pair@$$CBHPAVCGraphButtonEx@SKINGDI@NMBASE@@@std@@QAE@Upiecewise_construct_t@1@V?$tuple@ABH@1@V?$tuple@$$V@1@@Z 10095600 f i GraphButtonList.obj
 0002:00027680       ??$?0ABH$0A@@?$tuple@ABH@std@@QAE@ABH@Z 10095680 f i GraphButtonList.obj
 0002:00027730       ??$?0ABH@?$_Tuple_val@ABH@std@@QAE@ABH@Z 10095730 f i GraphButtonList.obj
 0002:00027790       ??$?0ABU?$less@H@std@@U_One_then_variadic_args_t@1@V?$allocator@U?$_Tree_node@U?$pair@$$CBHPAVCGraphButton@SKINGDI@NMBASE@@@std@@PAX@std@@@1@@?$_Compressed_pair@U?$less@H@std@@V?$_Compressed_pair@V?$allocator@U?$_Tree_node@U?$pair@$$CBHPAVCGraphButton@SKINGDI@NMBASE@@@std@@PAX@std@@@std@@V?$_Tree_val@U?$_Tree_simple_types@U?$pair@$$CBHPAVCGraphButton@SKINGDI@NMBASE@@@std@@@std@@@2@$00@2@$00@std@@QAE@U_One_then_variadic_args_t@1@ABU?$less@H@1@$$QAU21@$$QAV?$allocator@U?$_Tree_node@U?$pair@$$CBHPAVCGraphButton@SKINGDI@NMBASE@@@std@@PAX@std@@@1@@Z 10095790 f i GraphButtonList.obj
 0002:00027820       ??$?0ABU?$less@H@std@@U_One_then_variadic_args_t@1@V?$allocator@U?$_Tree_node@U?$pair@$$CBHPAVCGraphButtonEx@SKINGDI@NMBASE@@@std@@PAX@std@@@1@@?$_Compressed_pair@U?$less@H@std@@V?$_Compressed_pair@V?$allocator@U?$_Tree_node@U?$pair@$$CBHPAVCGraphButtonEx@SKINGDI@NMBASE@@@std@@PAX@std@@@std@@V?$_Tree_val@U?$_Tree_simple_types@U?$pair@$$CBHPAVCGraphButtonEx@SKINGDI@NMBASE@@@std@@@std@@@2@$00@2@$00@std@@QAE@U_One_then_variadic_args_t@1@ABU?$less@H@1@$$QAU21@$$QAV?$allocator@U?$_Tree_node@U?$pair@$$CBHPAVCGraphButtonEx@SKINGDI@NMBASE@@@std@@PAX@std@@@1@@Z 10095820 f i GraphButtonList.obj
 0002:000278b0       ??$?0ABU?$less@H@std@@U_Zero_then_variadic_args_t@1@@?$_Compressed_pair@U?$less@H@std@@V?$_Compressed_pair@V?$allocator@U?$_Tree_node@U?$pair@$$CBHPAVCGraphButton@SKINGDI@NMBASE@@@std@@PAX@std@@@std@@V?$_Tree_val@U?$_Tree_simple_types@U?$pair@$$CBHPAVCGraphButton@SKINGDI@NMBASE@@@std@@@std@@@2@$00@2@$00@std@@QAE@U_One_then_variadic_args_t@1@ABU?$less@H@1@$$QAU_Zero_then_variadic_args_t@1@@Z 100958b0 f i GraphButtonList.obj
 0002:00027930       ??$?0ABU?$less@H@std@@U_Zero_then_variadic_args_t@1@@?$_Compressed_pair@U?$less@H@std@@V?$_Compressed_pair@V?$allocator@U?$_Tree_node@U?$pair@$$CBHPAVCGraphButtonEx@SKINGDI@NMBASE@@@std@@PAX@std@@@std@@V?$_Tree_val@U?$_Tree_simple_types@U?$pair@$$CBHPAVCGraphButtonEx@SKINGDI@NMBASE@@@std@@@std@@@2@$00@2@$00@std@@QAE@U_One_then_variadic_args_t@1@ABU?$less@H@1@$$QAU_Zero_then_variadic_args_t@1@@Z 10095930 f i GraphButtonList.obj
 0002:000279b0       ??$?0U?$_Tree_node@U?$pair@$$CBHPAVCGraphButton@SKINGDI@NMBASE@@@std@@PAX@std@@@?$allocator@U_Container_proxy@std@@@std@@QAE@ABV?$allocator@U?$_Tree_node@U?$pair@$$CBHPAVCGraphButton@SKINGDI@NMBASE@@@std@@PAX@std@@@1@@Z 100959b0 f i GraphButtonList.obj
 0002:000279f0       ??$?0U?$_Tree_node@U?$pair@$$CBHPAVCGraphButtonEx@SKINGDI@NMBASE@@@std@@PAX@std@@@?$allocator@U_Container_proxy@std@@@std@@QAE@ABV?$allocator@U?$_Tree_node@U?$pair@$$CBHPAVCGraphButtonEx@SKINGDI@NMBASE@@@std@@PAX@std@@@1@@Z 100959f0 f i GraphButtonList.obj
 0002:00027a30       ??$?0U_Exact_args_t@std@@$0A@@?$tuple@$$V@std@@QAE@U_Exact_args_t@1@@Z 10095a30 f i GraphButtonList.obj
 0002:00027a70       ??$?0U_Exact_args_t@std@@ABH$$V$0A@@?$tuple@ABH@std@@QAE@U_Exact_args_t@1@ABH@Z 10095a70 f i GraphButtonList.obj
 0002:00027b00       ??$?0V?$_Tree_iterator@V?$_Tree_val@U?$_Tree_simple_types@U?$pair@$$CBHPAVCGraphButton@SKINGDI@NMBASE@@@std@@@std@@@std@@@std@@_N$0A@@?$pair@V?$_Tree_iterator@V?$_Tree_val@U?$_Tree_simple_types@U?$pair@$$CBHPAVCGraphButton@SKINGDI@NMBASE@@@std@@@std@@@std@@@std@@_N@std@@QAE@$$QAV?$_Tree_iterator@V?$_Tree_val@U?$_Tree_simple_types@U?$pair@$$CBHPAVCGraphButton@SKINGDI@NMBASE@@@std@@@std@@@std@@@1@$$QA_N@Z 10095b00 f i GraphButtonList.obj
 0002:00027b80       ??$?0V?$_Tree_iterator@V?$_Tree_val@U?$_Tree_simple_types@U?$pair@$$CBHPAVCGraphButtonEx@SKINGDI@NMBASE@@@std@@@std@@@std@@@std@@_N$0A@@?$pair@V?$_Tree_iterator@V?$_Tree_val@U?$_Tree_simple_types@U?$pair@$$CBHPAVCGraphButtonEx@SKINGDI@NMBASE@@@std@@@std@@@std@@@std@@_N@std@@QAE@$$QAV?$_Tree_iterator@V?$_Tree_val@U?$_Tree_simple_types@U?$pair@$$CBHPAVCGraphButtonEx@SKINGDI@NMBASE@@@std@@@std@@@std@@@1@$$QA_N@Z 10095b80 f i GraphButtonList.obj
 0002:00027c00       ??$?0V?$allocator@U?$_Tree_node@U?$pair@$$CBHPAVCGraphButton@SKINGDI@NMBASE@@@std@@PAX@std@@@std@@$$V@?$_Compressed_pair@V?$allocator@U?$_Tree_node@U?$pair@$$CBHPAVCGraphButton@SKINGDI@NMBASE@@@std@@PAX@std@@@std@@V?$_Tree_val@U?$_Tree_simple_types@U?$pair@$$CBHPAVCGraphButton@SKINGDI@NMBASE@@@std@@@std@@@2@$00@std@@QAE@U_One_then_variadic_args_t@1@$$QAV?$allocator@U?$_Tree_node@U?$pair@$$CBHPAVCGraphButton@SKINGDI@NMBASE@@@std@@PAX@std@@@1@@Z 10095c00 f i GraphButtonList.obj
 0002:00027c70       ??$?0V?$allocator@U?$_Tree_node@U?$pair@$$CBHPAVCGraphButton@SKINGDI@NMBASE@@@std@@PAX@std@@@std@@@?$_Tree@V?$_Tmap_traits@HPAVCGraphButton@SKINGDI@NMBASE@@U?$less@H@std@@V?$allocator@U?$pair@$$CBHPAVCGraphButton@SKINGDI@NMBASE@@@std@@@5@$0A@@std@@@std@@QAE@ABV01@$$QAV?$allocator@U?$_Tree_node@U?$pair@$$CBHPAVCGraphButton@SKINGDI@NMBASE@@@std@@PAX@std@@@1@@Z 10095c70 f i GraphButtonList.obj
 0002:00027d90       ??$?0V?$allocator@U?$_Tree_node@U?$pair@$$CBHPAVCGraphButton@SKINGDI@NMBASE@@@std@@PAX@std@@@std@@X@?$_Tree_comp_alloc@V?$_Tmap_traits@HPAVCGraphButton@SKINGDI@NMBASE@@U?$less@H@std@@V?$allocator@U?$pair@$$CBHPAVCGraphButton@SKINGDI@NMBASE@@@std@@@5@$0A@@std@@@std@@QAE@ABU?$less@H@1@$$QAV?$allocator@U?$_Tree_node@U?$pair@$$CBHPAVCGraphButton@SKINGDI@NMBASE@@@std@@PAX@std@@@1@@Z 10095d90 f i GraphButtonList.obj
 0002:00027e20       ??$?0V?$allocator@U?$_Tree_node@U?$pair@$$CBHPAVCGraphButtonEx@SKINGDI@NMBASE@@@std@@PAX@std@@@std@@$$V@?$_Compressed_pair@V?$allocator@U?$_Tree_node@U?$pair@$$CBHPAVCGraphButtonEx@SKINGDI@NMBASE@@@std@@PAX@std@@@std@@V?$_Tree_val@U?$_Tree_simple_types@U?$pair@$$CBHPAVCGraphButtonEx@SKINGDI@NMBASE@@@std@@@std@@@2@$00@std@@QAE@U_One_then_variadic_args_t@1@$$QAV?$allocator@U?$_Tree_node@U?$pair@$$CBHPAVCGraphButtonEx@SKINGDI@NMBASE@@@std@@PAX@std@@@1@@Z 10095e20 f i GraphButtonList.obj
 0002:00027e90       ??$?0V?$allocator@U?$_Tree_node@U?$pair@$$CBHPAVCGraphButtonEx@SKINGDI@NMBASE@@@std@@PAX@std@@@std@@@?$_Tree@V?$_Tmap_traits@HPAVCGraphButtonEx@SKINGDI@NMBASE@@U?$less@H@std@@V?$allocator@U?$pair@$$CBHPAVCGraphButtonEx@SKINGDI@NMBASE@@@std@@@5@$0A@@std@@@std@@QAE@ABV01@$$QAV?$allocator@U?$_Tree_node@U?$pair@$$CBHPAVCGraphButtonEx@SKINGDI@NMBASE@@@std@@PAX@std@@@1@@Z 10095e90 f i GraphButtonList.obj
 0002:00027fb0       ??$?0V?$allocator@U?$_Tree_node@U?$pair@$$CBHPAVCGraphButtonEx@SKINGDI@NMBASE@@@std@@PAX@std@@@std@@X@?$_Tree_comp_alloc@V?$_Tmap_traits@HPAVCGraphButtonEx@SKINGDI@NMBASE@@U?$less@H@std@@V?$allocator@U?$pair@$$CBHPAVCGraphButtonEx@SKINGDI@NMBASE@@@std@@@5@$0A@@std@@@std@@QAE@ABU?$less@H@1@$$QAV?$allocator@U?$_Tree_node@U?$pair@$$CBHPAVCGraphButtonEx@SKINGDI@NMBASE@@@std@@PAX@std@@@1@@Z 10095fb0 f i GraphButtonList.obj
 0002:00028040       ??$?0V?$tuple@ABH@std@@V?$tuple@$$V@1@$0A@$$Z$S@?$pair@$$CBHPAVCGraphButton@SKINGDI@NMBASE@@@std@@QAE@AAV?$tuple@ABH@1@AAV?$tuple@$$V@1@U?$integer_sequence@I$0A@@1@U?$integer_sequence@I$S@1@@Z 10096040 f i GraphButtonList.obj
 0002:000280c0       ??$?0V?$tuple@ABH@std@@V?$tuple@$$V@1@$0A@$$Z$S@?$pair@$$CBHPAVCGraphButtonEx@SKINGDI@NMBASE@@@std@@QAE@AAV?$tuple@ABH@1@AAV?$tuple@$$V@1@U?$integer_sequence@I$0A@@1@U?$integer_sequence@I$S@1@@Z 100960c0 f i GraphButtonList.obj
 0002:00028140       ??$_Allocate@$07U_Default_allocate_traits@std@@$0A@@std@@YAPAXI@Z 10096140 f i GraphButtonList.obj
 0002:000281c0       ??$_Allocate_manually_vector_aligned@U_Default_allocate_traits@std@@@std@@YAPAXI@Z 100961c0 f i GraphButtonList.obj
 0002:000282f0       ??$_Buy_if_not_node@AAU?$pair@$$CBHPAVCGraphButton@SKINGDI@NMBASE@@@std@@@?$_Tree@V?$_Tmap_traits@HPAVCGraphButton@SKINGDI@NMBASE@@U?$less@H@std@@V?$allocator@U?$pair@$$CBHPAVCGraphButton@SKINGDI@NMBASE@@@std@@@5@$0A@@std@@@std@@IAEPAU?$_Tree_node@U?$pair@$$CBHPAVCGraphButton@SKINGDI@NMBASE@@@std@@PAX@1@PAU21@AAU?$pair@$$CBHPAVCGraphButton@SKINGDI@NMBASE@@@1@@Z 100962f0 f i GraphButtonList.obj
 0002:00028330       ??$_Buy_if_not_node@AAU?$pair@$$CBHPAVCGraphButtonEx@SKINGDI@NMBASE@@@std@@@?$_Tree@V?$_Tmap_traits@HPAVCGraphButtonEx@SKINGDI@NMBASE@@U?$less@H@std@@V?$allocator@U?$pair@$$CBHPAVCGraphButtonEx@SKINGDI@NMBASE@@@std@@@5@$0A@@std@@@std@@IAEPAU?$_Tree_node@U?$pair@$$CBHPAVCGraphButtonEx@SKINGDI@NMBASE@@@std@@PAX@1@PAU21@AAU?$pair@$$CBHPAVCGraphButtonEx@SKINGDI@NMBASE@@@1@@Z 10096330 f i GraphButtonList.obj
 0002:00028370       ??$_Buynode@AAU?$pair@$$CBHPAVCGraphButton@SKINGDI@NMBASE@@@std@@@?$_Tree_comp_alloc@V?$_Tmap_traits@HPAVCGraphButton@SKINGDI@NMBASE@@U?$less@H@std@@V?$allocator@U?$pair@$$CBHPAVCGraphButton@SKINGDI@NMBASE@@@std@@@5@$0A@@std@@@std@@QAEPAU?$_Tree_node@U?$pair@$$CBHPAVCGraphButton@SKINGDI@NMBASE@@@std@@PAX@1@AAU?$pair@$$CBHPAVCGraphButton@SKINGDI@NMBASE@@@1@@Z 10096370 f i GraphButtonList.obj
 0002:00028490       ??$_Buynode@AAU?$pair@$$CBHPAVCGraphButtonEx@SKINGDI@NMBASE@@@std@@@?$_Tree_comp_alloc@V?$_Tmap_traits@HPAVCGraphButtonEx@SKINGDI@NMBASE@@U?$less@H@std@@V?$allocator@U?$pair@$$CBHPAVCGraphButtonEx@SKINGDI@NMBASE@@@std@@@5@$0A@@std@@@std@@QAEPAU?$_Tree_node@U?$pair@$$CBHPAVCGraphButtonEx@SKINGDI@NMBASE@@@std@@PAX@1@AAU?$pair@$$CBHPAVCGraphButtonEx@SKINGDI@NMBASE@@@1@@Z 10096490 f i GraphButtonList.obj
 0002:000285b0       ??$_Buynode@ABUpiecewise_construct_t@std@@V?$tuple@ABH@2@V?$tuple@$$V@2@@?$_Tree_comp_alloc@V?$_Tmap_traits@HPAVCGraphButton@SKINGDI@NMBASE@@U?$less@H@std@@V?$allocator@U?$pair@$$CBHPAVCGraphButton@SKINGDI@NMBASE@@@std@@@5@$0A@@std@@@std@@QAEPAU?$_Tree_node@U?$pair@$$CBHPAVCGraphButton@SKINGDI@NMBASE@@@std@@PAX@1@ABUpiecewise_construct_t@1@$$QAV?$tuple@ABH@1@$$QAV?$tuple@$$V@1@@Z 100965b0 f i GraphButtonList.obj
 0002:000286f0       ??$_Buynode@ABUpiecewise_construct_t@std@@V?$tuple@ABH@2@V?$tuple@$$V@2@@?$_Tree_comp_alloc@V?$_Tmap_traits@HPAVCGraphButtonEx@SKINGDI@NMBASE@@U?$less@H@std@@V?$allocator@U?$pair@$$CBHPAVCGraphButtonEx@SKINGDI@NMBASE@@@std@@@5@$0A@@std@@@std@@QAEPAU?$_Tree_node@U?$pair@$$CBHPAVCGraphButtonEx@SKINGDI@NMBASE@@@std@@PAX@1@ABUpiecewise_construct_t@1@$$QAV?$tuple@ABH@1@$$QAV?$tuple@$$V@1@@Z 100966f0 f i GraphButtonList.obj
 0002:00028830       ??$_Copy@U_Copy_tag@?$_Tree@V?$_Tmap_traits@HPAVCGraphButton@SKINGDI@NMBASE@@U?$less@H@std@@V?$allocator@U?$pair@$$CBHPAVCGraphButton@SKINGDI@NMBASE@@@std@@@5@$0A@@std@@@std@@@?$_Tree@V?$_Tmap_traits@HPAVCGraphButton@SKINGDI@NMBASE@@U?$less@H@std@@V?$allocator@U?$pair@$$CBHPAVCGraphButton@SKINGDI@NMBASE@@@std@@@5@$0A@@std@@@std@@IAEXABV01@U_Copy_tag@01@@Z 10096830 f i GraphButtonList.obj
 0002:00028970       ??$_Copy@U_Copy_tag@?$_Tree@V?$_Tmap_traits@HPAVCGraphButtonEx@SKINGDI@NMBASE@@U?$less@H@std@@V?$allocator@U?$pair@$$CBHPAVCGraphButtonEx@SKINGDI@NMBASE@@@std@@@5@$0A@@std@@@std@@@?$_Tree@V?$_Tmap_traits@HPAVCGraphButtonEx@SKINGDI@NMBASE@@U?$less@H@std@@V?$allocator@U?$pair@$$CBHPAVCGraphButtonEx@SKINGDI@NMBASE@@@std@@@5@$0A@@std@@@std@@IAEXABV01@U_Copy_tag@01@@Z 10096970 f i GraphButtonList.obj
 0002:00028ab0       ??$_Copy_nodes@U_Copy_tag@?$_Tree@V?$_Tmap_traits@HPAVCGraphButton@SKINGDI@NMBASE@@U?$less@H@std@@V?$allocator@U?$pair@$$CBHPAVCGraphButton@SKINGDI@NMBASE@@@std@@@5@$0A@@std@@@std@@@?$_Tree@V?$_Tmap_traits@HPAVCGraphButton@SKINGDI@NMBASE@@U?$less@H@std@@V?$allocator@U?$pair@$$CBHPAVCGraphButton@SKINGDI@NMBASE@@@std@@@5@$0A@@std@@@std@@IAEPAU?$_Tree_node@U?$pair@$$CBHPAVCGraphButton@SKINGDI@NMBASE@@@std@@PAX@1@PAU21@0U_Copy_tag@01@@Z 10096ab0 f i GraphButtonList.obj
 0002:00028c90       ??$_Copy_nodes@U_Copy_tag@?$_Tree@V?$_Tmap_traits@HPAVCGraphButtonEx@SKINGDI@NMBASE@@U?$less@H@std@@V?$allocator@U?$pair@$$CBHPAVCGraphButtonEx@SKINGDI@NMBASE@@@std@@@5@$0A@@std@@@std@@@?$_Tree@V?$_Tmap_traits@HPAVCGraphButtonEx@SKINGDI@NMBASE@@U?$less@H@std@@V?$allocator@U?$pair@$$CBHPAVCGraphButtonEx@SKINGDI@NMBASE@@@std@@@5@$0A@@std@@@std@@IAEPAU?$_Tree_node@U?$pair@$$CBHPAVCGraphButtonEx@SKINGDI@NMBASE@@@std@@PAX@1@PAU21@0U_Copy_tag@01@@Z 10096c90 f i GraphButtonList.obj
 0002:00028e70       ??$_Copy_or_move@U?$pair@$$CBHPAVCGraphButton@SKINGDI@NMBASE@@@std@@U?$integral_constant@_N$0A@@2@@?$_Tree@V?$_Tmap_traits@HPAVCGraphButton@SKINGDI@NMBASE@@U?$less@H@std@@V?$allocator@U?$pair@$$CBHPAVCGraphButton@SKINGDI@NMBASE@@@std@@@5@$0A@@std@@@std@@IAEPAU?$_Tree_node@U?$pair@$$CBHPAVCGraphButton@SKINGDI@NMBASE@@@std@@PAX@1@AAU?$pair@$$CBHPAVCGraphButton@SKINGDI@NMBASE@@@1@U_Copy_tag@01@U?$integral_constant@_N$0A@@1@@Z 10096e70 f i GraphButtonList.obj
 0002:00028ed0       ??$_Copy_or_move@U?$pair@$$CBHPAVCGraphButtonEx@SKINGDI@NMBASE@@@std@@U?$integral_constant@_N$0A@@2@@?$_Tree@V?$_Tmap_traits@HPAVCGraphButtonEx@SKINGDI@NMBASE@@U?$less@H@std@@V?$allocator@U?$pair@$$CBHPAVCGraphButtonEx@SKINGDI@NMBASE@@@std@@@5@$0A@@std@@@std@@IAEPAU?$_Tree_node@U?$pair@$$CBHPAVCGraphButtonEx@SKINGDI@NMBASE@@@std@@PAX@1@AAU?$pair@$$CBHPAVCGraphButtonEx@SKINGDI@NMBASE@@@1@U_Copy_tag@01@U?$integral_constant@_N$0A@@1@@Z 10096ed0 f i GraphButtonList.obj
 0002:00028f30       ??$_Deallocate@$07$0A@@std@@YAXPAXI@Z 10096f30 f i GraphButtonList.obj
 0002:00028fb0       ??$_Deallocate_plain@V?$allocator@U_Container_proxy@std@@@std@@$0A@@std@@YAXAAV?$allocator@U_Container_proxy@std@@@0@QAU_Container_proxy@0@@Z 10096fb0 f i GraphButtonList.obj
 0002:00029010       ??$_Debug_lt_pred@AAU?$less@H@std@@ABHABH@std@@YA_NAAU?$less@H@0@ABH1@Z 10097010 f i GraphButtonList.obj
 0002:00029110       ??$_Debug_lt_pred@ABU?$less@H@std@@ABHABH@std@@YA_NABU?$less@H@0@ABH1@Z 10097110 f i GraphButtonList.obj
 0002:00029210       ??$_Freenode0@V?$allocator@U?$_Tree_node@U?$pair@$$CBHPAVCGraphButton@SKINGDI@NMBASE@@@std@@PAX@std@@@std@@@?$_Tree_node@U?$pair@$$CBHPAVCGraphButton@SKINGDI@NMBASE@@@std@@PAX@std@@SAXAAV?$allocator@U?$_Tree_node@U?$pair@$$CBHPAVCGraphButton@SKINGDI@NMBASE@@@std@@PAX@std@@@1@PAU01@@Z 10097210 f i GraphButtonList.obj
 0002:00029340       ??$_Freenode0@V?$allocator@U?$_Tree_node@U?$pair@$$CBHPAVCGraphButtonEx@SKINGDI@NMBASE@@@std@@PAX@std@@@std@@@?$_Tree_node@U?$pair@$$CBHPAVCGraphButtonEx@SKINGDI@NMBASE@@@std@@PAX@std@@SAXAAV?$allocator@U?$_Tree_node@U?$pair@$$CBHPAVCGraphButtonEx@SKINGDI@NMBASE@@@std@@PAX@std@@@1@PAU01@@Z 10097340 f i GraphButtonList.obj
 0002:00029470       ??$_Get_size_of_n@$07@std@@YAII@Z 10097470 f i GraphButtonList.obj
 0002:000294d0       ??$_Get_size_of_n@$0BI@@std@@YAII@Z 100974d0 f i GraphButtonList.obj
 0002:00029530       ??$_Insert_at@AAU?$pair@$$CBHPAVCGraphButton@SKINGDI@NMBASE@@@std@@PAU?$_Tree_node@U?$pair@$$CBHPAVCGraphButton@SKINGDI@NMBASE@@@std@@PAX@2@@?$_Tree@V?$_Tmap_traits@HPAVCGraphButton@SKINGDI@NMBASE@@U?$less@H@std@@V?$allocator@U?$pair@$$CBHPAVCGraphButton@SKINGDI@NMBASE@@@std@@@5@$0A@@std@@@std@@IAE?AV?$_Tree_iterator@V?$_Tree_val@U?$_Tree_simple_types@U?$pair@$$CBHPAVCGraphButton@SKINGDI@NMBASE@@@std@@@std@@@std@@@1@_NPAU?$_Tree_node@U?$pair@$$CBHPAVCGraphButton@SKINGDI@NMBASE@@@std@@PAX@1@AAU?$pair@$$CBHPAVCGraphButton@SKINGDI@NMBASE@@@1@1@Z 10097530 f i GraphButtonList.obj
 0002:000298b0       ??$_Insert_at@AAU?$pair@$$CBHPAVCGraphButtonEx@SKINGDI@NMBASE@@@std@@PAU?$_Tree_node@U?$pair@$$CBHPAVCGraphButtonEx@SKINGDI@NMBASE@@@std@@PAX@2@@?$_Tree@V?$_Tmap_traits@HPAVCGraphButtonEx@SKINGDI@NMBASE@@U?$less@H@std@@V?$allocator@U?$pair@$$CBHPAVCGraphButtonEx@SKINGDI@NMBASE@@@std@@@5@$0A@@std@@@std@@IAE?AV?$_Tree_iterator@V?$_Tree_val@U?$_Tree_simple_types@U?$pair@$$CBHPAVCGraphButtonEx@SKINGDI@NMBASE@@@std@@@std@@@std@@@1@_NPAU?$_Tree_node@U?$pair@$$CBHPAVCGraphButtonEx@SKINGDI@NMBASE@@@std@@PAX@1@AAU?$pair@$$CBHPAVCGraphButtonEx@SKINGDI@NMBASE@@@1@1@Z 100978b0 f i GraphButtonList.obj
 0002:00029c30       ??$_Insert_hint@AAU?$pair@$$CBHPAVCGraphButton@SKINGDI@NMBASE@@@std@@PAU?$_Tree_node@U?$pair@$$CBHPAVCGraphButton@SKINGDI@NMBASE@@@std@@PAX@2@@?$_Tree@V?$_Tmap_traits@HPAVCGraphButton@SKINGDI@NMBASE@@U?$less@H@std@@V?$allocator@U?$pair@$$CBHPAVCGraphButton@SKINGDI@NMBASE@@@std@@@5@$0A@@std@@@std@@IAE?AV?$_Tree_iterator@V?$_Tree_val@U?$_Tree_simple_types@U?$pair@$$CBHPAVCGraphButton@SKINGDI@NMBASE@@@std@@@std@@@std@@@1@V?$_Tree_const_iterator@V?$_Tree_val@U?$_Tree_simple_types@U?$pair@$$CBHPAVCGraphButton@SKINGDI@NMBASE@@@std@@@std@@@std@@@1@AAU?$pair@$$CBHPAVCGraphButton@SKINGDI@NMBASE@@@1@PAU?$_Tree_node@U?$pair@$$CBHPAVCGraphButton@SKINGDI@NMBASE@@@std@@PAX@1@@Z 10097c30 f i GraphButtonList.obj
 0002:0002ae30       ??$_Insert_hint@AAU?$pair@$$CBHPAVCGraphButtonEx@SKINGDI@NMBASE@@@std@@PAU?$_Tree_node@U?$pair@$$CBHPAVCGraphButtonEx@SKINGDI@NMBASE@@@std@@PAX@2@@?$_Tree@V?$_Tmap_traits@HPAVCGraphButtonEx@SKINGDI@NMBASE@@U?$less@H@std@@V?$allocator@U?$pair@$$CBHPAVCGraphButtonEx@SKINGDI@NMBASE@@@std@@@5@$0A@@std@@@std@@IAE?AV?$_Tree_iterator@V?$_Tree_val@U?$_Tree_simple_types@U?$pair@$$CBHPAVCGraphButtonEx@SKINGDI@NMBASE@@@std@@@std@@@std@@@1@V?$_Tree_const_iterator@V?$_Tree_val@U?$_Tree_simple_types@U?$pair@$$CBHPAVCGraphButtonEx@SKINGDI@NMBASE@@@std@@@std@@@std@@@1@AAU?$pair@$$CBHPAVCGraphButtonEx@SKINGDI@NMBASE@@@1@PAU?$_Tree_node@U?$pair@$$CBHPAVCGraphButtonEx@SKINGDI@NMBASE@@@std@@PAX@1@@Z 10098e30 f i GraphButtonList.obj
 0002:0002c030       ??$_Insert_nohint@AAU?$pair@$$CBHPAVCGraphButton@SKINGDI@NMBASE@@@std@@PAU?$_Tree_node@U?$pair@$$CBHPAVCGraphButton@SKINGDI@NMBASE@@@std@@PAX@2@@?$_Tree@V?$_Tmap_traits@HPAVCGraphButton@SKINGDI@NMBASE@@U?$less@H@std@@V?$allocator@U?$pair@$$CBHPAVCGraphButton@SKINGDI@NMBASE@@@std@@@5@$0A@@std@@@std@@IAE?AU?$pair@V?$_Tree_iterator@V?$_Tree_val@U?$_Tree_simple_types@U?$pair@$$CBHPAVCGraphButton@SKINGDI@NMBASE@@@std@@@std@@@std@@@std@@_N@1@_NAAU?$pair@$$CBHPAVCGraphButton@SKINGDI@NMBASE@@@1@PAU?$_Tree_node@U?$pair@$$CBHPAVCGraphButton@SKINGDI@NMBASE@@@std@@PAX@1@@Z 1009a030 f i GraphButtonList.obj
 0002:0002c610       ??$_Insert_nohint@AAU?$pair@$$CBHPAVCGraphButtonEx@SKINGDI@NMBASE@@@std@@PAU?$_Tree_node@U?$pair@$$CBHPAVCGraphButtonEx@SKINGDI@NMBASE@@@std@@PAX@2@@?$_Tree@V?$_Tmap_traits@HPAVCGraphButtonEx@SKINGDI@NMBASE@@U?$less@H@std@@V?$allocator@U?$pair@$$CBHPAVCGraphButtonEx@SKINGDI@NMBASE@@@std@@@5@$0A@@std@@@std@@IAE?AU?$pair@V?$_Tree_iterator@V?$_Tree_val@U?$_Tree_simple_types@U?$pair@$$CBHPAVCGraphButtonEx@SKINGDI@NMBASE@@@std@@@std@@@std@@@std@@_N@1@_NAAU?$pair@$$CBHPAVCGraphButtonEx@SKINGDI@NMBASE@@@1@PAU?$_Tree_node@U?$pair@$$CBHPAVCGraphButtonEx@SKINGDI@NMBASE@@@std@@PAX@1@@Z 1009a610 f i GraphButtonList.obj
 0002:0002cbf0       ??$_Kfn@$$CBHPAVCGraphButton@SKINGDI@NMBASE@@@?$_Tmap_traits@HPAVCGraphButton@SKINGDI@NMBASE@@U?$less@H@std@@V?$allocator@U?$pair@$$CBHPAVCGraphButton@SKINGDI@NMBASE@@@std@@@5@$0A@@std@@SAABHABU?$pair@$$CBHPAVCGraphButton@SKINGDI@NMBASE@@@1@@Z 1009abf0 f i GraphButtonList.obj
 0002:0002cc30       ??$_Kfn@$$CBHPAVCGraphButtonEx@SKINGDI@NMBASE@@@?$_Tmap_traits@HPAVCGraphButtonEx@SKINGDI@NMBASE@@U?$less@H@std@@V?$allocator@U?$pair@$$CBHPAVCGraphButtonEx@SKINGDI@NMBASE@@@std@@@5@$0A@@std@@SAABHABU?$pair@$$CBHPAVCGraphButtonEx@SKINGDI@NMBASE@@@1@@Z 1009ac30 f i GraphButtonList.obj
 0002:0002cc70       ??$_Lbound@H@?$_Tree@V?$_Tmap_traits@HPAVCGraphButton@SKINGDI@NMBASE@@U?$less@H@std@@V?$allocator@U?$pair@$$CBHPAVCGraphButton@SKINGDI@NMBASE@@@std@@@5@$0A@@std@@@std@@IBEPAU?$_Tree_node@U?$pair@$$CBHPAVCGraphButton@SKINGDI@NMBASE@@@std@@PAX@1@ABH@Z 1009ac70 f i GraphButtonList.obj
 0002:0002cd30       ??$_Lbound@H@?$_Tree@V?$_Tmap_traits@HPAVCGraphButtonEx@SKINGDI@NMBASE@@U?$less@H@std@@V?$allocator@U?$pair@$$CBHPAVCGraphButtonEx@SKINGDI@NMBASE@@@std@@@5@$0A@@std@@@std@@IBEPAU?$_Tree_node@U?$pair@$$CBHPAVCGraphButtonEx@SKINGDI@NMBASE@@@std@@PAX@1@ABH@Z 1009ad30 f i GraphButtonList.obj
 0002:0002cdf0       ??$_Pocca@V?$allocator@U?$_Tree_node@U?$pair@$$CBHPAVCGraphButton@SKINGDI@NMBASE@@@std@@PAX@std@@@std@@@std@@YAXAAV?$allocator@U?$_Tree_node@U?$pair@$$CBHPAVCGraphButton@SKINGDI@NMBASE@@@std@@PAX@std@@@0@ABV10@@Z 1009adf0 f i GraphButtonList.obj
 0002:0002ce80       ??$_Pocca@V?$allocator@U?$_Tree_node@U?$pair@$$CBHPAVCGraphButton@SKINGDI@NMBASE@@@std@@PAX@std@@@std@@@std@@YAXAAV?$allocator@U?$_Tree_node@U?$pair@$$CBHPAVCGraphButton@SKINGDI@NMBASE@@@std@@PAX@std@@@0@ABV10@U?$integral_constant@_N$0A@@0@@Z 1009ae80 f i GraphButtonList.obj
 0002:0002ceb0       ??$_Pocca@V?$allocator@U?$_Tree_node@U?$pair@$$CBHPAVCGraphButtonEx@SKINGDI@NMBASE@@@std@@PAX@std@@@std@@@std@@YAXAAV?$allocator@U?$_Tree_node@U?$pair@$$CBHPAVCGraphButtonEx@SKINGDI@NMBASE@@@std@@PAX@std@@@0@ABV10@@Z 1009aeb0 f i GraphButtonList.obj
 0002:0002cf40       ??$_Pocca@V?$allocator@U?$_Tree_node@U?$pair@$$CBHPAVCGraphButtonEx@SKINGDI@NMBASE@@@std@@PAX@std@@@std@@@std@@YAXAAV?$allocator@U?$_Tree_node@U?$pair@$$CBHPAVCGraphButtonEx@SKINGDI@NMBASE@@@std@@PAX@std@@@0@ABV10@U?$integral_constant@_N$0A@@0@@Z 1009af40 f i GraphButtonList.obj
 0002:0002cf70       ??$_Try_emplace@ABH$$V@?$map@HPAVCGraphButton@SKINGDI@NMBASE@@U?$less@H@std@@V?$allocator@U?$pair@$$CBHPAVCGraphButton@SKINGDI@NMBASE@@@std@@@5@@std@@QAE?AU?$pair@V?$_Tree_iterator@V?$_Tree_val@U?$_Tree_simple_types@U?$pair@$$CBHPAVCGraphButton@SKINGDI@NMBASE@@@std@@@std@@@std@@@std@@_N@1@ABH@Z 1009af70 f i GraphButtonList.obj
 0002:0002d290       ??$_Try_emplace@ABH$$V@?$map@HPAVCGraphButtonEx@SKINGDI@NMBASE@@U?$less@H@std@@V?$allocator@U?$pair@$$CBHPAVCGraphButtonEx@SKINGDI@NMBASE@@@std@@@5@@std@@QAE?AU?$pair@V?$_Tree_iterator@V?$_Tree_val@U?$_Tree_simple_types@U?$pair@$$CBHPAVCGraphButtonEx@SKINGDI@NMBASE@@@std@@@std@@@std@@@std@@_N@1@ABH@Z 1009b290 f i GraphButtonList.obj
 0002:0002d5b0       ??$_Unfancy@U_Container_proxy@std@@@std@@YAPAU_Container_proxy@0@PAU10@@Z 1009b5b0 f i GraphButtonList.obj
 0002:0002d5f0       ??$addressof@$$CBV?$_Tree@V?$_Tmap_traits@HPAVCGraphButton@SKINGDI@NMBASE@@U?$less@H@std@@V?$allocator@U?$pair@$$CBHPAVCGraphButton@SKINGDI@NMBASE@@@std@@@5@$0A@@std@@@std@@@std@@YAPBV?$_Tree@V?$_Tmap_traits@HPAVCGraphButton@SKINGDI@NMBASE@@U?$less@H@std@@V?$allocator@U?$pair@$$CBHPAVCGraphButton@SKINGDI@NMBASE@@@std@@@5@$0A@@std@@@0@ABV10@@Z 1009b5f0 f i GraphButtonList.obj
 0002:0002d630       ??$addressof@$$CBV?$_Tree@V?$_Tmap_traits@HPAVCGraphButtonEx@SKINGDI@NMBASE@@U?$less@H@std@@V?$allocator@U?$pair@$$CBHPAVCGraphButtonEx@SKINGDI@NMBASE@@@std@@@5@$0A@@std@@@std@@@std@@YAPBV?$_Tree@V?$_Tmap_traits@HPAVCGraphButtonEx@SKINGDI@NMBASE@@U?$less@H@std@@V?$allocator@U?$pair@$$CBHPAVCGraphButtonEx@SKINGDI@NMBASE@@@std@@@5@$0A@@std@@@0@ABV10@@Z 1009b630 f i GraphButtonList.obj
 0002:0002d670       ??$addressof@PAU?$_Tree_node@U?$pair@$$CBHPAVCGraphButton@SKINGDI@NMBASE@@@std@@PAX@std@@@std@@YAPAPAU?$_Tree_node@U?$pair@$$CBHPAVCGraphButton@SKINGDI@NMBASE@@@std@@PAX@0@AAPAU10@@Z 1009b670 f i GraphButtonList.obj
 0002:0002d6b0       ??$addressof@PAU?$_Tree_node@U?$pair@$$CBHPAVCGraphButtonEx@SKINGDI@NMBASE@@@std@@PAX@std@@@std@@YAPAPAU?$_Tree_node@U?$pair@$$CBHPAVCGraphButtonEx@SKINGDI@NMBASE@@@std@@PAX@0@AAPAU10@@Z 1009b6b0 f i GraphButtonList.obj
 0002:0002d6f0       ??$addressof@U?$pair@$$CBHPAVCGraphButton@SKINGDI@NMBASE@@@std@@@std@@YAPAU?$pair@$$CBHPAVCGraphButton@SKINGDI@NMBASE@@@0@AAU10@@Z 1009b6f0 f i GraphButtonList.obj
 0002:0002d730       ??$addressof@U?$pair@$$CBHPAVCGraphButtonEx@SKINGDI@NMBASE@@@std@@@std@@YAPAU?$pair@$$CBHPAVCGraphButtonEx@SKINGDI@NMBASE@@@0@AAU10@@Z 1009b730 f i GraphButtonList.obj
 0002:0002d770       ??$addressof@V?$_Tree_val@U?$_Tree_simple_types@U?$pair@$$CBHPAVCGraphButton@SKINGDI@NMBASE@@@std@@@std@@@std@@@std@@YAPAV?$_Tree_val@U?$_Tree_simple_types@U?$pair@$$CBHPAVCGraphButton@SKINGDI@NMBASE@@@std@@@std@@@0@AAV10@@Z 1009b770 f i GraphButtonList.obj
 0002:0002d7b0       ??$addressof@V?$_Tree_val@U?$_Tree_simple_types@U?$pair@$$CBHPAVCGraphButtonEx@SKINGDI@NMBASE@@@std@@@std@@@std@@@std@@YAPAV?$_Tree_val@U?$_Tree_simple_types@U?$pair@$$CBHPAVCGraphButtonEx@SKINGDI@NMBASE@@@std@@@std@@@0@AAV10@@Z 1009b7b0 f i GraphButtonList.obj
 0002:0002d7f0       ??$construct@PAU?$_Tree_node@U?$pair@$$CBHPAVCGraphButton@SKINGDI@NMBASE@@@std@@PAX@std@@AAPAU12@@?$_Default_allocator_traits@V?$allocator@U?$_Tree_node@U?$pair@$$CBHPAVCGraphButton@SKINGDI@NMBASE@@@std@@PAX@std@@@std@@@std@@SAXAAV?$allocator@U?$_Tree_node@U?$pair@$$CBHPAVCGraphButton@SKINGDI@NMBASE@@@std@@PAX@std@@@1@QAPAU?$_Tree_node@U?$pair@$$CBHPAVCGraphButton@SKINGDI@NMBASE@@@std@@PAX@1@AAPAU31@@Z 1009b7f0 f i GraphButtonList.obj
 0002:0002d870       ??$construct@PAU?$_Tree_node@U?$pair@$$CBHPAVCGraphButtonEx@SKINGDI@NMBASE@@@std@@PAX@std@@AAPAU12@@?$_Default_allocator_traits@V?$allocator@U?$_Tree_node@U?$pair@$$CBHPAVCGraphButtonEx@SKINGDI@NMBASE@@@std@@PAX@std@@@std@@@std@@SAXAAV?$allocator@U?$_Tree_node@U?$pair@$$CBHPAVCGraphButtonEx@SKINGDI@NMBASE@@@std@@PAX@std@@@1@QAPAU?$_Tree_node@U?$pair@$$CBHPAVCGraphButtonEx@SKINGDI@NMBASE@@@std@@PAX@1@AAPAU31@@Z 1009b870 f i GraphButtonList.obj
 0002:0002d8f0       ??$construct@U?$pair@$$CBHPAVCGraphButton@SKINGDI@NMBASE@@@std@@AAU12@@?$_Default_allocator_traits@V?$allocator@U?$_Tree_node@U?$pair@$$CBHPAVCGraphButton@SKINGDI@NMBASE@@@std@@PAX@std@@@std@@@std@@SAXAAV?$allocator@U?$_Tree_node@U?$pair@$$CBHPAVCGraphButton@SKINGDI@NMBASE@@@std@@PAX@std@@@1@QAU?$pair@$$CBHPAVCGraphButton@SKINGDI@NMBASE@@@1@AAU31@@Z 1009b8f0 f i GraphButtonList.obj
 0002:0002d970       ??$construct@U?$pair@$$CBHPAVCGraphButton@SKINGDI@NMBASE@@@std@@ABUpiecewise_construct_t@2@V?$tuple@ABH@2@V?$tuple@$$V@2@@?$_Default_allocator_traits@V?$allocator@U?$_Tree_node@U?$pair@$$CBHPAVCGraphButton@SKINGDI@NMBASE@@@std@@PAX@std@@@std@@@std@@SAXAAV?$allocator@U?$_Tree_node@U?$pair@$$CBHPAVCGraphButton@SKINGDI@NMBASE@@@std@@PAX@std@@@1@QAU?$pair@$$CBHPAVCGraphButton@SKINGDI@NMBASE@@@1@ABUpiecewise_construct_t@1@$$QAV?$tuple@ABH@1@$$QAV?$tuple@$$V@1@@Z 1009b970 f i GraphButtonList.obj
 0002:0002da30       ??$construct@U?$pair@$$CBHPAVCGraphButtonEx@SKINGDI@NMBASE@@@std@@AAU12@@?$_Default_allocator_traits@V?$allocator@U?$_Tree_node@U?$pair@$$CBHPAVCGraphButtonEx@SKINGDI@NMBASE@@@std@@PAX@std@@@std@@@std@@SAXAAV?$allocator@U?$_Tree_node@U?$pair@$$CBHPAVCGraphButtonEx@SKINGDI@NMBASE@@@std@@PAX@std@@@1@QAU?$pair@$$CBHPAVCGraphButtonEx@SKINGDI@NMBASE@@@1@AAU31@@Z 1009ba30 f i GraphButtonList.obj
 0002:0002dab0       ??$construct@U?$pair@$$CBHPAVCGraphButtonEx@SKINGDI@NMBASE@@@std@@ABUpiecewise_construct_t@2@V?$tuple@ABH@2@V?$tuple@$$V@2@@?$_Default_allocator_traits@V?$allocator@U?$_Tree_node@U?$pair@$$CBHPAVCGraphButtonEx@SKINGDI@NMBASE@@@std@@PAX@std@@@std@@@std@@SAXAAV?$allocator@U?$_Tree_node@U?$pair@$$CBHPAVCGraphButtonEx@SKINGDI@NMBASE@@@std@@PAX@std@@@1@QAU?$pair@$$CBHPAVCGraphButtonEx@SKINGDI@NMBASE@@@1@ABUpiecewise_construct_t@1@$$QAV?$tuple@ABH@1@$$QAV?$tuple@$$V@1@@Z 1009bab0 f i GraphButtonList.obj
 0002:0002db70       ??$construct@U_Container_proxy@std@@U12@@?$_Default_allocator_traits@V?$allocator@U_Container_proxy@std@@@std@@@std@@SAXAAV?$allocator@U_Container_proxy@std@@@1@QAU_Container_proxy@1@$$QAU31@@Z 1009bb70 f i GraphButtonList.obj
 0002:0002dbf0       ??$destroy@PAU?$_Tree_node@U?$pair@$$CBHPAVCGraphButton@SKINGDI@NMBASE@@@std@@PAX@std@@@?$_Default_allocator_traits@V?$allocator@U?$_Tree_node@U?$pair@$$CBHPAVCGraphButton@SKINGDI@NMBASE@@@std@@PAX@std@@@std@@@std@@SAXAAV?$allocator@U?$_Tree_node@U?$pair@$$CBHPAVCGraphButton@SKINGDI@NMBASE@@@std@@PAX@std@@@1@QAPAU?$_Tree_node@U?$pair@$$CBHPAVCGraphButton@SKINGDI@NMBASE@@@std@@PAX@1@@Z 1009bbf0 f i GraphButtonList.obj
 0002:0002dc20       ??$destroy@PAU?$_Tree_node@U?$pair@$$CBHPAVCGraphButtonEx@SKINGDI@NMBASE@@@std@@PAX@std@@@?$_Default_allocator_traits@V?$allocator@U?$_Tree_node@U?$pair@$$CBHPAVCGraphButtonEx@SKINGDI@NMBASE@@@std@@PAX@std@@@std@@@std@@SAXAAV?$allocator@U?$_Tree_node@U?$pair@$$CBHPAVCGraphButtonEx@SKINGDI@NMBASE@@@std@@PAX@std@@@1@QAPAU?$_Tree_node@U?$pair@$$CBHPAVCGraphButtonEx@SKINGDI@NMBASE@@@std@@PAX@1@@Z 1009bc20 f i GraphButtonList.obj
 0002:0002dc50       ??$destroy@U?$pair@$$CBHPAVCGraphButton@SKINGDI@NMBASE@@@std@@@?$_Default_allocator_traits@V?$allocator@U?$_Tree_node@U?$pair@$$CBHPAVCGraphButton@SKINGDI@NMBASE@@@std@@PAX@std@@@std@@@std@@SAXAAV?$allocator@U?$_Tree_node@U?$pair@$$CBHPAVCGraphButton@SKINGDI@NMBASE@@@std@@PAX@std@@@1@QAU?$pair@$$CBHPAVCGraphButton@SKINGDI@NMBASE@@@1@@Z 1009bc50 f i GraphButtonList.obj
 0002:0002dc80       ??$destroy@U?$pair@$$CBHPAVCGraphButtonEx@SKINGDI@NMBASE@@@std@@@?$_Default_allocator_traits@V?$allocator@U?$_Tree_node@U?$pair@$$CBHPAVCGraphButtonEx@SKINGDI@NMBASE@@@std@@PAX@std@@@std@@@std@@SAXAAV?$allocator@U?$_Tree_node@U?$pair@$$CBHPAVCGraphButtonEx@SKINGDI@NMBASE@@@std@@PAX@std@@@1@QAU?$pair@$$CBHPAVCGraphButtonEx@SKINGDI@NMBASE@@@1@@Z 1009bc80 f i GraphButtonList.obj
 0002:0002dcb0       ??$destroy@U_Container_proxy@std@@@?$_Default_allocator_traits@V?$allocator@U_Container_proxy@std@@@std@@@std@@SAXAAV?$allocator@U_Container_proxy@std@@@1@QAU_Container_proxy@1@@Z 1009bcb0 f i GraphButtonList.obj
 0002:0002dce0       ??$emplace_hint@ABUpiecewise_construct_t@std@@V?$tuple@ABH@2@V?$tuple@$$V@2@@?$_Tree@V?$_Tmap_traits@HPAVCGraphButton@SKINGDI@NMBASE@@U?$less@H@std@@V?$allocator@U?$pair@$$CBHPAVCGraphButton@SKINGDI@NMBASE@@@std@@@5@$0A@@std@@@std@@QAE?AV?$_Tree_iterator@V?$_Tree_val@U?$_Tree_simple_types@U?$pair@$$CBHPAVCGraphButton@SKINGDI@NMBASE@@@std@@@std@@@std@@@1@V?$_Tree_const_iterator@V?$_Tree_val@U?$_Tree_simple_types@U?$pair@$$CBHPAVCGraphButton@SKINGDI@NMBASE@@@std@@@std@@@std@@@1@ABUpiecewise_construct_t@1@$$QAV?$tuple@ABH@1@$$QAV?$tuple@$$V@1@@Z 1009bce0 f i GraphButtonList.obj
 0002:0002de20       ??$emplace_hint@ABUpiecewise_construct_t@std@@V?$tuple@ABH@2@V?$tuple@$$V@2@@?$_Tree@V?$_Tmap_traits@HPAVCGraphButtonEx@SKINGDI@NMBASE@@U?$less@H@std@@V?$allocator@U?$pair@$$CBHPAVCGraphButtonEx@SKINGDI@NMBASE@@@std@@@5@$0A@@std@@@std@@QAE?AV?$_Tree_iterator@V?$_Tree_val@U?$_Tree_simple_types@U?$pair@$$CBHPAVCGraphButtonEx@SKINGDI@NMBASE@@@std@@@std@@@std@@@1@V?$_Tree_const_iterator@V?$_Tree_val@U?$_Tree_simple_types@U?$pair@$$CBHPAVCGraphButtonEx@SKINGDI@NMBASE@@@std@@@std@@@std@@@1@ABUpiecewise_construct_t@1@$$QAV?$tuple@ABH@1@$$QAV?$tuple@$$V@1@@Z 1009be20 f i GraphButtonList.obj
 0002:0002df60       ??$forward@AAPAU?$_Tree_node@U?$pair@$$CBHPAVCGraphButton@SKINGDI@NMBASE@@@std@@PAX@std@@@std@@YAAAPAU?$_Tree_node@U?$pair@$$CBHPAVCGraphButton@SKINGDI@NMBASE@@@std@@PAX@0@AAPAU10@@Z 1009bf60 f i GraphButtonList.obj
 0002:0002dfa0       ??$forward@AAPAU?$_Tree_node@U?$pair@$$CBHPAVCGraphButtonEx@SKINGDI@NMBASE@@@std@@PAX@std@@@std@@YAAAPAU?$_Tree_node@U?$pair@$$CBHPAVCGraphButtonEx@SKINGDI@NMBASE@@@std@@PAX@0@AAPAU10@@Z 1009bfa0 f i GraphButtonList.obj
 0002:0002dfe0       ??$forward@AAU?$pair@$$CBHPAVCGraphButton@SKINGDI@NMBASE@@@std@@@std@@YAAAU?$pair@$$CBHPAVCGraphButton@SKINGDI@NMBASE@@@0@AAU10@@Z 1009bfe0 f i GraphButtonList.obj
 0002:0002e020       ??$forward@AAU?$pair@$$CBHPAVCGraphButtonEx@SKINGDI@NMBASE@@@std@@@std@@YAAAU?$pair@$$CBHPAVCGraphButtonEx@SKINGDI@NMBASE@@@0@AAU10@@Z 1009c020 f i GraphButtonList.obj
 0002:0002e060       ??$forward@AAV?$_Tree_iterator@V?$_Tree_val@U?$_Tree_simple_types@U?$pair@$$CBHPAVCGraphButton@SKINGDI@NMBASE@@@std@@@std@@@std@@@std@@@std@@YAAAV?$_Tree_iterator@V?$_Tree_val@U?$_Tree_simple_types@U?$pair@$$CBHPAVCGraphButton@SKINGDI@NMBASE@@@std@@@std@@@std@@@0@AAV10@@Z 1009c060 f i GraphButtonList.obj
 0002:0002e0a0       ??$forward@AAV?$_Tree_iterator@V?$_Tree_val@U?$_Tree_simple_types@U?$pair@$$CBHPAVCGraphButtonEx@SKINGDI@NMBASE@@@std@@@std@@@std@@@std@@@std@@YAAAV?$_Tree_iterator@V?$_Tree_val@U?$_Tree_simple_types@U?$pair@$$CBHPAVCGraphButtonEx@SKINGDI@NMBASE@@@std@@@std@@@std@@@0@AAV10@@Z 1009c0a0 f i GraphButtonList.obj
 0002:0002e0e0       ??$forward@ABH@std@@YAABHABH@Z 1009c0e0 f i GraphButtonList.obj
 0002:0002e120       ??$forward@ABU?$less@H@std@@@std@@YAABU?$less@H@0@ABU10@@Z 1009c120 f i GraphButtonList.obj
 0002:0002e160       ??$forward@ABUpiecewise_construct_t@std@@@std@@YAABUpiecewise_construct_t@0@ABU10@@Z 1009c160 f i GraphButtonList.obj
 0002:0002e1a0       ??$forward@U_Container_proxy@std@@@std@@YA$$QAU_Container_proxy@0@AAU10@@Z 1009c1a0 f i GraphButtonList.obj
 0002:0002e1e0       ??$forward@U_One_then_variadic_args_t@std@@@std@@YA$$QAU_One_then_variadic_args_t@0@AAU10@@Z 1009c1e0 f i GraphButtonList.obj
 0002:0002e220       ??$forward@U_Zero_then_variadic_args_t@std@@@std@@YA$$QAU_Zero_then_variadic_args_t@0@AAU10@@Z 1009c220 f i GraphButtonList.obj
 0002:0002e260       ??$forward@V?$_Tree_iterator@V?$_Tree_val@U?$_Tree_simple_types@U?$pair@$$CBHPAVCGraphButton@SKINGDI@NMBASE@@@std@@@std@@@std@@@std@@@std@@YA$$QAV?$_Tree_iterator@V?$_Tree_val@U?$_Tree_simple_types@U?$pair@$$CBHPAVCGraphButton@SKINGDI@NMBASE@@@std@@@std@@@std@@@0@AAV10@@Z 1009c260 f i GraphButtonList.obj
 0002:0002e2a0       ??$forward@V?$_Tree_iterator@V?$_Tree_val@U?$_Tree_simple_types@U?$pair@$$CBHPAVCGraphButtonEx@SKINGDI@NMBASE@@@std@@@std@@@std@@@std@@@std@@YA$$QAV?$_Tree_iterator@V?$_Tree_val@U?$_Tree_simple_types@U?$pair@$$CBHPAVCGraphButtonEx@SKINGDI@NMBASE@@@std@@@std@@@std@@@0@AAV10@@Z 1009c2a0 f i GraphButtonList.obj
 0002:0002e2e0       ??$forward@V?$allocator@U?$_Tree_node@U?$pair@$$CBHPAVCGraphButton@SKINGDI@NMBASE@@@std@@PAX@std@@@std@@@std@@YA$$QAV?$allocator@U?$_Tree_node@U?$pair@$$CBHPAVCGraphButton@SKINGDI@NMBASE@@@std@@PAX@std@@@0@AAV10@@Z 1009c2e0 f i GraphButtonList.obj
 0002:0002e320       ??$forward@V?$allocator@U?$_Tree_node@U?$pair@$$CBHPAVCGraphButtonEx@SKINGDI@NMBASE@@@std@@PAX@std@@@std@@@std@@YA$$QAV?$allocator@U?$_Tree_node@U?$pair@$$CBHPAVCGraphButtonEx@SKINGDI@NMBASE@@@std@@PAX@std@@@0@AAV10@@Z 1009c320 f i GraphButtonList.obj
 0002:0002e360       ??$forward@V?$tuple@$$V@std@@@std@@YA$$QAV?$tuple@$$V@0@AAV10@@Z 1009c360 f i GraphButtonList.obj
 0002:0002e3a0       ??$forward@V?$tuple@ABH@std@@@std@@YA$$QAV?$tuple@ABH@0@AAV10@@Z 1009c3a0 f i GraphButtonList.obj
 0002:0002e3e0       ??$forward@_N@std@@YA$$QA_NAA_N@Z 1009c3e0 f i GraphButtonList.obj
 0002:0002e420       ??$forward_as_tuple@$$V@std@@YA?AV?$tuple@$$V@0@XZ 1009c420 f i GraphButtonList.obj
 0002:0002e470       ??$forward_as_tuple@ABH@std@@YA?AV?$tuple@ABH@0@ABH@Z 1009c470 f i GraphButtonList.obj
 0002:0002e4d0       ??$get@$0A@ABH@std@@YAABH$$QAV?$tuple@ABH@0@@Z 1009c4d0 f i GraphButtonList.obj
 0002:0002e520       ??$move@AAD@std@@YA$$QADAAD@Z 1009c520 f i GraphButtonList.obj
 0002:0002e560       ??$move@AAV?$tuple@ABH@std@@@std@@YA$$QAV?$tuple@ABH@0@AAV10@@Z 1009c560 f i GraphButtonList.obj
 0002:0002e5a0       ??$swap@DX@std@@YAXAAD0@Z  1009c5a0 f i GraphButtonList.obj
 0002:0002e660       ??$try_emplace@$$V@?$map@HPAVCGraphButton@SKINGDI@NMBASE@@U?$less@H@std@@V?$allocator@U?$pair@$$CBHPAVCGraphButton@SKINGDI@NMBASE@@@std@@@5@@std@@QAE?AU?$pair@V?$_Tree_iterator@V?$_Tree_val@U?$_Tree_simple_types@U?$pair@$$CBHPAVCGraphButton@SKINGDI@NMBASE@@@std@@@std@@@std@@@std@@_N@1@ABH@Z 1009c660 f i GraphButtonList.obj
 0002:0002e6e0       ??$try_emplace@$$V@?$map@HPAVCGraphButtonEx@SKINGDI@NMBASE@@U?$less@H@std@@V?$allocator@U?$pair@$$CBHPAVCGraphButtonEx@SKINGDI@NMBASE@@@std@@@5@@std@@QAE?AU?$pair@V?$_Tree_iterator@V?$_Tree_val@U?$_Tree_simple_types@U?$pair@$$CBHPAVCGraphButtonEx@SKINGDI@NMBASE@@@std@@@std@@@std@@@std@@_N@1@ABH@Z 1009c6e0 f i GraphButtonList.obj
 0002:0002e760       ??0?$_Tree@V?$_Tmap_traits@HPAVCGraphButton@SKINGDI@NMBASE@@U?$less@H@std@@V?$allocator@U?$pair@$$CBHPAVCGraphButton@SKINGDI@NMBASE@@@std@@@5@$0A@@std@@@std@@QAE@ABU?$less@H@1@@Z 1009c760 f i GraphButtonList.obj
 0002:0002e7c0       ??0?$_Tree@V?$_Tmap_traits@HPAVCGraphButtonEx@SKINGDI@NMBASE@@U?$less@H@std@@V?$allocator@U?$pair@$$CBHPAVCGraphButtonEx@SKINGDI@NMBASE@@@std@@@5@$0A@@std@@@std@@QAE@ABU?$less@H@1@@Z 1009c7c0 f i GraphButtonList.obj
 0002:0002e820       ??0?$_Tree_comp_alloc@V?$_Tmap_traits@HPAVCGraphButton@SKINGDI@NMBASE@@U?$less@H@std@@V?$allocator@U?$pair@$$CBHPAVCGraphButton@SKINGDI@NMBASE@@@std@@@5@$0A@@std@@@std@@QAE@ABU?$less@H@1@@Z 1009c820 f i GraphButtonList.obj
 0002:0002e8a0       ??0?$_Tree_comp_alloc@V?$_Tmap_traits@HPAVCGraphButtonEx@SKINGDI@NMBASE@@U?$less@H@std@@V?$allocator@U?$pair@$$CBHPAVCGraphButtonEx@SKINGDI@NMBASE@@@std@@@5@$0A@@std@@@std@@QAE@ABU?$less@H@1@@Z 1009c8a0 f i GraphButtonList.obj
 0002:0002e920       ??0?$_Tree_const_iterator@V?$_Tree_val@U?$_Tree_simple_types@U?$pair@$$CBHPAVCGraphButton@SKINGDI@NMBASE@@@std@@@std@@@std@@@std@@QAE@$$QAV01@@Z 1009c920 f i GraphButtonList.obj
 0002:0002e980       ??0?$_Tree_const_iterator@V?$_Tree_val@U?$_Tree_simple_types@U?$pair@$$CBHPAVCGraphButton@SKINGDI@NMBASE@@@std@@@std@@@std@@@std@@QAE@ABV01@@Z 1009c980 f i GraphButtonList.obj
 0002:0002e9e0       ??0?$_Tree_const_iterator@V?$_Tree_val@U?$_Tree_simple_types@U?$pair@$$CBHPAVCGraphButton@SKINGDI@NMBASE@@@std@@@std@@@std@@@std@@QAE@PAU?$_Tree_node@U?$pair@$$CBHPAVCGraphButton@SKINGDI@NMBASE@@@std@@PAX@1@PBV?$_Tree_val@U?$_Tree_simple_types@U?$pair@$$CBHPAVCGraphButton@SKINGDI@NMBASE@@@std@@@std@@@1@@Z 1009c9e0 f i GraphButtonList.obj
 0002:0002ea40       ??0?$_Tree_const_iterator@V?$_Tree_val@U?$_Tree_simple_types@U?$pair@$$CBHPAVCGraphButton@SKINGDI@NMBASE@@@std@@@std@@@std@@@std@@QAE@XZ 1009ca40 f i GraphButtonList.obj
 0002:0002eaa0       ??0?$_Tree_const_iterator@V?$_Tree_val@U?$_Tree_simple_types@U?$pair@$$CBHPAVCGraphButtonEx@SKINGDI@NMBASE@@@std@@@std@@@std@@@std@@QAE@$$QAV01@@Z 1009caa0 f i GraphButtonList.obj
 0002:0002eb00       ??0?$_Tree_const_iterator@V?$_Tree_val@U?$_Tree_simple_types@U?$pair@$$CBHPAVCGraphButtonEx@SKINGDI@NMBASE@@@std@@@std@@@std@@@std@@QAE@ABV01@@Z 1009cb00 f i GraphButtonList.obj
 0002:0002eb60       ??0?$_Tree_const_iterator@V?$_Tree_val@U?$_Tree_simple_types@U?$pair@$$CBHPAVCGraphButtonEx@SKINGDI@NMBASE@@@std@@@std@@@std@@@std@@QAE@PAU?$_Tree_node@U?$pair@$$CBHPAVCGraphButtonEx@SKINGDI@NMBASE@@@std@@PAX@1@PBV?$_Tree_val@U?$_Tree_simple_types@U?$pair@$$CBHPAVCGraphButtonEx@SKINGDI@NMBASE@@@std@@@std@@@1@@Z 1009cb60 f i GraphButtonList.obj
 0002:0002ebc0       ??0?$_Tree_const_iterator@V?$_Tree_val@U?$_Tree_simple_types@U?$pair@$$CBHPAVCGraphButtonEx@SKINGDI@NMBASE@@@std@@@std@@@std@@@std@@QAE@XZ 1009cbc0 f i GraphButtonList.obj
 0002:0002ec20       ??0?$_Tree_iterator@V?$_Tree_val@U?$_Tree_simple_types@U?$pair@$$CBHPAVCGraphButton@SKINGDI@NMBASE@@@std@@@std@@@std@@@std@@QAE@$$QAV01@@Z 1009cc20 f i GraphButtonList.obj
 0002:0002ec80       ??0?$_Tree_iterator@V?$_Tree_val@U?$_Tree_simple_types@U?$pair@$$CBHPAVCGraphButton@SKINGDI@NMBASE@@@std@@@std@@@std@@@std@@QAE@ABV01@@Z 1009cc80 f i GraphButtonList.obj
 0002:0002ece0       ??0?$_Tree_iterator@V?$_Tree_val@U?$_Tree_simple_types@U?$pair@$$CBHPAVCGraphButton@SKINGDI@NMBASE@@@std@@@std@@@std@@@std@@QAE@PAU?$_Tree_node@U?$pair@$$CBHPAVCGraphButton@SKINGDI@NMBASE@@@std@@PAX@1@PBV?$_Tree_val@U?$_Tree_simple_types@U?$pair@$$CBHPAVCGraphButton@SKINGDI@NMBASE@@@std@@@std@@@1@@Z 1009cce0 f i GraphButtonList.obj
 0002:0002ed40       ??0?$_Tree_iterator@V?$_Tree_val@U?$_Tree_simple_types@U?$pair@$$CBHPAVCGraphButtonEx@SKINGDI@NMBASE@@@std@@@std@@@std@@@std@@QAE@$$QAV01@@Z 1009cd40 f i GraphButtonList.obj
 0002:0002eda0       ??0?$_Tree_iterator@V?$_Tree_val@U?$_Tree_simple_types@U?$pair@$$CBHPAVCGraphButtonEx@SKINGDI@NMBASE@@@std@@@std@@@std@@@std@@QAE@ABV01@@Z 1009cda0 f i GraphButtonList.obj
 0002:0002ee00       ??0?$_Tree_iterator@V?$_Tree_val@U?$_Tree_simple_types@U?$pair@$$CBHPAVCGraphButtonEx@SKINGDI@NMBASE@@@std@@@std@@@std@@@std@@QAE@PAU?$_Tree_node@U?$pair@$$CBHPAVCGraphButtonEx@SKINGDI@NMBASE@@@std@@PAX@1@PBV?$_Tree_val@U?$_Tree_simple_types@U?$pair@$$CBHPAVCGraphButtonEx@SKINGDI@NMBASE@@@std@@@std@@@1@@Z 1009ce00 f i GraphButtonList.obj
 0002:0002ee60       ??0?$_Tree_unchecked_const_iterator@V?$_Tree_val@U?$_Tree_simple_types@U?$pair@$$CBHPAVCGraphButton@SKINGDI@NMBASE@@@std@@@std@@@std@@U_Iterator_base12@2@@std@@QAE@$$QAV01@@Z 1009ce60 f i GraphButtonList.obj
 0002:0002eed0       ??0?$_Tree_unchecked_const_iterator@V?$_Tree_val@U?$_Tree_simple_types@U?$pair@$$CBHPAVCGraphButton@SKINGDI@NMBASE@@@std@@@std@@@std@@U_Iterator_base12@2@@std@@QAE@ABV01@@Z 1009ced0 f i GraphButtonList.obj
 0002:0002ef40       ??0?$_Tree_unchecked_const_iterator@V?$_Tree_val@U?$_Tree_simple_types@U?$pair@$$CBHPAVCGraphButton@SKINGDI@NMBASE@@@std@@@std@@@std@@U_Iterator_base12@2@@std@@QAE@PAU?$_Tree_node@U?$pair@$$CBHPAVCGraphButton@SKINGDI@NMBASE@@@std@@PAX@1@PBV?$_Tree_val@U?$_Tree_simple_types@U?$pair@$$CBHPAVCGraphButton@SKINGDI@NMBASE@@@std@@@std@@@1@@Z 1009cf40 f i GraphButtonList.obj
 0002:0002efb0       ??0?$_Tree_unchecked_const_iterator@V?$_Tree_val@U?$_Tree_simple_types@U?$pair@$$CBHPAVCGraphButton@SKINGDI@NMBASE@@@std@@@std@@@std@@U_Iterator_base12@2@@std@@QAE@XZ 1009cfb0 f i GraphButtonList.obj
 0002:0002f010       ??0?$_Tree_unchecked_const_iterator@V?$_Tree_val@U?$_Tree_simple_types@U?$pair@$$CBHPAVCGraphButtonEx@SKINGDI@NMBASE@@@std@@@std@@@std@@U_Iterator_base12@2@@std@@QAE@$$QAV01@@Z 1009d010 f i GraphButtonList.obj
 0002:0002f080       ??0?$_Tree_unchecked_const_iterator@V?$_Tree_val@U?$_Tree_simple_types@U?$pair@$$CBHPAVCGraphButtonEx@SKINGDI@NMBASE@@@std@@@std@@@std@@U_Iterator_base12@2@@std@@QAE@ABV01@@Z 1009d080 f i GraphButtonList.obj
 0002:0002f0f0       ??0?$_Tree_unchecked_const_iterator@V?$_Tree_val@U?$_Tree_simple_types@U?$pair@$$CBHPAVCGraphButtonEx@SKINGDI@NMBASE@@@std@@@std@@@std@@U_Iterator_base12@2@@std@@QAE@PAU?$_Tree_node@U?$pair@$$CBHPAVCGraphButtonEx@SKINGDI@NMBASE@@@std@@PAX@1@PBV?$_Tree_val@U?$_Tree_simple_types@U?$pair@$$CBHPAVCGraphButtonEx@SKINGDI@NMBASE@@@std@@@std@@@1@@Z 1009d0f0 f i GraphButtonList.obj
 0002:0002f160       ??0?$_Tree_unchecked_const_iterator@V?$_Tree_val@U?$_Tree_simple_types@U?$pair@$$CBHPAVCGraphButtonEx@SKINGDI@NMBASE@@@std@@@std@@@std@@U_Iterator_base12@2@@std@@QAE@XZ 1009d160 f i GraphButtonList.obj
 0002:0002f1c0       ??0?$_Tree_val@U?$_Tree_simple_types@U?$pair@$$CBHPAVCGraphButton@SKINGDI@NMBASE@@@std@@@std@@@std@@QAE@XZ 1009d1c0 f i GraphButtonList.obj
 0002:0002f230       ??0?$_Tree_val@U?$_Tree_simple_types@U?$pair@$$CBHPAVCGraphButtonEx@SKINGDI@NMBASE@@@std@@@std@@@std@@QAE@XZ 1009d230 f i GraphButtonList.obj
 0002:0002f2a0       ??0?$allocator@U?$_Tree_node@U?$pair@$$CBHPAVCGraphButton@SKINGDI@NMBASE@@@std@@PAX@std@@@std@@QAE@XZ 1009d2a0 f i GraphButtonList.obj
 0002:0002f2e0       ??0?$allocator@U?$_Tree_node@U?$pair@$$CBHPAVCGraphButtonEx@SKINGDI@NMBASE@@@std@@PAX@std@@@std@@QAE@XZ 1009d2e0 f i GraphButtonList.obj
 0002:0002f320       ??0?$map@HPAVCGraphButton@SKINGDI@NMBASE@@U?$less@H@std@@V?$allocator@U?$pair@$$CBHPAVCGraphButton@SKINGDI@NMBASE@@@std@@@5@@std@@QAE@ABV01@@Z 1009d320 f i GraphButtonList.obj
 0002:0002f3a0       ??0?$map@HPAVCGraphButton@SKINGDI@NMBASE@@U?$less@H@std@@V?$allocator@U?$pair@$$CBHPAVCGraphButton@SKINGDI@NMBASE@@@std@@@5@@std@@QAE@XZ 1009d3a0 f i GraphButtonList.obj
 0002:0002f400       ??0?$map@HPAVCGraphButtonEx@SKINGDI@NMBASE@@U?$less@H@std@@V?$allocator@U?$pair@$$CBHPAVCGraphButtonEx@SKINGDI@NMBASE@@@std@@@5@@std@@QAE@ABV01@@Z 1009d400 f i GraphButtonList.obj
 0002:0002f480       ??0?$map@HPAVCGraphButtonEx@SKINGDI@NMBASE@@U?$less@H@std@@V?$allocator@U?$pair@$$CBHPAVCGraphButtonEx@SKINGDI@NMBASE@@@std@@@5@@std@@QAE@XZ 1009d480 f i GraphButtonList.obj
 0002:0002f4e0       ??0?$tuple@$$V@std@@QAE@ABV01@@Z 1009d4e0 f i GraphButtonList.obj
 0002:0002f520       ??0?$tuple@$$V@std@@QAE@XZ 1009d520 f i GraphButtonList.obj
 0002:0002f560       ??0?$tuple@ABH@std@@QAE@$$QAV01@@Z 1009d560 f i GraphButtonList.obj
 0002:0002f5d0       ??0CGraphButtonList@SKINGDI@NMBASE@@QAE@ABV012@@Z 1009d5d0 f i GraphButtonList.obj
 0002:0002f640       ??0CGraphButtonList@SKINGDI@NMBASE@@QAE@XZ 1009d640 f   GraphButtonList.obj
 0002:0002f6b0       ??0CGraphButtonListEx@SKINGDI@NMBASE@@QAE@ABV012@@Z 1009d6b0 f i GraphButtonList.obj
 0002:0002f720       ??0CGraphButtonListEx@SKINGDI@NMBASE@@QAE@XZ 1009d720 f   GraphButtonList.obj
 0002:0002f790       ??0CRect@@QAE@HHHH@Z       1009d790 f i GraphButtonList.obj
 0002:0002f800       ??0_Container_base12@std@@QAE@XZ 1009d800 f i GraphButtonList.obj
 0002:0002f850       ??0_Container_proxy@std@@QAE@XZ 1009d850 f i GraphButtonList.obj
 0002:0002f8a0       ??0_Iterator_base12@std@@QAE@ABU01@@Z 1009d8a0 f i GraphButtonList.obj
 0002:0002f920       ??0_Iterator_base12@std@@QAE@XZ 1009d920 f i GraphButtonList.obj
 0002:0002f970       ??1?$_Tree@V?$_Tmap_traits@HPAVCGraphButton@SKINGDI@NMBASE@@U?$less@H@std@@V?$allocator@U?$pair@$$CBHPAVCGraphButton@SKINGDI@NMBASE@@@std@@@5@$0A@@std@@@std@@QAE@XZ 1009d970 f i GraphButtonList.obj
 0002:0002fa00       ??1?$_Tree@V?$_Tmap_traits@HPAVCGraphButtonEx@SKINGDI@NMBASE@@U?$less@H@std@@V?$allocator@U?$pair@$$CBHPAVCGraphButtonEx@SKINGDI@NMBASE@@@std@@@5@$0A@@std@@@std@@QAE@XZ 1009da00 f i GraphButtonList.obj
 0002:0002fa90       ??1?$_Tree_comp_alloc@V?$_Tmap_traits@HPAVCGraphButton@SKINGDI@NMBASE@@U?$less@H@std@@V?$allocator@U?$pair@$$CBHPAVCGraphButton@SKINGDI@NMBASE@@@std@@@5@$0A@@std@@@std@@QAE@XZ 1009da90 f i GraphButtonList.obj
 0002:0002fb30       ??1?$_Tree_comp_alloc@V?$_Tmap_traits@HPAVCGraphButtonEx@SKINGDI@NMBASE@@U?$less@H@std@@V?$allocator@U?$pair@$$CBHPAVCGraphButtonEx@SKINGDI@NMBASE@@@std@@@5@$0A@@std@@@std@@QAE@XZ 1009db30 f i GraphButtonList.obj
 0002:0002fbd0       ??1?$_Tree_const_iterator@V?$_Tree_val@U?$_Tree_simple_types@U?$pair@$$CBHPAVCGraphButton@SKINGDI@NMBASE@@@std@@@std@@@std@@@std@@QAE@XZ 1009dbd0 f i GraphButtonList.obj
 0002:0002fc20       ??1?$_Tree_const_iterator@V?$_Tree_val@U?$_Tree_simple_types@U?$pair@$$CBHPAVCGraphButtonEx@SKINGDI@NMBASE@@@std@@@std@@@std@@@std@@QAE@XZ 1009dc20 f i GraphButtonList.obj
 0002:0002fc70       ??1?$_Tree_iterator@V?$_Tree_val@U?$_Tree_simple_types@U?$pair@$$CBHPAVCGraphButton@SKINGDI@NMBASE@@@std@@@std@@@std@@@std@@QAE@XZ 1009dc70 f i GraphButtonList.obj
 0002:0002fcc0       ??1?$_Tree_iterator@V?$_Tree_val@U?$_Tree_simple_types@U?$pair@$$CBHPAVCGraphButtonEx@SKINGDI@NMBASE@@@std@@@std@@@std@@@std@@QAE@XZ 1009dcc0 f i GraphButtonList.obj
 0002:0002fd10       ??1?$_Tree_unchecked_const_iterator@V?$_Tree_val@U?$_Tree_simple_types@U?$pair@$$CBHPAVCGraphButton@SKINGDI@NMBASE@@@std@@@std@@@std@@U_Iterator_base12@2@@std@@QAE@XZ 1009dd10 f i GraphButtonList.obj
 0002:0002fd60       ??1?$_Tree_unchecked_const_iterator@V?$_Tree_val@U?$_Tree_simple_types@U?$pair@$$CBHPAVCGraphButtonEx@SKINGDI@NMBASE@@@std@@@std@@@std@@U_Iterator_base12@2@@std@@QAE@XZ 1009dd60 f i GraphButtonList.obj
 0002:0002fdb0       ??1?$map@HPAVCGraphButton@SKINGDI@NMBASE@@U?$less@H@std@@V?$allocator@U?$pair@$$CBHPAVCGraphButton@SKINGDI@NMBASE@@@std@@@5@@std@@QAE@XZ 1009ddb0 f i GraphButtonList.obj
 0002:0002fe00       ??1?$map@HPAVCGraphButtonEx@SKINGDI@NMBASE@@U?$less@H@std@@V?$allocator@U?$pair@$$CBHPAVCGraphButtonEx@SKINGDI@NMBASE@@@std@@@5@@std@@QAE@XZ 1009de00 f i GraphButtonList.obj
 0002:0002fe50       ??1?$pair@V?$_Tree_iterator@V?$_Tree_val@U?$_Tree_simple_types@U?$pair@$$CBHPAVCGraphButton@SKINGDI@NMBASE@@@std@@@std@@@std@@@std@@_N@std@@QAE@XZ 1009de50 f i GraphButtonList.obj
 0002:0002fea0       ??1?$pair@V?$_Tree_iterator@V?$_Tree_val@U?$_Tree_simple_types@U?$pair@$$CBHPAVCGraphButtonEx@SKINGDI@NMBASE@@@std@@@std@@@std@@@std@@_N@std@@QAE@XZ 1009dea0 f i GraphButtonList.obj
 0002:0002fef0       ??1CGraphButtonList@SKINGDI@NMBASE@@UAE@XZ 1009def0 f   GraphButtonList.obj
 0002:0002ff60       ??1CGraphButtonListEx@SKINGDI@NMBASE@@UAE@XZ 1009df60 f   GraphButtonList.obj
 0002:0002ffd0       ??1_Iterator_base12@std@@QAE@XZ 1009dfd0 f i GraphButtonList.obj
 0002:000300c0       ??2@YAPAXIPAX@Z            1009e0c0 f i GraphButtonList.obj
 0002:00030100       ??4?$_Tree@V?$_Tmap_traits@HPAVCGraphButton@SKINGDI@NMBASE@@U?$less@H@std@@V?$allocator@U?$pair@$$CBHPAVCGraphButton@SKINGDI@NMBASE@@@std@@@5@$0A@@std@@@std@@QAEAAV01@ABV01@@Z 1009e100 f i GraphButtonList.obj
 0002:000301b0       ??4?$_Tree@V?$_Tmap_traits@HPAVCGraphButtonEx@SKINGDI@NMBASE@@U?$less@H@std@@V?$allocator@U?$pair@$$CBHPAVCGraphButtonEx@SKINGDI@NMBASE@@@std@@@5@$0A@@std@@@std@@QAEAAV01@ABV01@@Z 1009e1b0 f i GraphButtonList.obj
 0002:00030260       ??4?$_Tree_const_iterator@V?$_Tree_val@U?$_Tree_simple_types@U?$pair@$$CBHPAVCGraphButton@SKINGDI@NMBASE@@@std@@@std@@@std@@@std@@QAEAAV01@ABV01@@Z 1009e260 f i GraphButtonList.obj
 0002:000302c0       ??4?$_Tree_const_iterator@V?$_Tree_val@U?$_Tree_simple_types@U?$pair@$$CBHPAVCGraphButtonEx@SKINGDI@NMBASE@@@std@@@std@@@std@@@std@@QAEAAV01@ABV01@@Z 1009e2c0 f i GraphButtonList.obj
 0002:00030320       ??4?$_Tree_unchecked_const_iterator@V?$_Tree_val@U?$_Tree_simple_types@U?$pair@$$CBHPAVCGraphButton@SKINGDI@NMBASE@@@std@@@std@@@std@@U_Iterator_base12@2@@std@@QAEAAV01@ABV01@@Z 1009e320 f i GraphButtonList.obj
 0002:00030390       ??4?$_Tree_unchecked_const_iterator@V?$_Tree_val@U?$_Tree_simple_types@U?$pair@$$CBHPAVCGraphButtonEx@SKINGDI@NMBASE@@@std@@@std@@@std@@U_Iterator_base12@2@@std@@QAEAAV01@ABV01@@Z 1009e390 f i GraphButtonList.obj
 0002:00030400       ??4?$map@HPAVCGraphButton@SKINGDI@NMBASE@@U?$less@H@std@@V?$allocator@U?$pair@$$CBHPAVCGraphButton@SKINGDI@NMBASE@@@std@@@5@@std@@QAEAAV01@ABV01@@Z 1009e400 f i GraphButtonList.obj
 0002:00030460       ??4?$map@HPAVCGraphButtonEx@SKINGDI@NMBASE@@U?$less@H@std@@V?$allocator@U?$pair@$$CBHPAVCGraphButtonEx@SKINGDI@NMBASE@@@std@@@5@@std@@QAEAAV01@ABV01@@Z 1009e460 f i GraphButtonList.obj
 0002:000304c0       ??4CGraphButtonList@SKINGDI@NMBASE@@QAEAAV012@ABV012@@Z 1009e4c0 f i GraphButtonList.obj
 0002:00030530       ??4CGraphButtonListEx@SKINGDI@NMBASE@@QAEAAV012@ABV012@@Z 1009e530 f i GraphButtonList.obj
 0002:000305a0       ??4_Iterator_base12@std@@QAEAAU01@ABU01@@Z 1009e5a0 f i GraphButtonList.obj
 0002:000306c0       ??8?$_Tree_const_iterator@V?$_Tree_val@U?$_Tree_simple_types@U?$pair@$$CBHPAVCGraphButton@SKINGDI@NMBASE@@@std@@@std@@@std@@@std@@QBE_NABV01@@Z 1009e6c0 f i GraphButtonList.obj
 0002:000307e0       ??8?$_Tree_const_iterator@V?$_Tree_val@U?$_Tree_simple_types@U?$pair@$$CBHPAVCGraphButtonEx@SKINGDI@NMBASE@@@std@@@std@@@std@@@std@@QBE_NABV01@@Z 1009e7e0 f i GraphButtonList.obj
 0002:00030900       ??9?$_Tree_const_iterator@V?$_Tree_val@U?$_Tree_simple_types@U?$pair@$$CBHPAVCGraphButton@SKINGDI@NMBASE@@@std@@@std@@@std@@@std@@QBE_NABV01@@Z 1009e900 f i GraphButtonList.obj
 0002:00030990       ??9?$_Tree_const_iterator@V?$_Tree_val@U?$_Tree_simple_types@U?$pair@$$CBHPAVCGraphButtonEx@SKINGDI@NMBASE@@@std@@@std@@@std@@@std@@QBE_NABV01@@Z 1009e990 f i GraphButtonList.obj
 0002:00030a20       ??A?$map@HPAVCGraphButton@SKINGDI@NMBASE@@U?$less@H@std@@V?$allocator@U?$pair@$$CBHPAVCGraphButton@SKINGDI@NMBASE@@@std@@@5@@std@@QAEAAPAVCGraphButton@SKINGDI@NMBASE@@ABH@Z 1009ea20 f i GraphButtonList.obj
 0002:00030b10       ??A?$map@HPAVCGraphButtonEx@SKINGDI@NMBASE@@U?$less@H@std@@V?$allocator@U?$pair@$$CBHPAVCGraphButtonEx@SKINGDI@NMBASE@@@std@@@5@@std@@QAEAAPAVCGraphButtonEx@SKINGDI@NMBASE@@ABH@Z 1009eb10 f i GraphButtonList.obj
 0002:00030c00       ??C?$_Tree_iterator@V?$_Tree_val@U?$_Tree_simple_types@U?$pair@$$CBHPAVCGraphButton@SKINGDI@NMBASE@@@std@@@std@@@std@@@std@@QBEPAU?$pair@$$CBHPAVCGraphButton@SKINGDI@NMBASE@@@1@XZ 1009ec00 f i GraphButtonList.obj
 0002:00030c60       ??C?$_Tree_iterator@V?$_Tree_val@U?$_Tree_simple_types@U?$pair@$$CBHPAVCGraphButtonEx@SKINGDI@NMBASE@@@std@@@std@@@std@@@std@@QBEPAU?$pair@$$CBHPAVCGraphButtonEx@SKINGDI@NMBASE@@@1@XZ 1009ec60 f i GraphButtonList.obj
 0002:00030cc0       ??D?$_Tree_const_iterator@V?$_Tree_val@U?$_Tree_simple_types@U?$pair@$$CBHPAVCGraphButton@SKINGDI@NMBASE@@@std@@@std@@@std@@@std@@QBEABU?$pair@$$CBHPAVCGraphButton@SKINGDI@NMBASE@@@1@XZ 1009ecc0 f i GraphButtonList.obj
 0002:00030e30       ??D?$_Tree_const_iterator@V?$_Tree_val@U?$_Tree_simple_types@U?$pair@$$CBHPAVCGraphButtonEx@SKINGDI@NMBASE@@@std@@@std@@@std@@@std@@QBEABU?$pair@$$CBHPAVCGraphButtonEx@SKINGDI@NMBASE@@@1@XZ 1009ee30 f i GraphButtonList.obj
 0002:00030fa0       ??D?$_Tree_iterator@V?$_Tree_val@U?$_Tree_simple_types@U?$pair@$$CBHPAVCGraphButton@SKINGDI@NMBASE@@@std@@@std@@@std@@@std@@QBEAAU?$pair@$$CBHPAVCGraphButton@SKINGDI@NMBASE@@@1@XZ 1009efa0 f i GraphButtonList.obj
 0002:00030ff0       ??D?$_Tree_iterator@V?$_Tree_val@U?$_Tree_simple_types@U?$pair@$$CBHPAVCGraphButtonEx@SKINGDI@NMBASE@@@std@@@std@@@std@@@std@@QBEAAU?$pair@$$CBHPAVCGraphButtonEx@SKINGDI@NMBASE@@@1@XZ 1009eff0 f i GraphButtonList.obj
 0002:00031040       ??E?$_Tree_const_iterator@V?$_Tree_val@U?$_Tree_simple_types@U?$pair@$$CBHPAVCGraphButton@SKINGDI@NMBASE@@@std@@@std@@@std@@@std@@QAE?AV01@H@Z 1009f040 f i GraphButtonList.obj
 0002:00031160       ??E?$_Tree_const_iterator@V?$_Tree_val@U?$_Tree_simple_types@U?$pair@$$CBHPAVCGraphButton@SKINGDI@NMBASE@@@std@@@std@@@std@@@std@@QAEAAV01@XZ 1009f160 f i GraphButtonList.obj
 0002:000312d0       ??E?$_Tree_const_iterator@V?$_Tree_val@U?$_Tree_simple_types@U?$pair@$$CBHPAVCGraphButtonEx@SKINGDI@NMBASE@@@std@@@std@@@std@@@std@@QAE?AV01@H@Z 1009f2d0 f i GraphButtonList.obj
 0002:000313f0       ??E?$_Tree_const_iterator@V?$_Tree_val@U?$_Tree_simple_types@U?$pair@$$CBHPAVCGraphButtonEx@SKINGDI@NMBASE@@@std@@@std@@@std@@@std@@QAEAAV01@XZ 1009f3f0 f i GraphButtonList.obj
 0002:00031560       ??E?$_Tree_iterator@V?$_Tree_val@U?$_Tree_simple_types@U?$pair@$$CBHPAVCGraphButton@SKINGDI@NMBASE@@@std@@@std@@@std@@@std@@QAEAAV01@XZ 1009f560 f i GraphButtonList.obj
 0002:000315c0       ??E?$_Tree_iterator@V?$_Tree_val@U?$_Tree_simple_types@U?$pair@$$CBHPAVCGraphButtonEx@SKINGDI@NMBASE@@@std@@@std@@@std@@@std@@QAEAAV01@XZ 1009f5c0 f i GraphButtonList.obj
 0002:00031620       ??E?$_Tree_unchecked_const_iterator@V?$_Tree_val@U?$_Tree_simple_types@U?$pair@$$CBHPAVCGraphButton@SKINGDI@NMBASE@@@std@@@std@@@std@@U_Iterator_base12@2@@std@@QAEAAV01@XZ 1009f620 f i GraphButtonList.obj
 0002:000316f0       ??E?$_Tree_unchecked_const_iterator@V?$_Tree_val@U?$_Tree_simple_types@U?$pair@$$CBHPAVCGraphButtonEx@SKINGDI@NMBASE@@@std@@@std@@@std@@U_Iterator_base12@2@@std@@QAEAAV01@XZ 1009f6f0 f i GraphButtonList.obj
 0002:000317c0       ??F?$_Tree_const_iterator@V?$_Tree_val@U?$_Tree_simple_types@U?$pair@$$CBHPAVCGraphButton@SKINGDI@NMBASE@@@std@@@std@@@std@@@std@@QAEAAV01@XZ 1009f7c0 f i GraphButtonList.obj
 0002:00031930       ??F?$_Tree_const_iterator@V?$_Tree_val@U?$_Tree_simple_types@U?$pair@$$CBHPAVCGraphButtonEx@SKINGDI@NMBASE@@@std@@@std@@@std@@@std@@QAEAAV01@XZ 1009f930 f i GraphButtonList.obj
 0002:00031aa0       ??F?$_Tree_iterator@V?$_Tree_val@U?$_Tree_simple_types@U?$pair@$$CBHPAVCGraphButton@SKINGDI@NMBASE@@@std@@@std@@@std@@@std@@QAEAAV01@XZ 1009faa0 f i GraphButtonList.obj
 0002:00031b00       ??F?$_Tree_iterator@V?$_Tree_val@U?$_Tree_simple_types@U?$pair@$$CBHPAVCGraphButtonEx@SKINGDI@NMBASE@@@std@@@std@@@std@@@std@@QAEAAV01@XZ 1009fb00 f i GraphButtonList.obj
 0002:00031b60       ??F?$_Tree_unchecked_const_iterator@V?$_Tree_val@U?$_Tree_simple_types@U?$pair@$$CBHPAVCGraphButton@SKINGDI@NMBASE@@@std@@@std@@@std@@U_Iterator_base12@2@@std@@QAEAAV01@XZ 1009fb60 f i GraphButtonList.obj
 0002:00031c60       ??F?$_Tree_unchecked_const_iterator@V?$_Tree_val@U?$_Tree_simple_types@U?$pair@$$CBHPAVCGraphButtonEx@SKINGDI@NMBASE@@@std@@@std@@@std@@U_Iterator_base12@2@@std@@QAEAAV01@XZ 1009fc60 f i GraphButtonList.obj
 0002:00031d60       ??R?$less@H@std@@QBE_NABH0@Z 1009fd60 f i GraphButtonList.obj
 0002:00031dd0       ??_ECGraphButtonList@SKINGDI@NMBASE@@UAEPAXI@Z 1009fdd0 f i GraphButtonList.obj
 0002:00031ee0       ??_ECGraphButtonListEx@SKINGDI@NMBASE@@UAEPAXI@Z 1009fee0 f i GraphButtonList.obj
 0002:00031ff0       ??_GCGraphButtonList@SKINGDI@NMBASE@@UAEPAXI@Z 1009fff0 f i GraphButtonList.obj
 0002:00032060       ??_GCGraphButtonListEx@SKINGDI@NMBASE@@UAEPAXI@Z 100a0060 f i GraphButtonList.obj
 0002:000320d0       ?Add@CGraphButtonList@SKINGDI@NMBASE@@QAEXPAVCGraphButton@23@@Z 100a00d0 f   GraphButtonList.obj
 0002:00032280       ?Add@CGraphButtonList@SKINGDI@NMBASE@@QAEXPAVCGraphButton@23@PAVCWnd@@PAVCPage@GRAPHICGDI@3@HHPAVxSprite@73@HHH_N@Z 100a0280 f   GraphButtonList.obj
 0002:00032330       ?Add@CGraphButtonListEx@SKINGDI@NMBASE@@QAEXPAVCGraphButtonEx@23@@Z 100a0330 f   GraphButtonList.obj
 0002:000324e0       ?Add@CGraphButtonListEx@SKINGDI@NMBASE@@QAEXPAVCGraphButtonEx@23@PAVCWnd@@PAVCPage@GRAPHICGDI@3@HHPAVxSprite@73@HHH_N@Z 100a04e0 f   GraphButtonList.obj
 0002:00032590       ?AllEnable@CGraphButtonList@SKINGDI@NMBASE@@QAEXH@Z 100a0590 f   GraphButtonList.obj
 0002:00032720       ?AllEnable@CGraphButtonListEx@SKINGDI@NMBASE@@QAEXH@Z 100a0720 f   GraphButtonList.obj
 0002:000328b0       ?Draw@CGraphButtonList@SKINGDI@NMBASE@@QAEXPAVCDC@@@Z 100a08b0 f   GraphButtonList.obj
 0002:00032b40       ?Draw@CGraphButtonListEx@SKINGDI@NMBASE@@QAEXPAVCDC@@@Z 100a0b40 f   GraphButtonList.obj
 0002:00032dd0       ?Enable@CGraphButtonList@SKINGDI@NMBASE@@QAEXHH@Z 100a0dd0 f   GraphButtonList.obj
 0002:00032e40       ?Enable@CGraphButtonListEx@SKINGDI@NMBASE@@QAEXHH@Z 100a0e40 f   GraphButtonList.obj
 0002:00032eb0       ?GetButton@CGraphButtonList@SKINGDI@NMBASE@@QAEPAVCGraphButton@23@H@Z 100a0eb0 f   GraphButtonList.obj
 0002:00032f10       ?GetButton@CGraphButtonListEx@SKINGDI@NMBASE@@QAEPAVCGraphButtonEx@23@H@Z 100a0f10 f   GraphButtonList.obj
 0002:00032f70       ?Init@CGraphButtonList@SKINGDI@NMBASE@@QAEXXZ 100a0f70 f   GraphButtonList.obj
 0002:00032fd0       ?Init@CGraphButtonListEx@SKINGDI@NMBASE@@QAEXXZ 100a0fd0 f   GraphButtonList.obj
 0002:00033030       ?Invalidate@CGraphButtonList@SKINGDI@NMBASE@@QAEXXZ 100a1030 f   GraphButtonList.obj
 0002:00033250       ?Invalidate@CGraphButtonListEx@SKINGDI@NMBASE@@QAEXXZ 100a1250 f   GraphButtonList.obj
 0002:00033470       ?OnLButtonDown@CGraphButtonList@SKINGDI@NMBASE@@QAEHHH@Z 100a1470 f   GraphButtonList.obj
 0002:00033670       ?OnLButtonDown@CGraphButtonListEx@SKINGDI@NMBASE@@QAEHHH@Z 100a1670 f   GraphButtonList.obj
 0002:00033840       ?OnLButtonUp@CGraphButtonList@SKINGDI@NMBASE@@QAEHHH@Z 100a1840 f   GraphButtonList.obj
 0002:00033a40       ?OnLButtonUp@CGraphButtonListEx@SKINGDI@NMBASE@@QAEHHH@Z 100a1a40 f   GraphButtonList.obj
 0002:00033c10       ?OnMouseMove@CGraphButtonList@SKINGDI@NMBASE@@QAEHHH@Z 100a1c10 f   GraphButtonList.obj
 0002:00033e30       ?OnMouseMove@CGraphButtonListEx@SKINGDI@NMBASE@@QAEHHH@Z 100a1e30 f   GraphButtonList.obj
 0002:00033ff0       ?SetButtonCursor@CGraphButtonList@SKINGDI@NMBASE@@QAEXII@Z 100a1ff0 f   GraphButtonList.obj
 0002:000340a0       ?ShowWindow@CGraphButtonList@SKINGDI@NMBASE@@QAEXHH@Z 100a20a0 f   GraphButtonList.obj
 0002:00034110       ?ShowWindow@CGraphButtonListEx@SKINGDI@NMBASE@@QAEXHH@Z 100a2110 f   GraphButtonList.obj
 0002:00034180       ?_Adjust_manually_vector_aligned@std@@YAXAAPAXAAI@Z 100a2180 f i GraphButtonList.obj
 0002:00034340       ?_Adopt@_Iterator_base12@std@@QAEXPBU_Container_base12@2@@Z 100a2340 f i GraphButtonList.obj
 0002:000344d0       ?_Alloc_proxy@?$_Tree_comp_alloc@V?$_Tmap_traits@HPAVCGraphButton@SKINGDI@NMBASE@@U?$less@H@std@@V?$allocator@U?$pair@$$CBHPAVCGraphButton@SKINGDI@NMBASE@@@std@@@5@$0A@@std@@@std@@QAEXXZ 100a24d0 f i GraphButtonList.obj
 0002:000345f0       ?_Alloc_proxy@?$_Tree_comp_alloc@V?$_Tmap_traits@HPAVCGraphButtonEx@SKINGDI@NMBASE@@U?$less@H@std@@V?$allocator@U?$pair@$$CBHPAVCGraphButtonEx@SKINGDI@NMBASE@@@std@@@5@$0A@@std@@@std@@QAEXXZ 100a25f0 f i GraphButtonList.obj
 0002:00034710       ?_Allocate@_Default_allocate_traits@std@@SAPAXI@Z 100a2710 f i GraphButtonList.obj
 0002:00034760       ?_Buyheadnode@?$_Tree_comp_alloc@V?$_Tmap_traits@HPAVCGraphButton@SKINGDI@NMBASE@@U?$less@H@std@@V?$allocator@U?$pair@$$CBHPAVCGraphButton@SKINGDI@NMBASE@@@std@@@5@$0A@@std@@@std@@QAEPAU?$_Tree_node@U?$pair@$$CBHPAVCGraphButton@SKINGDI@NMBASE@@@std@@PAX@2@XZ 100a2760 f i GraphButtonList.obj
 0002:00034910       ?_Buyheadnode@?$_Tree_comp_alloc@V?$_Tmap_traits@HPAVCGraphButtonEx@SKINGDI@NMBASE@@U?$less@H@std@@V?$allocator@U?$pair@$$CBHPAVCGraphButtonEx@SKINGDI@NMBASE@@@std@@@5@$0A@@std@@@std@@QAEPAU?$_Tree_node@U?$pair@$$CBHPAVCGraphButtonEx@SKINGDI@NMBASE@@@std@@PAX@2@XZ 100a2910 f i GraphButtonList.obj
 0002:00034ac0       ?_Buynode0@?$_Tree_comp_alloc@V?$_Tmap_traits@HPAVCGraphButton@SKINGDI@NMBASE@@U?$less@H@std@@V?$allocator@U?$pair@$$CBHPAVCGraphButton@SKINGDI@NMBASE@@@std@@@5@$0A@@std@@@std@@QAEPAU?$_Tree_node@U?$pair@$$CBHPAVCGraphButton@SKINGDI@NMBASE@@@std@@PAX@2@XZ 100a2ac0 f i GraphButtonList.obj
 0002:00034c30       ?_Buynode0@?$_Tree_comp_alloc@V?$_Tmap_traits@HPAVCGraphButtonEx@SKINGDI@NMBASE@@U?$less@H@std@@V?$allocator@U?$pair@$$CBHPAVCGraphButtonEx@SKINGDI@NMBASE@@@std@@@5@$0A@@std@@@std@@QAEPAU?$_Tree_node@U?$pair@$$CBHPAVCGraphButtonEx@SKINGDI@NMBASE@@@std@@PAX@2@XZ 100a2c30 f i GraphButtonList.obj
 0002:00034da0       ?_Clrcont@_Iterator_base12@std@@QAEXXZ 100a2da0 f i GraphButtonList.obj
 0002:00034de0       ?_Compare@?$_Tree@V?$_Tmap_traits@HPAVCGraphButton@SKINGDI@NMBASE@@U?$less@H@std@@V?$allocator@U?$pair@$$CBHPAVCGraphButton@SKINGDI@NMBASE@@@std@@@5@$0A@@std@@@std@@IBE_NABH0@Z 100a2de0 f i GraphButtonList.obj
 0002:00034e50       ?_Compare@?$_Tree@V?$_Tmap_traits@HPAVCGraphButtonEx@SKINGDI@NMBASE@@U?$less@H@std@@V?$allocator@U?$pair@$$CBHPAVCGraphButtonEx@SKINGDI@NMBASE@@@std@@@5@$0A@@std@@@std@@IBE_NABH0@Z 100a2e50 f i GraphButtonList.obj
 0002:00034ec0       ?_Construct@?$_Tree_comp_alloc@V?$_Tmap_traits@HPAVCGraphButton@SKINGDI@NMBASE@@U?$less@H@std@@V?$allocator@U?$pair@$$CBHPAVCGraphButton@SKINGDI@NMBASE@@@std@@@5@$0A@@std@@@std@@QAEXXZ 100a2ec0 f i GraphButtonList.obj
 0002:00034fb0       ?_Construct@?$_Tree_comp_alloc@V?$_Tmap_traits@HPAVCGraphButtonEx@SKINGDI@NMBASE@@U?$less@H@std@@V?$allocator@U?$pair@$$CBHPAVCGraphButtonEx@SKINGDI@NMBASE@@@std@@@5@$0A@@std@@@std@@QAEXXZ 100a2fb0 f i GraphButtonList.obj
 0002:000350a0       ?_Copy_alloc@?$_Tree_comp_alloc@V?$_Tmap_traits@HPAVCGraphButton@SKINGDI@NMBASE@@U?$less@H@std@@V?$allocator@U?$pair@$$CBHPAVCGraphButton@SKINGDI@NMBASE@@@std@@@5@$0A@@std@@@std@@QAEXABV?$allocator@U?$_Tree_node@U?$pair@$$CBHPAVCGraphButton@SKINGDI@NMBASE@@@std@@PAX@std@@@2@@Z 100a30a0 f i GraphButtonList.obj
 0002:00035160       ?_Copy_alloc@?$_Tree_comp_alloc@V?$_Tmap_traits@HPAVCGraphButtonEx@SKINGDI@NMBASE@@U?$less@H@std@@V?$allocator@U?$pair@$$CBHPAVCGraphButtonEx@SKINGDI@NMBASE@@@std@@@5@$0A@@std@@@std@@QAEXABV?$allocator@U?$_Tree_node@U?$pair@$$CBHPAVCGraphButtonEx@SKINGDI@NMBASE@@@std@@PAX@std@@@2@@Z 100a3160 f i GraphButtonList.obj
 0002:00035220       ?_Destroy_if_node@?$_Tree@V?$_Tmap_traits@HPAVCGraphButton@SKINGDI@NMBASE@@U?$less@H@std@@V?$allocator@U?$pair@$$CBHPAVCGraphButton@SKINGDI@NMBASE@@@std@@@5@$0A@@std@@@std@@IAEXPAU?$_Tree_node@U?$pair@$$CBHPAVCGraphButton@SKINGDI@NMBASE@@@std@@PAX@2@@Z 100a3220 f i GraphButtonList.obj
 0002:000352b0       ?_Destroy_if_node@?$_Tree@V?$_Tmap_traits@HPAVCGraphButtonEx@SKINGDI@NMBASE@@U?$less@H@std@@V?$allocator@U?$pair@$$CBHPAVCGraphButtonEx@SKINGDI@NMBASE@@@std@@@5@$0A@@std@@@std@@IAEXPAU?$_Tree_node@U?$pair@$$CBHPAVCGraphButtonEx@SKINGDI@NMBASE@@@std@@PAX@2@@Z 100a32b0 f i GraphButtonList.obj
 0002:00035340       ?_Erase@?$_Tree@V?$_Tmap_traits@HPAVCGraphButton@SKINGDI@NMBASE@@U?$less@H@std@@V?$allocator@U?$pair@$$CBHPAVCGraphButton@SKINGDI@NMBASE@@@std@@@5@$0A@@std@@@std@@IAEXPAU?$_Tree_node@U?$pair@$$CBHPAVCGraphButton@SKINGDI@NMBASE@@@std@@PAX@2@@Z 100a3340 f i GraphButtonList.obj
 0002:00035410       ?_Erase@?$_Tree@V?$_Tmap_traits@HPAVCGraphButtonEx@SKINGDI@NMBASE@@U?$less@H@std@@V?$allocator@U?$pair@$$CBHPAVCGraphButtonEx@SKINGDI@NMBASE@@@std@@@5@$0A@@std@@@std@@IAEXPAU?$_Tree_node@U?$pair@$$CBHPAVCGraphButtonEx@SKINGDI@NMBASE@@@std@@PAX@2@@Z 100a3410 f i GraphButtonList.obj
 0002:000354e0       ?_Extract@?$_Tree_val@U?$_Tree_simple_types@U?$pair@$$CBHPAVCGraphButton@SKINGDI@NMBASE@@@std@@@std@@@std@@QAEPAU?$_Tree_node@U?$pair@$$CBHPAVCGraphButton@SKINGDI@NMBASE@@@std@@PAX@2@V?$_Tree_const_iterator@V?$_Tree_val@U?$_Tree_simple_types@U?$pair@$$CBHPAVCGraphButton@SKINGDI@NMBASE@@@std@@@std@@@std@@@2@@Z 100a34e0 f i GraphButtonList.obj
 0002:00035b70       ?_Extract@?$_Tree_val@U?$_Tree_simple_types@U?$pair@$$CBHPAVCGraphButtonEx@SKINGDI@NMBASE@@@std@@@std@@@std@@QAEPAU?$_Tree_node@U?$pair@$$CBHPAVCGraphButtonEx@SKINGDI@NMBASE@@@std@@PAX@2@V?$_Tree_const_iterator@V?$_Tree_val@U?$_Tree_simple_types@U?$pair@$$CBHPAVCGraphButtonEx@SKINGDI@NMBASE@@@std@@@std@@@std@@@2@@Z 100a3b70 f i GraphButtonList.obj
 0002:00036200       ?_Free_proxy@?$_Tree_comp_alloc@V?$_Tmap_traits@HPAVCGraphButton@SKINGDI@NMBASE@@U?$less@H@std@@V?$allocator@U?$pair@$$CBHPAVCGraphButton@SKINGDI@NMBASE@@@std@@@5@$0A@@std@@@std@@QAEXXZ 100a4200 f i GraphButtonList.obj
 0002:00036300       ?_Free_proxy@?$_Tree_comp_alloc@V?$_Tmap_traits@HPAVCGraphButtonEx@SKINGDI@NMBASE@@U?$less@H@std@@V?$allocator@U?$pair@$$CBHPAVCGraphButtonEx@SKINGDI@NMBASE@@@std@@@5@$0A@@std@@@std@@QAEXXZ 100a4300 f i GraphButtonList.obj
 0002:00036400       ?_Freeheadnode@?$_Tree_comp_alloc@V?$_Tmap_traits@HPAVCGraphButton@SKINGDI@NMBASE@@U?$less@H@std@@V?$allocator@U?$pair@$$CBHPAVCGraphButton@SKINGDI@NMBASE@@@std@@@5@$0A@@std@@@std@@QAEXPAU?$_Tree_node@U?$pair@$$CBHPAVCGraphButton@SKINGDI@NMBASE@@@std@@PAX@2@@Z 100a4400 f i GraphButtonList.obj
 0002:00036470       ?_Freeheadnode@?$_Tree_comp_alloc@V?$_Tmap_traits@HPAVCGraphButtonEx@SKINGDI@NMBASE@@U?$less@H@std@@V?$allocator@U?$pair@$$CBHPAVCGraphButtonEx@SKINGDI@NMBASE@@@std@@@5@$0A@@std@@@std@@QAEXPAU?$_Tree_node@U?$pair@$$CBHPAVCGraphButtonEx@SKINGDI@NMBASE@@@std@@PAX@2@@Z 100a4470 f i GraphButtonList.obj
 0002:000364e0       ?_Freenode0@?$_Tree_comp_alloc@V?$_Tmap_traits@HPAVCGraphButton@SKINGDI@NMBASE@@U?$less@H@std@@V?$allocator@U?$pair@$$CBHPAVCGraphButton@SKINGDI@NMBASE@@@std@@@5@$0A@@std@@@std@@QAEXPAU?$_Tree_node@U?$pair@$$CBHPAVCGraphButton@SKINGDI@NMBASE@@@std@@PAX@2@@Z 100a44e0 f i GraphButtonList.obj
 0002:00036550       ?_Freenode0@?$_Tree_comp_alloc@V?$_Tmap_traits@HPAVCGraphButtonEx@SKINGDI@NMBASE@@U?$less@H@std@@V?$allocator@U?$pair@$$CBHPAVCGraphButtonEx@SKINGDI@NMBASE@@@std@@@5@$0A@@std@@@std@@QAEXPAU?$_Tree_node@U?$pair@$$CBHPAVCGraphButtonEx@SKINGDI@NMBASE@@@std@@PAX@2@@Z 100a4550 f i GraphButtonList.obj
 0002:000365c0       ?_Get_data@?$_Tree_comp_alloc@V?$_Tmap_traits@HPAVCGraphButton@SKINGDI@NMBASE@@U?$less@H@std@@V?$allocator@U?$pair@$$CBHPAVCGraphButton@SKINGDI@NMBASE@@@std@@@5@$0A@@std@@@std@@QAEAAV?$_Tree_val@U?$_Tree_simple_types@U?$pair@$$CBHPAVCGraphButton@SKINGDI@NMBASE@@@std@@@std@@@2@XZ 100a45c0 f i GraphButtonList.obj
 0002:00036620       ?_Get_data@?$_Tree_comp_alloc@V?$_Tmap_traits@HPAVCGraphButton@SKINGDI@NMBASE@@U?$less@H@std@@V?$allocator@U?$pair@$$CBHPAVCGraphButton@SKINGDI@NMBASE@@@std@@@5@$0A@@std@@@std@@QBEABV?$_Tree_val@U?$_Tree_simple_types@U?$pair@$$CBHPAVCGraphButton@SKINGDI@NMBASE@@@std@@@std@@@2@XZ 100a4620 f i GraphButtonList.obj
 0002:00036680       ?_Get_data@?$_Tree_comp_alloc@V?$_Tmap_traits@HPAVCGraphButtonEx@SKINGDI@NMBASE@@U?$less@H@std@@V?$allocator@U?$pair@$$CBHPAVCGraphButtonEx@SKINGDI@NMBASE@@@std@@@5@$0A@@std@@@std@@QAEAAV?$_Tree_val@U?$_Tree_simple_types@U?$pair@$$CBHPAVCGraphButtonEx@SKINGDI@NMBASE@@@std@@@std@@@2@XZ 100a4680 f i GraphButtonList.obj
 0002:000366e0       ?_Get_data@?$_Tree_comp_alloc@V?$_Tmap_traits@HPAVCGraphButtonEx@SKINGDI@NMBASE@@U?$less@H@std@@V?$allocator@U?$pair@$$CBHPAVCGraphButtonEx@SKINGDI@NMBASE@@@std@@@5@$0A@@std@@@std@@QBEABV?$_Tree_val@U?$_Tree_simple_types@U?$pair@$$CBHPAVCGraphButtonEx@SKINGDI@NMBASE@@@std@@@std@@@2@XZ 100a46e0 f i GraphButtonList.obj
 0002:00036740       ?_Get_first@?$_Compressed_pair@U?$less@H@std@@V?$_Compressed_pair@V?$allocator@U?$_Tree_node@U?$pair@$$CBHPAVCGraphButton@SKINGDI@NMBASE@@@std@@PAX@std@@@std@@V?$_Tree_val@U?$_Tree_simple_types@U?$pair@$$CBHPAVCGraphButton@SKINGDI@NMBASE@@@std@@@std@@@2@$00@2@$00@std@@QAEAAU?$less@H@2@XZ 100a4740 f i GraphButtonList.obj
 0002:00036780       ?_Get_first@?$_Compressed_pair@U?$less@H@std@@V?$_Compressed_pair@V?$allocator@U?$_Tree_node@U?$pair@$$CBHPAVCGraphButton@SKINGDI@NMBASE@@@std@@PAX@std@@@std@@V?$_Tree_val@U?$_Tree_simple_types@U?$pair@$$CBHPAVCGraphButton@SKINGDI@NMBASE@@@std@@@std@@@2@$00@2@$00@std@@QBEABU?$less@H@2@XZ 100a4780 f i GraphButtonList.obj
 0002:000367c0       ?_Get_first@?$_Compressed_pair@U?$less@H@std@@V?$_Compressed_pair@V?$allocator@U?$_Tree_node@U?$pair@$$CBHPAVCGraphButtonEx@SKINGDI@NMBASE@@@std@@PAX@std@@@std@@V?$_Tree_val@U?$_Tree_simple_types@U?$pair@$$CBHPAVCGraphButtonEx@SKINGDI@NMBASE@@@std@@@std@@@2@$00@2@$00@std@@QAEAAU?$less@H@2@XZ 100a47c0 f i GraphButtonList.obj
 0002:00036800       ?_Get_first@?$_Compressed_pair@U?$less@H@std@@V?$_Compressed_pair@V?$allocator@U?$_Tree_node@U?$pair@$$CBHPAVCGraphButtonEx@SKINGDI@NMBASE@@@std@@PAX@std@@@std@@V?$_Tree_val@U?$_Tree_simple_types@U?$pair@$$CBHPAVCGraphButtonEx@SKINGDI@NMBASE@@@std@@@std@@@2@$00@2@$00@std@@QBEABU?$less@H@2@XZ 100a4800 f i GraphButtonList.obj
 0002:00036840       ?_Get_first@?$_Compressed_pair@V?$allocator@U?$_Tree_node@U?$pair@$$CBHPAVCGraphButton@SKINGDI@NMBASE@@@std@@PAX@std@@@std@@V?$_Tree_val@U?$_Tree_simple_types@U?$pair@$$CBHPAVCGraphButton@SKINGDI@NMBASE@@@std@@@std@@@2@$00@std@@QAEAAV?$allocator@U?$_Tree_node@U?$pair@$$CBHPAVCGraphButton@SKINGDI@NMBASE@@@std@@PAX@std@@@2@XZ 100a4840 f i GraphButtonList.obj
 0002:00036880       ?_Get_first@?$_Compressed_pair@V?$allocator@U?$_Tree_node@U?$pair@$$CBHPAVCGraphButton@SKINGDI@NMBASE@@@std@@PAX@std@@@std@@V?$_Tree_val@U?$_Tree_simple_types@U?$pair@$$CBHPAVCGraphButton@SKINGDI@NMBASE@@@std@@@std@@@2@$00@std@@QBEABV?$allocator@U?$_Tree_node@U?$pair@$$CBHPAVCGraphButton@SKINGDI@NMBASE@@@std@@PAX@std@@@2@XZ 100a4880 f i GraphButtonList.obj
 0002:000368c0       ?_Get_first@?$_Compressed_pair@V?$allocator@U?$_Tree_node@U?$pair@$$CBHPAVCGraphButtonEx@SKINGDI@NMBASE@@@std@@PAX@std@@@std@@V?$_Tree_val@U?$_Tree_simple_types@U?$pair@$$CBHPAVCGraphButtonEx@SKINGDI@NMBASE@@@std@@@std@@@2@$00@std@@QAEAAV?$allocator@U?$_Tree_node@U?$pair@$$CBHPAVCGraphButtonEx@SKINGDI@NMBASE@@@std@@PAX@std@@@2@XZ 100a48c0 f i GraphButtonList.obj
 0002:00036900       ?_Get_first@?$_Compressed_pair@V?$allocator@U?$_Tree_node@U?$pair@$$CBHPAVCGraphButtonEx@SKINGDI@NMBASE@@@std@@PAX@std@@@std@@V?$_Tree_val@U?$_Tree_simple_types@U?$pair@$$CBHPAVCGraphButtonEx@SKINGDI@NMBASE@@@std@@@std@@@2@$00@std@@QBEABV?$allocator@U?$_Tree_node@U?$pair@$$CBHPAVCGraphButtonEx@SKINGDI@NMBASE@@@std@@PAX@std@@@2@XZ 100a4900 f i GraphButtonList.obj
 0002:00036940       ?_Get_second@?$_Compressed_pair@U?$less@H@std@@V?$_Compressed_pair@V?$allocator@U?$_Tree_node@U?$pair@$$CBHPAVCGraphButton@SKINGDI@NMBASE@@@std@@PAX@std@@@std@@V?$_Tree_val@U?$_Tree_simple_types@U?$pair@$$CBHPAVCGraphButton@SKINGDI@NMBASE@@@std@@@std@@@2@$00@2@$00@std@@QAEAAV?$_Compressed_pair@V?$allocator@U?$_Tree_node@U?$pair@$$CBHPAVCGraphButton@SKINGDI@NMBASE@@@std@@PAX@std@@@std@@V?$_Tree_val@U?$_Tree_simple_types@U?$pair@$$CBHPAVCGraphButton@SKINGDI@NMBASE@@@std@@@std@@@2@$00@2@XZ 100a4940 f i GraphButtonList.obj
 0002:00036980       ?_Get_second@?$_Compressed_pair@U?$less@H@std@@V?$_Compressed_pair@V?$allocator@U?$_Tree_node@U?$pair@$$CBHPAVCGraphButton@SKINGDI@NMBASE@@@std@@PAX@std@@@std@@V?$_Tree_val@U?$_Tree_simple_types@U?$pair@$$CBHPAVCGraphButton@SKINGDI@NMBASE@@@std@@@std@@@2@$00@2@$00@std@@QBEABV?$_Compressed_pair@V?$allocator@U?$_Tree_node@U?$pair@$$CBHPAVCGraphButton@SKINGDI@NMBASE@@@std@@PAX@std@@@std@@V?$_Tree_val@U?$_Tree_simple_types@U?$pair@$$CBHPAVCGraphButton@SKINGDI@NMBASE@@@std@@@std@@@2@$00@2@XZ 100a4980 f i GraphButtonList.obj
 0002:000369c0       ?_Get_second@?$_Compressed_pair@U?$less@H@std@@V?$_Compressed_pair@V?$allocator@U?$_Tree_node@U?$pair@$$CBHPAVCGraphButtonEx@SKINGDI@NMBASE@@@std@@PAX@std@@@std@@V?$_Tree_val@U?$_Tree_simple_types@U?$pair@$$CBHPAVCGraphButtonEx@SKINGDI@NMBASE@@@std@@@std@@@2@$00@2@$00@std@@QAEAAV?$_Compressed_pair@V?$allocator@U?$_Tree_node@U?$pair@$$CBHPAVCGraphButtonEx@SKINGDI@NMBASE@@@std@@PAX@std@@@std@@V?$_Tree_val@U?$_Tree_simple_types@U?$pair@$$CBHPAVCGraphButtonEx@SKINGDI@NMBASE@@@std@@@std@@@2@$00@2@XZ 100a49c0 f i GraphButtonList.obj
 0002:00036a00       ?_Get_second@?$_Compressed_pair@U?$less@H@std@@V?$_Compressed_pair@V?$allocator@U?$_Tree_node@U?$pair@$$CBHPAVCGraphButtonEx@SKINGDI@NMBASE@@@std@@PAX@std@@@std@@V?$_Tree_val@U?$_Tree_simple_types@U?$pair@$$CBHPAVCGraphButtonEx@SKINGDI@NMBASE@@@std@@@std@@@2@$00@2@$00@std@@QBEABV?$_Compressed_pair@V?$allocator@U?$_Tree_node@U?$pair@$$CBHPAVCGraphButtonEx@SKINGDI@NMBASE@@@std@@PAX@std@@@std@@V?$_Tree_val@U?$_Tree_simple_types@U?$pair@$$CBHPAVCGraphButtonEx@SKINGDI@NMBASE@@@std@@@std@@@2@$00@2@XZ 100a4a00 f i GraphButtonList.obj
 0002:00036a40       ?_Get_second@?$_Compressed_pair@V?$allocator@U?$_Tree_node@U?$pair@$$CBHPAVCGraphButton@SKINGDI@NMBASE@@@std@@PAX@std@@@std@@V?$_Tree_val@U?$_Tree_simple_types@U?$pair@$$CBHPAVCGraphButton@SKINGDI@NMBASE@@@std@@@std@@@2@$00@std@@QAEAAV?$_Tree_val@U?$_Tree_simple_types@U?$pair@$$CBHPAVCGraphButton@SKINGDI@NMBASE@@@std@@@std@@@2@XZ 100a4a40 f i GraphButtonList.obj
 0002:00036a80       ?_Get_second@?$_Compressed_pair@V?$allocator@U?$_Tree_node@U?$pair@$$CBHPAVCGraphButton@SKINGDI@NMBASE@@@std@@PAX@std@@@std@@V?$_Tree_val@U?$_Tree_simple_types@U?$pair@$$CBHPAVCGraphButton@SKINGDI@NMBASE@@@std@@@std@@@2@$00@std@@QBEABV?$_Tree_val@U?$_Tree_simple_types@U?$pair@$$CBHPAVCGraphButton@SKINGDI@NMBASE@@@std@@@std@@@2@XZ 100a4a80 f i GraphButtonList.obj
 0002:00036ac0       ?_Get_second@?$_Compressed_pair@V?$allocator@U?$_Tree_node@U?$pair@$$CBHPAVCGraphButtonEx@SKINGDI@NMBASE@@@std@@PAX@std@@@std@@V?$_Tree_val@U?$_Tree_simple_types@U?$pair@$$CBHPAVCGraphButtonEx@SKINGDI@NMBASE@@@std@@@std@@@2@$00@std@@QAEAAV?$_Tree_val@U?$_Tree_simple_types@U?$pair@$$CBHPAVCGraphButtonEx@SKINGDI@NMBASE@@@std@@@std@@@2@XZ 100a4ac0 f i GraphButtonList.obj
 0002:00036b00       ?_Get_second@?$_Compressed_pair@V?$allocator@U?$_Tree_node@U?$pair@$$CBHPAVCGraphButtonEx@SKINGDI@NMBASE@@@std@@PAX@std@@@std@@V?$_Tree_val@U?$_Tree_simple_types@U?$pair@$$CBHPAVCGraphButtonEx@SKINGDI@NMBASE@@@std@@@std@@@2@$00@std@@QBEABV?$_Tree_val@U?$_Tree_simple_types@U?$pair@$$CBHPAVCGraphButtonEx@SKINGDI@NMBASE@@@std@@@std@@@2@XZ 100a4b00 f i GraphButtonList.obj
 0002:00036b40       ?_Getal@?$_Tree_comp_alloc@V?$_Tmap_traits@HPAVCGraphButton@SKINGDI@NMBASE@@U?$less@H@std@@V?$allocator@U?$pair@$$CBHPAVCGraphButton@SKINGDI@NMBASE@@@std@@@5@$0A@@std@@@std@@QAEAAV?$allocator@U?$_Tree_node@U?$pair@$$CBHPAVCGraphButton@SKINGDI@NMBASE@@@std@@PAX@std@@@2@XZ 100a4b40 f i GraphButtonList.obj
 0002:00036ba0       ?_Getal@?$_Tree_comp_alloc@V?$_Tmap_traits@HPAVCGraphButton@SKINGDI@NMBASE@@U?$less@H@std@@V?$allocator@U?$pair@$$CBHPAVCGraphButton@SKINGDI@NMBASE@@@std@@@5@$0A@@std@@@std@@QBEABV?$allocator@U?$_Tree_node@U?$pair@$$CBHPAVCGraphButton@SKINGDI@NMBASE@@@std@@PAX@std@@@2@XZ 100a4ba0 f i GraphButtonList.obj
 0002:00036c00       ?_Getal@?$_Tree_comp_alloc@V?$_Tmap_traits@HPAVCGraphButtonEx@SKINGDI@NMBASE@@U?$less@H@std@@V?$allocator@U?$pair@$$CBHPAVCGraphButtonEx@SKINGDI@NMBASE@@@std@@@5@$0A@@std@@@std@@QAEAAV?$allocator@U?$_Tree_node@U?$pair@$$CBHPAVCGraphButtonEx@SKINGDI@NMBASE@@@std@@PAX@std@@@2@XZ 100a4c00 f i GraphButtonList.obj
 0002:00036c60       ?_Getal@?$_Tree_comp_alloc@V?$_Tmap_traits@HPAVCGraphButtonEx@SKINGDI@NMBASE@@U?$less@H@std@@V?$allocator@U?$pair@$$CBHPAVCGraphButtonEx@SKINGDI@NMBASE@@@std@@@5@$0A@@std@@@std@@QBEABV?$allocator@U?$_Tree_node@U?$pair@$$CBHPAVCGraphButtonEx@SKINGDI@NMBASE@@@std@@PAX@std@@@2@XZ 100a4c60 f i GraphButtonList.obj
 0002:00036cc0       ?_Getcomp@?$_Tree_comp_alloc@V?$_Tmap_traits@HPAVCGraphButton@SKINGDI@NMBASE@@U?$less@H@std@@V?$allocator@U?$pair@$$CBHPAVCGraphButton@SKINGDI@NMBASE@@@std@@@5@$0A@@std@@@std@@QAEAAU?$less@H@2@XZ 100a4cc0 f i GraphButtonList.obj
 0002:00036d10       ?_Getcomp@?$_Tree_comp_alloc@V?$_Tmap_traits@HPAVCGraphButton@SKINGDI@NMBASE@@U?$less@H@std@@V?$allocator@U?$pair@$$CBHPAVCGraphButton@SKINGDI@NMBASE@@@std@@@5@$0A@@std@@@std@@QBEABU?$less@H@2@XZ 100a4d10 f i GraphButtonList.obj
 0002:00036d60       ?_Getcomp@?$_Tree_comp_alloc@V?$_Tmap_traits@HPAVCGraphButtonEx@SKINGDI@NMBASE@@U?$less@H@std@@V?$allocator@U?$pair@$$CBHPAVCGraphButtonEx@SKINGDI@NMBASE@@@std@@@5@$0A@@std@@@std@@QAEAAU?$less@H@2@XZ 100a4d60 f i GraphButtonList.obj
 0002:00036db0       ?_Getcomp@?$_Tree_comp_alloc@V?$_Tmap_traits@HPAVCGraphButtonEx@SKINGDI@NMBASE@@U?$less@H@std@@V?$allocator@U?$pair@$$CBHPAVCGraphButtonEx@SKINGDI@NMBASE@@@std@@@5@$0A@@std@@@std@@QBEABU?$less@H@2@XZ 100a4db0 f i GraphButtonList.obj
 0002:00036e00       ?_Getcont@_Iterator_base12@std@@QBEPBU_Container_base12@2@XZ 100a4e00 f i GraphButtonList.obj
 0002:00036e70       ?_Getpfirst@?$_Tree_comp_alloc@V?$_Tmap_traits@HPAVCGraphButton@SKINGDI@NMBASE@@U?$less@H@std@@V?$allocator@U?$pair@$$CBHPAVCGraphButton@SKINGDI@NMBASE@@@std@@@5@$0A@@std@@@std@@QBEPAPAU_Iterator_base12@2@XZ 100a4e70 f i GraphButtonList.obj
 0002:00036ed0       ?_Getpfirst@?$_Tree_comp_alloc@V?$_Tmap_traits@HPAVCGraphButtonEx@SKINGDI@NMBASE@@U?$less@H@std@@V?$allocator@U?$pair@$$CBHPAVCGraphButtonEx@SKINGDI@NMBASE@@@std@@@5@$0A@@std@@@std@@QBEPAPAU_Iterator_base12@2@XZ 100a4ed0 f i GraphButtonList.obj
 0002:00036f30       ?_Getpfirst@_Container_base12@std@@QBEPAPAU_Iterator_base12@2@XZ 100a4f30 f i GraphButtonList.obj
 0002:00036fa0       ?_Getpnext@_Iterator_base12@std@@QAEPAPAU12@XZ 100a4fa0 f i GraphButtonList.obj
 0002:00036fe0       ?_Key@?$_Tree@V?$_Tmap_traits@HPAVCGraphButton@SKINGDI@NMBASE@@U?$less@H@std@@V?$allocator@U?$pair@$$CBHPAVCGraphButton@SKINGDI@NMBASE@@@std@@@5@$0A@@std@@@std@@IBEABHPAU?$_Tree_node@U?$pair@$$CBHPAVCGraphButton@SKINGDI@NMBASE@@@std@@PAX@2@@Z 100a4fe0 f i GraphButtonList.obj
 0002:00037040       ?_Key@?$_Tree@V?$_Tmap_traits@HPAVCGraphButtonEx@SKINGDI@NMBASE@@U?$less@H@std@@V?$allocator@U?$pair@$$CBHPAVCGraphButtonEx@SKINGDI@NMBASE@@@std@@@5@$0A@@std@@@std@@IBEABHPAU?$_Tree_node@U?$pair@$$CBHPAVCGraphButtonEx@SKINGDI@NMBASE@@@std@@PAX@2@@Z 100a5040 f i GraphButtonList.obj
 0002:000370a0       ?_Kfn@?$_Tree@V?$_Tmap_traits@HPAVCGraphButton@SKINGDI@NMBASE@@U?$less@H@std@@V?$allocator@U?$pair@$$CBHPAVCGraphButton@SKINGDI@NMBASE@@@std@@@5@$0A@@std@@@std@@IBEABHABU?$pair@$$CBHPAVCGraphButton@SKINGDI@NMBASE@@@2@@Z 100a50a0 f i GraphButtonList.obj
 0002:00037100       ?_Kfn@?$_Tree@V?$_Tmap_traits@HPAVCGraphButtonEx@SKINGDI@NMBASE@@U?$less@H@std@@V?$allocator@U?$pair@$$CBHPAVCGraphButtonEx@SKINGDI@NMBASE@@@std@@@5@$0A@@std@@@std@@IBEABHABU?$pair@$$CBHPAVCGraphButtonEx@SKINGDI@NMBASE@@@2@@Z 100a5100 f i GraphButtonList.obj
 0002:00037160       ?_Lmost@?$_Tree_val@U?$_Tree_simple_types@U?$pair@$$CBHPAVCGraphButton@SKINGDI@NMBASE@@@std@@@std@@@std@@QBEAAPAU?$_Tree_node@U?$pair@$$CBHPAVCGraphButton@SKINGDI@NMBASE@@@std@@PAX@2@XZ 100a5160 f i GraphButtonList.obj
 0002:000371a0       ?_Lmost@?$_Tree_val@U?$_Tree_simple_types@U?$pair@$$CBHPAVCGraphButtonEx@SKINGDI@NMBASE@@@std@@@std@@@std@@QBEAAPAU?$_Tree_node@U?$pair@$$CBHPAVCGraphButtonEx@SKINGDI@NMBASE@@@std@@PAX@2@XZ 100a51a0 f i GraphButtonList.obj
 0002:000371e0       ?_Lrotate@?$_Tree_val@U?$_Tree_simple_types@U?$pair@$$CBHPAVCGraphButton@SKINGDI@NMBASE@@@std@@@std@@@std@@QAEXPAU?$_Tree_node@U?$pair@$$CBHPAVCGraphButton@SKINGDI@NMBASE@@@std@@PAX@2@@Z 100a51e0 f i GraphButtonList.obj
 0002:000372d0       ?_Lrotate@?$_Tree_val@U?$_Tree_simple_types@U?$pair@$$CBHPAVCGraphButtonEx@SKINGDI@NMBASE@@@std@@@std@@@std@@QAEXPAU?$_Tree_node@U?$pair@$$CBHPAVCGraphButtonEx@SKINGDI@NMBASE@@@std@@PAX@2@@Z 100a52d0 f i GraphButtonList.obj
 0002:000373c0       ?_Max@?$_Tree_val@U?$_Tree_simple_types@U?$pair@$$CBHPAVCGraphButton@SKINGDI@NMBASE@@@std@@@std@@@std@@SAPAU?$_Tree_node@U?$pair@$$CBHPAVCGraphButton@SKINGDI@NMBASE@@@std@@PAX@2@PAU32@@Z 100a53c0 f i GraphButtonList.obj
 0002:00037420       ?_Max@?$_Tree_val@U?$_Tree_simple_types@U?$pair@$$CBHPAVCGraphButtonEx@SKINGDI@NMBASE@@@std@@@std@@@std@@SAPAU?$_Tree_node@U?$pair@$$CBHPAVCGraphButtonEx@SKINGDI@NMBASE@@@std@@PAX@2@PAU32@@Z 100a5420 f i GraphButtonList.obj
 0002:00037480       ?_Min@?$_Tree_val@U?$_Tree_simple_types@U?$pair@$$CBHPAVCGraphButton@SKINGDI@NMBASE@@@std@@@std@@@std@@SAPAU?$_Tree_node@U?$pair@$$CBHPAVCGraphButton@SKINGDI@NMBASE@@@std@@PAX@2@PAU32@@Z 100a5480 f i GraphButtonList.obj
 0002:000374d0       ?_Min@?$_Tree_val@U?$_Tree_simple_types@U?$pair@$$CBHPAVCGraphButtonEx@SKINGDI@NMBASE@@@std@@@std@@@std@@SAPAU?$_Tree_node@U?$pair@$$CBHPAVCGraphButtonEx@SKINGDI@NMBASE@@@std@@PAX@2@PAU32@@Z 100a54d0 f i GraphButtonList.obj
 0002:00037520       ?_Myproxy@?$_Tree_comp_alloc@V?$_Tmap_traits@HPAVCGraphButton@SKINGDI@NMBASE@@U?$less@H@std@@V?$allocator@U?$pair@$$CBHPAVCGraphButton@SKINGDI@NMBASE@@@std@@@5@$0A@@std@@@std@@QAEAAPAU_Container_proxy@2@XZ 100a5520 f i GraphButtonList.obj
 0002:00037570       ?_Myproxy@?$_Tree_comp_alloc@V?$_Tmap_traits@HPAVCGraphButtonEx@SKINGDI@NMBASE@@U?$less@H@std@@V?$allocator@U?$pair@$$CBHPAVCGraphButtonEx@SKINGDI@NMBASE@@@std@@@5@$0A@@std@@@std@@QAEAAPAU_Container_proxy@2@XZ 100a5570 f i GraphButtonList.obj
 0002:000375c0       ?_Orphan_all@?$_Tree_comp_alloc@V?$_Tmap_traits@HPAVCGraphButton@SKINGDI@NMBASE@@U?$less@H@std@@V?$allocator@U?$pair@$$CBHPAVCGraphButton@SKINGDI@NMBASE@@@std@@@5@$0A@@std@@@std@@QAEXXZ 100a55c0 f i GraphButtonList.obj
 0002:00037620       ?_Orphan_all@?$_Tree_comp_alloc@V?$_Tmap_traits@HPAVCGraphButtonEx@SKINGDI@NMBASE@@U?$less@H@std@@V?$allocator@U?$pair@$$CBHPAVCGraphButtonEx@SKINGDI@NMBASE@@@std@@@5@$0A@@std@@@std@@QAEXXZ 100a5620 f i GraphButtonList.obj
 0002:00037680       ?_Orphan_all@_Container_base12@std@@QAEXXZ 100a5680 f i GraphButtonList.obj
 0002:000377c0       ?_Orphan_me@_Iterator_base12@std@@QAEXXZ 100a57c0 f i GraphButtonList.obj
 0002:000378f0       ?_Orphan_ptr@?$_Tree@V?$_Tmap_traits@HPAVCGraphButton@SKINGDI@NMBASE@@U?$less@H@std@@V?$allocator@U?$pair@$$CBHPAVCGraphButton@SKINGDI@NMBASE@@@std@@@5@$0A@@std@@@std@@IAEXPAU?$_Tree_node@U?$pair@$$CBHPAVCGraphButton@SKINGDI@NMBASE@@@std@@PAX@2@@Z 100a58f0 f i GraphButtonList.obj
 0002:00037a70       ?_Orphan_ptr@?$_Tree@V?$_Tmap_traits@HPAVCGraphButtonEx@SKINGDI@NMBASE@@U?$less@H@std@@V?$allocator@U?$pair@$$CBHPAVCGraphButtonEx@SKINGDI@NMBASE@@@std@@@5@$0A@@std@@@std@@IAEXPAU?$_Tree_node@U?$pair@$$CBHPAVCGraphButtonEx@SKINGDI@NMBASE@@@std@@PAX@2@@Z 100a5a70 f i GraphButtonList.obj
 0002:00037bf0       ?_Rmost@?$_Tree_val@U?$_Tree_simple_types@U?$pair@$$CBHPAVCGraphButton@SKINGDI@NMBASE@@@std@@@std@@@std@@QBEAAPAU?$_Tree_node@U?$pair@$$CBHPAVCGraphButton@SKINGDI@NMBASE@@@std@@PAX@2@XZ 100a5bf0 f i GraphButtonList.obj
 0002:00037c30       ?_Rmost@?$_Tree_val@U?$_Tree_simple_types@U?$pair@$$CBHPAVCGraphButtonEx@SKINGDI@NMBASE@@@std@@@std@@@std@@QBEAAPAU?$_Tree_node@U?$pair@$$CBHPAVCGraphButtonEx@SKINGDI@NMBASE@@@std@@PAX@2@XZ 100a5c30 f i GraphButtonList.obj
 0002:00037c70       ?_Root@?$_Tree_val@U?$_Tree_simple_types@U?$pair@$$CBHPAVCGraphButton@SKINGDI@NMBASE@@@std@@@std@@@std@@QBEAAPAU?$_Tree_node@U?$pair@$$CBHPAVCGraphButton@SKINGDI@NMBASE@@@std@@PAX@2@XZ 100a5c70 f i GraphButtonList.obj
 0002:00037cb0       ?_Root@?$_Tree_val@U?$_Tree_simple_types@U?$pair@$$CBHPAVCGraphButtonEx@SKINGDI@NMBASE@@@std@@@std@@@std@@QBEAAPAU?$_Tree_node@U?$pair@$$CBHPAVCGraphButtonEx@SKINGDI@NMBASE@@@std@@PAX@2@XZ 100a5cb0 f i GraphButtonList.obj
 0002:00037cf0       ?_Rrotate@?$_Tree_val@U?$_Tree_simple_types@U?$pair@$$CBHPAVCGraphButton@SKINGDI@NMBASE@@@std@@@std@@@std@@QAEXPAU?$_Tree_node@U?$pair@$$CBHPAVCGraphButton@SKINGDI@NMBASE@@@std@@PAX@2@@Z 100a5cf0 f i GraphButtonList.obj
 0002:00037de0       ?_Rrotate@?$_Tree_val@U?$_Tree_simple_types@U?$pair@$$CBHPAVCGraphButtonEx@SKINGDI@NMBASE@@@std@@@std@@@std@@QAEXPAU?$_Tree_node@U?$pair@$$CBHPAVCGraphButtonEx@SKINGDI@NMBASE@@@std@@PAX@2@@Z 100a5de0 f i GraphButtonList.obj
 0002:00037ed0       ?_Tidy@?$_Tree@V?$_Tmap_traits@HPAVCGraphButton@SKINGDI@NMBASE@@U?$less@H@std@@V?$allocator@U?$pair@$$CBHPAVCGraphButton@SKINGDI@NMBASE@@@std@@@5@$0A@@std@@@std@@IAEXXZ 100a5ed0 f i GraphButtonList.obj
 0002:00038040       ?_Tidy@?$_Tree@V?$_Tmap_traits@HPAVCGraphButtonEx@SKINGDI@NMBASE@@U?$less@H@std@@V?$allocator@U?$pair@$$CBHPAVCGraphButtonEx@SKINGDI@NMBASE@@@std@@@5@$0A@@std@@@std@@IAEXXZ 100a6040 f i GraphButtonList.obj
 0002:000381b0       ?allocate@?$allocator@U?$_Tree_node@U?$pair@$$CBHPAVCGraphButton@SKINGDI@NMBASE@@@std@@PAX@std@@@std@@QAEPAU?$_Tree_node@U?$pair@$$CBHPAVCGraphButton@SKINGDI@NMBASE@@@std@@PAX@2@I@Z 100a61b0 f i GraphButtonList.obj
 0002:00038220       ?allocate@?$allocator@U?$_Tree_node@U?$pair@$$CBHPAVCGraphButtonEx@SKINGDI@NMBASE@@@std@@PAX@std@@@std@@QAEPAU?$_Tree_node@U?$pair@$$CBHPAVCGraphButtonEx@SKINGDI@NMBASE@@@std@@PAX@2@I@Z 100a6220 f i GraphButtonList.obj
 0002:00038290       ?allocate@?$allocator@U_Container_proxy@std@@@std@@QAEPAU_Container_proxy@2@I@Z 100a6290 f i GraphButtonList.obj
 0002:00038300       ?begin@?$_Tree@V?$_Tmap_traits@HPAVCGraphButton@SKINGDI@NMBASE@@U?$less@H@std@@V?$allocator@U?$pair@$$CBHPAVCGraphButton@SKINGDI@NMBASE@@@std@@@5@$0A@@std@@@std@@QAE?AV?$_Tree_iterator@V?$_Tree_val@U?$_Tree_simple_types@U?$pair@$$CBHPAVCGraphButton@SKINGDI@NMBASE@@@std@@@std@@@std@@@2@XZ 100a6300 f i GraphButtonList.obj
 0002:000383c0       ?begin@?$_Tree@V?$_Tmap_traits@HPAVCGraphButtonEx@SKINGDI@NMBASE@@U?$less@H@std@@V?$allocator@U?$pair@$$CBHPAVCGraphButtonEx@SKINGDI@NMBASE@@@std@@@5@$0A@@std@@@std@@QAE?AV?$_Tree_iterator@V?$_Tree_val@U?$_Tree_simple_types@U?$pair@$$CBHPAVCGraphButtonEx@SKINGDI@NMBASE@@@std@@@std@@@std@@@2@XZ 100a63c0 f i GraphButtonList.obj
 0002:00038480       ?clear@?$_Tree@V?$_Tmap_traits@HPAVCGraphButton@SKINGDI@NMBASE@@U?$less@H@std@@V?$allocator@U?$pair@$$CBHPAVCGraphButton@SKINGDI@NMBASE@@@std@@@5@$0A@@std@@@std@@QAEXXZ 100a6480 f i GraphButtonList.obj
 0002:00038580       ?clear@?$_Tree@V?$_Tmap_traits@HPAVCGraphButtonEx@SKINGDI@NMBASE@@U?$less@H@std@@V?$allocator@U?$pair@$$CBHPAVCGraphButtonEx@SKINGDI@NMBASE@@@std@@@5@$0A@@std@@@std@@QAEXXZ 100a6580 f i GraphButtonList.obj
 0002:00038680       ?deallocate@?$_Default_allocator_traits@V?$allocator@U?$_Tree_node@U?$pair@$$CBHPAVCGraphButton@SKINGDI@NMBASE@@@std@@PAX@std@@@std@@@std@@SAXAAV?$allocator@U?$_Tree_node@U?$pair@$$CBHPAVCGraphButton@SKINGDI@NMBASE@@@std@@PAX@std@@@2@QAU?$_Tree_node@U?$pair@$$CBHPAVCGraphButton@SKINGDI@NMBASE@@@std@@PAX@2@I@Z 100a6680 f i GraphButtonList.obj
 0002:000386e0       ?deallocate@?$_Default_allocator_traits@V?$allocator@U?$_Tree_node@U?$pair@$$CBHPAVCGraphButtonEx@SKINGDI@NMBASE@@@std@@PAX@std@@@std@@@std@@SAXAAV?$allocator@U?$_Tree_node@U?$pair@$$CBHPAVCGraphButtonEx@SKINGDI@NMBASE@@@std@@PAX@std@@@2@QAU?$_Tree_node@U?$pair@$$CBHPAVCGraphButtonEx@SKINGDI@NMBASE@@@std@@PAX@2@I@Z 100a66e0 f i GraphButtonList.obj
 0002:00038740       ?deallocate@?$_Default_allocator_traits@V?$allocator@U_Container_proxy@std@@@std@@@std@@SAXAAV?$allocator@U_Container_proxy@std@@@2@QAU_Container_proxy@2@I@Z 100a6740 f i GraphButtonList.obj
 0002:000387a0       ?deallocate@?$allocator@U?$_Tree_node@U?$pair@$$CBHPAVCGraphButton@SKINGDI@NMBASE@@@std@@PAX@std@@@std@@QAEXQAU?$_Tree_node@U?$pair@$$CBHPAVCGraphButton@SKINGDI@NMBASE@@@std@@PAX@2@I@Z 100a67a0 f i GraphButtonList.obj
 0002:00038800       ?deallocate@?$allocator@U?$_Tree_node@U?$pair@$$CBHPAVCGraphButtonEx@SKINGDI@NMBASE@@@std@@PAX@std@@@std@@QAEXQAU?$_Tree_node@U?$pair@$$CBHPAVCGraphButtonEx@SKINGDI@NMBASE@@@std@@PAX@2@I@Z 100a6800 f i GraphButtonList.obj
 0002:00038860       ?end@?$_Tree@V?$_Tmap_traits@HPAVCGraphButton@SKINGDI@NMBASE@@U?$less@H@std@@V?$allocator@U?$pair@$$CBHPAVCGraphButton@SKINGDI@NMBASE@@@std@@@5@$0A@@std@@@std@@QAE?AV?$_Tree_iterator@V?$_Tree_val@U?$_Tree_simple_types@U?$pair@$$CBHPAVCGraphButton@SKINGDI@NMBASE@@@std@@@std@@@std@@@2@XZ 100a6860 f i GraphButtonList.obj
 0002:00038910       ?end@?$_Tree@V?$_Tmap_traits@HPAVCGraphButtonEx@SKINGDI@NMBASE@@U?$less@H@std@@V?$allocator@U?$pair@$$CBHPAVCGraphButtonEx@SKINGDI@NMBASE@@@std@@@5@$0A@@std@@@std@@QAE?AV?$_Tree_iterator@V?$_Tree_val@U?$_Tree_simple_types@U?$pair@$$CBHPAVCGraphButtonEx@SKINGDI@NMBASE@@@std@@@std@@@std@@@2@XZ 100a6910 f i GraphButtonList.obj
 0002:000389c0       ?erase@?$_Tree@V?$_Tmap_traits@HPAVCGraphButton@SKINGDI@NMBASE@@U?$less@H@std@@V?$allocator@U?$pair@$$CBHPAVCGraphButton@SKINGDI@NMBASE@@@std@@@5@$0A@@std@@@std@@QAE?AV?$_Tree_iterator@V?$_Tree_val@U?$_Tree_simple_types@U?$pair@$$CBHPAVCGraphButton@SKINGDI@NMBASE@@@std@@@std@@@std@@@2@V?$_Tree_const_iterator@V?$_Tree_val@U?$_Tree_simple_types@U?$pair@$$CBHPAVCGraphButton@SKINGDI@NMBASE@@@std@@@std@@@std@@@2@0@Z 100a69c0 f i GraphButtonList.obj
 0002:00038ce0       ?erase@?$_Tree@V?$_Tmap_traits@HPAVCGraphButton@SKINGDI@NMBASE@@U?$less@H@std@@V?$allocator@U?$pair@$$CBHPAVCGraphButton@SKINGDI@NMBASE@@@std@@@5@$0A@@std@@@std@@QAE?AV?$_Tree_iterator@V?$_Tree_val@U?$_Tree_simple_types@U?$pair@$$CBHPAVCGraphButton@SKINGDI@NMBASE@@@std@@@std@@@std@@@2@V?$_Tree_const_iterator@V?$_Tree_val@U?$_Tree_simple_types@U?$pair@$$CBHPAVCGraphButton@SKINGDI@NMBASE@@@std@@@std@@@std@@@2@@Z 100a6ce0 f i GraphButtonList.obj
 0002:00038f70       ?erase@?$_Tree@V?$_Tmap_traits@HPAVCGraphButtonEx@SKINGDI@NMBASE@@U?$less@H@std@@V?$allocator@U?$pair@$$CBHPAVCGraphButtonEx@SKINGDI@NMBASE@@@std@@@5@$0A@@std@@@std@@QAE?AV?$_Tree_iterator@V?$_Tree_val@U?$_Tree_simple_types@U?$pair@$$CBHPAVCGraphButtonEx@SKINGDI@NMBASE@@@std@@@std@@@std@@@2@V?$_Tree_const_iterator@V?$_Tree_val@U?$_Tree_simple_types@U?$pair@$$CBHPAVCGraphButtonEx@SKINGDI@NMBASE@@@std@@@std@@@std@@@2@0@Z 100a6f70 f i GraphButtonList.obj
 0002:00039290       ?erase@?$_Tree@V?$_Tmap_traits@HPAVCGraphButtonEx@SKINGDI@NMBASE@@U?$less@H@std@@V?$allocator@U?$pair@$$CBHPAVCGraphButtonEx@SKINGDI@NMBASE@@@std@@@5@$0A@@std@@@std@@QAE?AV?$_Tree_iterator@V?$_Tree_val@U?$_Tree_simple_types@U?$pair@$$CBHPAVCGraphButtonEx@SKINGDI@NMBASE@@@std@@@std@@@std@@@2@V?$_Tree_const_iterator@V?$_Tree_val@U?$_Tree_simple_types@U?$pair@$$CBHPAVCGraphButtonEx@SKINGDI@NMBASE@@@std@@@std@@@std@@@2@@Z 100a7290 f i GraphButtonList.obj
 0002:00039520       ?key_comp@?$_Tree@V?$_Tmap_traits@HPAVCGraphButton@SKINGDI@NMBASE@@U?$less@H@std@@V?$allocator@U?$pair@$$CBHPAVCGraphButton@SKINGDI@NMBASE@@@std@@@5@$0A@@std@@@std@@QBE?AU?$less@H@2@XZ 100a7520 f i GraphButtonList.obj
 0002:00039580       ?key_comp@?$_Tree@V?$_Tmap_traits@HPAVCGraphButtonEx@SKINGDI@NMBASE@@U?$less@H@std@@V?$allocator@U?$pair@$$CBHPAVCGraphButtonEx@SKINGDI@NMBASE@@@std@@@5@$0A@@std@@@std@@QBE?AU?$less@H@2@XZ 100a7580 f i GraphButtonList.obj
 0002:000395e0       ?lower_bound@?$_Tree@V?$_Tmap_traits@HPAVCGraphButton@SKINGDI@NMBASE@@U?$less@H@std@@V?$allocator@U?$pair@$$CBHPAVCGraphButton@SKINGDI@NMBASE@@@std@@@5@$0A@@std@@@std@@QAE?AV?$_Tree_iterator@V?$_Tree_val@U?$_Tree_simple_types@U?$pair@$$CBHPAVCGraphButton@SKINGDI@NMBASE@@@std@@@std@@@std@@@2@ABH@Z 100a75e0 f i GraphButtonList.obj
 0002:00039680       ?lower_bound@?$_Tree@V?$_Tmap_traits@HPAVCGraphButtonEx@SKINGDI@NMBASE@@U?$less@H@std@@V?$allocator@U?$pair@$$CBHPAVCGraphButtonEx@SKINGDI@NMBASE@@@std@@@5@$0A@@std@@@std@@QAE?AV?$_Tree_iterator@V?$_Tree_val@U?$_Tree_simple_types@U?$pair@$$CBHPAVCGraphButtonEx@SKINGDI@NMBASE@@@std@@@std@@@std@@@2@ABH@Z 100a7680 f i GraphButtonList.obj
 0002:00039720       ?max_size@?$_Default_allocator_traits@V?$allocator@U?$_Tree_node@U?$pair@$$CBHPAVCGraphButton@SKINGDI@NMBASE@@@std@@PAX@std@@@std@@@std@@SAIABV?$allocator@U?$_Tree_node@U?$pair@$$CBHPAVCGraphButton@SKINGDI@NMBASE@@@std@@PAX@std@@@2@@Z 100a7720 f i GraphButtonList.obj
 0002:00039760       ?max_size@?$_Default_allocator_traits@V?$allocator@U?$_Tree_node@U?$pair@$$CBHPAVCGraphButtonEx@SKINGDI@NMBASE@@@std@@PAX@std@@@std@@@std@@SAIABV?$allocator@U?$_Tree_node@U?$pair@$$CBHPAVCGraphButtonEx@SKINGDI@NMBASE@@@std@@PAX@std@@@2@@Z 100a7760 f i GraphButtonList.obj
 0002:000397a0       ?max_size@?$_Tree@V?$_Tmap_traits@HPAVCGraphButton@SKINGDI@NMBASE@@U?$less@H@std@@V?$allocator@U?$pair@$$CBHPAVCGraphButton@SKINGDI@NMBASE@@@std@@@5@$0A@@std@@@std@@QBEIXZ 100a77a0 f i GraphButtonList.obj
 0002:00039800       ?max_size@?$_Tree@V?$_Tmap_traits@HPAVCGraphButtonEx@SKINGDI@NMBASE@@U?$less@H@std@@V?$allocator@U?$pair@$$CBHPAVCGraphButtonEx@SKINGDI@NMBASE@@@std@@@5@$0A@@std@@@std@@QBEIXZ 100a7800 f i GraphButtonList.obj
 0002:00039860       ?pointer_to@?$pointer_traits@PAU?$pair@$$CBHPAVCGraphButton@SKINGDI@NMBASE@@@std@@@std@@SAPAU?$pair@$$CBHPAVCGraphButton@SKINGDI@NMBASE@@@2@AAU32@@Z 100a7860 f i GraphButtonList.obj
 0002:000398b0       ?pointer_to@?$pointer_traits@PAU?$pair@$$CBHPAVCGraphButtonEx@SKINGDI@NMBASE@@@std@@@std@@SAPAU?$pair@$$CBHPAVCGraphButtonEx@SKINGDI@NMBASE@@@2@AAU32@@Z 100a78b0 f i GraphButtonList.obj
 0002:00039900       ?select_on_container_copy_construction@?$_Default_allocator_traits@V?$allocator@U?$_Tree_node@U?$pair@$$CBHPAVCGraphButton@SKINGDI@NMBASE@@@std@@PAX@std@@@std@@@std@@SA?AV?$allocator@U?$_Tree_node@U?$pair@$$CBHPAVCGraphButton@SKINGDI@NMBASE@@@std@@PAX@std@@@2@ABV32@@Z 100a7900 f i GraphButtonList.obj
 0002:00039940       ?select_on_container_copy_construction@?$_Default_allocator_traits@V?$allocator@U?$_Tree_node@U?$pair@$$CBHPAVCGraphButtonEx@SKINGDI@NMBASE@@@std@@PAX@std@@@std@@@std@@SA?AV?$allocator@U?$_Tree_node@U?$pair@$$CBHPAVCGraphButtonEx@SKINGDI@NMBASE@@@std@@PAX@std@@@2@ABV32@@Z 100a7940 f i GraphButtonList.obj
 0002:00039980       ?size@?$_Tree@V?$_Tmap_traits@HPAVCGraphButton@SKINGDI@NMBASE@@U?$less@H@std@@V?$allocator@U?$pair@$$CBHPAVCGraphButton@SKINGDI@NMBASE@@@std@@@5@$0A@@std@@@std@@QBEIXZ 100a7980 f i GraphButtonList.obj
 0002:000399e0       ?size@?$_Tree@V?$_Tmap_traits@HPAVCGraphButtonEx@SKINGDI@NMBASE@@U?$less@H@std@@V?$allocator@U?$pair@$$CBHPAVCGraphButtonEx@SKINGDI@NMBASE@@@std@@@5@$0A@@std@@@std@@QBEIXZ 100a79e0 f i GraphButtonList.obj
 0002:00039a40       ??0CGraphButton_Text@SKINGDI@NMBASE@@QAE@ABV012@@Z 100a7a40 f i GraphButton_Text.obj
 0002:00039b80       ??0CGraphButton_Text@SKINGDI@NMBASE@@QAE@XZ 100a7b80 f   GraphButton_Text.obj
 0002:00039d00       ??0CRect@@QAE@PBUtagRECT@@@Z 100a7d00 f i GraphButton_Text.obj
 0002:00039d70       ??1CGraphButton_Text@SKINGDI@NMBASE@@UAE@XZ 100a7d70 f   GraphButton_Text.obj
 0002:00039df0       ??4CGraphButton_Text@SKINGDI@NMBASE@@QAEAAV012@ABV012@@Z 100a7df0 f i GraphButton_Text.obj
 0002:00039ee0       ??_ECGraphButton_Text@SKINGDI@NMBASE@@UAEPAXI@Z 100a7ee0 f i GraphButton_Text.obj
 0002:00039ff0       ??_GCGraphButton_Text@SKINGDI@NMBASE@@UAEPAXI@Z 100a7ff0 f i GraphButton_Text.obj
 0002:0003a070       ?Draw@CGraphButton_Text@SKINGDI@NMBASE@@UAEXPAVCDC@@HH@Z 100a8070 f   GraphButton_Text.obj
 0002:0003a640       ?set_Font@CGraphButton_Text@SKINGDI@NMBASE@@QAEXPAVCFont@@@Z 100a8640 f   GraphButton_Text.obj
 0002:0003a690       ?set_Text@CGraphButton_Text@SKINGDI@NMBASE@@QAEXVCRect@@V?$CStringT@DV?$StrTraitMFC_DLL@DV?$ChTraitsCRT@D@ATL@@@@@ATL@@@Z 100a8690 f   GraphButton_Text.obj
 0002:0003a790       ?set_TextColor@CGraphButton_Text@SKINGDI@NMBASE@@QAEXK@Z 100a8790 f   GraphButton_Text.obj
 0002:0003a7e0       ??0CGraphScrollThumbButton@SKINGDI@NMBASE@@QAE@ABV012@@Z 100a87e0 f i GraphScrollThumbButton.obj
 0002:0003a980       ??0CGraphScrollThumbButton@SKINGDI@NMBASE@@QAE@XZ 100a8980 f   GraphScrollThumbButton.obj
 0002:0003aaa0       ??1CGraphScrollThumbButton@SKINGDI@NMBASE@@UAE@XZ 100a8aa0 f   GraphScrollThumbButton.obj
 0002:0003aae0       ??4CGraphScrollThumbButton@SKINGDI@NMBASE@@QAEAAV012@ABV012@@Z 100a8ae0 f i GraphScrollThumbButton.obj
 0002:0003ac80       ??_ECGraphScrollThumbButton@SKINGDI@NMBASE@@UAEPAXI@Z 100a8c80 f i GraphScrollThumbButton.obj
 0002:0003ad80       ??_GCGraphScrollThumbButton@SKINGDI@NMBASE@@UAEPAXI@Z 100a8d80 f i GraphScrollThumbButton.obj
 0002:0003adf0       ?Draw@CGraphScrollThumbButton@SKINGDI@NMBASE@@UAEXPAVCDC@@HH@Z 100a8df0 f   GraphScrollThumbButton.obj
 0002:0003b740       ?Enable@CGraphScrollThumbButton@SKINGDI@NMBASE@@QAEXH@Z 100a9740 f   GraphScrollThumbButton.obj
 0002:0003b7b0       ?GetButtonPoint@CGraphScrollThumbButton@SKINGDI@NMBASE@@QAE?AUtagPOINT@@XZ 100a97b0 f   GraphScrollThumbButton.obj
 0002:0003b830       ?GetButtonState@CGraphScrollThumbButton@SKINGDI@NMBASE@@UAEHXZ 100a9830 f   GraphScrollThumbButton.obj
 0002:0003b8d0       ?GetParent@CGraphScrollThumbButton@SKINGDI@NMBASE@@QAEPAVCWnd@@XZ 100a98d0 f i GraphScrollThumbButton.obj
 0002:0003b910       ?GetSprite@CGraphScrollThumbButton@SKINGDI@NMBASE@@QAEPAVxSprite@GRAPHICGDI@3@XZ 100a9910 f i GraphScrollThumbButton.obj
 0002:0003b950       ?Init@CGraphScrollThumbButton@SKINGDI@NMBASE@@QAEXPAVCWnd@@PAVCPage@GRAPHICGDI@3@HHPAVxSprite@63@HHH_N3@Z 100a9950 f   GraphScrollThumbButton.obj
 0002:0003bb60       ?InitBtn@CGraphScrollThumbButton@SKINGDI@NMBASE@@UAEXXZ 100a9b60 f i GraphScrollThumbButton.obj
 0002:0003bba0       ?IsEnable@CGraphScrollThumbButton@SKINGDI@NMBASE@@QBEHXZ 100a9ba0 f i GraphScrollThumbButton.obj
 0002:0003bbe0       ?IsShow@CGraphScrollThumbButton@SKINGDI@NMBASE@@QBEHXZ 100a9be0 f i GraphScrollThumbButton.obj
 0002:0003bc20       ?MouseOverSoundNoUse@CGraphScrollThumbButton@SKINGDI@NMBASE@@QAEXXZ 100a9c20 f   GraphScrollThumbButton.obj
 0002:0003bc60       ?MoveWindow@CGraphScrollThumbButton@SKINGDI@NMBASE@@QAEXHH@Z 100a9c60 f i GraphScrollThumbButton.obj
 0002:0003bcb0       ?MoveWindow@CGraphScrollThumbButton@SKINGDI@NMBASE@@QAEXUtagPOINT@@@Z 100a9cb0 f i GraphScrollThumbButton.obj
 0002:0003bd10       ?MoveWindowEx@CGraphScrollThumbButton@SKINGDI@NMBASE@@QAEXHH@Z 100a9d10 f i GraphScrollThumbButton.obj
 0002:0003bd70       ?OnLButtonDown@CGraphScrollThumbButton@SKINGDI@NMBASE@@UAEHHH@Z 100a9d70 f   GraphScrollThumbButton.obj
 0002:0003be40       ?OnLButtonUp@CGraphScrollThumbButton@SKINGDI@NMBASE@@UAEHHH@Z 100a9e40 f   GraphScrollThumbButton.obj
 0002:0003bf40       ?OnMouseMove@CGraphScrollThumbButton@SKINGDI@NMBASE@@UAEHHH@Z 100a9f40 f   GraphScrollThumbButton.obj
 0002:0003c040       ?ReSetScrollThumSize@CGraphScrollThumbButton@SKINGDI@NMBASE@@QAEXXZ 100aa040 f   GraphScrollThumbButton.obj
 0002:0003c1e0       ?SetButtonPos@CGraphScrollThumbButton@SKINGDI@NMBASE@@QAEXHH@Z 100aa1e0 f   GraphScrollThumbButton.obj
 0002:0003c230       ?SetButtonPos@CGraphScrollThumbButton@SKINGDI@NMBASE@@QAEXHHPAVxSprite@GRAPHICGDI@3@@Z 100aa230 f   GraphScrollThumbButton.obj
 0002:0003c2f0       ?SetButtonState@CGraphScrollThumbButton@SKINGDI@NMBASE@@UAEXH@Z 100aa2f0 f   GraphScrollThumbButton.obj
 0002:0003c390       ?SetChangeScrollThumbSize@CGraphScrollThumbButton@SKINGDI@NMBASE@@QAEHHH@Z 100aa390 f   GraphScrollThumbButton.obj
 0002:0003c580       ?SetMouseOverSound@CGraphScrollThumbButton@SKINGDI@NMBASE@@QAEXHH@Z 100aa580 f   GraphScrollThumbButton.obj
 0002:0003c5e0       ?SetSprite@CGraphScrollThumbButton@SKINGDI@NMBASE@@QAEXPAVxSprite@GRAPHICGDI@3@H@Z 100aa5e0 f   GraphScrollThumbButton.obj
 0002:0003c690       ?Show@CGraphScrollThumbButton@SKINGDI@NMBASE@@QAEXH@Z 100aa690 f   GraphScrollThumbButton.obj
 0002:0003c700       ?OnMouseWheel@CGrpChatEdit@SKINGDI@NMBASE@@IAEHIFVCPoint@@@Z 100aa700 f   GrpChatEdit.obj
 0002:0003c770       ?OnNcCalcSize@CGrpChatEdit@SKINGDI@NMBASE@@IAEXHPAUtagNCCALCSIZE_PARAMS@@@Z 100aa770 f   GrpChatEdit.obj
 0002:0003c7e0       ?OnPaint@CGrpChatEdit@SKINGDI@NMBASE@@IAEXXZ 100aa7e0 f   GrpChatEdit.obj
 0002:0003c830       ?OnSize@CGrpChatEdit@SKINGDI@NMBASE@@IAEXIHH@Z 100aa830 f   GrpChatEdit.obj
 0002:0003c900       ?OnFontChange@CGrpChatEdit@SKINGDI@NMBASE@@IAEXXZ 100aa900 f   GrpChatEdit.obj
 0002:0003c950       ??0CGrpChatEdit@SKINGDI@NMBASE@@QAE@XZ 100aa950 f   GrpChatEdit.obj
 0002:0003c9b0       ??1CGrpChatEdit@SKINGDI@NMBASE@@UAE@XZ 100aa9b0 f   GrpChatEdit.obj
 0002:0003ca10       ??_ECGrpChatEdit@SKINGDI@NMBASE@@UAEPAXI@Z 100aaa10 f i GrpChatEdit.obj
 0002:0003cb40       ??_GCGrpChatEdit@SKINGDI@NMBASE@@UAEPAXI@Z 100aab40 f i GrpChatEdit.obj
 0002:0003cbd0       ?GetMessageMap@CGrpChatEdit@SKINGDI@NMBASE@@MBEPBUAFX_MSGMAP@@XZ 100aabd0 f   GrpChatEdit.obj
 0002:0003cc20       ?GetThisMessageMap@CGrpChatEdit@SKINGDI@NMBASE@@KGPBUAFX_MSGMAP@@XZ 100aac20 f   GrpChatEdit.obj
 0002:0003cc60       ?Init@CGrpChatEdit@SKINGDI@NMBASE@@QAEXXZ 100aac60 f   GrpChatEdit.obj
 0002:0003cd30       ?PreSubclassWindow@CGrpChatEdit@SKINGDI@NMBASE@@MAEXXZ 100aad30 f   GrpChatEdit.obj
 0002:0003cd80       ?UpdateScrollSize@CGrpChatEdit@SKINGDI@NMBASE@@IAEXXZ 100aad80 f   GrpChatEdit.obj
 0002:0003cdc0       ?OnMouseWheel@CGrpChatEdit2@SKINGDI@NMBASE@@IAEHIFVCPoint@@@Z 100aadc0 f   GrpChatEdit2.obj
 0002:0003ce40       ?OnNcCalcSize@CGrpChatEdit2@SKINGDI@NMBASE@@IAEXHPAUtagNCCALCSIZE_PARAMS@@@Z 100aae40 f   GrpChatEdit2.obj
 0002:0003ceb0       ?OnPaint@CGrpChatEdit2@SKINGDI@NMBASE@@IAEXXZ 100aaeb0 f   GrpChatEdit2.obj
 0002:0003cf10       ?OnSize@CGrpChatEdit2@SKINGDI@NMBASE@@IAEXIHH@Z 100aaf10 f   GrpChatEdit2.obj
 0002:0003d040       ?OnFontChange@CGrpChatEdit2@SKINGDI@NMBASE@@IAEXXZ 100ab040 f   GrpChatEdit2.obj
 0002:0003d0a0       ??0CGrpChatEdit2@SKINGDI@NMBASE@@QAE@XZ 100ab0a0 f   GrpChatEdit2.obj
 0002:0003d160       ??1CGrpChatEdit2@SKINGDI@NMBASE@@UAE@XZ 100ab160 f   GrpChatEdit2.obj
 0002:0003d1d0       ??_ECGrpChatEdit2@SKINGDI@NMBASE@@UAEPAXI@Z 100ab1d0 f i GrpChatEdit2.obj
 0002:0003d300       ??_GCGrpChatEdit2@SKINGDI@NMBASE@@UAEPAXI@Z 100ab300 f i GrpChatEdit2.obj
 0002:0003d390       ?GetMessageMap@CGrpChatEdit2@SKINGDI@NMBASE@@MBEPBUAFX_MSGMAP@@XZ 100ab390 f   GrpChatEdit2.obj
 0002:0003d3e0       ?GetThisMessageMap@CGrpChatEdit2@SKINGDI@NMBASE@@KGPBUAFX_MSGMAP@@XZ 100ab3e0 f   GrpChatEdit2.obj
 0002:0003d420       ?Init@CGrpChatEdit2@SKINGDI@NMBASE@@UAEXH@Z 100ab420 f   GrpChatEdit2.obj
 0002:0003d600       ?PreSubclassWindow@CGrpChatEdit2@SKINGDI@NMBASE@@MAEXXZ 100ab600 f   GrpChatEdit2.obj
 0002:0003d650       ?UpdateScrollSize@CGrpChatEdit2@SKINGDI@NMBASE@@IAEXXZ 100ab650 f   GrpChatEdit2.obj
 0002:0003d780       ??0CHTransRegion@SKINGDI@NMBASE@@QAE@ABV012@@Z 100ab780 f i HTransRegion.obj
 0002:0003d7e0       ??0CHTransRegion@SKINGDI@NMBASE@@QAE@XZ 100ab7e0 f   HTransRegion.obj
 0002:0003d830       ??1CHTransRegion@SKINGDI@NMBASE@@UAE@XZ 100ab830 f   HTransRegion.obj
 0002:0003d870       ??4CHTransRegion@SKINGDI@NMBASE@@QAEAAV012@ABV012@@Z 100ab870 f i HTransRegion.obj
 0002:0003d8c0       ??_ECHTransRegion@SKINGDI@NMBASE@@UAEPAXI@Z 100ab8c0 f i HTransRegion.obj
 0002:0003d9d0       ??_GCHTransRegion@SKINGDI@NMBASE@@UAEPAXI@Z 100ab9d0 f i HTransRegion.obj
 0002:0003da40       ?SetRgn@CHTransRegion@SKINGDI@NMBASE@@QAEHHHPAVCDialog@@@Z 100aba40 f   HTransRegion.obj
 0002:0003db80       ?SetRgn@CHTransRegion@SKINGDI@NMBASE@@QAEHPAUHBITMAP__@@PAVCDialog@@KHH@Z 100abb80 f   HTransRegion.obj
 0002:0003dfe0       ?SetRgn@CHTransRegion@SKINGDI@NMBASE@@QAEHPAUHBITMAP__@@PAVCDialog@@KPAVCBitmap@@@Z 100abfe0 f   HTransRegion.obj
 0002:0003e0d0       ?OnCustomDraw@CHeaderCtrlEx@SKINGDI@NMBASE@@IAEXPAUtagNMHDR@@PAJ@Z 100ac0d0 f   ListCtrlEx.obj
 0002:0003efb0       ?OnLButtonDown@CHeaderCtrlEx@SKINGDI@NMBASE@@IAEXIVCPoint@@@Z 100acfb0 f   ListCtrlEx.obj
 0002:0003f020       ?OnLButtonUp@CHeaderCtrlEx@SKINGDI@NMBASE@@IAEXIVCPoint@@@Z 100ad020 f   ListCtrlEx.obj
 0002:0003f090       ?OnMouseMove@CHeaderCtrlEx@SKINGDI@NMBASE@@IAEXIVCPoint@@@Z 100ad090 f   ListCtrlEx.obj
 0002:0003f1b0       ?_GetBaseClass@CListCtrlEx@SKINGDI@NMBASE@@KGPAUCRuntimeClass@@XZ 100ad1b0 f   ListCtrlEx.obj
 0002:0003f200       ?CreateObject@CListCtrlEx@SKINGDI@NMBASE@@SGPAVCObject@@XZ 100ad200 f   ListCtrlEx.obj
 0002:0003f2f0       ?OnSetTextColor@CListCtrlEx@SKINGDI@NMBASE@@IAEJIJ@Z 100ad2f0 f   ListCtrlEx.obj
 0002:0003f350       ?OnSetTextBkColor@CListCtrlEx@SKINGDI@NMBASE@@IAEJIJ@Z 100ad350 f   ListCtrlEx.obj
 0002:0003f3b0       ?OnSetBkColor@CListCtrlEx@SKINGDI@NMBASE@@IAEJIJ@Z 100ad3b0 f   ListCtrlEx.obj
 0002:0003f410       ?OnPaint@CListCtrlEx@SKINGDI@NMBASE@@IAEXXZ 100ad410 f   ListCtrlEx.obj
 0002:0003f6a0       ?OnSetFocus@CListCtrlEx@SKINGDI@NMBASE@@IAEXPAVCWnd@@@Z 100ad6a0 f   ListCtrlEx.obj
 0002:0003f730       ?OnKillFocus@CListCtrlEx@SKINGDI@NMBASE@@IAEXPAVCWnd@@@Z 100ad730 f   ListCtrlEx.obj
 0002:0003f7e0       ?OnMouseMove@CListCtrlEx@SKINGDI@NMBASE@@IAEXIVCPoint@@@Z 100ad7e0 f   ListCtrlEx.obj
 0002:0003f860       ?OnLButtonDown@CListCtrlEx@SKINGDI@NMBASE@@IAEXIVCPoint@@@Z 100ad860 f   ListCtrlEx.obj
 0002:0003f9e0       ?OnKeyDown@CListCtrlEx@SKINGDI@NMBASE@@IAEXIII@Z 100ad9e0 f   ListCtrlEx.obj
 0002:0003fa60       ?OnDestroy@CListCtrlEx@SKINGDI@NMBASE@@IAEXXZ 100ada60 f   ListCtrlEx.obj
 0002:0003fb00       ?OnDeleteitem@CListCtrlEx@SKINGDI@NMBASE@@IAEXPAUtagNMHDR@@PAJ@Z 100adb00 f   ListCtrlEx.obj
 0002:0003fb70       ?OnColumnclick@CListCtrlEx@SKINGDI@NMBASE@@IAEXPAUtagNMHDR@@PAJ@Z 100adb70 f   ListCtrlEx.obj
 0002:0003fc40       ??$DumpElements@UITEMINFO@CListCtrlEx@SKINGDI@NMBASE@@@@YGXAAVCDumpContext@@PBUITEMINFO@CListCtrlEx@SKINGDI@NMBASE@@H@Z 100adc40 f i ListCtrlEx.obj
 0002:0003fd30       ??$SerializeElements@UITEMINFO@CListCtrlEx@SKINGDI@NMBASE@@@@YGXAAVCArchive@@PAUITEMINFO@CListCtrlEx@SKINGDI@NMBASE@@H@Z 100add30 f i ListCtrlEx.obj
 0002:0003ff20       ??0?$CArray@UITEMINFO@CListCtrlEx@SKINGDI@NMBASE@@U1234@@@QAE@XZ 100adf20 f i ListCtrlEx.obj
 0002:0003ffb0       ??0CHeaderCtrlEx@SKINGDI@NMBASE@@QAE@XZ 100adfb0 f   ListCtrlEx.obj
 0002:000401e0       ??0CListCtrlEx@SKINGDI@NMBASE@@QAE@XZ 100ae1e0 f   ListCtrlEx.obj
 0002:00040410       ??0CRect@@QAE@ABUtagRECT@@@Z 100ae410 f i ListCtrlEx.obj
 0002:00040480       ??1?$CArray@UITEMINFO@CListCtrlEx@SKINGDI@NMBASE@@U1234@@@UAE@XZ 100ae480 f i ListCtrlEx.obj
 0002:00040580       ??1CHeaderCtrlEx@SKINGDI@NMBASE@@UAE@XZ 100ae580 f   ListCtrlEx.obj
 0002:00040630       ??1CListCtrlEx@SKINGDI@NMBASE@@UAE@XZ 100ae630 f   ListCtrlEx.obj
 0002:00040710       ??A?$CArray@UITEMINFO@CListCtrlEx@SKINGDI@NMBASE@@U1234@@@QAEAAUITEMINFO@CListCtrlEx@SKINGDI@NMBASE@@H@Z 100ae710 f i ListCtrlEx.obj
 0002:00040770       ??_ECListCtrlEx@SKINGDI@NMBASE@@UAEPAXI@Z 100ae770 f i ListCtrlEx.obj
 0002:000408a0       ??_E?$CArray@UITEMINFO@CListCtrlEx@SKINGDI@NMBASE@@U1234@@@UAEPAXI@Z 100ae8a0 f i ListCtrlEx.obj
 0002:000408a0       ??_G?$CArray@UITEMINFO@CListCtrlEx@SKINGDI@NMBASE@@U1234@@@UAEPAXI@Z 100ae8a0 f i ListCtrlEx.obj
 0002:00040930       ??_ECHeaderCtrlEx@SKINGDI@NMBASE@@UAEPAXI@Z 100ae930 f i ListCtrlEx.obj
 0002:00040930       ??_GCHeaderCtrlEx@SKINGDI@NMBASE@@UAEPAXI@Z 100ae930 f i ListCtrlEx.obj
 0002:000409c0       ??_GCListCtrlEx@SKINGDI@NMBASE@@UAEPAXI@Z 100ae9c0 f i ListCtrlEx.obj
 0002:00040a50       ?AfxCrtErrorCheck@@YAHH@Z  100aea50 f i ListCtrlEx.obj
 0002:00040b60       ?AssertValid@?$CArray@UITEMINFO@CListCtrlEx@SKINGDI@NMBASE@@U1234@@@UBEXXZ 100aeb60 f i ListCtrlEx.obj
 0002:00040cc0       ?CompareFunc@CListCtrlEx@SKINGDI@NMBASE@@SGHJJJ@Z 100aecc0 f   ListCtrlEx.obj
 0002:00041130       ?DeflateRect@CRect@@QAEXHHHH@Z 100af130 f i ListCtrlEx.obj
 0002:000411b0       ?DeleteAllItems@CListCtrlEx@SKINGDI@NMBASE@@QAEHXZ 100af1b0 f   ListCtrlEx.obj
 0002:00041220       ?DeleteItem@CListCtrlEx@SKINGDI@NMBASE@@QAEHH@Z 100af220 f   ListCtrlEx.obj
 0002:000412a0       ?DrawItem@CListCtrlEx@SKINGDI@NMBASE@@MAEXPAUtagDRAWITEMSTRUCT@@@Z 100af2a0 f   ListCtrlEx.obj
 0002:00042200       ?Dump@?$CArray@UITEMINFO@CListCtrlEx@SKINGDI@NMBASE@@U1234@@@UBEXAAVCDumpContext@@@Z 100b0200 f i ListCtrlEx.obj
 0002:000422e0       ?Dump@CListCtrlEx@SKINGDI@NMBASE@@UBEXAAVCDumpContext@@@Z 100b02e0 f   ListCtrlEx.obj
 0002:00042370       ?ElementAt@?$CArray@UITEMINFO@CListCtrlEx@SKINGDI@NMBASE@@U1234@@@QAEAAUITEMINFO@CListCtrlEx@SKINGDI@NMBASE@@H@Z 100b0370 f i ListCtrlEx.obj
 0002:00042420       ?GetCellRect@CListCtrlEx@SKINGDI@NMBASE@@IBE?AVCRect@@HH@Z 100b0420 f   ListCtrlEx.obj
 0002:00042620       ?GetFullRowSel@CListCtrlEx@SKINGDI@NMBASE@@QAEHXZ 100b0620 f   ListCtrlEx.obj
 0002:00042660       ?GetMessageMap@CHeaderCtrlEx@SKINGDI@NMBASE@@MBEPBUAFX_MSGMAP@@XZ 100b0660 f   ListCtrlEx.obj
 0002:000426b0       ?GetMessageMap@CListCtrlEx@SKINGDI@NMBASE@@MBEPBUAFX_MSGMAP@@XZ 100b06b0 f   ListCtrlEx.obj
 0002:00042700       ?GetRuntimeClass@CListCtrlEx@SKINGDI@NMBASE@@UBEPAUCRuntimeClass@@XZ 100b0700 f   ListCtrlEx.obj
 0002:00042740       ?GetSize@?$CArray@UITEMINFO@CListCtrlEx@SKINGDI@NMBASE@@U1234@@@QBEHXZ 100b0740 f i ListCtrlEx.obj
 0002:00042780       ?GetThisClass@CListCtrlEx@SKINGDI@NMBASE@@SGPAUCRuntimeClass@@XZ 100b0780 f   ListCtrlEx.obj
 0002:000427c0       ?GetThisMessageMap@CHeaderCtrlEx@SKINGDI@NMBASE@@KGPBUAFX_MSGMAP@@XZ 100b07c0 f   ListCtrlEx.obj
 0002:00042800       ?GetThisMessageMap@CListCtrlEx@SKINGDI@NMBASE@@KGPBUAFX_MSGMAP@@XZ 100b0800 f   ListCtrlEx.obj
 0002:00042840       ?GetTrueColumnWidth@CListCtrlEx@SKINGDI@NMBASE@@IBEHH@Z 100b0840 f   ListCtrlEx.obj
 0002:00042a40       ?GetTrueItemText@CListCtrlEx@SKINGDI@NMBASE@@IBE?AV?$CStringT@DV?$StrTraitMFC_DLL@DV?$ChTraitsCRT@D@ATL@@@@@ATL@@HH@Z 100b0a40 f   ListCtrlEx.obj
 0002:00042cd0       ?Height@CRect@@QBEHXZ      100b0cd0 f i ListCtrlEx.obj
 0002:00042d20       ?HideTitleTip@CListCtrlEx@SKINGDI@NMBASE@@IAEXXZ 100b0d20 f   ListCtrlEx.obj
 0002:00042d80       ?HitTestRowCol@CListCtrlEx@SKINGDI@NMBASE@@IBE_NAAVCPoint@@AAH1@Z 100b0d80 f   ListCtrlEx.obj
 0002:00042ed0       ?Init@CHeaderCtrlEx@SKINGDI@NMBASE@@QAEXHHKPAUtagPOINT@@@Z 100b0ed0 f   ListCtrlEx.obj
 0002:00043080       ?Init@CListCtrlEx@SKINGDI@NMBASE@@QAEXHHHKKPAK@Z 100b1080 f   ListCtrlEx.obj
 0002:00043220       ?InsertAt@?$CArray@UITEMINFO@CListCtrlEx@SKINGDI@NMBASE@@U1234@@@QAEXHUITEMINFO@CListCtrlEx@SKINGDI@NMBASE@@H@Z 100b1220 f i ListCtrlEx.obj
 0002:000434a0       ?InsertItem@CListCtrlEx@SKINGDI@NMBASE@@QAEHHPBD@Z 100b14a0 f   ListCtrlEx.obj
 0002:00043520       ?InsertItem@CListCtrlEx@SKINGDI@NMBASE@@QAEHHPBDH@Z 100b1520 f   ListCtrlEx.obj
 0002:000435a0       ?InsertItem@CListCtrlEx@SKINGDI@NMBASE@@QAEHIHPBDIIHJ@Z 100b15a0 f   ListCtrlEx.obj
 0002:00043640       ?InsertItem@CListCtrlEx@SKINGDI@NMBASE@@QAEHPBUtagLVITEMA@@@Z 100b1640 f   ListCtrlEx.obj
 0002:000436c0       ?LoadBitmapFile@CHeaderCtrlEx@SKINGDI@NMBASE@@QAEHI@Z 100b16c0 f   ListCtrlEx.obj
 0002:000437f0       ?LoadBitmapFile@CHeaderCtrlEx@SKINGDI@NMBASE@@QAEHPBD@Z 100b17f0 f   ListCtrlEx.obj
 0002:00043980       ?OnDeleteAllItems@CListCtrlEx@SKINGDI@NMBASE@@QAEXXZ 100b1980 f   ListCtrlEx.obj
 0002:000439e0       ?OnDeleteItem@CListCtrlEx@SKINGDI@NMBASE@@QAEXH@Z 100b19e0 f   ListCtrlEx.obj
 0002:00043a40       ?OnInsertItem@CListCtrlEx@SKINGDI@NMBASE@@QAEXH@Z 100b1a40 f   ListCtrlEx.obj
 0002:00043bd0       ?PreCreateWindow@CListCtrlEx@SKINGDI@NMBASE@@UAEHAAUtagCREATESTRUCTA@@@Z 100b1bd0 f   ListCtrlEx.obj
 0002:00043c60       ?PreSubclassWindow@CListCtrlEx@SKINGDI@NMBASE@@MAEXXZ 100b1c60 f   ListCtrlEx.obj
 0002:00043d90       ?Release@CHeaderCtrlEx@SKINGDI@NMBASE@@QAEXXZ 100b1d90 f   ListCtrlEx.obj
 0002:00043e90       ?RemoveAll@?$CArray@UITEMINFO@CListCtrlEx@SKINGDI@NMBASE@@U1234@@@QAEXXZ 100b1e90 f i ListCtrlEx.obj
 0002:00043ef0       ?RemoveAt@?$CArray@UITEMINFO@CListCtrlEx@SKINGDI@NMBASE@@U1234@@@QAEXHH@Z 100b1ef0 f i ListCtrlEx.obj
 0002:000440a0       ?RepaintSelectedItems@CListCtrlEx@SKINGDI@NMBASE@@IAEXXZ 100b20a0 f   ListCtrlEx.obj
 0002:00044280       ?SendSelChangedNotification@CListCtrlEx@SKINGDI@NMBASE@@IAEXXZ 100b2280 f   ListCtrlEx.obj
 0002:00044350       ?Serialize@?$CArray@UITEMINFO@CListCtrlEx@SKINGDI@NMBASE@@U1234@@@UAEXAAVCArchive@@@Z 100b2350 f i ListCtrlEx.obj
 0002:00044420       ?SetBackColors@CListCtrlEx@SKINGDI@NMBASE@@QAEXKK@Z 100b2420 f   ListCtrlEx.obj
 0002:000444b0       ?SetColors@CHeaderCtrlEx@SKINGDI@NMBASE@@QAEXKK@Z 100b24b0 f   ListCtrlEx.obj
 0002:000445e0       ?SetDrawFocusRect@CListCtrlEx@SKINGDI@NMBASE@@QAEXH@Z 100b25e0 f   ListCtrlEx.obj
 0002:00044630       ?SetFullRowSel@CListCtrlEx@SKINGDI@NMBASE@@QAEHH@Z 100b2630 f   ListCtrlEx.obj
 0002:00044710       ?SetGridLineUse@CListCtrlEx@SKINGDI@NMBASE@@QAEXH@Z 100b2710 f   ListCtrlEx.obj
 0002:000447a0       ?SetHeaderColors@CListCtrlEx@SKINGDI@NMBASE@@QAEXKK@Z 100b27a0 f   ListCtrlEx.obj
 0002:00044810       ?SetHighlightColors@CListCtrlEx@SKINGDI@NMBASE@@QAEXKK@Z 100b2810 f   ListCtrlEx.obj
 0002:00044870       ?SetItemShadow@CListCtrlEx@SKINGDI@NMBASE@@QAEHHH@Z 100b2870 f   ListCtrlEx.obj
 0002:00044900       ?SetItemShadowColor@CListCtrlEx@SKINGDI@NMBASE@@QAEHHK@Z 100b2900 f   ListCtrlEx.obj
 0002:00044990       ?SetItemTextBkColor@CListCtrlEx@SKINGDI@NMBASE@@QAEHHK@Z 100b2990 f   ListCtrlEx.obj
 0002:00044a20       ?SetItemTextColor@CListCtrlEx@SKINGDI@NMBASE@@QAEHHK@Z 100b2a20 f   ListCtrlEx.obj
 0002:00044ab0       ?SetScrollBarChange@CListCtrlEx@SKINGDI@NMBASE@@QAEXH@Z 100b2ab0 f   ListCtrlEx.obj
 0002:00044b40       ?SetSize@?$CArray@UITEMINFO@CListCtrlEx@SKINGDI@NMBASE@@U1234@@@QAEXHH@Z 100b2b40 f i ListCtrlEx.obj
 0002:000450e0       ?SetTextShadow@CHeaderCtrlEx@SKINGDI@NMBASE@@QAEXH@Z 100b30e0 f   ListCtrlEx.obj
 0002:00045130       ?SetTextShadowColor@CHeaderCtrlEx@SKINGDI@NMBASE@@QAEXK@Z 100b3130 f   ListCtrlEx.obj
 0002:00045180       ?SetUserStep@CListCtrlEx@SKINGDI@NMBASE@@QAEXHD@Z 100b3180 f   ListCtrlEx.obj
 0002:000451c0       ?ShowTitleTip@CListCtrlEx@SKINGDI@NMBASE@@IAEXVCPoint@@@Z 100b31c0 f   ListCtrlEx.obj
 0002:000453f0       ?SortByColumn@CListCtrlEx@SKINGDI@NMBASE@@QAEXHH@Z 100b33f0 f   ListCtrlEx.obj
 0002:00045740       ?TransDraw@CHeaderCtrlEx@SKINGDI@NMBASE@@QAEHPAUHDC__@@HHHHHHK@Z 100b3740 f   ListCtrlEx.obj
 0002:00045cf0       ?memcpy_s@Checked@ATL@@YAXPAXIPBXI@Z 100b3cf0 f i ListCtrlEx.obj
 0002:00045d60       ?memmove_s@Checked@ATL@@YAXPAXIPBXI@Z 100b3d60 f i ListCtrlEx.obj
 0002:00046180       ??0CMyBitmap@SKINGDI@NMBASE@@QAE@XZ 100b4180 f   MyBitmap.obj
 0002:00046260       ??1CMyBitmap@SKINGDI@NMBASE@@UAE@XZ 100b4260 f   MyBitmap.obj
 0002:00046320       ??_ECMyBitmap@SKINGDI@NMBASE@@UAEPAXI@Z 100b4320 f i MyBitmap.obj
 0002:00046440       ??_GCMyBitmap@SKINGDI@NMBASE@@UAEPAXI@Z 100b4440 f i MyBitmap.obj
 0002:000464d0       ?BitBlt@CMyBitmap@SKINGDI@NMBASE@@QAEXAAVCDC@@HH@Z 100b44d0 f   MyBitmap.obj
 0002:000465a0       ?BitBlt@CMyBitmap@SKINGDI@NMBASE@@QAEXAAVCPaintDC@@HH@Z 100b45a0 f   MyBitmap.obj
 0002:00046670       ?DrawGauge@CMyBitmap@SKINGDI@NMBASE@@QAEX_J0AAVCDC@@1HH@Z 100b4670 f   MyBitmap.obj
 0002:000467a0       ?DrawNumber@CMyBitmap@SKINGDI@NMBASE@@QAEXHAAVCDC@@0HHH@Z 100b47a0 f   MyBitmap.obj
 0002:000468b0       ?LoadBitmapFile@CMyBitmap@SKINGDI@NMBASE@@QAEHPBD@Z 100b48b0 f   MyBitmap.obj
 0002:00046a20       ?ResizeWnd@CMyBitmap@SKINGDI@NMBASE@@QAEXPAVCWnd@@HHH0@Z 100b4a20 f   MyBitmap.obj
 0002:00046bb0       ?TransDraw@CMyBitmap@SKINGDI@NMBASE@@QAEHPAUHDC__@@HHHHHHK@Z 100b4bb0 f   MyBitmap.obj
 0002:00047100       ?TransDraw@CMyBitmap@SKINGDI@NMBASE@@QAEHPAUHDC__@@HHK@Z 100b5100 f   MyBitmap.obj
 0002:00047180       ?TransDraw_andTextDraw@CMyBitmap@SKINGDI@NMBASE@@QAEHPAUHDC__@@HHHHHHKV?$CStringT@DV?$StrTraitMFC_DLL@DV?$ChTraitsCRT@D@ATL@@@@@ATL@@VCRect@@PAVCFont@@@Z 100b5180 f   MyBitmap.obj
 0002:000477a0       ?OnPaint@CMyButton@SKINGDI@NMBASE@@IAEXXZ 100b57a0 f   MyButton.obj
 0002:000478b0       ?OnLButtonDown@CMyButton@SKINGDI@NMBASE@@IAEXIVCPoint@@@Z 100b58b0 f   MyButton.obj
 0002:00047a30       ?OnMouseMove@CMyButton@SKINGDI@NMBASE@@IAEXIVCPoint@@@Z 100b5a30 f   MyButton.obj
 0002:00047d60       ?OnLButtonUp@CMyButton@SKINGDI@NMBASE@@IAEXIVCPoint@@@Z 100b5d60 f   MyButton.obj
 0002:00047ed0       ?OnRButtonDown@CMyButton@SKINGDI@NMBASE@@IAEXIVCPoint@@@Z 100b5ed0 f   MyButton.obj
 0002:00047f10       ?OnRButtonUp@CMyButton@SKINGDI@NMBASE@@IAEXIVCPoint@@@Z 100b5f10 f   MyButton.obj
 0002:00047f50       ?OnRButtonDblClk@CMyButton@SKINGDI@NMBASE@@IAEXIVCPoint@@@Z 100b5f50 f   MyButton.obj
 0002:00047f90       ?OnLButtonDblClk@CMyButton@SKINGDI@NMBASE@@IAEXIVCPoint@@@Z 100b5f90 f   MyButton.obj
 0002:00047fd0       ?OnKeyDown@CMyButton@SKINGDI@NMBASE@@IAEXIII@Z 100b5fd0 f   MyButton.obj
 0002:00048010       ?OnSetFocus@CMyButton@SKINGDI@NMBASE@@IAEXPAVCWnd@@@Z 100b6010 f   MyButton.obj
 0002:00048070       ?OnEnable@CMyButton@SKINGDI@NMBASE@@IAEXH@Z 100b6070 f   MyButton.obj
 0002:000480b0       ?OnShowWindow@CMyButton@SKINGDI@NMBASE@@IAEXHI@Z 100b60b0 f   MyButton.obj
 0002:00048160       ?OnEraseBkgnd@CMyButton@SKINGDI@NMBASE@@IAEHPAVCDC@@@Z 100b6160 f   MyButton.obj
 0002:000481a0       ?OnDestroy@CMyButton@SKINGDI@NMBASE@@IAEXXZ 100b61a0 f   MyButton.obj
 0002:00048250       ??0CMyButton@SKINGDI@NMBASE@@QAE@XZ 100b6250 f   MyButton.obj
 0002:000484c0       ??1CMyButton@SKINGDI@NMBASE@@UAE@XZ 100b64c0 f   MyButton.obj
 0002:000485e0       ??_ECMyButton@SKINGDI@NMBASE@@UAEPAXI@Z 100b65e0 f i MyButton.obj
 0002:00048710       ??_GCMyButton@SKINGDI@NMBASE@@UAEPAXI@Z 100b6710 f i MyButton.obj
 0002:000487a0       ?Create@CMyButton@SKINGDI@NMBASE@@UAEHPBD0KABUtagRECT@@PAVCWnd@@IPAUCCreateContext@@@Z 100b67a0 f   MyButton.obj
 0002:00048820       ?Draw@CMyButton@SKINGDI@NMBASE@@UAEXAAVCDC@@@Z 100b6820 f   MyButton.obj
 0002:000499a0       ?DrawItem@CMyButton@SKINGDI@NMBASE@@UAEXPAUtagDRAWITEMSTRUCT@@@Z 100b79a0 f   MyButton.obj
 0002:000499e0       ?EnableWindow@CMyButton@SKINGDI@NMBASE@@UAEHH@Z 100b79e0 f   MyButton.obj
 0002:00049ad0       ?GetMessageMap@CMyButton@SKINGDI@NMBASE@@MBEPBUAFX_MSGMAP@@XZ 100b7ad0 f   MyButton.obj
 0002:00049b20       ?GetThisMessageMap@CMyButton@SKINGDI@NMBASE@@KGPBUAFX_MSGMAP@@XZ 100b7b20 f   MyButton.obj
 0002:00049b60       ?Init@CMyButton@SKINGDI@NMBASE@@QAEXHHPBDH0@Z 100b7b60 f   MyButton.obj
 0002:00049bf0       ?Init@CMyButton@SKINGDI@NMBASE@@QAEXIIIIPAD@Z 100b7bf0 f   MyButton.obj
 0002:00049f50       ?Init@CMyButton@SKINGDI@NMBASE@@QAEXPBDH0@Z 100b7f50 f   MyButton.obj
 0002:0004a260       ?InitRegion@CMyButton@SKINGDI@NMBASE@@QAEXHHPBDH0H@Z 100b8260 f   MyButton.obj
 0002:0004a350       ?SetClickSoundID@CMyButton@SKINGDI@NMBASE@@QAEXV?$CStringT@DV?$StrTraitMFC_DLL@DV?$ChTraitsCRT@D@ATL@@@@@ATL@@@Z 100b8350 f i MyButton.obj
 0002:0004a420       ?SetOverSoundID@CMyButton@SKINGDI@NMBASE@@QAEXV?$CStringT@DV?$StrTraitMFC_DLL@DV?$ChTraitsCRT@D@ATL@@@@@ATL@@@Z 100b8420 f i MyButton.obj
 0002:0004a4f0       ?SetPos@CMyButton@SKINGDI@NMBASE@@QAEHHH@Z 100b84f0 f   MyButton.obj
 0002:0004a560       ?SetTransColor@CMyButton@SKINGDI@NMBASE@@QAEXK@Z 100b8560 f   MyButton.obj
 0002:0004a5c0       ?CtlColor@CMyEdit@SKINGDI@NMBASE@@IAEPAUHBRUSH__@@PAVCDC@@I@Z 100b85c0 f   MyEdit.obj
 0002:0004a650       ??0CMyEdit@SKINGDI@NMBASE@@QAE@XZ 100b8650 f   MyEdit.obj
 0002:0004a740       ??1CMyEdit@SKINGDI@NMBASE@@UAE@XZ 100b8740 f   MyEdit.obj
 0002:0004a7b0       ??_ECMyEdit@SKINGDI@NMBASE@@UAEPAXI@Z 100b87b0 f i MyEdit.obj
 0002:0004a8e0       ??_GCMyEdit@SKINGDI@NMBASE@@UAEPAXI@Z 100b88e0 f i MyEdit.obj
 0002:0004a970       ?GetMessageMap@CMyEdit@SKINGDI@NMBASE@@MBEPBUAFX_MSGMAP@@XZ 100b8970 f   MyEdit.obj
 0002:0004a9c0       ?GetThisMessageMap@CMyEdit@SKINGDI@NMBASE@@KGPBUAFX_MSGMAP@@XZ 100b89c0 f   MyEdit.obj
 0002:0004aa00       ?OnCreateBrush@CMyEdit@SKINGDI@NMBASE@@QAEXK@Z 100b8a00 f   MyEdit.obj
 0002:0004aa70       ?OnSetTextColor@CMyEdit@SKINGDI@NMBASE@@QAEXK@Z 100b8a70 f   MyEdit.obj
 0002:0004aac0       ??$?0$$V@?$_Compressed_pair@V?$allocator@UBUTTON_TEXT_INFO@SKINGDI@NMBASE@@@std@@V?$_Vector_val@U?$_Simple_types@UBUTTON_TEXT_INFO@SKINGDI@NMBASE@@@std@@@2@$00@std@@QAE@U_Zero_then_variadic_args_t@1@@Z 100b8ac0 f i MyTextButton.obj
 0002:0004ab20       ??$?0U?$integral_constant@_N$00@std@@@_Unused_parameter@std@@QAE@$$QAU?$integral_constant@_N$00@1@@Z 100b8b20 f i MyTextButton.obj
 0002:0004ab60       ??$?0UBUTTON_TEXT_INFO@SKINGDI@NMBASE@@@?$allocator@U_Container_proxy@std@@@std@@QAE@ABV?$allocator@UBUTTON_TEXT_INFO@SKINGDI@NMBASE@@@1@@Z 100b8b60 f i MyTextButton.obj
 0002:0004aba0       ??$_Destroy_range1@V?$allocator@UBUTTON_TEXT_INFO@SKINGDI@NMBASE@@@std@@@std@@YAXPAUBUTTON_TEXT_INFO@SKINGDI@NMBASE@@0AAV?$allocator@UBUTTON_TEXT_INFO@SKINGDI@NMBASE@@@0@U?$integral_constant@_N$0A@@0@@Z 100b8ba0 f i MyTextButton.obj
 0002:0004ac20       ??$_Destroy_range@V?$allocator@UBUTTON_TEXT_INFO@SKINGDI@NMBASE@@@std@@@std@@YAXPAUBUTTON_TEXT_INFO@SKINGDI@NMBASE@@0AAV?$allocator@UBUTTON_TEXT_INFO@SKINGDI@NMBASE@@@0@@Z 100b8c20 f i MyTextButton.obj
 0002:0004ac90       ??$_Emplace_back@AAUBUTTON_TEXT_INFO@SKINGDI@NMBASE@@@?$_Uninitialized_backout_al@PAUBUTTON_TEXT_INFO@SKINGDI@NMBASE@@V?$allocator@UBUTTON_TEXT_INFO@SKINGDI@NMBASE@@@std@@@std@@QAEXAAUBUTTON_TEXT_INFO@SKINGDI@NMBASE@@@Z 100b8c90 f i MyTextButton.obj
 0002:0004ad30       ??$_Emplace_back@UBUTTON_TEXT_INFO@SKINGDI@NMBASE@@@?$_Uninitialized_backout_al@PAUBUTTON_TEXT_INFO@SKINGDI@NMBASE@@V?$allocator@UBUTTON_TEXT_INFO@SKINGDI@NMBASE@@@std@@@std@@QAEX$$QAUBUTTON_TEXT_INFO@SKINGDI@NMBASE@@@Z 100b8d30 f i MyTextButton.obj
 0002:0004add0       ??$_Emplace_back_with_unused_capacity@ABUBUTTON_TEXT_INFO@SKINGDI@NMBASE@@@?$vector@UBUTTON_TEXT_INFO@SKINGDI@NMBASE@@V?$allocator@UBUTTON_TEXT_INFO@SKINGDI@NMBASE@@@std@@@std@@AAE@ABUBUTTON_TEXT_INFO@SKINGDI@NMBASE@@@Z 100b8dd0 f i MyTextButton.obj
 0002:0004aec0       ??$_Emplace_reallocate@ABUBUTTON_TEXT_INFO@SKINGDI@NMBASE@@@?$vector@UBUTTON_TEXT_INFO@SKINGDI@NMBASE@@V?$allocator@UBUTTON_TEXT_INFO@SKINGDI@NMBASE@@@std@@@std@@QAEPAUBUTTON_TEXT_INFO@SKINGDI@NMBASE@@QAU234@ABU234@@Z 100b8ec0 f i MyTextButton.obj
 0002:0004b150       ??$_Get_size_of_n@$0CI@@std@@YAII@Z 100b9150 f i MyTextButton.obj
 0002:0004b1b0       ??$_Get_unwrapped@UBUTTON_TEXT_INFO@SKINGDI@NMBASE@@@std@@YAPAUBUTTON_TEXT_INFO@SKINGDI@NMBASE@@QAU123@@Z 100b91b0 f i MyTextButton.obj
 0002:0004b1f0       ??$_Get_unwrapped_n@UBUTTON_TEXT_INFO@SKINGDI@NMBASE@@H$0A@@std@@YAPAUBUTTON_TEXT_INFO@SKINGDI@NMBASE@@QAU123@H@Z 100b91f0 f i MyTextButton.obj
 0002:0004b230       ??$_Idl_distance1@PAUBUTTON_TEXT_INFO@SKINGDI@NMBASE@@PAU123@@std@@YAHABQAUBUTTON_TEXT_INFO@SKINGDI@NMBASE@@0Urandom_access_iterator_tag@0@@Z 100b9230 f i MyTextButton.obj
 0002:0004b280       ??$_Idl_distance@PAUBUTTON_TEXT_INFO@SKINGDI@NMBASE@@PAU123@@std@@YA@ABQAUBUTTON_TEXT_INFO@SKINGDI@NMBASE@@0@Z 100b9280 f i MyTextButton.obj
 0002:0004b2e0       ??$_Min_value@I@std@@YAABIABI0@Z 100b92e0 f i MyTextButton.obj
 0002:0004b350       ??$_Ptr_copy_cat@UBUTTON_TEXT_INFO@SKINGDI@NMBASE@@U123@@std@@YA?AU_General_ptr_iterator_tag@0@ABQAUBUTTON_TEXT_INFO@SKINGDI@NMBASE@@0@Z 100b9350 f i MyTextButton.obj
 0002:0004b390       ??$_Ptr_move_cat@UBUTTON_TEXT_INFO@SKINGDI@NMBASE@@U123@@std@@YA?AU_General_ptr_iterator_tag@0@ABQAUBUTTON_TEXT_INFO@SKINGDI@NMBASE@@0@Z 100b9390 f i MyTextButton.obj
 0002:0004b3d0       ??$_Seek_wrapped@UBUTTON_TEXT_INFO@SKINGDI@NMBASE@@@std@@YAXAAPAUBUTTON_TEXT_INFO@SKINGDI@NMBASE@@QAU123@@Z 100b93d0 f i MyTextButton.obj
 0002:0004b410       ??$_Unfancy@UBUTTON_TEXT_INFO@SKINGDI@NMBASE@@@std@@YAPAUBUTTON_TEXT_INFO@SKINGDI@NMBASE@@PAU123@@Z 100b9410 f i MyTextButton.obj
 0002:0004b450       ??$_Uninitialized_copy@PAUBUTTON_TEXT_INFO@SKINGDI@NMBASE@@PAU123@V?$allocator@UBUTTON_TEXT_INFO@SKINGDI@NMBASE@@@std@@@std@@YAPAUBUTTON_TEXT_INFO@SKINGDI@NMBASE@@QAU123@0PAU123@AAV?$allocator@UBUTTON_TEXT_INFO@SKINGDI@NMBASE@@@0@@Z 100b9450 f i MyTextButton.obj
 0002:0004b5b0       ??$_Uninitialized_copy_al_unchecked@PAUBUTTON_TEXT_INFO@SKINGDI@NMBASE@@PAU123@V?$allocator@UBUTTON_TEXT_INFO@SKINGDI@NMBASE@@@std@@@std@@YAPAUBUTTON_TEXT_INFO@SKINGDI@NMBASE@@PAU123@QAU123@1AAV?$allocator@UBUTTON_TEXT_INFO@SKINGDI@NMBASE@@@0@U_General_ptr_iterator_tag@0@U_Unused_parameter@0@@Z 100b95b0 f i MyTextButton.obj
 0002:0004b6d0       ??$_Uninitialized_move@PAUBUTTON_TEXT_INFO@SKINGDI@NMBASE@@PAU123@V?$allocator@UBUTTON_TEXT_INFO@SKINGDI@NMBASE@@@std@@@std@@YAPAUBUTTON_TEXT_INFO@SKINGDI@NMBASE@@QAU123@0PAU123@AAV?$allocator@UBUTTON_TEXT_INFO@SKINGDI@NMBASE@@@0@@Z 100b96d0 f i MyTextButton.obj
 0002:0004b830       ??$_Uninitialized_move_al_unchecked@PAUBUTTON_TEXT_INFO@SKINGDI@NMBASE@@PAU123@V?$allocator@UBUTTON_TEXT_INFO@SKINGDI@NMBASE@@@std@@@std@@YAPAUBUTTON_TEXT_INFO@SKINGDI@NMBASE@@PAU123@QAU123@1AAV?$allocator@UBUTTON_TEXT_INFO@SKINGDI@NMBASE@@@0@U_General_ptr_iterator_tag@0@U_Unused_parameter@0@@Z 100b9830 f i MyTextButton.obj
 0002:0004b960       ??$addressof@V?$_Vector_val@U?$_Simple_types@UBUTTON_TEXT_INFO@SKINGDI@NMBASE@@@std@@@std@@@std@@YAPAV?$_Vector_val@U?$_Simple_types@UBUTTON_TEXT_INFO@SKINGDI@NMBASE@@@std@@@0@AAV10@@Z 100b9960 f i MyTextButton.obj
 0002:0004b9a0       ??$construct@UBUTTON_TEXT_INFO@SKINGDI@NMBASE@@AAU123@@?$_Default_allocator_traits@V?$allocator@UBUTTON_TEXT_INFO@SKINGDI@NMBASE@@@std@@@std@@SAXAAV?$allocator@UBUTTON_TEXT_INFO@SKINGDI@NMBASE@@@1@QAUBUTTON_TEXT_INFO@SKINGDI@NMBASE@@AAU345@@Z 100b99a0 f i MyTextButton.obj
 0002:0004ba20       ??$construct@UBUTTON_TEXT_INFO@SKINGDI@NMBASE@@ABU123@@?$_Default_allocator_traits@V?$allocator@UBUTTON_TEXT_INFO@SKINGDI@NMBASE@@@std@@@std@@SAXAAV?$allocator@UBUTTON_TEXT_INFO@SKINGDI@NMBASE@@@1@QAUBUTTON_TEXT_INFO@SKINGDI@NMBASE@@ABU345@@Z 100b9a20 f i MyTextButton.obj
 0002:0004baa0       ??$construct@UBUTTON_TEXT_INFO@SKINGDI@NMBASE@@U123@@?$_Default_allocator_traits@V?$allocator@UBUTTON_TEXT_INFO@SKINGDI@NMBASE@@@std@@@std@@SAXAAV?$allocator@UBUTTON_TEXT_INFO@SKINGDI@NMBASE@@@1@QAUBUTTON_TEXT_INFO@SKINGDI@NMBASE@@$$QAU345@@Z 100b9aa0 f i MyTextButton.obj
 0002:0004bb20       ??$destroy@UBUTTON_TEXT_INFO@SKINGDI@NMBASE@@@?$_Default_allocator_traits@V?$allocator@UBUTTON_TEXT_INFO@SKINGDI@NMBASE@@@std@@@std@@SAXAAV?$allocator@UBUTTON_TEXT_INFO@SKINGDI@NMBASE@@@1@QAUBUTTON_TEXT_INFO@SKINGDI@NMBASE@@@Z 100b9b20 f i MyTextButton.obj
 0002:0004bb70       ??$emplace_back@ABUBUTTON_TEXT_INFO@SKINGDI@NMBASE@@@?$vector@UBUTTON_TEXT_INFO@SKINGDI@NMBASE@@V?$allocator@UBUTTON_TEXT_INFO@SKINGDI@NMBASE@@@std@@@std@@QAE@ABUBUTTON_TEXT_INFO@SKINGDI@NMBASE@@@Z 100b9b70 f i MyTextButton.obj
 0002:0004bc20       ??$forward@AAUBUTTON_TEXT_INFO@SKINGDI@NMBASE@@@std@@YAAAUBUTTON_TEXT_INFO@SKINGDI@NMBASE@@AAU123@@Z 100b9c20 f i MyTextButton.obj
 0002:0004bc60       ??$forward@ABUBUTTON_TEXT_INFO@SKINGDI@NMBASE@@@std@@YAABUBUTTON_TEXT_INFO@SKINGDI@NMBASE@@ABU123@@Z 100b9c60 f i MyTextButton.obj
 0002:0004bca0       ??$forward@UBUTTON_TEXT_INFO@SKINGDI@NMBASE@@@std@@YA$$QAUBUTTON_TEXT_INFO@SKINGDI@NMBASE@@AAU123@@Z 100b9ca0 f i MyTextButton.obj
 0002:0004bce0       ??$move@AAUBUTTON_TEXT_INFO@SKINGDI@NMBASE@@@std@@YA$$QAUBUTTON_TEXT_INFO@SKINGDI@NMBASE@@AAU123@@Z 100b9ce0 f i MyTextButton.obj
 0002:0004bd20       ??0?$_Uninitialized_backout_al@PAUBUTTON_TEXT_INFO@SKINGDI@NMBASE@@V?$allocator@UBUTTON_TEXT_INFO@SKINGDI@NMBASE@@@std@@@std@@QAE@PAUBUTTON_TEXT_INFO@SKINGDI@NMBASE@@AAV?$allocator@UBUTTON_TEXT_INFO@SKINGDI@NMBASE@@@1@@Z 100b9d20 f i MyTextButton.obj
 0002:0004bd80       ??0?$_Vector_alloc@U?$_Vec_base_types@UBUTTON_TEXT_INFO@SKINGDI@NMBASE@@V?$allocator@UBUTTON_TEXT_INFO@SKINGDI@NMBASE@@@std@@@std@@@std@@QAE@XZ 100b9d80 f i MyTextButton.obj
 0002:0004bdf0       ??0?$_Vector_val@U?$_Simple_types@UBUTTON_TEXT_INFO@SKINGDI@NMBASE@@@std@@@std@@QAE@XZ 100b9df0 f i MyTextButton.obj
 0002:0004be70       ??0?$allocator@UBUTTON_TEXT_INFO@SKINGDI@NMBASE@@@std@@QAE@XZ 100b9e70 f i MyTextButton.obj
 0002:0004beb0       ??0?$vector@UBUTTON_TEXT_INFO@SKINGDI@NMBASE@@V?$allocator@UBUTTON_TEXT_INFO@SKINGDI@NMBASE@@@std@@@std@@QAE@XZ 100b9eb0 f i MyTextButton.obj
 0002:0004bf40       ??0BUTTON_TEXT_INFO@SKINGDI@NMBASE@@QAE@$$QAU012@@Z 100b9f40 f i MyTextButton.obj
 0002:0004c020       ??0BUTTON_TEXT_INFO@SKINGDI@NMBASE@@QAE@ABU012@@Z 100ba020 f i MyTextButton.obj
 0002:0004c100       ??0BUTTON_TEXT_INFO@SKINGDI@NMBASE@@QAE@XZ 100ba100 f i MyTextButton.obj
 0002:0004c170       ??0CMyTextButton@SKINGDI@NMBASE@@QAE@XZ 100ba170 f   MyTextButton.obj
 0002:0004c1e0       ??1?$_Uninitialized_backout_al@PAUBUTTON_TEXT_INFO@SKINGDI@NMBASE@@V?$allocator@UBUTTON_TEXT_INFO@SKINGDI@NMBASE@@@std@@@std@@QAE@XZ 100ba1e0 f i MyTextButton.obj
 0002:0004c280       ??1?$_Vector_alloc@U?$_Vec_base_types@UBUTTON_TEXT_INFO@SKINGDI@NMBASE@@V?$allocator@UBUTTON_TEXT_INFO@SKINGDI@NMBASE@@@std@@@std@@@std@@QAE@XZ 100ba280 f i MyTextButton.obj
 0002:0004c310       ??1?$vector@UBUTTON_TEXT_INFO@SKINGDI@NMBASE@@V?$allocator@UBUTTON_TEXT_INFO@SKINGDI@NMBASE@@@std@@@std@@QAE@XZ 100ba310 f i MyTextButton.obj
 0002:0004c3a0       ??1BUTTON_TEXT_INFO@SKINGDI@NMBASE@@QAE@XZ 100ba3a0 f i MyTextButton.obj
 0002:0004c400       ??1CMyTextButton@SKINGDI@NMBASE@@UAE@XZ 100ba400 f   MyTextButton.obj
 0002:0004c470       ??A?$vector@UBUTTON_TEXT_INFO@SKINGDI@NMBASE@@V?$allocator@UBUTTON_TEXT_INFO@SKINGDI@NMBASE@@@std@@@std@@QAEAAUBUTTON_TEXT_INFO@SKINGDI@NMBASE@@I@Z 100ba470 f i MyTextButton.obj
 0002:0004c560       ??_ECMyTextButton@SKINGDI@NMBASE@@UAEPAXI@Z 100ba560 f i MyTextButton.obj
 0002:0004c690       ??_GBUTTON_TEXT_INFO@SKINGDI@NMBASE@@QAEPAXI@Z 100ba690 f i MyTextButton.obj
 0002:0004c700       ??_GCMyTextButton@SKINGDI@NMBASE@@UAEPAXI@Z 100ba700 f i MyTextButton.obj
 0002:0004c790       ?Draw@CMyTextButton@SKINGDI@NMBASE@@UAEXAAVCDC@@@Z 100ba790 f   MyTextButton.obj
 0002:0004ca40       ?DrawLayeredStr@CMyTextButton@SKINGDI@NMBASE@@QAEXAAV?$CStringT@DV?$StrTraitMFC_DLL@DV?$ChTraitsCRT@D@ATL@@@@@ATL@@AAVCRect@@KKAAVCDC@@K@Z 100baa40 f   MyTextButton.obj
 0002:0004cbb0       ?SetText@CMyTextButton@SKINGDI@NMBASE@@QAEXPBDAAVCRect@@KPAVCFont@@HKK@Z 100babb0 f   MyTextButton.obj
 0002:0004cd30       ?_Alloc_proxy@?$_Vector_alloc@U?$_Vec_base_types@UBUTTON_TEXT_INFO@SKINGDI@NMBASE@@V?$allocator@UBUTTON_TEXT_INFO@SKINGDI@NMBASE@@@std@@@std@@@std@@QAEXXZ 100bad30 f i MyTextButton.obj
 0002:0004ce50       ?_Calculate_growth@?$vector@UBUTTON_TEXT_INFO@SKINGDI@NMBASE@@V?$allocator@UBUTTON_TEXT_INFO@SKINGDI@NMBASE@@@std@@@std@@ABEII@Z 100bae50 f i MyTextButton.obj
 0002:0004cef0       ?_Change_array@?$vector@UBUTTON_TEXT_INFO@SKINGDI@NMBASE@@V?$allocator@UBUTTON_TEXT_INFO@SKINGDI@NMBASE@@@std@@@std@@AAEXQAUBUTTON_TEXT_INFO@SKINGDI@NMBASE@@II@Z 100baef0 f i MyTextButton.obj
 0002:0004cfe0       ?_Destroy@?$vector@UBUTTON_TEXT_INFO@SKINGDI@NMBASE@@V?$allocator@UBUTTON_TEXT_INFO@SKINGDI@NMBASE@@@std@@@std@@AAEXPAUBUTTON_TEXT_INFO@SKINGDI@NMBASE@@0@Z 100bafe0 f i MyTextButton.obj
 0002:0004d050       ?_Free_proxy@?$_Vector_alloc@U?$_Vec_base_types@UBUTTON_TEXT_INFO@SKINGDI@NMBASE@@V?$allocator@UBUTTON_TEXT_INFO@SKINGDI@NMBASE@@@std@@@std@@@std@@QAEXXZ 100bb050 f i MyTextButton.obj
 0002:0004d150       ?_Get_data@?$_Vector_alloc@U?$_Vec_base_types@UBUTTON_TEXT_INFO@SKINGDI@NMBASE@@V?$allocator@UBUTTON_TEXT_INFO@SKINGDI@NMBASE@@@std@@@std@@@std@@QAEAAV?$_Vector_val@U?$_Simple_types@UBUTTON_TEXT_INFO@SKINGDI@NMBASE@@@std@@@2@XZ 100bb150 f i MyTextButton.obj
 0002:0004d1a0       ?_Get_data@?$_Vector_alloc@U?$_Vec_base_types@UBUTTON_TEXT_INFO@SKINGDI@NMBASE@@V?$allocator@UBUTTON_TEXT_INFO@SKINGDI@NMBASE@@@std@@@std@@@std@@QBEABV?$_Vector_val@U?$_Simple_types@UBUTTON_TEXT_INFO@SKINGDI@NMBASE@@@std@@@2@XZ 100bb1a0 f i MyTextButton.obj
 0002:0004d1f0       ?_Get_first@?$_Compressed_pair@V?$allocator@UBUTTON_TEXT_INFO@SKINGDI@NMBASE@@@std@@V?$_Vector_val@U?$_Simple_types@UBUTTON_TEXT_INFO@SKINGDI@NMBASE@@@std@@@2@$00@std@@QAEAAV?$allocator@UBUTTON_TEXT_INFO@SKINGDI@NMBASE@@@2@XZ 100bb1f0 f i MyTextButton.obj
 0002:0004d230       ?_Get_first@?$_Compressed_pair@V?$allocator@UBUTTON_TEXT_INFO@SKINGDI@NMBASE@@@std@@V?$_Vector_val@U?$_Simple_types@UBUTTON_TEXT_INFO@SKINGDI@NMBASE@@@std@@@2@$00@std@@QBEABV?$allocator@UBUTTON_TEXT_INFO@SKINGDI@NMBASE@@@2@XZ 100bb230 f i MyTextButton.obj
 0002:0004d270       ?_Get_second@?$_Compressed_pair@V?$allocator@UBUTTON_TEXT_INFO@SKINGDI@NMBASE@@@std@@V?$_Vector_val@U?$_Simple_types@UBUTTON_TEXT_INFO@SKINGDI@NMBASE@@@std@@@2@$00@std@@QAEAAV?$_Vector_val@U?$_Simple_types@UBUTTON_TEXT_INFO@SKINGDI@NMBASE@@@std@@@2@XZ 100bb270 f i MyTextButton.obj
 0002:0004d2b0       ?_Get_second@?$_Compressed_pair@V?$allocator@UBUTTON_TEXT_INFO@SKINGDI@NMBASE@@@std@@V?$_Vector_val@U?$_Simple_types@UBUTTON_TEXT_INFO@SKINGDI@NMBASE@@@std@@@2@$00@std@@QBEABV?$_Vector_val@U?$_Simple_types@UBUTTON_TEXT_INFO@SKINGDI@NMBASE@@@std@@@2@XZ 100bb2b0 f i MyTextButton.obj
 0002:0004d2f0       ?_Getal@?$_Vector_alloc@U?$_Vec_base_types@UBUTTON_TEXT_INFO@SKINGDI@NMBASE@@V?$allocator@UBUTTON_TEXT_INFO@SKINGDI@NMBASE@@@std@@@std@@@std@@QAEAAV?$allocator@UBUTTON_TEXT_INFO@SKINGDI@NMBASE@@@2@XZ 100bb2f0 f i MyTextButton.obj
 0002:0004d340       ?_Getal@?$_Vector_alloc@U?$_Vec_base_types@UBUTTON_TEXT_INFO@SKINGDI@NMBASE@@V?$allocator@UBUTTON_TEXT_INFO@SKINGDI@NMBASE@@@std@@@std@@@std@@QBEABV?$allocator@UBUTTON_TEXT_INFO@SKINGDI@NMBASE@@@2@XZ 100bb340 f i MyTextButton.obj
 0002:0004d390       ?_Getpfirst@?$_Vector_alloc@U?$_Vec_base_types@UBUTTON_TEXT_INFO@SKINGDI@NMBASE@@V?$allocator@UBUTTON_TEXT_INFO@SKINGDI@NMBASE@@@std@@@std@@@std@@QBEPAPAU_Iterator_base12@2@XZ 100bb390 f i MyTextButton.obj
 0002:0004d3f0       ?_Has_unused_capacity@?$vector@UBUTTON_TEXT_INFO@SKINGDI@NMBASE@@V?$allocator@UBUTTON_TEXT_INFO@SKINGDI@NMBASE@@@std@@@std@@ABE_NXZ 100bb3f0 f i MyTextButton.obj
 0002:0004d480       ?_Myend@?$_Vector_alloc@U?$_Vec_base_types@UBUTTON_TEXT_INFO@SKINGDI@NMBASE@@V?$allocator@UBUTTON_TEXT_INFO@SKINGDI@NMBASE@@@std@@@std@@@std@@QAEAAPAUBUTTON_TEXT_INFO@SKINGDI@NMBASE@@XZ 100bb480 f i MyTextButton.obj
 0002:0004d4e0       ?_Myend@?$_Vector_alloc@U?$_Vec_base_types@UBUTTON_TEXT_INFO@SKINGDI@NMBASE@@V?$allocator@UBUTTON_TEXT_INFO@SKINGDI@NMBASE@@@std@@@std@@@std@@QBEABQAUBUTTON_TEXT_INFO@SKINGDI@NMBASE@@XZ 100bb4e0 f i MyTextButton.obj
 0002:0004d540       ?_Myfirst@?$_Vector_alloc@U?$_Vec_base_types@UBUTTON_TEXT_INFO@SKINGDI@NMBASE@@V?$allocator@UBUTTON_TEXT_INFO@SKINGDI@NMBASE@@@std@@@std@@@std@@QAEAAPAUBUTTON_TEXT_INFO@SKINGDI@NMBASE@@XZ 100bb540 f i MyTextButton.obj
 0002:0004d5a0       ?_Myfirst@?$_Vector_alloc@U?$_Vec_base_types@UBUTTON_TEXT_INFO@SKINGDI@NMBASE@@V?$allocator@UBUTTON_TEXT_INFO@SKINGDI@NMBASE@@@std@@@std@@@std@@QBEABQAUBUTTON_TEXT_INFO@SKINGDI@NMBASE@@XZ 100bb5a0 f i MyTextButton.obj
 0002:0004d600       ?_Mylast@?$_Vector_alloc@U?$_Vec_base_types@UBUTTON_TEXT_INFO@SKINGDI@NMBASE@@V?$allocator@UBUTTON_TEXT_INFO@SKINGDI@NMBASE@@@std@@@std@@@std@@QAEAAPAUBUTTON_TEXT_INFO@SKINGDI@NMBASE@@XZ 100bb600 f i MyTextButton.obj
 0002:0004d660       ?_Mylast@?$_Vector_alloc@U?$_Vec_base_types@UBUTTON_TEXT_INFO@SKINGDI@NMBASE@@V?$allocator@UBUTTON_TEXT_INFO@SKINGDI@NMBASE@@@std@@@std@@@std@@QBEABQAUBUTTON_TEXT_INFO@SKINGDI@NMBASE@@XZ 100bb660 f i MyTextButton.obj
 0002:0004d6c0       ?_Myproxy@?$_Vector_alloc@U?$_Vec_base_types@UBUTTON_TEXT_INFO@SKINGDI@NMBASE@@V?$allocator@UBUTTON_TEXT_INFO@SKINGDI@NMBASE@@@std@@@std@@@std@@QAEAAPAU_Container_proxy@2@XZ 100bb6c0 f i MyTextButton.obj
 0002:0004d710       ?_Orphan_all@?$_Vector_alloc@U?$_Vec_base_types@UBUTTON_TEXT_INFO@SKINGDI@NMBASE@@V?$allocator@UBUTTON_TEXT_INFO@SKINGDI@NMBASE@@@std@@@std@@@std@@QAEXXZ 100bb710 f i MyTextButton.obj
 0002:0004d770       ?_Orphan_range@?$vector@UBUTTON_TEXT_INFO@SKINGDI@NMBASE@@V?$allocator@UBUTTON_TEXT_INFO@SKINGDI@NMBASE@@@std@@@std@@ABEXPAUBUTTON_TEXT_INFO@SKINGDI@NMBASE@@0@Z 100bb770 f i MyTextButton.obj
 0002:0004d8e0       ?_Release@?$_Uninitialized_backout_al@PAUBUTTON_TEXT_INFO@SKINGDI@NMBASE@@V?$allocator@UBUTTON_TEXT_INFO@SKINGDI@NMBASE@@@std@@@std@@QAEPAUBUTTON_TEXT_INFO@SKINGDI@NMBASE@@XZ 100bb8e0 f i MyTextButton.obj
 0002:0004d930       ?_Tidy@?$vector@UBUTTON_TEXT_INFO@SKINGDI@NMBASE@@V?$allocator@UBUTTON_TEXT_INFO@SKINGDI@NMBASE@@@std@@@std@@AAEXXZ 100bb930 f i MyTextButton.obj
 0002:0004da20       ?_Umove@?$vector@UBUTTON_TEXT_INFO@SKINGDI@NMBASE@@V?$allocator@UBUTTON_TEXT_INFO@SKINGDI@NMBASE@@@std@@@std@@AAEPAUBUTTON_TEXT_INFO@SKINGDI@NMBASE@@PAU345@00@Z 100bba20 f i MyTextButton.obj
 0002:0004da90       ?_Umove_if_noexcept1@?$vector@UBUTTON_TEXT_INFO@SKINGDI@NMBASE@@V?$allocator@UBUTTON_TEXT_INFO@SKINGDI@NMBASE@@@std@@@std@@AAEXPAUBUTTON_TEXT_INFO@SKINGDI@NMBASE@@00U?$integral_constant@_N$0A@@2@@Z 100bba90 f i MyTextButton.obj
 0002:0004db00       ?_Umove_if_noexcept@?$vector@UBUTTON_TEXT_INFO@SKINGDI@NMBASE@@V?$allocator@UBUTTON_TEXT_INFO@SKINGDI@NMBASE@@@std@@@std@@AAEXPAUBUTTON_TEXT_INFO@SKINGDI@NMBASE@@00@Z 100bbb00 f i MyTextButton.obj
 0002:0004db80       ?_Xlength@?$vector@UBUTTON_TEXT_INFO@SKINGDI@NMBASE@@V?$allocator@UBUTTON_TEXT_INFO@SKINGDI@NMBASE@@@std@@@std@@CAXXZ 100bbb80 f i MyTextButton.obj
 0002:0004dbd0       ?allocate@?$allocator@UBUTTON_TEXT_INFO@SKINGDI@NMBASE@@@std@@QAEPAUBUTTON_TEXT_INFO@SKINGDI@NMBASE@@I@Z 100bbbd0 f i MyTextButton.obj
 0002:0004dc40       ?capacity@?$vector@UBUTTON_TEXT_INFO@SKINGDI@NMBASE@@V?$allocator@UBUTTON_TEXT_INFO@SKINGDI@NMBASE@@@std@@@std@@QBEIXZ 100bbc40 f i MyTextButton.obj
 0002:0004dcb0       ?deallocate@?$allocator@UBUTTON_TEXT_INFO@SKINGDI@NMBASE@@@std@@QAEXQAUBUTTON_TEXT_INFO@SKINGDI@NMBASE@@I@Z 100bbcb0 f i MyTextButton.obj
 0002:0004dd10       ?max@?$numeric_limits@H@std@@SAHXZ 100bbd10 f i MyTextButton.obj
 0002:0004dd50       ?max_size@?$_Default_allocator_traits@V?$allocator@UBUTTON_TEXT_INFO@SKINGDI@NMBASE@@@std@@@std@@SAIABV?$allocator@UBUTTON_TEXT_INFO@SKINGDI@NMBASE@@@2@@Z 100bbd50 f i MyTextButton.obj
 0002:0004dd90       ?max_size@?$vector@UBUTTON_TEXT_INFO@SKINGDI@NMBASE@@V?$allocator@UBUTTON_TEXT_INFO@SKINGDI@NMBASE@@@std@@@std@@QBEIXZ 100bbd90 f i MyTextButton.obj
 0002:0004de20       ?push_back@?$vector@UBUTTON_TEXT_INFO@SKINGDI@NMBASE@@V?$allocator@UBUTTON_TEXT_INFO@SKINGDI@NMBASE@@@std@@@std@@QAEXABUBUTTON_TEXT_INFO@SKINGDI@NMBASE@@@Z 100bbe20 f i MyTextButton.obj
 0002:0004de80       ?size@?$vector@UBUTTON_TEXT_INFO@SKINGDI@NMBASE@@V?$allocator@UBUTTON_TEXT_INFO@SKINGDI@NMBASE@@@std@@@std@@QBEIXZ 100bbe80 f i MyTextButton.obj
 0002:0004def0       ??0CNChatView@SKINGDI@NMBASE@@QAE@ABV012@@Z 100bbef0 f i NChatView.obj
 0002:0004e1b0       ??0CNChatView@SKINGDI@NMBASE@@QAE@HHHHPAVCWnd@@PAVCPage@GRAPHICGDI@2@_N@Z 100bc1b0 f   NChatView.obj
 0002:0004e560       ??0CNChatView@SKINGDI@NMBASE@@QAE@XZ 100bc560 f   NChatView.obj
 0002:0004e6a0       ??0CPoint@@QAE@XZ          100bc6a0 f i NChatView.obj
 0002:0004e6f0       ??1CNChatView@SKINGDI@NMBASE@@UAE@XZ 100bc6f0 f   NChatView.obj
 0002:0004e7f0       ??4CNChatView@SKINGDI@NMBASE@@QAEAAV012@ABV012@@Z 100bc7f0 f i NChatView.obj
 0002:0004ea50       ??_ECNChatView@SKINGDI@NMBASE@@UAEPAXI@Z 100bca50 f i NChatView.obj
 0002:0004eb60       ??_GCNChatView@SKINGDI@NMBASE@@UAEPAXI@Z 100bcb60 f i NChatView.obj
 0002:0004ebe0       ?AddText@CNChatView@SKINGDI@NMBASE@@QAEXPADK@Z 100bcbe0 f   NChatView.obj
 0002:0004ede0       ?AddText@CNChatView@SKINGDI@NMBASE@@QAEXPAV?$CStringT@DV?$StrTraitMFC_DLL@DV?$ChTraitsCRT@D@ATL@@@@@ATL@@K@Z 100bcde0 f   NChatView.obj
 0002:0004ee50       ?BindScrollBtn@CNChatView@SKINGDI@NMBASE@@QAEXPAVxSprite@GRAPHICGDI@3@VCPoint@@HHHHH@Z 100bce50 f   NChatView.obj
 0002:0004f140       ?Draw@CNChatView@SKINGDI@NMBASE@@QAEXPAVCDC@@@Z 100bd140 f   NChatView.obj
 0002:0004f260       ?DrawChatText@CNChatView@SKINGDI@NMBASE@@QAEXPAVCDC@@@Z 100bd260 f   NChatView.obj
 0002:0004f960       ?GetOnePageWriteLine@CNChatView@SKINGDI@NMBASE@@QAEHXZ 100bd960 f   NChatView.obj
 0002:0004f9b0       ?GetTotalLine@CNChatView@SKINGDI@NMBASE@@QAEHXZ 100bd9b0 f   NChatView.obj
 0002:0004fa30       ?IsShow@CNChatView@SKINGDI@NMBASE@@QAEHXZ 100bda30 f i NChatView.obj
 0002:0004fa70       ?OnEnterRoom@CNChatView@SKINGDI@NMBASE@@QAEXXZ 100bda70 f   NChatView.obj
 0002:0004fab0       ?OnLButtonDown@CNChatView@SKINGDI@NMBASE@@QAEHHH@Z 100bdab0 f   NChatView.obj
 0002:0004fc90       ?OnLButtonUp@CNChatView@SKINGDI@NMBASE@@QAEHHH@Z 100bdc90 f   NChatView.obj
 0002:0004fdf0       ?OnMouseMove@CNChatView@SKINGDI@NMBASE@@QAEHUtagPOINT@@@Z 100bddf0 f   NChatView.obj
 0002:00050110       ?OnMouseOver@CNChatView@SKINGDI@NMBASE@@QAEHUtagPOINT@@@Z 100be110 f   NChatView.obj
 0002:00050190       ?OnMouseWheel@CNChatView@SKINGDI@NMBASE@@QAEHIJ@Z 100be190 f   NChatView.obj
 0002:00050370       ?OnPressProcess@CNChatView@SKINGDI@NMBASE@@QAEHXZ 100be370 f   NChatView.obj
 0002:000504d0       ?OnScrollButtonDown@CNChatView@SKINGDI@NMBASE@@QAEXXZ 100be4d0 f   NChatView.obj
 0002:000505a0       ?OnScrollButtonUp@CNChatView@SKINGDI@NMBASE@@QAEXXZ 100be5a0 f   NChatView.obj
 0002:00050670       ?ReSetWindowPos@CNChatView@SKINGDI@NMBASE@@QAEXHH@Z 100be670 f   NChatView.obj
 0002:000506c0       ?ResetChat@CNChatView@SKINGDI@NMBASE@@QAEXXZ 100be6c0 f   NChatView.obj
 0002:000507d0       ?SetFontIndex@CNChatView@SKINGDI@NMBASE@@QAEXW4STD_FONT@UTIL@3@@Z 100be7d0 f   NChatView.obj
 0002:00050860       ?SetOutlineColor@CNChatView@SKINGDI@NMBASE@@QAEXK@Z 100be860 f   NChatView.obj
 0002:000508b0       ?SetPermitSameText@CNText@SKINGDI@NMBASE@@QAEXH@Z 100be8b0 f i NChatView.obj
 0002:00050900       ?SetResize@CNChatView@SKINGDI@NMBASE@@QAEXHH@Z 100be900 f   NChatView.obj
 0002:00050af0       ?SetScrollBar@CNChatView@SKINGDI@NMBASE@@QAEXXZ 100beaf0 f   NChatView.obj
 0002:00050b30       ?SetShow@CNChatView@SKINGDI@NMBASE@@QAEXH@Z 100beb30 f i NChatView.obj
 0002:00050ba0       ?ThumbReposition@CNChatView@SKINGDI@NMBASE@@QAEXXZ 100beba0 f   NChatView.obj
 0002:00050c90       ?UpdateButtonState@CNChatView@SKINGDI@NMBASE@@QAEXH@Z 100bec90 f   NChatView.obj
 0002:00050d10       ??0CNEditBox@SKINGDI@NMBASE@@QAE@XZ 100bed10 f   NEditBox.obj
 0002:00050db0       ??1CNEditBox@SKINGDI@NMBASE@@UAE@XZ 100bedb0 f   NEditBox.obj
 0002:00050f00       ??_ECNEditBox@SKINGDI@NMBASE@@UAEPAXI@Z 100bef00 f i NEditBox.obj
 0002:00051010       ??_GCNEditBox@SKINGDI@NMBASE@@UAEPAXI@Z 100bf010 f i NEditBox.obj
 0002:00051090       ?Clear@CNEditBox@SKINGDI@NMBASE@@QAEXXZ 100bf090 f   NEditBox.obj
 0002:00051100       ?Draw@CNEditBox@SKINGDI@NMBASE@@QAEHPAVCDC@@@Z 100bf100 f   NEditBox.obj
 0002:000515c0       ?Init@CNEditBox@SKINGDI@NMBASE@@QAEXHHHHPAVCWnd@@PAVCPage@GRAPHICGDI@3@@Z 100bf5c0 f   NEditBox.obj
 0002:000518e0       ?OnSetFocus@CNEditBox@SKINGDI@NMBASE@@QAEXXZ 100bf8e0 f   NEditBox.obj
 0002:00051950       ?SetFontIndex@CNEditBox@SKINGDI@NMBASE@@QAEXW4STD_FONT@UTIL@3@@Z 100bf950 f   NEditBox.obj
 0002:000519e0       ?SetLimitText@CNEditBox@SKINGDI@NMBASE@@QAEXI@Z 100bf9e0 f   NEditBox.obj
 0002:00051a50       ??0CNMultiScene@SKINGDI@NMBASE@@QAE@ABV012@@Z 100bfa50 f i NMultiScene.obj
 0002:00051b50       ??0CNMultiScene@SKINGDI@NMBASE@@QAE@HHPAXPAVCPage@GRAPHICGDI@2@PAVxSprite@42@H@Z 100bfb50 f   NMultiScene.obj
 0002:00051c30       ??0CNMultiScene@SKINGDI@NMBASE@@QAE@XZ 100bfc30 f   NMultiScene.obj
 0002:00051d00       ??0CNScene@SKINGDI@NMBASE@@QAE@ABV012@@Z 100bfd00 f i NMultiScene.obj
 0002:00051db0       ??0QUERYMSCENE_SCRIPT@GRAPHICGDI@NMBASE@@QAE@XZ 100bfdb0 f i NMultiScene.obj
 0002:00051e10       ??1CNMultiScene@SKINGDI@NMBASE@@UAE@XZ 100bfe10 f   NMultiScene.obj
 0002:00051e50       ??4CNMultiScene@SKINGDI@NMBASE@@QAEAAV012@ABV012@@Z 100bfe50 f i NMultiScene.obj
 0002:00051f40       ??4CNScene@SKINGDI@NMBASE@@QAEAAV012@ABV012@@Z 100bff40 f i NMultiScene.obj
 0002:00051fe0       ??_ECNMultiScene@SKINGDI@NMBASE@@UAEPAXI@Z 100bffe0 f i NMultiScene.obj
 0002:000520e0       ??_ECNScene@SKINGDI@NMBASE@@UAEPAXI@Z 100c00e0 f i NMultiScene.obj
 0002:000521e0       ??_GCNMultiScene@SKINGDI@NMBASE@@UAEPAXI@Z 100c01e0 f i NMultiScene.obj
 0002:00052250       ??_GCNScene@SKINGDI@NMBASE@@UAEPAXI@Z 100c0250 f i NMultiScene.obj
 0002:000522c0       ?DrawMScene@CNMultiScene@SKINGDI@NMBASE@@QAEHPAVCDC@@@Z 100c02c0 f   NMultiScene.obj
 0002:00052380       ?OnTimer@CNMultiScene@SKINGDI@NMBASE@@QAEPAUQUERYMSCENE_SCRIPT@GRAPHICGDI@3@XZ 100c0380 f   NMultiScene.obj
 0002:000524d0       ?Reset@QUERYMSCENE_SCRIPT@GRAPHICGDI@NMBASE@@QAEXXZ 100c04d0 f i NMultiScene.obj
 0002:00052550       ?SetDrawIndex@CNMultiScene@SKINGDI@NMBASE@@QAEXH@Z 100c0550 f   NMultiScene.obj
 0002:00052670       ?SetPostion@CNMultiScene@SKINGDI@NMBASE@@QAEXHH@Z 100c0670 f   NMultiScene.obj
 0002:000526c0       ?SetSpriteFile@CNMultiScene@SKINGDI@NMBASE@@QAEXPAVxSprite@GRAPHICGDI@3@@Z 100c06c0 f   NMultiScene.obj
 0002:00052710       ?ShowMScene@CNMultiScene@SKINGDI@NMBASE@@QAEXH@Z 100c0710 f i NMultiScene.obj
 0002:00052760       ?StartMScene@CNMultiScene@SKINGDI@NMBASE@@QAEXH@Z 100c0760 f   NMultiScene.obj
 0002:00052840       ?StartMScene@CNMultiScene@SKINGDI@NMBASE@@QAEXHHH@Z 100c0840 f   NMultiScene.obj
 0002:000528c0       ?StartMSceneLoop@CNMultiScene@SKINGDI@NMBASE@@QAEXHH@Z 100c08c0 f   NMultiScene.obj
 0002:00052950       ?StartMSceneLoop@CNMultiScene@SKINGDI@NMBASE@@QAEXXZ 100c0950 f   NMultiScene.obj
 0002:000529c0       ?StopMScene@CNMultiScene@SKINGDI@NMBASE@@QAEXK@Z 100c09c0 f   NMultiScene.obj
 0002:00052a10       ??$?0$$V@?$_Compressed_pair@V?$allocator@D@std@@V?$_String_val@U?$_Simple_types@D@std@@@2@$00@std@@QAE@U_Zero_then_variadic_args_t@1@@Z 100c0a10 f i NMButton.obj
 0002:00052a70       ??$?0ABU?$less@H@std@@U_One_then_variadic_args_t@1@V?$allocator@U?$_Tree_node@U?$pair@$$CBHPAVINMWidget@SKINGDI@NMBASE@@@std@@PAX@std@@@1@@?$_Compressed_pair@U?$less@H@std@@V?$_Compressed_pair@V?$allocator@U?$_Tree_node@U?$pair@$$CBHPAVINMWidget@SKINGDI@NMBASE@@@std@@PAX@std@@@std@@V?$_Tree_val@U?$_Tree_simple_types@U?$pair@$$CBHPAVINMWidget@SKINGDI@NMBASE@@@std@@@std@@@2@$00@2@$00@std@@QAE@U_One_then_variadic_args_t@1@ABU?$less@H@1@$$QAU21@$$QAV?$allocator@U?$_Tree_node@U?$pair@$$CBHPAVINMWidget@SKINGDI@NMBASE@@@std@@PAX@std@@@1@@Z 100c0a70 f i NMButton.obj
 0002:00052b00       ??$?0ABU?$less@V?$basic_string@DU?$char_traits@D@std@@V?$allocator@D@2@@std@@@std@@U_One_then_variadic_args_t@1@V?$allocator@U?$_Tree_node@U?$pair@$$CBV?$basic_string@DU?$char_traits@D@std@@V?$allocator@D@2@@std@@PAVxSprite@GRAPHICGDI@NMBASE@@@std@@PAX@std@@@1@@?$_Compressed_pair@U?$less@V?$basic_string@DU?$char_traits@D@std@@V?$allocator@D@2@@std@@@std@@V?$_Compressed_pair@V?$allocator@U?$_Tree_node@U?$pair@$$CBV?$basic_string@DU?$char_traits@D@std@@V?$allocator@D@2@@std@@PAVxSprite@GRAPHICGDI@NMBASE@@@std@@PAX@std@@@std@@V?$_Tree_val@U?$_Tree_simple_types@U?$pair@$$CBV?$basic_string@DU?$char_traits@D@std@@V?$allocator@D@2@@std@@PAVxSprite@GRAPHICGDI@NMBASE@@@std@@@std@@@2@$00@2@$00@std@@QAE@U_One_then_variadic_args_t@1@ABU?$less@V?$basic_string@DU?$char_traits@D@std@@V?$allocator@D@2@@std@@@1@$$QAU21@$$QAV?$allocator@U?$_Tree_node@U?$pair@$$CBV?$basic_string@DU?$char_traits@D@std@@V?$allocator@D@2@@std@@PAVxSprite@GRAPHICGDI@NMBASE@@@std@@PAX@std@@@1@@Z 100c0b00 f i NMButton.obj
 0002:00052b90       ??$?0ABU?$less@V?$basic_string@DU?$char_traits@D@std@@V?$allocator@D@2@@std@@@std@@U_One_then_variadic_args_t@1@V?$allocator@U?$_Tree_node@U?$pair@$$CBV?$basic_string@DU?$char_traits@D@std@@V?$allocator@D@2@@std@@V12@@std@@PAX@std@@@1@@?$_Compressed_pair@U?$less@V?$basic_string@DU?$char_traits@D@std@@V?$allocator@D@2@@std@@@std@@V?$_Compressed_pair@V?$allocator@U?$_Tree_node@U?$pair@$$CBV?$basic_string@DU?$char_traits@D@std@@V?$allocator@D@2@@std@@V12@@std@@PAX@std@@@std@@V?$_Tree_val@U?$_Tree_simple_types@U?$pair@$$CBV?$basic_string@DU?$char_traits@D@std@@V?$allocator@D@2@@std@@V12@@std@@@std@@@2@$00@2@$00@std@@QAE@U_One_then_variadic_args_t@1@ABU?$less@V?$basic_string@DU?$char_traits@D@std@@V?$allocator@D@2@@std@@@1@$$QAU21@$$QAV?$allocator@U?$_Tree_node@U?$pair@$$CBV?$basic_string@DU?$char_traits@D@std@@V?$allocator@D@2@@std@@V12@@std@@PAX@std@@@1@@Z 100c0b90 f i NMButton.obj
 0002:00052c20       ??$?0D@?$allocator@U_Container_proxy@std@@@std@@QAE@ABV?$allocator@D@1@@Z 100c0c20 f i NMButton.obj
 0002:00052c60       ??$?0PAVINMWidget@SKINGDI@NMBASE@@@?$allocator@U_Container_proxy@std@@@std@@QAE@ABV?$allocator@PAVINMWidget@SKINGDI@NMBASE@@@1@@Z 100c0c60 f i NMButton.obj
 0002:00052ca0       ??$?0U?$_List_node@UtagPLAY_DATA@CNMAudioMananger@SKINGDI@NMBASE@@PAX@std@@@?$allocator@U_Container_proxy@std@@@std@@QAE@ABV?$allocator@U?$_List_node@UtagPLAY_DATA@CNMAudioMananger@SKINGDI@NMBASE@@PAX@std@@@1@@Z 100c0ca0 f i NMButton.obj
 0002:00052ce0       ??$?0U?$_Tree_node@U?$pair@$$CBHPAVINMWidget@SKINGDI@NMBASE@@@std@@PAX@std@@@?$allocator@U_Container_proxy@std@@@std@@QAE@ABV?$allocator@U?$_Tree_node@U?$pair@$$CBHPAVINMWidget@SKINGDI@NMBASE@@@std@@PAX@std@@@1@@Z 100c0ce0 f i NMButton.obj
 0002:00052d20       ??$?0U?$_Tree_node@U?$pair@$$CBV?$basic_string@DU?$char_traits@D@std@@V?$allocator@D@2@@std@@PAVxSprite@GRAPHICGDI@NMBASE@@@std@@PAX@std@@@?$allocator@U_Container_proxy@std@@@std@@QAE@ABV?$allocator@U?$_Tree_node@U?$pair@$$CBV?$basic_string@DU?$char_traits@D@std@@V?$allocator@D@2@@std@@PAVxSprite@GRAPHICGDI@NMBASE@@@std@@PAX@std@@@1@@Z 100c0d20 f i NMButton.obj
 0002:00052d60       ??$?0U?$_Tree_node@U?$pair@$$CBV?$basic_string@DU?$char_traits@D@std@@V?$allocator@D@2@@std@@V12@@std@@PAX@std@@@?$allocator@U_Container_proxy@std@@@std@@QAE@ABV?$allocator@U?$_Tree_node@U?$pair@$$CBV?$basic_string@DU?$char_traits@D@std@@V?$allocator@D@2@@std@@V12@@std@@PAX@std@@@1@@Z 100c0d60 f i NMButton.obj
 0002:00052da0       ??$?0V?$allocator@D@std@@$$V@?$_Compressed_pair@V?$allocator@D@std@@V?$_String_val@U?$_Simple_types@D@std@@@2@$00@std@@QAE@U_One_then_variadic_args_t@1@$$QAV?$allocator@D@1@@Z 100c0da0 f i NMButton.obj
 0002:00052e10       ??$?0V?$allocator@D@std@@X@?$_String_alloc@U?$_String_base_types@DV?$allocator@D@std@@@std@@@std@@QAE@$$QAV?$allocator@D@1@@Z 100c0e10 f i NMButton.obj
 0002:00052ed0       ??$?0V?$allocator@PAVINMWidget@SKINGDI@NMBASE@@@std@@$$V@?$_Compressed_pair@V?$allocator@PAVINMWidget@SKINGDI@NMBASE@@@std@@V?$_Vector_val@U?$_Simple_types@PAVINMWidget@SKINGDI@NMBASE@@@std@@@2@$00@std@@QAE@U_One_then_variadic_args_t@1@$$QAV?$allocator@PAVINMWidget@SKINGDI@NMBASE@@@1@@Z 100c0ed0 f i NMButton.obj
 0002:00052f40       ??$?0V?$allocator@PAVINMWidget@SKINGDI@NMBASE@@@std@@X@?$_Vector_alloc@U?$_Vec_base_types@PAVINMWidget@SKINGDI@NMBASE@@V?$allocator@PAVINMWidget@SKINGDI@NMBASE@@@std@@@std@@@std@@QAE@$$QAV?$allocator@PAVINMWidget@SKINGDI@NMBASE@@@1@@Z 100c0f40 f i NMButton.obj
 0002:00052fc0       ??$?0V?$allocator@U?$_List_node@UtagPLAY_DATA@CNMAudioMananger@SKINGDI@NMBASE@@PAX@std@@@std@@$$V@?$_Compressed_pair@V?$allocator@U?$_List_node@UtagPLAY_DATA@CNMAudioMananger@SKINGDI@NMBASE@@PAX@std@@@std@@V?$_List_val@U?$_List_simple_types@UtagPLAY_DATA@CNMAudioMananger@SKINGDI@NMBASE@@@std@@@2@$00@std@@QAE@U_One_then_variadic_args_t@1@$$QAV?$allocator@U?$_List_node@UtagPLAY_DATA@CNMAudioMananger@SKINGDI@NMBASE@@PAX@std@@@1@@Z 100c0fc0 f i NMButton.obj
 0002:00053030       ??$?0V?$allocator@U?$_List_node@UtagPLAY_DATA@CNMAudioMananger@SKINGDI@NMBASE@@PAX@std@@@std@@X@?$_List_alloc@U?$_List_base_types@UtagPLAY_DATA@CNMAudioMananger@SKINGDI@NMBASE@@V?$allocator@UtagPLAY_DATA@CNMAudioMananger@SKINGDI@NMBASE@@@std@@@std@@@std@@QAE@$$QAV?$allocator@U?$_List_node@UtagPLAY_DATA@CNMAudioMananger@SKINGDI@NMBASE@@PAX@std@@@1@@Z 100c1030 f i NMButton.obj
 0002:00053150       ??$?0V?$allocator@U?$_List_node@UtagPLAY_DATA@CNMAudioMananger@SKINGDI@NMBASE@@PAX@std@@@std@@X@?$_List_buy@UtagPLAY_DATA@CNMAudioMananger@SKINGDI@NMBASE@@V?$allocator@UtagPLAY_DATA@CNMAudioMananger@SKINGDI@NMBASE@@@std@@@std@@QAE@$$QAV?$allocator@U?$_List_node@UtagPLAY_DATA@CNMAudioMananger@SKINGDI@NMBASE@@PAX@std@@@1@@Z 100c1150 f i NMButton.obj
 0002:000531c0       ??$?0V?$allocator@U?$_Tree_node@U?$pair@$$CBHPAVINMWidget@SKINGDI@NMBASE@@@std@@PAX@std@@@std@@$$V@?$_Compressed_pair@V?$allocator@U?$_Tree_node@U?$pair@$$CBHPAVINMWidget@SKINGDI@NMBASE@@@std@@PAX@std@@@std@@V?$_Tree_val@U?$_Tree_simple_types@U?$pair@$$CBHPAVINMWidget@SKINGDI@NMBASE@@@std@@@std@@@2@$00@std@@QAE@U_One_then_variadic_args_t@1@$$QAV?$allocator@U?$_Tree_node@U?$pair@$$CBHPAVINMWidget@SKINGDI@NMBASE@@@std@@PAX@std@@@1@@Z 100c11c0 f i NMButton.obj
 0002:00053230       ??$?0V?$allocator@U?$_Tree_node@U?$pair@$$CBHPAVINMWidget@SKINGDI@NMBASE@@@std@@PAX@std@@@std@@@?$_Tree@V?$_Tmap_traits@HPAVINMWidget@SKINGDI@NMBASE@@U?$less@H@std@@V?$allocator@U?$pair@$$CBHPAVINMWidget@SKINGDI@NMBASE@@@std@@@5@$0A@@std@@@std@@QAE@ABV01@$$QAV?$allocator@U?$_Tree_node@U?$pair@$$CBHPAVINMWidget@SKINGDI@NMBASE@@@std@@PAX@std@@@1@@Z 100c1230 f i NMButton.obj
 0002:00053350       ??$?0V?$allocator@U?$_Tree_node@U?$pair@$$CBHPAVINMWidget@SKINGDI@NMBASE@@@std@@PAX@std@@@std@@X@?$_Tree_comp_alloc@V?$_Tmap_traits@HPAVINMWidget@SKINGDI@NMBASE@@U?$less@H@std@@V?$allocator@U?$pair@$$CBHPAVINMWidget@SKINGDI@NMBASE@@@std@@@5@$0A@@std@@@std@@QAE@ABU?$less@H@1@$$QAV?$allocator@U?$_Tree_node@U?$pair@$$CBHPAVINMWidget@SKINGDI@NMBASE@@@std@@PAX@std@@@1@@Z 100c1350 f i NMButton.obj
 0002:000533e0       ??$?0V?$allocator@U?$_Tree_node@U?$pair@$$CBV?$basic_string@DU?$char_traits@D@std@@V?$allocator@D@2@@std@@PAVxSprite@GRAPHICGDI@NMBASE@@@std@@PAX@std@@@std@@$$V@?$_Compressed_pair@V?$allocator@U?$_Tree_node@U?$pair@$$CBV?$basic_string@DU?$char_traits@D@std@@V?$allocator@D@2@@std@@PAVxSprite@GRAPHICGDI@NMBASE@@@std@@PAX@std@@@std@@V?$_Tree_val@U?$_Tree_simple_types@U?$pair@$$CBV?$basic_string@DU?$char_traits@D@std@@V?$allocator@D@2@@std@@PAVxSprite@GRAPHICGDI@NMBASE@@@std@@@std@@@2@$00@std@@QAE@U_One_then_variadic_args_t@1@$$QAV?$allocator@U?$_Tree_node@U?$pair@$$CBV?$basic_string@DU?$char_traits@D@std@@V?$allocator@D@2@@std@@PAVxSprite@GRAPHICGDI@NMBASE@@@std@@PAX@std@@@1@@Z 100c13e0 f i NMButton.obj
 0002:00053450       ??$?0V?$allocator@U?$_Tree_node@U?$pair@$$CBV?$basic_string@DU?$char_traits@D@std@@V?$allocator@D@2@@std@@PAVxSprite@GRAPHICGDI@NMBASE@@@std@@PAX@std@@@std@@@?$_Tree@V?$_Tmap_traits@V?$basic_string@DU?$char_traits@D@std@@V?$allocator@D@2@@std@@PAVxSprite@GRAPHICGDI@NMBASE@@U?$less@V?$basic_string@DU?$char_traits@D@std@@V?$allocator@D@2@@std@@@2@V?$allocator@U?$pair@$$CBV?$basic_string@DU?$char_traits@D@std@@V?$allocator@D@2@@std@@PAVxSprite@GRAPHICGDI@NMBASE@@@std@@@2@$0A@@std@@@std@@QAE@ABV01@$$QAV?$allocator@U?$_Tree_node@U?$pair@$$CBV?$basic_string@DU?$char_traits@D@std@@V?$allocator@D@2@@std@@PAVxSprite@GRAPHICGDI@NMBASE@@@std@@PAX@std@@@1@@Z 100c1450 f i NMButton.obj
 0002:00053570       ??$?0V?$allocator@U?$_Tree_node@U?$pair@$$CBV?$basic_string@DU?$char_traits@D@std@@V?$allocator@D@2@@std@@PAVxSprite@GRAPHICGDI@NMBASE@@@std@@PAX@std@@@std@@X@?$_Tree_comp_alloc@V?$_Tmap_traits@V?$basic_string@DU?$char_traits@D@std@@V?$allocator@D@2@@std@@PAVxSprite@GRAPHICGDI@NMBASE@@U?$less@V?$basic_string@DU?$char_traits@D@std@@V?$allocator@D@2@@std@@@2@V?$allocator@U?$pair@$$CBV?$basic_string@DU?$char_traits@D@std@@V?$allocator@D@2@@std@@PAVxSprite@GRAPHICGDI@NMBASE@@@std@@@2@$0A@@std@@@std@@QAE@ABU?$less@V?$basic_string@DU?$char_traits@D@std@@V?$allocator@D@2@@std@@@1@$$QAV?$allocator@U?$_Tree_node@U?$pair@$$CBV?$basic_string@DU?$char_traits@D@std@@V?$allocator@D@2@@std@@PAVxSprite@GRAPHICGDI@NMBASE@@@std@@PAX@std@@@1@@Z 100c1570 f i NMButton.obj
 0002:00053600       ??$?0V?$allocator@U?$_Tree_node@U?$pair@$$CBV?$basic_string@DU?$char_traits@D@std@@V?$allocator@D@2@@std@@V12@@std@@PAX@std@@@std@@$$V@?$_Compressed_pair@V?$allocator@U?$_Tree_node@U?$pair@$$CBV?$basic_string@DU?$char_traits@D@std@@V?$allocator@D@2@@std@@V12@@std@@PAX@std@@@std@@V?$_Tree_val@U?$_Tree_simple_types@U?$pair@$$CBV?$basic_string@DU?$char_traits@D@std@@V?$allocator@D@2@@std@@V12@@std@@@std@@@2@$00@std@@QAE@U_One_then_variadic_args_t@1@$$QAV?$allocator@U?$_Tree_node@U?$pair@$$CBV?$basic_string@DU?$char_traits@D@std@@V?$allocator@D@2@@std@@V12@@std@@PAX@std@@@1@@Z 100c1600 f i NMButton.obj
 0002:00053670       ??$?0V?$allocator@U?$_Tree_node@U?$pair@$$CBV?$basic_string@DU?$char_traits@D@std@@V?$allocator@D@2@@std@@V12@@std@@PAX@std@@@std@@@?$_Tree@V?$_Tmap_traits@V?$basic_string@DU?$char_traits@D@std@@V?$allocator@D@2@@std@@V12@U?$less@V?$basic_string@DU?$char_traits@D@std@@V?$allocator@D@2@@std@@@2@V?$allocator@U?$pair@$$CBV?$basic_string@DU?$char_traits@D@std@@V?$allocator@D@2@@std@@V12@@std@@@2@$00@std@@@std@@QAE@ABV01@$$QAV?$allocator@U?$_Tree_node@U?$pair@$$CBV?$basic_string@DU?$char_traits@D@std@@V?$allocator@D@2@@std@@V12@@std@@PAX@std@@@1@@Z 100c1670 f i NMButton.obj
 0002:00053790       ??$?0V?$allocator@U?$_Tree_node@U?$pair@$$CBV?$basic_string@DU?$char_traits@D@std@@V?$allocator@D@2@@std@@V12@@std@@PAX@std@@@std@@X@?$_Tree_comp_alloc@V?$_Tmap_traits@V?$basic_string@DU?$char_traits@D@std@@V?$allocator@D@2@@std@@V12@U?$less@V?$basic_string@DU?$char_traits@D@std@@V?$allocator@D@2@@std@@@2@V?$allocator@U?$pair@$$CBV?$basic_string@DU?$char_traits@D@std@@V?$allocator@D@2@@std@@V12@@std@@@2@$00@std@@@std@@QAE@ABU?$less@V?$basic_string@DU?$char_traits@D@std@@V?$allocator@D@2@@std@@@1@$$QAV?$allocator@U?$_Tree_node@U?$pair@$$CBV?$basic_string@DU?$char_traits@D@std@@V?$allocator@D@2@@std@@V12@@std@@PAX@std@@@1@@Z 100c1790 f i NMButton.obj
 0002:00053820       ??$_Adl_verify_range1@PAPAVINMWidget@SKINGDI@NMBASE@@PAPAV123@@std@@YAXABQAPAVINMWidget@SKINGDI@NMBASE@@0U?$integral_constant@_N$00@0@@Z 100c1820 f i NMButton.obj
 0002:00053880       ??$_Adl_verify_range1@V?$_List_const_iterator@V?$_List_val@U?$_List_simple_types@UtagPLAY_DATA@CNMAudioMananger@SKINGDI@NMBASE@@@std@@@std@@@std@@V12@@std@@YAXABV?$_List_const_iterator@V?$_List_val@U?$_List_simple_types@UtagPLAY_DATA@CNMAudioMananger@SKINGDI@NMBASE@@@std@@@std@@@0@0U?$integral_constant@_N$00@0@@Z 100c1880 f i NMButton.obj
 0002:000538e0       ??$_Adl_verify_range@PAPAVINMWidget@SKINGDI@NMBASE@@PAPAV123@@std@@YAXABQAPAVINMWidget@SKINGDI@NMBASE@@0@Z 100c18e0 f i NMButton.obj
 0002:00053950       ??$_Adl_verify_range@V?$_List_const_iterator@V?$_List_val@U?$_List_simple_types@UtagPLAY_DATA@CNMAudioMananger@SKINGDI@NMBASE@@@std@@@std@@@std@@V12@@std@@YAXABV?$_List_const_iterator@V?$_List_val@U?$_List_simple_types@UtagPLAY_DATA@CNMAudioMananger@SKINGDI@NMBASE@@@std@@@std@@@0@0@Z 100c1950 f i NMButton.obj
 0002:000539c0       ??$_Advance1@PAPAVINMWidget@SKINGDI@NMBASE@@H@std@@YAXAAPAPAVINMWidget@SKINGDI@NMBASE@@HUrandom_access_iterator_tag@0@@Z 100c19c0 f i NMButton.obj
 0002:00053a10       ??$_Assign_range@PAPAVINMWidget@SKINGDI@NMBASE@@@?$vector@PAVINMWidget@SKINGDI@NMBASE@@V?$allocator@PAVINMWidget@SKINGDI@NMBASE@@@std@@@std@@AAEXPAPAVINMWidget@SKINGDI@NMBASE@@0Uforward_iterator_tag@1@@Z 100c1a10 f i NMButton.obj
 0002:00053c60       ??$_Buynode@AAU?$pair@$$CBHPAVINMWidget@SKINGDI@NMBASE@@@std@@@?$_Tree_comp_alloc@V?$_Tmap_traits@HPAVINMWidget@SKINGDI@NMBASE@@U?$less@H@std@@V?$allocator@U?$pair@$$CBHPAVINMWidget@SKINGDI@NMBASE@@@std@@@5@$0A@@std@@@std@@QAEPAU?$_Tree_node@U?$pair@$$CBHPAVINMWidget@SKINGDI@NMBASE@@@std@@PAX@1@AAU?$pair@$$CBHPAVINMWidget@SKINGDI@NMBASE@@@1@@Z 100c1c60 f i NMButton.obj
 0002:00053d80       ??$_Buynode@AAU?$pair@$$CBV?$basic_string@DU?$char_traits@D@std@@V?$allocator@D@2@@std@@PAVxSprite@GRAPHICGDI@NMBASE@@@std@@@?$_Tree_comp_alloc@V?$_Tmap_traits@V?$basic_string@DU?$char_traits@D@std@@V?$allocator@D@2@@std@@PAVxSprite@GRAPHICGDI@NMBASE@@U?$less@V?$basic_string@DU?$char_traits@D@std@@V?$allocator@D@2@@std@@@2@V?$allocator@U?$pair@$$CBV?$basic_string@DU?$char_traits@D@std@@V?$allocator@D@2@@std@@PAVxSprite@GRAPHICGDI@NMBASE@@@std@@@2@$0A@@std@@@std@@QAEPAU?$_Tree_node@U?$pair@$$CBV?$basic_string@DU?$char_traits@D@std@@V?$allocator@D@2@@std@@PAVxSprite@GRAPHICGDI@NMBASE@@@std@@PAX@1@AAU?$pair@$$CBV?$basic_string@DU?$char_traits@D@std@@V?$allocator@D@2@@std@@PAVxSprite@GRAPHICGDI@NMBASE@@@1@@Z 100c1d80 f i NMButton.obj
 0002:00053ea0       ??$_Buynode@AAU?$pair@$$CBV?$basic_string@DU?$char_traits@D@std@@V?$allocator@D@2@@std@@V12@@std@@@?$_Tree_comp_alloc@V?$_Tmap_traits@V?$basic_string@DU?$char_traits@D@std@@V?$allocator@D@2@@std@@V12@U?$less@V?$basic_string@DU?$char_traits@D@std@@V?$allocator@D@2@@std@@@2@V?$allocator@U?$pair@$$CBV?$basic_string@DU?$char_traits@D@std@@V?$allocator@D@2@@std@@V12@@std@@@2@$00@std@@@std@@QAEPAU?$_Tree_node@U?$pair@$$CBV?$basic_string@DU?$char_traits@D@std@@V?$allocator@D@2@@std@@V12@@std@@PAX@1@AAU?$pair@$$CBV?$basic_string@DU?$char_traits@D@std@@V?$allocator@D@2@@std@@V12@@1@@Z 100c1ea0 f i NMButton.obj
 0002:00053fc0       ??$_Buynode@ABUtagPLAY_DATA@CNMAudioMananger@SKINGDI@NMBASE@@@?$_List_buy@UtagPLAY_DATA@CNMAudioMananger@SKINGDI@NMBASE@@V?$allocator@UtagPLAY_DATA@CNMAudioMananger@SKINGDI@NMBASE@@@std@@@std@@QAEPAU?$_List_node@UtagPLAY_DATA@CNMAudioMananger@SKINGDI@NMBASE@@PAX@1@PAU21@0ABUtagPLAY_DATA@CNMAudioMananger@SKINGDI@NMBASE@@@Z 100c1fc0 f i NMButton.obj
 0002:000540e0       ??$_Convert_size@I@std@@YAII@Z 100c20e0 f i NMButton.obj
 0002:00054120       ??$_Copy@U_Copy_tag@?$_Tree@V?$_Tmap_traits@HPAVINMWidget@SKINGDI@NMBASE@@U?$less@H@std@@V?$allocator@U?$pair@$$CBHPAVINMWidget@SKINGDI@NMBASE@@@std@@@5@$0A@@std@@@std@@@?$_Tree@V?$_Tmap_traits@HPAVINMWidget@SKINGDI@NMBASE@@U?$less@H@std@@V?$allocator@U?$pair@$$CBHPAVINMWidget@SKINGDI@NMBASE@@@std@@@5@$0A@@std@@@std@@IAEXABV01@U_Copy_tag@01@@Z 100c2120 f i NMButton.obj
 0002:00054260       ??$_Copy@U_Copy_tag@?$_Tree@V?$_Tmap_traits@V?$basic_string@DU?$char_traits@D@std@@V?$allocator@D@2@@std@@PAVxSprite@GRAPHICGDI@NMBASE@@U?$less@V?$basic_string@DU?$char_traits@D@std@@V?$allocator@D@2@@std@@@2@V?$allocator@U?$pair@$$CBV?$basic_string@DU?$char_traits@D@std@@V?$allocator@D@2@@std@@PAVxSprite@GRAPHICGDI@NMBASE@@@std@@@2@$0A@@std@@@std@@@?$_Tree@V?$_Tmap_traits@V?$basic_string@DU?$char_traits@D@std@@V?$allocator@D@2@@std@@PAVxSprite@GRAPHICGDI@NMBASE@@U?$less@V?$basic_string@DU?$char_traits@D@std@@V?$allocator@D@2@@std@@@2@V?$allocator@U?$pair@$$CBV?$basic_string@DU?$char_traits@D@std@@V?$allocator@D@2@@std@@PAVxSprite@GRAPHICGDI@NMBASE@@@std@@@2@$0A@@std@@@std@@IAEXABV01@U_Copy_tag@01@@Z 100c2260 f i NMButton.obj
 0002:000543a0       ??$_Copy@U_Copy_tag@?$_Tree@V?$_Tmap_traits@V?$basic_string@DU?$char_traits@D@std@@V?$allocator@D@2@@std@@V12@U?$less@V?$basic_string@DU?$char_traits@D@std@@V?$allocator@D@2@@std@@@2@V?$allocator@U?$pair@$$CBV?$basic_string@DU?$char_traits@D@std@@V?$allocator@D@2@@std@@V12@@std@@@2@$00@std@@@std@@@?$_Tree@V?$_Tmap_traits@V?$basic_string@DU?$char_traits@D@std@@V?$allocator@D@2@@std@@V12@U?$less@V?$basic_string@DU?$char_traits@D@std@@V?$allocator@D@2@@std@@@2@V?$allocator@U?$pair@$$CBV?$basic_string@DU?$char_traits@D@std@@V?$allocator@D@2@@std@@V12@@std@@@2@$00@std@@@std@@IAEXABV01@U_Copy_tag@01@@Z 100c23a0 f i NMButton.obj
 0002:000544e0       ??$_Copy_memmove@PAPAVINMWidget@SKINGDI@NMBASE@@PAPAV123@@std@@YAPAPAVINMWidget@SKINGDI@NMBASE@@PAPAV123@00@Z 100c24e0 f i NMButton.obj
 0002:00054560       ??$_Copy_nodes@U_Copy_tag@?$_Tree@V?$_Tmap_traits@HPAVINMWidget@SKINGDI@NMBASE@@U?$less@H@std@@V?$allocator@U?$pair@$$CBHPAVINMWidget@SKINGDI@NMBASE@@@std@@@5@$0A@@std@@@std@@@?$_Tree@V?$_Tmap_traits@HPAVINMWidget@SKINGDI@NMBASE@@U?$less@H@std@@V?$allocator@U?$pair@$$CBHPAVINMWidget@SKINGDI@NMBASE@@@std@@@5@$0A@@std@@@std@@IAEPAU?$_Tree_node@U?$pair@$$CBHPAVINMWidget@SKINGDI@NMBASE@@@std@@PAX@1@PAU21@0U_Copy_tag@01@@Z 100c2560 f i NMButton.obj
 0002:00054740       ??$_Copy_nodes@U_Copy_tag@?$_Tree@V?$_Tmap_traits@V?$basic_string@DU?$char_traits@D@std@@V?$allocator@D@2@@std@@PAVxSprite@GRAPHICGDI@NMBASE@@U?$less@V?$basic_string@DU?$char_traits@D@std@@V?$allocator@D@2@@std@@@2@V?$allocator@U?$pair@$$CBV?$basic_string@DU?$char_traits@D@std@@V?$allocator@D@2@@std@@PAVxSprite@GRAPHICGDI@NMBASE@@@std@@@2@$0A@@std@@@std@@@?$_Tree@V?$_Tmap_traits@V?$basic_string@DU?$char_traits@D@std@@V?$allocator@D@2@@std@@PAVxSprite@GRAPHICGDI@NMBASE@@U?$less@V?$basic_string@DU?$char_traits@D@std@@V?$allocator@D@2@@std@@@2@V?$allocator@U?$pair@$$CBV?$basic_string@DU?$char_traits@D@std@@V?$allocator@D@2@@std@@PAVxSprite@GRAPHICGDI@NMBASE@@@std@@@2@$0A@@std@@@std@@IAEPAU?$_Tree_node@U?$pair@$$CBV?$basic_string@DU?$char_traits@D@std@@V?$allocator@D@2@@std@@PAVxSprite@GRAPHICGDI@NMBASE@@@std@@PAX@1@PAU21@0U_Copy_tag@01@@Z 100c2740 f i NMButton.obj
 0002:00054920       ??$_Copy_nodes@U_Copy_tag@?$_Tree@V?$_Tmap_traits@V?$basic_string@DU?$char_traits@D@std@@V?$allocator@D@2@@std@@V12@U?$less@V?$basic_string@DU?$char_traits@D@std@@V?$allocator@D@2@@std@@@2@V?$allocator@U?$pair@$$CBV?$basic_string@DU?$char_traits@D@std@@V?$allocator@D@2@@std@@V12@@std@@@2@$00@std@@@std@@@?$_Tree@V?$_Tmap_traits@V?$basic_string@DU?$char_traits@D@std@@V?$allocator@D@2@@std@@V12@U?$less@V?$basic_string@DU?$char_traits@D@std@@V?$allocator@D@2@@std@@@2@V?$allocator@U?$pair@$$CBV?$basic_string@DU?$char_traits@D@std@@V?$allocator@D@2@@std@@V12@@std@@@2@$00@std@@@std@@IAEPAU?$_Tree_node@U?$pair@$$CBV?$basic_string@DU?$char_traits@D@std@@V?$allocator@D@2@@std@@V12@@std@@PAX@1@PAU21@0U_Copy_tag@01@@Z 100c2920 f i NMButton.obj
 0002:00054b00       ??$_Copy_or_move@U?$pair@$$CBHPAVINMWidget@SKINGDI@NMBASE@@@std@@U?$integral_constant@_N$0A@@2@@?$_Tree@V?$_Tmap_traits@HPAVINMWidget@SKINGDI@NMBASE@@U?$less@H@std@@V?$allocator@U?$pair@$$CBHPAVINMWidget@SKINGDI@NMBASE@@@std@@@5@$0A@@std@@@std@@IAEPAU?$_Tree_node@U?$pair@$$CBHPAVINMWidget@SKINGDI@NMBASE@@@std@@PAX@1@AAU?$pair@$$CBHPAVINMWidget@SKINGDI@NMBASE@@@1@U_Copy_tag@01@U?$integral_constant@_N$0A@@1@@Z 100c2b00 f i NMButton.obj
 0002:00054b60       ??$_Copy_or_move@U?$pair@$$CBV?$basic_string@DU?$char_traits@D@std@@V?$allocator@D@2@@std@@PAVxSprite@GRAPHICGDI@NMBASE@@@std@@U?$integral_constant@_N$0A@@2@@?$_Tree@V?$_Tmap_traits@V?$basic_string@DU?$char_traits@D@std@@V?$allocator@D@2@@std@@PAVxSprite@GRAPHICGDI@NMBASE@@U?$less@V?$basic_string@DU?$char_traits@D@std@@V?$allocator@D@2@@std@@@2@V?$allocator@U?$pair@$$CBV?$basic_string@DU?$char_traits@D@std@@V?$allocator@D@2@@std@@PAVxSprite@GRAPHICGDI@NMBASE@@@std@@@2@$0A@@std@@@std@@IAEPAU?$_Tree_node@U?$pair@$$CBV?$basic_string@DU?$char_traits@D@std@@V?$allocator@D@2@@std@@PAVxSprite@GRAPHICGDI@NMBASE@@@std@@PAX@1@AAU?$pair@$$CBV?$basic_string@DU?$char_traits@D@std@@V?$allocator@D@2@@std@@PAVxSprite@GRAPHICGDI@NMBASE@@@1@U_Copy_tag@01@U?$integral_constant@_N$0A@@1@@Z 100c2b60 f i NMButton.obj
 0002:00054bc0       ??$_Copy_or_move@U?$pair@$$CBV?$basic_string@DU?$char_traits@D@std@@V?$allocator@D@2@@std@@V12@@std@@U?$integral_constant@_N$0A@@2@@?$_Tree@V?$_Tmap_traits@V?$basic_string@DU?$char_traits@D@std@@V?$allocator@D@2@@std@@V12@U?$less@V?$basic_string@DU?$char_traits@D@std@@V?$allocator@D@2@@std@@@2@V?$allocator@U?$pair@$$CBV?$basic_string@DU?$char_traits@D@std@@V?$allocator@D@2@@std@@V12@@std@@@2@$00@std@@@std@@IAEPAU?$_Tree_node@U?$pair@$$CBV?$basic_string@DU?$char_traits@D@std@@V?$allocator@D@2@@std@@V12@@std@@PAX@1@AAU?$pair@$$CBV?$basic_string@DU?$char_traits@D@std@@V?$allocator@D@2@@std@@V12@@1@U_Copy_tag@01@U?$integral_constant@_N$0A@@1@@Z 100c2bc0 f i NMButton.obj
 0002:00054c20       ??$_Copy_unchecked1@PAPAVINMWidget@SKINGDI@NMBASE@@PAPAV123@@std@@YAPAPAVINMWidget@SKINGDI@NMBASE@@PAPAV123@00U_Trivially_copyable_ptr_iterator_tag@0@@Z 100c2c20 f i NMButton.obj
 0002:00054c80       ??$_Copy_unchecked@PAPAVINMWidget@SKINGDI@NMBASE@@PAPAV123@@std@@YAPAPAVINMWidget@SKINGDI@NMBASE@@PAPAV123@00@Z 100c2c80 f i NMButton.obj
 0002:00054d00       ??$_Destroy_range1@V?$allocator@PAVINMWidget@SKINGDI@NMBASE@@@std@@@std@@YAXPAPAVINMWidget@SKINGDI@NMBASE@@0AAV?$allocator@PAVINMWidget@SKINGDI@NMBASE@@@0@U?$integral_constant@_N$00@0@@Z 100c2d00 f i NMButton.obj
 0002:00054d30       ??$_Destroy_range@V?$allocator@PAVINMWidget@SKINGDI@NMBASE@@@std@@@std@@YAXPAPAVINMWidget@SKINGDI@NMBASE@@0AAV?$allocator@PAVINMWidget@SKINGDI@NMBASE@@@0@@Z 100c2d30 f i NMButton.obj
 0002:00054da0       ??$_Distance1@PAPAVINMWidget@SKINGDI@NMBASE@@@std@@YAHPAPAVINMWidget@SKINGDI@NMBASE@@0Urandom_access_iterator_tag@0@@Z 100c2da0 f i NMButton.obj
 0002:00054de0       ??$_Freenode0@V?$allocator@U?$_List_node@UtagPLAY_DATA@CNMAudioMananger@SKINGDI@NMBASE@@PAX@std@@@std@@@?$_List_node@UtagPLAY_DATA@CNMAudioMananger@SKINGDI@NMBASE@@PAX@std@@SAXAAV?$allocator@U?$_List_node@UtagPLAY_DATA@CNMAudioMananger@SKINGDI@NMBASE@@PAX@std@@@1@PAU01@@Z 100c2de0 f i NMButton.obj
 0002:00054ef0       ??$_Freenode0@V?$allocator@U?$_Tree_node@U?$pair@$$CBHPAVINMWidget@SKINGDI@NMBASE@@@std@@PAX@std@@@std@@@?$_Tree_node@U?$pair@$$CBHPAVINMWidget@SKINGDI@NMBASE@@@std@@PAX@std@@SAXAAV?$allocator@U?$_Tree_node@U?$pair@$$CBHPAVINMWidget@SKINGDI@NMBASE@@@std@@PAX@std@@@1@PAU01@@Z 100c2ef0 f i NMButton.obj
 0002:00055020       ??$_Freenode0@V?$allocator@U?$_Tree_node@U?$pair@$$CBV?$basic_string@DU?$char_traits@D@std@@V?$allocator@D@2@@std@@PAVxSprite@GRAPHICGDI@NMBASE@@@std@@PAX@std@@@std@@@?$_Tree_node@U?$pair@$$CBV?$basic_string@DU?$char_traits@D@std@@V?$allocator@D@2@@std@@PAVxSprite@GRAPHICGDI@NMBASE@@@std@@PAX@std@@SAXAAV?$allocator@U?$_Tree_node@U?$pair@$$CBV?$basic_string@DU?$char_traits@D@std@@V?$allocator@D@2@@std@@PAVxSprite@GRAPHICGDI@NMBASE@@@std@@PAX@std@@@1@PAU01@@Z 100c3020 f i NMButton.obj
 0002:00055150       ??$_Freenode0@V?$allocator@U?$_Tree_node@U?$pair@$$CBV?$basic_string@DU?$char_traits@D@std@@V?$allocator@D@2@@std@@V12@@std@@PAX@std@@@std@@@?$_Tree_node@U?$pair@$$CBV?$basic_string@DU?$char_traits@D@std@@V?$allocator@D@2@@std@@V12@@std@@PAX@std@@SAXAAV?$allocator@U?$_Tree_node@U?$pair@$$CBV?$basic_string@DU?$char_traits@D@std@@V?$allocator@D@2@@std@@V12@@std@@PAX@std@@@1@PAU01@@Z 100c3150 f i NMButton.obj
 0002:00055280       ??$_Get_size_of_n@$00@std@@YAII@Z 100c3280 f i NMButton.obj
 0002:000552c0       ??$_Get_size_of_n@$03@std@@YAII@Z 100c32c0 f i NMButton.obj
 0002:00055320       ??$_Get_size_of_n@$0DA@@std@@YAII@Z 100c3320 f i NMButton.obj
 0002:00055380       ??$_Get_size_of_n@$0EI@@std@@YAII@Z 100c3380 f i NMButton.obj
 0002:000553e0       ??$_Get_unwrapped@PAVINMWidget@SKINGDI@NMBASE@@@std@@YAPAPAVINMWidget@SKINGDI@NMBASE@@QAPAV123@@Z 100c33e0 f i NMButton.obj
 0002:00055420       ??$_Get_unwrapped@V?$_List_const_iterator@V?$_List_val@U?$_List_simple_types@UtagPLAY_DATA@CNMAudioMananger@SKINGDI@NMBASE@@@std@@@std@@@std@@$0A@@std@@YA@ABV?$_List_const_iterator@V?$_List_val@U?$_List_simple_types@UtagPLAY_DATA@CNMAudioMananger@SKINGDI@NMBASE@@@std@@@std@@@0@@Z 100c3420 f i NMButton.obj
 0002:00055480       ??$_Get_unwrapped_n@PAVINMWidget@SKINGDI@NMBASE@@H$0A@@std@@YAPAPAVINMWidget@SKINGDI@NMBASE@@QAPAV123@H@Z 100c3480 f i NMButton.obj
 0002:000554c0       ??$_Idl_distance1@PAPAVINMWidget@SKINGDI@NMBASE@@PAPAV123@@std@@YAHABQAPAVINMWidget@SKINGDI@NMBASE@@0Urandom_access_iterator_tag@0@@Z 100c34c0 f i NMButton.obj
 0002:00055500       ??$_Idl_distance@PAPAVINMWidget@SKINGDI@NMBASE@@PAPAV123@@std@@YA@ABQAPAVINMWidget@SKINGDI@NMBASE@@0@Z 100c3500 f i NMButton.obj
 0002:00055560       ??$_Insert@ABUtagPLAY_DATA@CNMAudioMananger@SKINGDI@NMBASE@@@?$list@UtagPLAY_DATA@CNMAudioMananger@SKINGDI@NMBASE@@V?$allocator@UtagPLAY_DATA@CNMAudioMananger@SKINGDI@NMBASE@@@std@@@std@@QAEXV?$_List_unchecked_const_iterator@V?$_List_val@U?$_List_simple_types@UtagPLAY_DATA@CNMAudioMananger@SKINGDI@NMBASE@@@std@@@std@@U_Iterator_base0@2@@1@ABUtagPLAY_DATA@CNMAudioMananger@SKINGDI@NMBASE@@@Z 100c3560 f i NMButton.obj
 0002:00055610       ??$_Insert_range@V?$_List_const_iterator@V?$_List_val@U?$_List_simple_types@UtagPLAY_DATA@CNMAudioMananger@SKINGDI@NMBASE@@@std@@@std@@@std@@@?$list@UtagPLAY_DATA@CNMAudioMananger@SKINGDI@NMBASE@@V?$allocator@UtagPLAY_DATA@CNMAudioMananger@SKINGDI@NMBASE@@@std@@@std@@QAEXV?$_List_unchecked_const_iterator@V?$_List_val@U?$_List_simple_types@UtagPLAY_DATA@CNMAudioMananger@SKINGDI@NMBASE@@@std@@@std@@U_Iterator_base0@2@@1@V?$_List_const_iterator@V?$_List_val@U?$_List_simple_types@UtagPLAY_DATA@CNMAudioMananger@SKINGDI@NMBASE@@@std@@@std@@@1@1Uforward_iterator_tag@1@@Z 100c3610 f i NMButton.obj
 0002:00055860       ??$_Max_value@I@std@@YAABIABI0@Z 100c3860 f i NMButton.obj
 0002:000558d0       ??$_Pocca@V?$allocator@D@std@@@std@@YAXAAV?$allocator@D@0@ABV10@@Z 100c38d0 f i NMButton.obj
 0002:00055960       ??$_Pocca@V?$allocator@D@std@@@std@@YAXAAV?$allocator@D@0@ABV10@U?$integral_constant@_N$0A@@0@@Z 100c3960 f i NMButton.obj
 0002:00055990       ??$_Pocca@V?$allocator@PAVINMWidget@SKINGDI@NMBASE@@@std@@@std@@YAXAAV?$allocator@PAVINMWidget@SKINGDI@NMBASE@@@0@ABV10@@Z 100c3990 f i NMButton.obj
 0002:00055a20       ??$_Pocca@V?$allocator@PAVINMWidget@SKINGDI@NMBASE@@@std@@@std@@YAXAAV?$allocator@PAVINMWidget@SKINGDI@NMBASE@@@0@ABV10@U?$integral_constant@_N$0A@@0@@Z 100c3a20 f i NMButton.obj
 0002:00055a50       ??$_Pocca@V?$allocator@U?$_List_node@UtagPLAY_DATA@CNMAudioMananger@SKINGDI@NMBASE@@PAX@std@@@std@@@std@@YAXAAV?$allocator@U?$_List_node@UtagPLAY_DATA@CNMAudioMananger@SKINGDI@NMBASE@@PAX@std@@@0@ABV10@@Z 100c3a50 f i NMButton.obj
 0002:00055ae0       ??$_Pocca@V?$allocator@U?$_List_node@UtagPLAY_DATA@CNMAudioMananger@SKINGDI@NMBASE@@PAX@std@@@std@@@std@@YAXAAV?$allocator@U?$_List_node@UtagPLAY_DATA@CNMAudioMananger@SKINGDI@NMBASE@@PAX@std@@@0@ABV10@U?$integral_constant@_N$0A@@0@@Z 100c3ae0 f i NMButton.obj
 0002:00055b10       ??$_Pocca@V?$allocator@U?$_Tree_node@U?$pair@$$CBHPAVINMWidget@SKINGDI@NMBASE@@@std@@PAX@std@@@std@@@std@@YAXAAV?$allocator@U?$_Tree_node@U?$pair@$$CBHPAVINMWidget@SKINGDI@NMBASE@@@std@@PAX@std@@@0@ABV10@@Z 100c3b10 f i NMButton.obj
 0002:00055ba0       ??$_Pocca@V?$allocator@U?$_Tree_node@U?$pair@$$CBHPAVINMWidget@SKINGDI@NMBASE@@@std@@PAX@std@@@std@@@std@@YAXAAV?$allocator@U?$_Tree_node@U?$pair@$$CBHPAVINMWidget@SKINGDI@NMBASE@@@std@@PAX@std@@@0@ABV10@U?$integral_constant@_N$0A@@0@@Z 100c3ba0 f i NMButton.obj
 0002:00055bd0       ??$_Pocca@V?$allocator@U?$_Tree_node@U?$pair@$$CBV?$basic_string@DU?$char_traits@D@std@@V?$allocator@D@2@@std@@PAVxSprite@GRAPHICGDI@NMBASE@@@std@@PAX@std@@@std@@@std@@YAXAAV?$allocator@U?$_Tree_node@U?$pair@$$CBV?$basic_string@DU?$char_traits@D@std@@V?$allocator@D@2@@std@@PAVxSprite@GRAPHICGDI@NMBASE@@@std@@PAX@std@@@0@ABV10@@Z 100c3bd0 f i NMButton.obj
 0002:00055c60       ??$_Pocca@V?$allocator@U?$_Tree_node@U?$pair@$$CBV?$basic_string@DU?$char_traits@D@std@@V?$allocator@D@2@@std@@PAVxSprite@GRAPHICGDI@NMBASE@@@std@@PAX@std@@@std@@@std@@YAXAAV?$allocator@U?$_Tree_node@U?$pair@$$CBV?$basic_string@DU?$char_traits@D@std@@V?$allocator@D@2@@std@@PAVxSprite@GRAPHICGDI@NMBASE@@@std@@PAX@std@@@0@ABV10@U?$integral_constant@_N$0A@@0@@Z 100c3c60 f i NMButton.obj
 0002:00055c90       ??$_Pocca@V?$allocator@U?$_Tree_node@U?$pair@$$CBV?$basic_string@DU?$char_traits@D@std@@V?$allocator@D@2@@std@@V12@@std@@PAX@std@@@std@@@std@@YAXAAV?$allocator@U?$_Tree_node@U?$pair@$$CBV?$basic_string@DU?$char_traits@D@std@@V?$allocator@D@2@@std@@V12@@std@@PAX@std@@@0@ABV10@@Z 100c3c90 f i NMButton.obj
 0002:00055d20       ??$_Pocca@V?$allocator@U?$_Tree_node@U?$pair@$$CBV?$basic_string@DU?$char_traits@D@std@@V?$allocator@D@2@@std@@V12@@std@@PAX@std@@@std@@@std@@YAXAAV?$allocator@U?$_Tree_node@U?$pair@$$CBV?$basic_string@DU?$char_traits@D@std@@V?$allocator@D@2@@std@@V12@@std@@PAX@std@@@0@ABV10@U?$integral_constant@_N$0A@@0@@Z 100c3d20 f i NMButton.obj
 0002:00055d50       ??$_Ptr_copy_cat@PAVINMWidget@SKINGDI@NMBASE@@PAV123@@std@@YA?AU_Really_trivial_ptr_iterator_tag@0@ABQAPAVINMWidget@SKINGDI@NMBASE@@0@Z 100c3d50 f i NMButton.obj
 0002:00055d90       ??$_Reallocate_for@V<lambda_9366063389c5f42a00a5088cf24e69de>@@PBD@?$basic_string@DU?$char_traits@D@std@@V?$allocator@D@2@@std@@QAEAAV01@IV<lambda_9366063389c5f42a00a5088cf24e69de>@@PBD@Z 100c3d90 f i NMButton.obj
 0002:00055f20       ??$_Reusenode@ABUtagPLAY_DATA@CNMAudioMananger@SKINGDI@NMBASE@@@?$list@UtagPLAY_DATA@CNMAudioMananger@SKINGDI@NMBASE@@V?$allocator@UtagPLAY_DATA@CNMAudioMananger@SKINGDI@NMBASE@@@std@@@std@@QAEXV?$_List_iterator@V?$_List_val@U?$_List_simple_types@UtagPLAY_DATA@CNMAudioMananger@SKINGDI@NMBASE@@@std@@@std@@@1@ABUtagPLAY_DATA@CNMAudioMananger@SKINGDI@NMBASE@@@Z 100c3f20 f i NMButton.obj
 0002:00056090       ??$_Seek_wrapped@PAVINMWidget@SKINGDI@NMBASE@@@std@@YAXAAPAPAVINMWidget@SKINGDI@NMBASE@@QAPAV123@@Z 100c4090 f i NMButton.obj
 0002:000560d0       ??$_Ucopy@PAPAVINMWidget@SKINGDI@NMBASE@@@?$vector@PAVINMWidget@SKINGDI@NMBASE@@V?$allocator@PAVINMWidget@SKINGDI@NMBASE@@@std@@@std@@AAEPAPAVINMWidget@SKINGDI@NMBASE@@PAPAV234@00@Z 100c40d0 f i NMButton.obj
 0002:00056140       ??$_Unfancy@D@std@@YAPADPAD@Z 100c4140 f i NMButton.obj
 0002:00056180       ??$_Uninitialized_copy@PAPAVINMWidget@SKINGDI@NMBASE@@PAPAV123@V?$allocator@PAVINMWidget@SKINGDI@NMBASE@@@std@@@std@@YAPAPAVINMWidget@SKINGDI@NMBASE@@QAPAV123@0PAPAV123@AAV?$allocator@PAVINMWidget@SKINGDI@NMBASE@@@0@@Z 100c4180 f i NMButton.obj
 0002:000562e0       ??$_Uninitialized_copy_al_unchecked@PAVINMWidget@SKINGDI@NMBASE@@PAV123@V?$allocator@PAVINMWidget@SKINGDI@NMBASE@@@std@@@std@@YAPAPAVINMWidget@SKINGDI@NMBASE@@QAPAV123@00AAV?$allocator@PAVINMWidget@SKINGDI@NMBASE@@@0@U_Really_trivial_ptr_iterator_tag@0@U?$integral_constant@_N$00@0@@Z 100c42e0 f i NMButton.obj
 0002:00056340       ??$_Verify_range@PAVINMWidget@SKINGDI@NMBASE@@@std@@YAXQBQAVINMWidget@SKINGDI@NMBASE@@0@Z 100c4340 f i NMButton.obj
 0002:00056410       ??$addressof@$$CBV?$_List_val@U?$_List_simple_types@UtagPLAY_DATA@CNMAudioMananger@SKINGDI@NMBASE@@@std@@@std@@@std@@YAPBV?$_List_val@U?$_List_simple_types@UtagPLAY_DATA@CNMAudioMananger@SKINGDI@NMBASE@@@std@@@0@ABV10@@Z 100c4410 f i NMButton.obj
 0002:00056450       ??$addressof@$$CBV?$_Tree@V?$_Tmap_traits@HPAVINMWidget@SKINGDI@NMBASE@@U?$less@H@std@@V?$allocator@U?$pair@$$CBHPAVINMWidget@SKINGDI@NMBASE@@@std@@@5@$0A@@std@@@std@@@std@@YAPBV?$_Tree@V?$_Tmap_traits@HPAVINMWidget@SKINGDI@NMBASE@@U?$less@H@std@@V?$allocator@U?$pair@$$CBHPAVINMWidget@SKINGDI@NMBASE@@@std@@@5@$0A@@std@@@0@ABV10@@Z 100c4450 f i NMButton.obj
 0002:00056490       ??$addressof@$$CBV?$_Tree@V?$_Tmap_traits@V?$basic_string@DU?$char_traits@D@std@@V?$allocator@D@2@@std@@PAVxSprite@GRAPHICGDI@NMBASE@@U?$less@V?$basic_string@DU?$char_traits@D@std@@V?$allocator@D@2@@std@@@2@V?$allocator@U?$pair@$$CBV?$basic_string@DU?$char_traits@D@std@@V?$allocator@D@2@@std@@PAVxSprite@GRAPHICGDI@NMBASE@@@std@@@2@$0A@@std@@@std@@@std@@YAPBV?$_Tree@V?$_Tmap_traits@V?$basic_string@DU?$char_traits@D@std@@V?$allocator@D@2@@std@@PAVxSprite@GRAPHICGDI@NMBASE@@U?$less@V?$basic_string@DU?$char_traits@D@std@@V?$allocator@D@2@@std@@@2@V?$allocator@U?$pair@$$CBV?$basic_string@DU?$char_traits@D@std@@V?$allocator@D@2@@std@@PAVxSprite@GRAPHICGDI@NMBASE@@@std@@@2@$0A@@std@@@0@ABV10@@Z 100c4490 f i NMButton.obj
 0002:000564d0       ??$addressof@$$CBV?$_Tree@V?$_Tmap_traits@V?$basic_string@DU?$char_traits@D@std@@V?$allocator@D@2@@std@@V12@U?$less@V?$basic_string@DU?$char_traits@D@std@@V?$allocator@D@2@@std@@@2@V?$allocator@U?$pair@$$CBV?$basic_string@DU?$char_traits@D@std@@V?$allocator@D@2@@std@@V12@@std@@@2@$00@std@@@std@@@std@@YAPBV?$_Tree@V?$_Tmap_traits@V?$basic_string@DU?$char_traits@D@std@@V?$allocator@D@2@@std@@V12@U?$less@V?$basic_string@DU?$char_traits@D@std@@V?$allocator@D@2@@std@@@2@V?$allocator@U?$pair@$$CBV?$basic_string@DU?$char_traits@D@std@@V?$allocator@D@2@@std@@V12@@std@@@2@$00@std@@@0@ABV10@@Z 100c44d0 f i NMButton.obj
 0002:00056510       ??$addressof@$$CBV?$basic_string@DU?$char_traits@D@std@@V?$allocator@D@2@@std@@@std@@YAPBV?$basic_string@DU?$char_traits@D@std@@V?$allocator@D@2@@0@ABV10@@Z 100c4510 f i NMButton.obj
 0002:00056550       ??$addressof@$$CBV?$list@UtagPLAY_DATA@CNMAudioMananger@SKINGDI@NMBASE@@V?$allocator@UtagPLAY_DATA@CNMAudioMananger@SKINGDI@NMBASE@@@std@@@std@@@std@@YAPBV?$list@UtagPLAY_DATA@CNMAudioMananger@SKINGDI@NMBASE@@V?$allocator@UtagPLAY_DATA@CNMAudioMananger@SKINGDI@NMBASE@@@std@@@0@ABV10@@Z 100c4550 f i NMButton.obj
 0002:00056590       ??$addressof@$$CBV?$vector@PAVINMWidget@SKINGDI@NMBASE@@V?$allocator@PAVINMWidget@SKINGDI@NMBASE@@@std@@@std@@@std@@YAPBV?$vector@PAVINMWidget@SKINGDI@NMBASE@@V?$allocator@PAVINMWidget@SKINGDI@NMBASE@@@std@@@0@ABV10@@Z 100c4590 f i NMButton.obj
 0002:000565d0       ??$addressof@PAD@std@@YAPAPADAAPAD@Z 100c45d0 f i NMButton.obj
 0002:00056610       ??$addressof@PAU?$_List_node@UtagPLAY_DATA@CNMAudioMananger@SKINGDI@NMBASE@@PAX@std@@@std@@YAPAPAU?$_List_node@UtagPLAY_DATA@CNMAudioMananger@SKINGDI@NMBASE@@PAX@0@AAPAU10@@Z 100c4610 f i NMButton.obj
 0002:00056650       ??$addressof@PAU?$_Tree_node@U?$pair@$$CBHPAVINMWidget@SKINGDI@NMBASE@@@std@@PAX@std@@@std@@YAPAPAU?$_Tree_node@U?$pair@$$CBHPAVINMWidget@SKINGDI@NMBASE@@@std@@PAX@0@AAPAU10@@Z 100c4650 f i NMButton.obj
 0002:00056690       ??$addressof@PAU?$_Tree_node@U?$pair@$$CBV?$basic_string@DU?$char_traits@D@std@@V?$allocator@D@2@@std@@PAVxSprite@GRAPHICGDI@NMBASE@@@std@@PAX@std@@@std@@YAPAPAU?$_Tree_node@U?$pair@$$CBV?$basic_string@DU?$char_traits@D@std@@V?$allocator@D@2@@std@@PAVxSprite@GRAPHICGDI@NMBASE@@@std@@PAX@0@AAPAU10@@Z 100c4690 f i NMButton.obj
 0002:000566d0       ??$addressof@PAU?$_Tree_node@U?$pair@$$CBV?$basic_string@DU?$char_traits@D@std@@V?$allocator@D@2@@std@@V12@@std@@PAX@std@@@std@@YAPAPAU?$_Tree_node@U?$pair@$$CBV?$basic_string@DU?$char_traits@D@std@@V?$allocator@D@2@@std@@V12@@std@@PAX@0@AAPAU10@@Z 100c46d0 f i NMButton.obj
 0002:00056710       ??$addressof@U?$pair@$$CBHPAVINMWidget@SKINGDI@NMBASE@@@std@@@std@@YAPAU?$pair@$$CBHPAVINMWidget@SKINGDI@NMBASE@@@0@AAU10@@Z 100c4710 f i NMButton.obj
 0002:00056750       ??$addressof@U?$pair@$$CBV?$basic_string@DU?$char_traits@D@std@@V?$allocator@D@2@@std@@PAVxSprite@GRAPHICGDI@NMBASE@@@std@@@std@@YAPAU?$pair@$$CBV?$basic_string@DU?$char_traits@D@std@@V?$allocator@D@2@@std@@PAVxSprite@GRAPHICGDI@NMBASE@@@0@AAU10@@Z 100c4750 f i NMButton.obj
 0002:00056790       ??$addressof@U?$pair@$$CBV?$basic_string@DU?$char_traits@D@std@@V?$allocator@D@2@@std@@V12@@std@@@std@@YAPAU?$pair@$$CBV?$basic_string@DU?$char_traits@D@std@@V?$allocator@D@2@@std@@V12@@0@AAU10@@Z 100c4790 f i NMButton.obj
 0002:000567d0       ??$addressof@UtagPLAY_DATA@CNMAudioMananger@SKINGDI@NMBASE@@@std@@YAPAUtagPLAY_DATA@CNMAudioMananger@SKINGDI@NMBASE@@AAU1234@@Z 100c47d0 f i NMButton.obj
 0002:00056810       ??$addressof@V?$_List_val@U?$_List_simple_types@UtagPLAY_DATA@CNMAudioMananger@SKINGDI@NMBASE@@@std@@@std@@@std@@YAPAV?$_List_val@U?$_List_simple_types@UtagPLAY_DATA@CNMAudioMananger@SKINGDI@NMBASE@@@std@@@0@AAV10@@Z 100c4810 f i NMButton.obj
 0002:00056850       ??$addressof@V?$_String_val@U?$_Simple_types@D@std@@@std@@@std@@YAPAV?$_String_val@U?$_Simple_types@D@std@@@0@AAV10@@Z 100c4850 f i NMButton.obj
 0002:00056890       ??$addressof@V?$_Tree_val@U?$_Tree_simple_types@U?$pair@$$CBHPAVINMWidget@SKINGDI@NMBASE@@@std@@@std@@@std@@@std@@YAPAV?$_Tree_val@U?$_Tree_simple_types@U?$pair@$$CBHPAVINMWidget@SKINGDI@NMBASE@@@std@@@std@@@0@AAV10@@Z 100c4890 f i NMButton.obj
 0002:000568d0       ??$addressof@V?$_Tree_val@U?$_Tree_simple_types@U?$pair@$$CBV?$basic_string@DU?$char_traits@D@std@@V?$allocator@D@2@@std@@PAVxSprite@GRAPHICGDI@NMBASE@@@std@@@std@@@std@@@std@@YAPAV?$_Tree_val@U?$_Tree_simple_types@U?$pair@$$CBV?$basic_string@DU?$char_traits@D@std@@V?$allocator@D@2@@std@@PAVxSprite@GRAPHICGDI@NMBASE@@@std@@@std@@@0@AAV10@@Z 100c48d0 f i NMButton.obj
 0002:00056910       ??$addressof@V?$_Tree_val@U?$_Tree_simple_types@U?$pair@$$CBV?$basic_string@DU?$char_traits@D@std@@V?$allocator@D@2@@std@@V12@@std@@@std@@@std@@@std@@YAPAV?$_Tree_val@U?$_Tree_simple_types@U?$pair@$$CBV?$basic_string@DU?$char_traits@D@std@@V?$allocator@D@2@@std@@V12@@std@@@std@@@0@AAV10@@Z 100c4910 f i NMButton.obj
 0002:00056950       ??$addressof@V?$_Vector_val@U?$_Simple_types@PAVINMWidget@SKINGDI@NMBASE@@@std@@@std@@@std@@YAPAV?$_Vector_val@U?$_Simple_types@PAVINMWidget@SKINGDI@NMBASE@@@std@@@0@AAV10@@Z 100c4950 f i NMButton.obj
 0002:00056990       ??$advance@PAPAVINMWidget@SKINGDI@NMBASE@@H@std@@YAXAAPAPAVINMWidget@SKINGDI@NMBASE@@H@Z 100c4990 f i NMButton.obj
 0002:000569f0       ??$assign@PAPAVINMWidget@SKINGDI@NMBASE@@X@?$vector@PAVINMWidget@SKINGDI@NMBASE@@V?$allocator@PAVINMWidget@SKINGDI@NMBASE@@@std@@@std@@QAEXPAPAVINMWidget@SKINGDI@NMBASE@@0@Z 100c49f0 f i NMButton.obj
 0002:00056a80       ??$assign@V?$_List_const_iterator@V?$_List_val@U?$_List_simple_types@UtagPLAY_DATA@CNMAudioMananger@SKINGDI@NMBASE@@@std@@@std@@@std@@X@?$list@UtagPLAY_DATA@CNMAudioMananger@SKINGDI@NMBASE@@V?$allocator@UtagPLAY_DATA@CNMAudioMananger@SKINGDI@NMBASE@@@std@@@std@@QAEXV?$_List_const_iterator@V?$_List_val@U?$_List_simple_types@UtagPLAY_DATA@CNMAudioMananger@SKINGDI@NMBASE@@@std@@@std@@@1@0@Z 100c4a80 f i NMButton.obj
 0002:00056e50       ??$construct@PADABQAD@?$_Default_allocator_traits@V?$allocator@D@std@@@std@@SAXAAV?$allocator@D@1@QAPADABQAD@Z 100c4e50 f i NMButton.obj
 0002:00056ed0       ??$construct@PAU?$_List_node@UtagPLAY_DATA@CNMAudioMananger@SKINGDI@NMBASE@@PAX@std@@AAPAU12@@?$_Default_allocator_traits@V?$allocator@U?$_List_node@UtagPLAY_DATA@CNMAudioMananger@SKINGDI@NMBASE@@PAX@std@@@std@@@std@@SAXAAV?$allocator@U?$_List_node@UtagPLAY_DATA@CNMAudioMananger@SKINGDI@NMBASE@@PAX@std@@@1@QAPAU?$_List_node@UtagPLAY_DATA@CNMAudioMananger@SKINGDI@NMBASE@@PAX@1@AAPAU31@@Z 100c4ed0 f i NMButton.obj
 0002:00056f50       ??$construct@PAU?$_Tree_node@U?$pair@$$CBHPAVINMWidget@SKINGDI@NMBASE@@@std@@PAX@std@@AAPAU12@@?$_Default_allocator_traits@V?$allocator@U?$_Tree_node@U?$pair@$$CBHPAVINMWidget@SKINGDI@NMBASE@@@std@@PAX@std@@@std@@@std@@SAXAAV?$allocator@U?$_Tree_node@U?$pair@$$CBHPAVINMWidget@SKINGDI@NMBASE@@@std@@PAX@std@@@1@QAPAU?$_Tree_node@U?$pair@$$CBHPAVINMWidget@SKINGDI@NMBASE@@@std@@PAX@1@AAPAU31@@Z 100c4f50 f i NMButton.obj
 0002:00056fd0       ??$construct@PAU?$_Tree_node@U?$pair@$$CBV?$basic_string@DU?$char_traits@D@std@@V?$allocator@D@2@@std@@PAVxSprite@GRAPHICGDI@NMBASE@@@std@@PAX@std@@AAPAU12@@?$_Default_allocator_traits@V?$allocator@U?$_Tree_node@U?$pair@$$CBV?$basic_string@DU?$char_traits@D@std@@V?$allocator@D@2@@std@@PAVxSprite@GRAPHICGDI@NMBASE@@@std@@PAX@std@@@std@@@std@@SAXAAV?$allocator@U?$_Tree_node@U?$pair@$$CBV?$basic_string@DU?$char_traits@D@std@@V?$allocator@D@2@@std@@PAVxSprite@GRAPHICGDI@NMBASE@@@std@@PAX@std@@@1@QAPAU?$_Tree_node@U?$pair@$$CBV?$basic_string@DU?$char_traits@D@std@@V?$allocator@D@2@@std@@PAVxSprite@GRAPHICGDI@NMBASE@@@std@@PAX@1@AAPAU31@@Z 100c4fd0 f i NMButton.obj
 0002:00057050       ??$construct@PAU?$_Tree_node@U?$pair@$$CBV?$basic_string@DU?$char_traits@D@std@@V?$allocator@D@2@@std@@V12@@std@@PAX@std@@AAPAU12@@?$_Default_allocator_traits@V?$allocator@U?$_Tree_node@U?$pair@$$CBV?$basic_string@DU?$char_traits@D@std@@V?$allocator@D@2@@std@@V12@@std@@PAX@std@@@std@@@std@@SAXAAV?$allocator@U?$_Tree_node@U?$pair@$$CBV?$basic_string@DU?$char_traits@D@std@@V?$allocator@D@2@@std@@V12@@std@@PAX@std@@@1@QAPAU?$_Tree_node@U?$pair@$$CBV?$basic_string@DU?$char_traits@D@std@@V?$allocator@D@2@@std@@V12@@std@@PAX@1@AAPAU31@@Z 100c5050 f i NMButton.obj
 0002:000570d0       ??$construct@U?$pair@$$CBHPAVINMWidget@SKINGDI@NMBASE@@@std@@AAU12@@?$_Default_allocator_traits@V?$allocator@U?$_Tree_node@U?$pair@$$CBHPAVINMWidget@SKINGDI@NMBASE@@@std@@PAX@std@@@std@@@std@@SAXAAV?$allocator@U?$_Tree_node@U?$pair@$$CBHPAVINMWidget@SKINGDI@NMBASE@@@std@@PAX@std@@@1@QAU?$pair@$$CBHPAVINMWidget@SKINGDI@NMBASE@@@1@AAU31@@Z 100c50d0 f i NMButton.obj
 0002:00057150       ??$construct@U?$pair@$$CBV?$basic_string@DU?$char_traits@D@std@@V?$allocator@D@2@@std@@PAVxSprite@GRAPHICGDI@NMBASE@@@std@@AAU12@@?$_Default_allocator_traits@V?$allocator@U?$_Tree_node@U?$pair@$$CBV?$basic_string@DU?$char_traits@D@std@@V?$allocator@D@2@@std@@PAVxSprite@GRAPHICGDI@NMBASE@@@std@@PAX@std@@@std@@@std@@SAXAAV?$allocator@U?$_Tree_node@U?$pair@$$CBV?$basic_string@DU?$char_traits@D@std@@V?$allocator@D@2@@std@@PAVxSprite@GRAPHICGDI@NMBASE@@@std@@PAX@std@@@1@QAU?$pair@$$CBV?$basic_string@DU?$char_traits@D@std@@V?$allocator@D@2@@std@@PAVxSprite@GRAPHICGDI@NMBASE@@@1@AAU31@@Z 100c5150 f i NMButton.obj
 0002:000571d0       ??$construct@U?$pair@$$CBV?$basic_string@DU?$char_traits@D@std@@V?$allocator@D@2@@std@@V12@@std@@AAU12@@?$_Default_allocator_traits@V?$allocator@U?$_Tree_node@U?$pair@$$CBV?$basic_string@DU?$char_traits@D@std@@V?$allocator@D@2@@std@@V12@@std@@PAX@std@@@std@@@std@@SAXAAV?$allocator@U?$_Tree_node@U?$pair@$$CBV?$basic_string@DU?$char_traits@D@std@@V?$allocator@D@2@@std@@V12@@std@@PAX@std@@@1@QAU?$pair@$$CBV?$basic_string@DU?$char_traits@D@std@@V?$allocator@D@2@@std@@V12@@1@AAU31@@Z 100c51d0 f i NMButton.obj
 0002:00057250       ??$construct@UtagPLAY_DATA@CNMAudioMananger@SKINGDI@NMBASE@@ABU1234@@?$_Default_allocator_traits@V?$allocator@U?$_List_node@UtagPLAY_DATA@CNMAudioMananger@SKINGDI@NMBASE@@PAX@std@@@std@@@std@@SAXAAV?$allocator@U?$_List_node@UtagPLAY_DATA@CNMAudioMananger@SKINGDI@NMBASE@@PAX@std@@@1@QAUtagPLAY_DATA@CNMAudioMananger@SKINGDI@NMBASE@@ABU3456@@Z 100c5250 f i NMButton.obj
 0002:000572d0       ??$destroy@PAD@?$_Default_allocator_traits@V?$allocator@D@std@@@std@@SAXAAV?$allocator@D@1@QAPAD@Z 100c52d0 f i NMButton.obj
 0002:00057300       ??$destroy@PAU?$_List_node@UtagPLAY_DATA@CNMAudioMananger@SKINGDI@NMBASE@@PAX@std@@@?$_Default_allocator_traits@V?$allocator@U?$_List_node@UtagPLAY_DATA@CNMAudioMananger@SKINGDI@NMBASE@@PAX@std@@@std@@@std@@SAXAAV?$allocator@U?$_List_node@UtagPLAY_DATA@CNMAudioMananger@SKINGDI@NMBASE@@PAX@std@@@1@QAPAU?$_List_node@UtagPLAY_DATA@CNMAudioMananger@SKINGDI@NMBASE@@PAX@1@@Z 100c5300 f i NMButton.obj
 0002:00057330       ??$destroy@PAU?$_Tree_node@U?$pair@$$CBHPAVINMWidget@SKINGDI@NMBASE@@@std@@PAX@std@@@?$_Default_allocator_traits@V?$allocator@U?$_Tree_node@U?$pair@$$CBHPAVINMWidget@SKINGDI@NMBASE@@@std@@PAX@std@@@std@@@std@@SAXAAV?$allocator@U?$_Tree_node@U?$pair@$$CBHPAVINMWidget@SKINGDI@NMBASE@@@std@@PAX@std@@@1@QAPAU?$_Tree_node@U?$pair@$$CBHPAVINMWidget@SKINGDI@NMBASE@@@std@@PAX@1@@Z 100c5330 f i NMButton.obj
 0002:00057360       ??$destroy@PAU?$_Tree_node@U?$pair@$$CBV?$basic_string@DU?$char_traits@D@std@@V?$allocator@D@2@@std@@PAVxSprite@GRAPHICGDI@NMBASE@@@std@@PAX@std@@@?$_Default_allocator_traits@V?$allocator@U?$_Tree_node@U?$pair@$$CBV?$basic_string@DU?$char_traits@D@std@@V?$allocator@D@2@@std@@PAVxSprite@GRAPHICGDI@NMBASE@@@std@@PAX@std@@@std@@@std@@SAXAAV?$allocator@U?$_Tree_node@U?$pair@$$CBV?$basic_string@DU?$char_traits@D@std@@V?$allocator@D@2@@std@@PAVxSprite@GRAPHICGDI@NMBASE@@@std@@PAX@std@@@1@QAPAU?$_Tree_node@U?$pair@$$CBV?$basic_string@DU?$char_traits@D@std@@V?$allocator@D@2@@std@@PAVxSprite@GRAPHICGDI@NMBASE@@@std@@PAX@1@@Z 100c5360 f i NMButton.obj
 0002:00057390       ??$destroy@PAU?$_Tree_node@U?$pair@$$CBV?$basic_string@DU?$char_traits@D@std@@V?$allocator@D@2@@std@@V12@@std@@PAX@std@@@?$_Default_allocator_traits@V?$allocator@U?$_Tree_node@U?$pair@$$CBV?$basic_string@DU?$char_traits@D@std@@V?$allocator@D@2@@std@@V12@@std@@PAX@std@@@std@@@std@@SAXAAV?$allocator@U?$_Tree_node@U?$pair@$$CBV?$basic_string@DU?$char_traits@D@std@@V?$allocator@D@2@@std@@V12@@std@@PAX@std@@@1@QAPAU?$_Tree_node@U?$pair@$$CBV?$basic_string@DU?$char_traits@D@std@@V?$allocator@D@2@@std@@V12@@std@@PAX@1@@Z 100c5390 f i NMButton.obj
 0002:000573c0       ??$destroy@U?$pair@$$CBHPAVINMWidget@SKINGDI@NMBASE@@@std@@@?$_Default_allocator_traits@V?$allocator@U?$_Tree_node@U?$pair@$$CBHPAVINMWidget@SKINGDI@NMBASE@@@std@@PAX@std@@@std@@@std@@SAXAAV?$allocator@U?$_Tree_node@U?$pair@$$CBHPAVINMWidget@SKINGDI@NMBASE@@@std@@PAX@std@@@1@QAU?$pair@$$CBHPAVINMWidget@SKINGDI@NMBASE@@@1@@Z 100c53c0 f i NMButton.obj
 0002:000573f0       ??$destroy@U?$pair@$$CBV?$basic_string@DU?$char_traits@D@std@@V?$allocator@D@2@@std@@PAVxSprite@GRAPHICGDI@NMBASE@@@std@@@?$_Default_allocator_traits@V?$allocator@U?$_Tree_node@U?$pair@$$CBV?$basic_string@DU?$char_traits@D@std@@V?$allocator@D@2@@std@@PAVxSprite@GRAPHICGDI@NMBASE@@@std@@PAX@std@@@std@@@std@@SAXAAV?$allocator@U?$_Tree_node@U?$pair@$$CBV?$basic_string@DU?$char_traits@D@std@@V?$allocator@D@2@@std@@PAVxSprite@GRAPHICGDI@NMBASE@@@std@@PAX@std@@@1@QAU?$pair@$$CBV?$basic_string@DU?$char_traits@D@std@@V?$allocator@D@2@@std@@PAVxSprite@GRAPHICGDI@NMBASE@@@1@@Z 100c53f0 f i NMButton.obj
 0002:00057440       ??$destroy@U?$pair@$$CBV?$basic_string@DU?$char_traits@D@std@@V?$allocator@D@2@@std@@V12@@std@@@?$_Default_allocator_traits@V?$allocator@U?$_Tree_node@U?$pair@$$CBV?$basic_string@DU?$char_traits@D@std@@V?$allocator@D@2@@std@@V12@@std@@PAX@std@@@std@@@std@@SAXAAV?$allocator@U?$_Tree_node@U?$pair@$$CBV?$basic_string@DU?$char_traits@D@std@@V?$allocator@D@2@@std@@V12@@std@@PAX@std@@@1@QAU?$pair@$$CBV?$basic_string@DU?$char_traits@D@std@@V?$allocator@D@2@@std@@V12@@1@@Z 100c5440 f i NMButton.obj
 0002:00057490       ??$destroy@UtagPLAY_DATA@CNMAudioMananger@SKINGDI@NMBASE@@@?$_Default_allocator_traits@V?$allocator@U?$_List_node@UtagPLAY_DATA@CNMAudioMananger@SKINGDI@NMBASE@@PAX@std@@@std@@@std@@SAXAAV?$allocator@U?$_List_node@UtagPLAY_DATA@CNMAudioMananger@SKINGDI@NMBASE@@PAX@std@@@1@QAUtagPLAY_DATA@CNMAudioMananger@SKINGDI@NMBASE@@@Z 100c5490 f i NMButton.obj
 0002:000574e0       ??$distance@PAPAVINMWidget@SKINGDI@NMBASE@@@std@@YAHPAPAVINMWidget@SKINGDI@NMBASE@@0@Z 100c54e0 f i NMButton.obj
 0002:00057540       ??$forward@AAPAU?$_List_node@UtagPLAY_DATA@CNMAudioMananger@SKINGDI@NMBASE@@PAX@std@@@std@@YAAAPAU?$_List_node@UtagPLAY_DATA@CNMAudioMananger@SKINGDI@NMBASE@@PAX@0@AAPAU10@@Z 100c5540 f i NMButton.obj
 0002:00057580       ??$forward@AAPAU?$_Tree_node@U?$pair@$$CBHPAVINMWidget@SKINGDI@NMBASE@@@std@@PAX@std@@@std@@YAAAPAU?$_Tree_node@U?$pair@$$CBHPAVINMWidget@SKINGDI@NMBASE@@@std@@PAX@0@AAPAU10@@Z 100c5580 f i NMButton.obj
 0002:000575c0       ??$forward@AAPAU?$_Tree_node@U?$pair@$$CBV?$basic_string@DU?$char_traits@D@std@@V?$allocator@D@2@@std@@PAVxSprite@GRAPHICGDI@NMBASE@@@std@@PAX@std@@@std@@YAAAPAU?$_Tree_node@U?$pair@$$CBV?$basic_string@DU?$char_traits@D@std@@V?$allocator@D@2@@std@@PAVxSprite@GRAPHICGDI@NMBASE@@@std@@PAX@0@AAPAU10@@Z 100c55c0 f i NMButton.obj
 0002:00057600       ??$forward@AAPAU?$_Tree_node@U?$pair@$$CBV?$basic_string@DU?$char_traits@D@std@@V?$allocator@D@2@@std@@V12@@std@@PAX@std@@@std@@YAAAPAU?$_Tree_node@U?$pair@$$CBV?$basic_string@DU?$char_traits@D@std@@V?$allocator@D@2@@std@@V12@@std@@PAX@0@AAPAU10@@Z 100c5600 f i NMButton.obj
 0002:00057640       ??$forward@AAU?$pair@$$CBHPAVINMWidget@SKINGDI@NMBASE@@@std@@@std@@YAAAU?$pair@$$CBHPAVINMWidget@SKINGDI@NMBASE@@@0@AAU10@@Z 100c5640 f i NMButton.obj
 0002:00057680       ??$forward@AAU?$pair@$$CBV?$basic_string@DU?$char_traits@D@std@@V?$allocator@D@2@@std@@PAVxSprite@GRAPHICGDI@NMBASE@@@std@@@std@@YAAAU?$pair@$$CBV?$basic_string@DU?$char_traits@D@std@@V?$allocator@D@2@@std@@PAVxSprite@GRAPHICGDI@NMBASE@@@0@AAU10@@Z 100c5680 f i NMButton.obj
 0002:000576c0       ??$forward@AAU?$pair@$$CBV?$basic_string@DU?$char_traits@D@std@@V?$allocator@D@2@@std@@V12@@std@@@std@@YAAAU?$pair@$$CBV?$basic_string@DU?$char_traits@D@std@@V?$allocator@D@2@@std@@V12@@0@AAU10@@Z 100c56c0 f i NMButton.obj
 0002:00057700       ??$forward@ABQAD@std@@YAABQADABQAD@Z 100c5700 f i NMButton.obj
 0002:00057740       ??$forward@ABU?$less@V?$basic_string@DU?$char_traits@D@std@@V?$allocator@D@2@@std@@@std@@@std@@YAABU?$less@V?$basic_string@DU?$char_traits@D@std@@V?$allocator@D@2@@std@@@0@ABU10@@Z 100c5740 f i NMButton.obj
 0002:00057780       ??$forward@ABUtagPLAY_DATA@CNMAudioMananger@SKINGDI@NMBASE@@@std@@YAABUtagPLAY_DATA@CNMAudioMananger@SKINGDI@NMBASE@@ABU1234@@Z 100c5780 f i NMButton.obj
 0002:000577c0       ??$forward@V?$allocator@D@std@@@std@@YA$$QAV?$allocator@D@0@AAV10@@Z 100c57c0 f i NMButton.obj
 0002:00057800       ??$forward@V?$allocator@PAVINMWidget@SKINGDI@NMBASE@@@std@@@std@@YA$$QAV?$allocator@PAVINMWidget@SKINGDI@NMBASE@@@0@AAV10@@Z 100c5800 f i NMButton.obj
 0002:00057840       ??$forward@V?$allocator@U?$_List_node@UtagPLAY_DATA@CNMAudioMananger@SKINGDI@NMBASE@@PAX@std@@@std@@@std@@YA$$QAV?$allocator@U?$_List_node@UtagPLAY_DATA@CNMAudioMananger@SKINGDI@NMBASE@@PAX@std@@@0@AAV10@@Z 100c5840 f i NMButton.obj
 0002:00057880       ??$forward@V?$allocator@U?$_Tree_node@U?$pair@$$CBHPAVINMWidget@SKINGDI@NMBASE@@@std@@PAX@std@@@std@@@std@@YA$$QAV?$allocator@U?$_Tree_node@U?$pair@$$CBHPAVINMWidget@SKINGDI@NMBASE@@@std@@PAX@std@@@0@AAV10@@Z 100c5880 f i NMButton.obj
 0002:000578c0       ??$forward@V?$allocator@U?$_Tree_node@U?$pair@$$CBV?$basic_string@DU?$char_traits@D@std@@V?$allocator@D@2@@std@@PAVxSprite@GRAPHICGDI@NMBASE@@@std@@PAX@std@@@std@@@std@@YA$$QAV?$allocator@U?$_Tree_node@U?$pair@$$CBV?$basic_string@DU?$char_traits@D@std@@V?$allocator@D@2@@std@@PAVxSprite@GRAPHICGDI@NMBASE@@@std@@PAX@std@@@0@AAV10@@Z 100c58c0 f i NMButton.obj
 0002:00057900       ??$forward@V?$allocator@U?$_Tree_node@U?$pair@$$CBV?$basic_string@DU?$char_traits@D@std@@V?$allocator@D@2@@std@@V12@@std@@PAX@std@@@std@@@std@@YA$$QAV?$allocator@U?$_Tree_node@U?$pair@$$CBV?$basic_string@DU?$char_traits@D@std@@V?$allocator@D@2@@std@@V12@@std@@PAX@std@@@0@AAV10@@Z 100c5900 f i NMButton.obj
 0002:00057940       ??$insert@V?$_List_const_iterator@V?$_List_val@U?$_List_simple_types@UtagPLAY_DATA@CNMAudioMananger@SKINGDI@NMBASE@@@std@@@std@@@std@@X@?$list@UtagPLAY_DATA@CNMAudioMananger@SKINGDI@NMBASE@@V?$allocator@UtagPLAY_DATA@CNMAudioMananger@SKINGDI@NMBASE@@@std@@@std@@QAE?AV?$_List_iterator@V?$_List_val@U?$_List_simple_types@UtagPLAY_DATA@CNMAudioMananger@SKINGDI@NMBASE@@@std@@@std@@@1@V?$_List_const_iterator@V?$_List_val@U?$_List_simple_types@UtagPLAY_DATA@CNMAudioMananger@SKINGDI@NMBASE@@@std@@@std@@@1@00@Z 100c5940 f i NMButton.obj
 0002:00057d70       ??$next@PAPAVINMWidget@SKINGDI@NMBASE@@@std@@YAPAPAVINMWidget@SKINGDI@NMBASE@@PAPAV123@H@Z 100c5d70 f i NMButton.obj
 0002:00057dd0       ??0?$_List_const_iterator@V?$_List_val@U?$_List_simple_types@UtagPLAY_DATA@CNMAudioMananger@SKINGDI@NMBASE@@@std@@@std@@@std@@QAE@$$QAV01@@Z 100c5dd0 f i NMButton.obj
 0002:00057e30       ??0?$_List_const_iterator@V?$_List_val@U?$_List_simple_types@UtagPLAY_DATA@CNMAudioMananger@SKINGDI@NMBASE@@@std@@@std@@@std@@QAE@ABV01@@Z 100c5e30 f i NMButton.obj
 0002:00057e90       ??0?$_List_const_iterator@V?$_List_val@U?$_List_simple_types@UtagPLAY_DATA@CNMAudioMananger@SKINGDI@NMBASE@@@std@@@std@@@std@@QAE@PAU?$_List_node@UtagPLAY_DATA@CNMAudioMananger@SKINGDI@NMBASE@@PAX@1@PBV?$_List_val@U?$_List_simple_types@UtagPLAY_DATA@CNMAudioMananger@SKINGDI@NMBASE@@@std@@@1@@Z 100c5e90 f i NMButton.obj
 0002:00057ef0       ??0?$_List_iterator@V?$_List_val@U?$_List_simple_types@UtagPLAY_DATA@CNMAudioMananger@SKINGDI@NMBASE@@@std@@@std@@@std@@QAE@ABV01@@Z 100c5ef0 f i NMButton.obj
 0002:00057f50       ??0?$_List_iterator@V?$_List_val@U?$_List_simple_types@UtagPLAY_DATA@CNMAudioMananger@SKINGDI@NMBASE@@@std@@@std@@@std@@QAE@PAU?$_List_node@UtagPLAY_DATA@CNMAudioMananger@SKINGDI@NMBASE@@PAX@1@PBV?$_List_val@U?$_List_simple_types@UtagPLAY_DATA@CNMAudioMananger@SKINGDI@NMBASE@@@std@@@1@@Z 100c5f50 f i NMButton.obj
 0002:00057fb0       ??0?$_List_unchecked_const_iterator@V?$_List_val@U?$_List_simple_types@UtagPLAY_DATA@CNMAudioMananger@SKINGDI@NMBASE@@@std@@@std@@U_Iterator_base0@2@@std@@QAE@PAU?$_List_node@UtagPLAY_DATA@CNMAudioMananger@SKINGDI@NMBASE@@PAX@1@PBV?$_List_val@U?$_List_simple_types@UtagPLAY_DATA@CNMAudioMananger@SKINGDI@NMBASE@@@std@@@1@@Z 100c5fb0 f i NMButton.obj
 0002:00058020       ??0?$_List_unchecked_const_iterator@V?$_List_val@U?$_List_simple_types@UtagPLAY_DATA@CNMAudioMananger@SKINGDI@NMBASE@@@std@@@std@@U_Iterator_base12@2@@std@@QAE@$$QAV01@@Z 100c6020 f i NMButton.obj
 0002:00058090       ??0?$_List_unchecked_const_iterator@V?$_List_val@U?$_List_simple_types@UtagPLAY_DATA@CNMAudioMananger@SKINGDI@NMBASE@@@std@@@std@@U_Iterator_base12@2@@std@@QAE@ABV01@@Z 100c6090 f i NMButton.obj
 0002:00058100       ??0?$_List_unchecked_const_iterator@V?$_List_val@U?$_List_simple_types@UtagPLAY_DATA@CNMAudioMananger@SKINGDI@NMBASE@@@std@@@std@@U_Iterator_base12@2@@std@@QAE@PAU?$_List_node@UtagPLAY_DATA@CNMAudioMananger@SKINGDI@NMBASE@@PAX@1@PBV?$_List_val@U?$_List_simple_types@UtagPLAY_DATA@CNMAudioMananger@SKINGDI@NMBASE@@@std@@@1@@Z 100c6100 f i NMButton.obj
 0002:00058170       ??0?$_List_unchecked_iterator@V?$_List_val@U?$_List_simple_types@UtagPLAY_DATA@CNMAudioMananger@SKINGDI@NMBASE@@@std@@@std@@@std@@QAE@PAU?$_List_node@UtagPLAY_DATA@CNMAudioMananger@SKINGDI@NMBASE@@PAX@1@PBV?$_List_val@U?$_List_simple_types@UtagPLAY_DATA@CNMAudioMananger@SKINGDI@NMBASE@@@std@@@1@@Z 100c6170 f i NMButton.obj
 0002:000581d0       ??0?$_List_val@U?$_List_simple_types@UtagPLAY_DATA@CNMAudioMananger@SKINGDI@NMBASE@@@std@@@std@@QAE@XZ 100c61d0 f i NMButton.obj
 0002:00058240       ??0?$_String_alloc@U?$_String_base_types@DV?$allocator@D@std@@@std@@@std@@QAE@XZ 100c6240 f i NMButton.obj
 0002:000582f0       ??0?$_String_val@U?$_Simple_types@D@std@@@std@@QAE@XZ 100c62f0 f i NMButton.obj
 0002:00058370       ??0?$_Tree_const_iterator@V?$_Tree_val@U?$_Tree_simple_types@U?$pair@$$CBHPAVINMWidget@SKINGDI@NMBASE@@@std@@@std@@@std@@@std@@QAE@$$QAV01@@Z 100c6370 f i NMButton.obj
 0002:000583d0       ??0?$_Tree_const_iterator@V?$_Tree_val@U?$_Tree_simple_types@U?$pair@$$CBHPAVINMWidget@SKINGDI@NMBASE@@@std@@@std@@@std@@@std@@QAE@ABV01@@Z 100c63d0 f i NMButton.obj
 0002:00058430       ??0?$_Tree_const_iterator@V?$_Tree_val@U?$_Tree_simple_types@U?$pair@$$CBHPAVINMWidget@SKINGDI@NMBASE@@@std@@@std@@@std@@@std@@QAE@PAU?$_Tree_node@U?$pair@$$CBHPAVINMWidget@SKINGDI@NMBASE@@@std@@PAX@1@PBV?$_Tree_val@U?$_Tree_simple_types@U?$pair@$$CBHPAVINMWidget@SKINGDI@NMBASE@@@std@@@std@@@1@@Z 100c6430 f i NMButton.obj
 0002:00058490       ??0?$_Tree_const_iterator@V?$_Tree_val@U?$_Tree_simple_types@U?$pair@$$CBV?$basic_string@DU?$char_traits@D@std@@V?$allocator@D@2@@std@@PAVxSprite@GRAPHICGDI@NMBASE@@@std@@@std@@@std@@@std@@QAE@$$QAV01@@Z 100c6490 f i NMButton.obj
 0002:000584f0       ??0?$_Tree_const_iterator@V?$_Tree_val@U?$_Tree_simple_types@U?$pair@$$CBV?$basic_string@DU?$char_traits@D@std@@V?$allocator@D@2@@std@@PAVxSprite@GRAPHICGDI@NMBASE@@@std@@@std@@@std@@@std@@QAE@ABV01@@Z 100c64f0 f i NMButton.obj
 0002:00058550       ??0?$_Tree_const_iterator@V?$_Tree_val@U?$_Tree_simple_types@U?$pair@$$CBV?$basic_string@DU?$char_traits@D@std@@V?$allocator@D@2@@std@@PAVxSprite@GRAPHICGDI@NMBASE@@@std@@@std@@@std@@@std@@QAE@PAU?$_Tree_node@U?$pair@$$CBV?$basic_string@DU?$char_traits@D@std@@V?$allocator@D@2@@std@@PAVxSprite@GRAPHICGDI@NMBASE@@@std@@PAX@1@PBV?$_Tree_val@U?$_Tree_simple_types@U?$pair@$$CBV?$basic_string@DU?$char_traits@D@std@@V?$allocator@D@2@@std@@PAVxSprite@GRAPHICGDI@NMBASE@@@std@@@std@@@1@@Z 100c6550 f i NMButton.obj
 0002:000585b0       ??0?$_Tree_const_iterator@V?$_Tree_val@U?$_Tree_simple_types@U?$pair@$$CBV?$basic_string@DU?$char_traits@D@std@@V?$allocator@D@2@@std@@V12@@std@@@std@@@std@@@std@@QAE@$$QAV01@@Z 100c65b0 f i NMButton.obj
 0002:00058610       ??0?$_Tree_const_iterator@V?$_Tree_val@U?$_Tree_simple_types@U?$pair@$$CBV?$basic_string@DU?$char_traits@D@std@@V?$allocator@D@2@@std@@V12@@std@@@std@@@std@@@std@@QAE@ABV01@@Z 100c6610 f i NMButton.obj
 0002:00058670       ??0?$_Tree_const_iterator@V?$_Tree_val@U?$_Tree_simple_types@U?$pair@$$CBV?$basic_string@DU?$char_traits@D@std@@V?$allocator@D@2@@std@@V12@@std@@@std@@@std@@@std@@QAE@PAU?$_Tree_node@U?$pair@$$CBV?$basic_string@DU?$char_traits@D@std@@V?$allocator@D@2@@std@@V12@@std@@PAX@1@PBV?$_Tree_val@U?$_Tree_simple_types@U?$pair@$$CBV?$basic_string@DU?$char_traits@D@std@@V?$allocator@D@2@@std@@V12@@std@@@std@@@1@@Z 100c6670 f i NMButton.obj
 0002:000586d0       ??0?$_Tree_iterator@V?$_Tree_val@U?$_Tree_simple_types@U?$pair@$$CBHPAVINMWidget@SKINGDI@NMBASE@@@std@@@std@@@std@@@std@@QAE@PAU?$_Tree_node@U?$pair@$$CBHPAVINMWidget@SKINGDI@NMBASE@@@std@@PAX@1@PBV?$_Tree_val@U?$_Tree_simple_types@U?$pair@$$CBHPAVINMWidget@SKINGDI@NMBASE@@@std@@@std@@@1@@Z 100c66d0 f i NMButton.obj
 0002:00058730       ??0?$_Tree_iterator@V?$_Tree_val@U?$_Tree_simple_types@U?$pair@$$CBV?$basic_string@DU?$char_traits@D@std@@V?$allocator@D@2@@std@@PAVxSprite@GRAPHICGDI@NMBASE@@@std@@@std@@@std@@@std@@QAE@PAU?$_Tree_node@U?$pair@$$CBV?$basic_string@DU?$char_traits@D@std@@V?$allocator@D@2@@std@@PAVxSprite@GRAPHICGDI@NMBASE@@@std@@PAX@1@PBV?$_Tree_val@U?$_Tree_simple_types@U?$pair@$$CBV?$basic_string@DU?$char_traits@D@std@@V?$allocator@D@2@@std@@PAVxSprite@GRAPHICGDI@NMBASE@@@std@@@std@@@1@@Z 100c6730 f i NMButton.obj
 0002:00058790       ??0?$_Tree_iterator@V?$_Tree_val@U?$_Tree_simple_types@U?$pair@$$CBV?$basic_string@DU?$char_traits@D@std@@V?$allocator@D@2@@std@@V12@@std@@@std@@@std@@@std@@QAE@PAU?$_Tree_node@U?$pair@$$CBV?$basic_string@DU?$char_traits@D@std@@V?$allocator@D@2@@std@@V12@@std@@PAX@1@PBV?$_Tree_val@U?$_Tree_simple_types@U?$pair@$$CBV?$basic_string@DU?$char_traits@D@std@@V?$allocator@D@2@@std@@V12@@std@@@std@@@1@@Z 100c6790 f i NMButton.obj
 0002:000587f0       ??0?$_Tree_unchecked_const_iterator@V?$_Tree_val@U?$_Tree_simple_types@U?$pair@$$CBHPAVINMWidget@SKINGDI@NMBASE@@@std@@@std@@@std@@U_Iterator_base12@2@@std@@QAE@$$QAV01@@Z 100c67f0 f i NMButton.obj
 0002:00058860       ??0?$_Tree_unchecked_const_iterator@V?$_Tree_val@U?$_Tree_simple_types@U?$pair@$$CBHPAVINMWidget@SKINGDI@NMBASE@@@std@@@std@@@std@@U_Iterator_base12@2@@std@@QAE@ABV01@@Z 100c6860 f i NMButton.obj
 0002:000588d0       ??0?$_Tree_unchecked_const_iterator@V?$_Tree_val@U?$_Tree_simple_types@U?$pair@$$CBHPAVINMWidget@SKINGDI@NMBASE@@@std@@@std@@@std@@U_Iterator_base12@2@@std@@QAE@PAU?$_Tree_node@U?$pair@$$CBHPAVINMWidget@SKINGDI@NMBASE@@@std@@PAX@1@PBV?$_Tree_val@U?$_Tree_simple_types@U?$pair@$$CBHPAVINMWidget@SKINGDI@NMBASE@@@std@@@std@@@1@@Z 100c68d0 f i NMButton.obj
 0002:00058940       ??0?$_Tree_unchecked_const_iterator@V?$_Tree_val@U?$_Tree_simple_types@U?$pair@$$CBV?$basic_string@DU?$char_traits@D@std@@V?$allocator@D@2@@std@@PAVxSprite@GRAPHICGDI@NMBASE@@@std@@@std@@@std@@U_Iterator_base12@2@@std@@QAE@$$QAV01@@Z 100c6940 f i NMButton.obj
 0002:000589b0       ??0?$_Tree_unchecked_const_iterator@V?$_Tree_val@U?$_Tree_simple_types@U?$pair@$$CBV?$basic_string@DU?$char_traits@D@std@@V?$allocator@D@2@@std@@PAVxSprite@GRAPHICGDI@NMBASE@@@std@@@std@@@std@@U_Iterator_base12@2@@std@@QAE@ABV01@@Z 100c69b0 f i NMButton.obj
 0002:00058a20       ??0?$_Tree_unchecked_const_iterator@V?$_Tree_val@U?$_Tree_simple_types@U?$pair@$$CBV?$basic_string@DU?$char_traits@D@std@@V?$allocator@D@2@@std@@PAVxSprite@GRAPHICGDI@NMBASE@@@std@@@std@@@std@@U_Iterator_base12@2@@std@@QAE@PAU?$_Tree_node@U?$pair@$$CBV?$basic_string@DU?$char_traits@D@std@@V?$allocator@D@2@@std@@PAVxSprite@GRAPHICGDI@NMBASE@@@std@@PAX@1@PBV?$_Tree_val@U?$_Tree_simple_types@U?$pair@$$CBV?$basic_string@DU?$char_traits@D@std@@V?$allocator@D@2@@std@@PAVxSprite@GRAPHICGDI@NMBASE@@@std@@@std@@@1@@Z 100c6a20 f i NMButton.obj
 0002:00058a90       ??0?$_Tree_unchecked_const_iterator@V?$_Tree_val@U?$_Tree_simple_types@U?$pair@$$CBV?$basic_string@DU?$char_traits@D@std@@V?$allocator@D@2@@std@@V12@@std@@@std@@@std@@U_Iterator_base12@2@@std@@QAE@$$QAV01@@Z 100c6a90 f i NMButton.obj
 0002:00058b00       ??0?$_Tree_unchecked_const_iterator@V?$_Tree_val@U?$_Tree_simple_types@U?$pair@$$CBV?$basic_string@DU?$char_traits@D@std@@V?$allocator@D@2@@std@@V12@@std@@@std@@@std@@U_Iterator_base12@2@@std@@QAE@ABV01@@Z 100c6b00 f i NMButton.obj
 0002:00058b70       ??0?$_Tree_unchecked_const_iterator@V?$_Tree_val@U?$_Tree_simple_types@U?$pair@$$CBV?$basic_string@DU?$char_traits@D@std@@V?$allocator@D@2@@std@@V12@@std@@@std@@@std@@U_Iterator_base12@2@@std@@QAE@PAU?$_Tree_node@U?$pair@$$CBV?$basic_string@DU?$char_traits@D@std@@V?$allocator@D@2@@std@@V12@@std@@PAX@1@PBV?$_Tree_val@U?$_Tree_simple_types@U?$pair@$$CBV?$basic_string@DU?$char_traits@D@std@@V?$allocator@D@2@@std@@V12@@std@@@std@@@1@@Z 100c6b70 f i NMButton.obj
 0002:00058be0       ??0?$_Tree_val@U?$_Tree_simple_types@U?$pair@$$CBHPAVINMWidget@SKINGDI@NMBASE@@@std@@@std@@@std@@QAE@XZ 100c6be0 f i NMButton.obj
 0002:00058c50       ??0?$_Tree_val@U?$_Tree_simple_types@U?$pair@$$CBV?$basic_string@DU?$char_traits@D@std@@V?$allocator@D@2@@std@@PAVxSprite@GRAPHICGDI@NMBASE@@@std@@@std@@@std@@QAE@XZ 100c6c50 f i NMButton.obj
 0002:00058cc0       ??0?$_Tree_val@U?$_Tree_simple_types@U?$pair@$$CBV?$basic_string@DU?$char_traits@D@std@@V?$allocator@D@2@@std@@V12@@std@@@std@@@std@@QAE@XZ 100c6cc0 f i NMButton.obj
 0002:00058d30       ??0?$_Vector_val@U?$_Simple_types@PAVINMWidget@SKINGDI@NMBASE@@@std@@@std@@QAE@XZ 100c6d30 f i NMButton.obj
 0002:00058db0       ??0?$allocator@D@std@@QAE@XZ 100c6db0 f i NMButton.obj
 0002:00058df0       ??0?$basic_string@DU?$char_traits@D@std@@V?$allocator@D@2@@std@@QAE@ABV01@@Z 100c6df0 f i NMButton.obj
 0002:00058ec0       ??0?$basic_string@DU?$char_traits@D@std@@V?$allocator@D@2@@std@@QAE@QBD@Z 100c6ec0 f i NMButton.obj
 0002:00058f80       ??0?$basic_string@DU?$char_traits@D@std@@V?$allocator@D@2@@std@@QAE@XZ 100c6f80 f i NMButton.obj
 0002:00059020       ??0?$list@UtagPLAY_DATA@CNMAudioMananger@SKINGDI@NMBASE@@V?$allocator@UtagPLAY_DATA@CNMAudioMananger@SKINGDI@NMBASE@@@std@@@std@@QAE@ABV01@@Z 100c7020 f i NMButton.obj
 0002:000591d0       ??0?$map@HPAVINMWidget@SKINGDI@NMBASE@@U?$less@H@std@@V?$allocator@U?$pair@$$CBHPAVINMWidget@SKINGDI@NMBASE@@@std@@@5@@std@@QAE@ABV01@@Z 100c71d0 f i NMButton.obj
 0002:00059250       ??0?$map@V?$basic_string@DU?$char_traits@D@std@@V?$allocator@D@2@@std@@PAVxSprite@GRAPHICGDI@NMBASE@@U?$less@V?$basic_string@DU?$char_traits@D@std@@V?$allocator@D@2@@std@@@2@V?$allocator@U?$pair@$$CBV?$basic_string@DU?$char_traits@D@std@@V?$allocator@D@2@@std@@PAVxSprite@GRAPHICGDI@NMBASE@@@std@@@2@@std@@QAE@ABV01@@Z 100c7250 f i NMButton.obj
 0002:000592d0       ??0?$multimap@V?$basic_string@DU?$char_traits@D@std@@V?$allocator@D@2@@std@@V12@U?$less@V?$basic_string@DU?$char_traits@D@std@@V?$allocator@D@2@@std@@@2@V?$allocator@U?$pair@$$CBV?$basic_string@DU?$char_traits@D@std@@V?$allocator@D@2@@std@@V12@@std@@@2@@std@@QAE@ABV01@@Z 100c72d0 f i NMButton.obj
 0002:00059350       ??0?$pair@$$CBV?$basic_string@DU?$char_traits@D@std@@V?$allocator@D@2@@std@@PAVxSprite@GRAPHICGDI@NMBASE@@@std@@QAE@ABU01@@Z 100c7350 f i NMButton.obj
 0002:000593c0       ??0?$pair@$$CBV?$basic_string@DU?$char_traits@D@std@@V?$allocator@D@2@@std@@V12@@std@@QAE@ABU01@@Z 100c73c0 f i NMButton.obj
 0002:00059480       ??0?$vector@PAVINMWidget@SKINGDI@NMBASE@@V?$allocator@PAVINMWidget@SKINGDI@NMBASE@@@std@@@std@@QAE@ABV01@@Z 100c7480 f i NMButton.obj
 0002:000595f0       ??0CNMAudioMananger@SKINGDI@NMBASE@@QAE@ABV012@@Z 100c75f0 f i NMButton.obj
 0002:000596f0       ??0CNMButton@SKINGDI@NMBASE@@QAE@ABV012@@Z 100c76f0 f i NMButton.obj
 0002:00059900       ??0CNMButton@SKINGDI@NMBASE@@QAE@XZ 100c7900 f   NMButton.obj
 0002:00059af0       ??0CNMCheckButton@SKINGDI@NMBASE@@QAE@ABV012@@Z 100c7af0 f i NMButton.obj
 0002:00059b70       ??0CNMCheckButton@SKINGDI@NMBASE@@QAE@XZ 100c7b70 f   NMButton.obj
 0002:00059be0       ??0CNMInvisibleButton@SKINGDI@NMBASE@@QAE@ABV012@@Z 100c7be0 f i NMButton.obj
 0002:00059d00       ??0CNMInvisibleButton@SKINGDI@NMBASE@@QAE@XZ 100c7d00 f   NMButton.obj
 0002:00059e00       ??0CNMMultiSceneButton@SKINGDI@NMBASE@@QAE@ABV012@@Z 100c7e00 f i NMButton.obj
 0002:00059e70       ??0CNMMultiSceneButton@SKINGDI@NMBASE@@QAE@XZ 100c7e70 f   NMButton.obj
 0002:00059ed0       ??0CNMSceneButton@SKINGDI@NMBASE@@QAE@ABV012@@Z 100c7ed0 f i NMButton.obj
 0002:00059f50       ??0CNMSceneButton@SKINGDI@NMBASE@@QAE@XZ 100c7f50 f   NMButton.obj
 0002:00059fb0       ??0CNMSpriteManager@SKINGDI@NMBASE@@QAE@ABV012@@Z 100c7fb0 f i NMButton.obj
 0002:0005a0a0       ??0CNMThumButton@SKINGDI@NMBASE@@QAE@ABV012@@Z 100c80a0 f i NMButton.obj
 0002:0005a260       ??0CNMThumButton@SKINGDI@NMBASE@@QAE@XZ 100c8260 f   NMButton.obj
 0002:0005a3d0       ??0CNMWidgetCompact@SKINGDI@NMBASE@@QAE@ABV012@@Z 100c83d0 f i NMButton.obj
 0002:0005a440       ??0CNMWidgetCompact@SKINGDI@NMBASE@@QAE@XZ 100c8440 f i NMButton.obj
 0002:0005a4a0       ??0CNMWidgetComposite@SKINGDI@NMBASE@@QAE@ABV012@@Z 100c84a0 f i NMButton.obj
 0002:0005a570       ??0CNMWidgetState@SKINGDI@NMBASE@@QAE@ABV012@@Z 100c8570 f i NMButton.obj
 0002:0005a600       ??0CObserverSet@SKINGDI@NMBASE@@QAE@ABV012@@Z 100c8600 f i NMButton.obj
 0002:0005a670       ??0CPoint@@QAE@J@Z         100c8670 f i NMButton.obj
 0002:0005a6e0       ??0INMWidget@SKINGDI@NMBASE@@QAE@ABV012@@Z 100c86e0 f i NMButton.obj
 0002:0005a730       ??0INMWidget@SKINGDI@NMBASE@@QAE@XZ 100c8730 f i NMButton.obj
 0002:0005a780       ??0_Bxty@?$_String_val@U?$_Simple_types@D@std@@@std@@QAE@XZ 100c8780 f i NMButton.obj
 0002:0005a7c0       ??0tagPLAY_DATA@CNMAudioMananger@SKINGDI@NMBASE@@QAE@ABU0123@@Z 100c87c0 f i NMButton.obj
 0002:0005a830       ??1?$_Compressed_pair@V?$allocator@D@std@@V?$_String_val@U?$_Simple_types@D@std@@@2@$00@std@@QAE@XZ 100c8830 f i NMButton.obj
 0002:0005a880       ??1?$_List_alloc@U?$_List_base_types@UtagPLAY_DATA@CNMAudioMananger@SKINGDI@NMBASE@@V?$allocator@UtagPLAY_DATA@CNMAudioMananger@SKINGDI@NMBASE@@@std@@@std@@@std@@QAE@XZ 100c8880 f i NMButton.obj
 0002:0005a920       ??1?$_List_buy@UtagPLAY_DATA@CNMAudioMananger@SKINGDI@NMBASE@@V?$allocator@UtagPLAY_DATA@CNMAudioMananger@SKINGDI@NMBASE@@@std@@@std@@QAE@XZ 100c8920 f i NMButton.obj
 0002:0005a970       ??1?$_List_const_iterator@V?$_List_val@U?$_List_simple_types@UtagPLAY_DATA@CNMAudioMananger@SKINGDI@NMBASE@@@std@@@std@@@std@@QAE@XZ 100c8970 f i NMButton.obj
 0002:0005a9c0       ??1?$_List_iterator@V?$_List_val@U?$_List_simple_types@UtagPLAY_DATA@CNMAudioMananger@SKINGDI@NMBASE@@@std@@@std@@@std@@QAE@XZ 100c89c0 f i NMButton.obj
 0002:0005aa10       ??1?$_List_unchecked_const_iterator@V?$_List_val@U?$_List_simple_types@UtagPLAY_DATA@CNMAudioMananger@SKINGDI@NMBASE@@@std@@@std@@U_Iterator_base12@2@@std@@QAE@XZ 100c8a10 f i NMButton.obj
 0002:0005aa60       ??1?$_String_alloc@U?$_String_base_types@DV?$allocator@D@std@@@std@@@std@@QAE@XZ 100c8a60 f i NMButton.obj
 0002:0005aaf0       ??1?$_String_val@U?$_Simple_types@D@std@@@std@@QAE@XZ 100c8af0 f i NMButton.obj
 0002:0005ab50       ??1?$_Tree@V?$_Tmap_traits@V?$basic_string@DU?$char_traits@D@std@@V?$allocator@D@2@@std@@PAVxSprite@GRAPHICGDI@NMBASE@@U?$less@V?$basic_string@DU?$char_traits@D@std@@V?$allocator@D@2@@std@@@2@V?$allocator@U?$pair@$$CBV?$basic_string@DU?$char_traits@D@std@@V?$allocator@D@2@@std@@PAVxSprite@GRAPHICGDI@NMBASE@@@std@@@2@$0A@@std@@@std@@QAE@XZ 100c8b50 f i NMButton.obj
 0002:0005abe0       ??1?$_Tree@V?$_Tmap_traits@V?$basic_string@DU?$char_traits@D@std@@V?$allocator@D@2@@std@@V12@U?$less@V?$basic_string@DU?$char_traits@D@std@@V?$allocator@D@2@@std@@@2@V?$allocator@U?$pair@$$CBV?$basic_string@DU?$char_traits@D@std@@V?$allocator@D@2@@std@@V12@@std@@@2@$00@std@@@std@@QAE@XZ 100c8be0 f i NMButton.obj
 0002:0005ac70       ??1?$_Tree_comp_alloc@V?$_Tmap_traits@HPAVINMWidget@SKINGDI@NMBASE@@U?$less@H@std@@V?$allocator@U?$pair@$$CBHPAVINMWidget@SKINGDI@NMBASE@@@std@@@5@$0A@@std@@@std@@QAE@XZ 100c8c70 f i NMButton.obj
 0002:0005ad10       ??1?$_Tree_comp_alloc@V?$_Tmap_traits@V?$basic_string@DU?$char_traits@D@std@@V?$allocator@D@2@@std@@PAVxSprite@GRAPHICGDI@NMBASE@@U?$less@V?$basic_string@DU?$char_traits@D@std@@V?$allocator@D@2@@std@@@2@V?$allocator@U?$pair@$$CBV?$basic_string@DU?$char_traits@D@std@@V?$allocator@D@2@@std@@PAVxSprite@GRAPHICGDI@NMBASE@@@std@@@2@$0A@@std@@@std@@QAE@XZ 100c8d10 f i NMButton.obj
 0002:0005adb0       ??1?$_Tree_comp_alloc@V?$_Tmap_traits@V?$basic_string@DU?$char_traits@D@std@@V?$allocator@D@2@@std@@V12@U?$less@V?$basic_string@DU?$char_traits@D@std@@V?$allocator@D@2@@std@@@2@V?$allocator@U?$pair@$$CBV?$basic_string@DU?$char_traits@D@std@@V?$allocator@D@2@@std@@V12@@std@@@2@$00@std@@@std@@QAE@XZ 100c8db0 f i NMButton.obj
 0002:0005ae50       ??1?$_Tree_const_iterator@V?$_Tree_val@U?$_Tree_simple_types@U?$pair@$$CBHPAVINMWidget@SKINGDI@NMBASE@@@std@@@std@@@std@@@std@@QAE@XZ 100c8e50 f i NMButton.obj
 0002:0005aea0       ??1?$_Tree_const_iterator@V?$_Tree_val@U?$_Tree_simple_types@U?$pair@$$CBV?$basic_string@DU?$char_traits@D@std@@V?$allocator@D@2@@std@@PAVxSprite@GRAPHICGDI@NMBASE@@@std@@@std@@@std@@@std@@QAE@XZ 100c8ea0 f i NMButton.obj
 0002:0005aef0       ??1?$_Tree_const_iterator@V?$_Tree_val@U?$_Tree_simple_types@U?$pair@$$CBV?$basic_string@DU?$char_traits@D@std@@V?$allocator@D@2@@std@@V12@@std@@@std@@@std@@@std@@QAE@XZ 100c8ef0 f i NMButton.obj
 0002:0005af40       ??1?$_Tree_iterator@V?$_Tree_val@U?$_Tree_simple_types@U?$pair@$$CBHPAVINMWidget@SKINGDI@NMBASE@@@std@@@std@@@std@@@std@@QAE@XZ 100c8f40 f i NMButton.obj
 0002:0005af90       ??1?$_Tree_iterator@V?$_Tree_val@U?$_Tree_simple_types@U?$pair@$$CBV?$basic_string@DU?$char_traits@D@std@@V?$allocator@D@2@@std@@PAVxSprite@GRAPHICGDI@NMBASE@@@std@@@std@@@std@@@std@@QAE@XZ 100c8f90 f i NMButton.obj
 0002:0005afe0       ??1?$_Tree_iterator@V?$_Tree_val@U?$_Tree_simple_types@U?$pair@$$CBV?$basic_string@DU?$char_traits@D@std@@V?$allocator@D@2@@std@@V12@@std@@@std@@@std@@@std@@QAE@XZ 100c8fe0 f i NMButton.obj
 0002:0005b030       ??1?$_Tree_unchecked_const_iterator@V?$_Tree_val@U?$_Tree_simple_types@U?$pair@$$CBHPAVINMWidget@SKINGDI@NMBASE@@@std@@@std@@@std@@U_Iterator_base12@2@@std@@QAE@XZ 100c9030 f i NMButton.obj
 0002:0005b080       ??1?$_Tree_unchecked_const_iterator@V?$_Tree_val@U?$_Tree_simple_types@U?$pair@$$CBV?$basic_string@DU?$char_traits@D@std@@V?$allocator@D@2@@std@@PAVxSprite@GRAPHICGDI@NMBASE@@@std@@@std@@@std@@U_Iterator_base12@2@@std@@QAE@XZ 100c9080 f i NMButton.obj
 0002:0005b0d0       ??1?$_Tree_unchecked_const_iterator@V?$_Tree_val@U?$_Tree_simple_types@U?$pair@$$CBV?$basic_string@DU?$char_traits@D@std@@V?$allocator@D@2@@std@@V12@@std@@@std@@@std@@U_Iterator_base12@2@@std@@QAE@XZ 100c90d0 f i NMButton.obj
 0002:0005b120       ??1?$_Vector_alloc@U?$_Vec_base_types@PAVINMWidget@SKINGDI@NMBASE@@V?$allocator@PAVINMWidget@SKINGDI@NMBASE@@@std@@@std@@@std@@QAE@XZ 100c9120 f i NMButton.obj
 0002:0005b1b0       ??1?$basic_string@DU?$char_traits@D@std@@V?$allocator@D@2@@std@@QAE@XZ 100c91b0 f i NMButton.obj
 0002:0005b240       ??1?$map@V?$basic_string@DU?$char_traits@D@std@@V?$allocator@D@2@@std@@PAVxSprite@GRAPHICGDI@NMBASE@@U?$less@V?$basic_string@DU?$char_traits@D@std@@V?$allocator@D@2@@std@@@2@V?$allocator@U?$pair@$$CBV?$basic_string@DU?$char_traits@D@std@@V?$allocator@D@2@@std@@PAVxSprite@GRAPHICGDI@NMBASE@@@std@@@2@@std@@QAE@XZ 100c9240 f i NMButton.obj
 0002:0005b290       ??1?$multimap@V?$basic_string@DU?$char_traits@D@std@@V?$allocator@D@2@@std@@V12@U?$less@V?$basic_string@DU?$char_traits@D@std@@V?$allocator@D@2@@std@@@2@V?$allocator@U?$pair@$$CBV?$basic_string@DU?$char_traits@D@std@@V?$allocator@D@2@@std@@V12@@std@@@2@@std@@QAE@XZ 100c9290 f i NMButton.obj
 0002:0005b2e0       ??1?$pair@$$CBV?$basic_string@DU?$char_traits@D@std@@V?$allocator@D@2@@std@@PAVxSprite@GRAPHICGDI@NMBASE@@@std@@QAE@XZ 100c92e0 f i NMButton.obj
 0002:0005b330       ??1?$pair@$$CBV?$basic_string@DU?$char_traits@D@std@@V?$allocator@D@2@@std@@V12@@std@@QAE@XZ 100c9330 f i NMButton.obj
 0002:0005b390       ??1CNMButton@SKINGDI@NMBASE@@UAE@XZ 100c9390 f   NMButton.obj
 0002:0005b420       ??1CNMCheckButton@SKINGDI@NMBASE@@UAE@XZ 100c9420 f   NMButton.obj
 0002:0005b480       ??1CNMInvisibleButton@SKINGDI@NMBASE@@UAE@XZ 100c9480 f   NMButton.obj
 0002:0005b4e0       ??1CNMMultiSceneButton@SKINGDI@NMBASE@@UAE@XZ 100c94e0 f   NMButton.obj
 0002:0005b540       ??1CNMSceneButton@SKINGDI@NMBASE@@UAE@XZ 100c9540 f   NMButton.obj
 0002:0005b5a0       ??1CNMThumButton@SKINGDI@NMBASE@@UAE@XZ 100c95a0 f   NMButton.obj
 0002:0005b600       ??1CNMWidgetCompact@SKINGDI@NMBASE@@UAE@XZ 100c9600 f i NMButton.obj
 0002:0005b660       ??1INMWidget@SKINGDI@NMBASE@@UAE@XZ 100c9660 f i NMButton.obj
 0002:0005b6a0       ??1_Bxty@?$_String_val@U?$_Simple_types@D@std@@@std@@QAE@XZ 100c96a0 f i NMButton.obj
 0002:0005b6e0       ??1tagPLAY_DATA@CNMAudioMananger@SKINGDI@NMBASE@@QAE@XZ 100c96e0 f i NMButton.obj
 0002:0005b730       ??4?$_List_const_iterator@V?$_List_val@U?$_List_simple_types@UtagPLAY_DATA@CNMAudioMananger@SKINGDI@NMBASE@@@std@@@std@@@std@@QAEAAV01@$$QAV01@@Z 100c9730 f i NMButton.obj
 0002:0005b790       ??4?$_List_unchecked_const_iterator@V?$_List_val@U?$_List_simple_types@UtagPLAY_DATA@CNMAudioMananger@SKINGDI@NMBASE@@@std@@@std@@U_Iterator_base12@2@@std@@QAEAAV01@$$QAV01@@Z 100c9790 f i NMButton.obj
 0002:0005b800       ??4?$_Tree@V?$_Tmap_traits@HPAVINMWidget@SKINGDI@NMBASE@@U?$less@H@std@@V?$allocator@U?$pair@$$CBHPAVINMWidget@SKINGDI@NMBASE@@@std@@@5@$0A@@std@@@std@@QAEAAV01@ABV01@@Z 100c9800 f i NMButton.obj
 0002:0005b8b0       ??4?$_Tree@V?$_Tmap_traits@V?$basic_string@DU?$char_traits@D@std@@V?$allocator@D@2@@std@@PAVxSprite@GRAPHICGDI@NMBASE@@U?$less@V?$basic_string@DU?$char_traits@D@std@@V?$allocator@D@2@@std@@@2@V?$allocator@U?$pair@$$CBV?$basic_string@DU?$char_traits@D@std@@V?$allocator@D@2@@std@@PAVxSprite@GRAPHICGDI@NMBASE@@@std@@@2@$0A@@std@@@std@@QAEAAV01@ABV01@@Z 100c98b0 f i NMButton.obj
 0002:0005b960       ??4?$_Tree@V?$_Tmap_traits@V?$basic_string@DU?$char_traits@D@std@@V?$allocator@D@2@@std@@V12@U?$less@V?$basic_string@DU?$char_traits@D@std@@V?$allocator@D@2@@std@@@2@V?$allocator@U?$pair@$$CBV?$basic_string@DU?$char_traits@D@std@@V?$allocator@D@2@@std@@V12@@std@@@2@$00@std@@@std@@QAEAAV01@ABV01@@Z 100c9960 f i NMButton.obj
 0002:0005ba10       ??4?$basic_string@DU?$char_traits@D@std@@V?$allocator@D@2@@std@@QAEAAV01@ABV01@@Z 100c9a10 f i NMButton.obj
 0002:0005bac0       ??4?$basic_string@DU?$char_traits@D@std@@V?$allocator@D@2@@std@@QAEAAV01@QBD@Z 100c9ac0 f i NMButton.obj
 0002:0005bb20       ??4?$list@UtagPLAY_DATA@CNMAudioMananger@SKINGDI@NMBASE@@V?$allocator@UtagPLAY_DATA@CNMAudioMananger@SKINGDI@NMBASE@@@std@@@std@@QAEAAV01@ABV01@@Z 100c9b20 f i NMButton.obj
 0002:0005bbe0       ??4?$map@HPAVINMWidget@SKINGDI@NMBASE@@U?$less@H@std@@V?$allocator@U?$pair@$$CBHPAVINMWidget@SKINGDI@NMBASE@@@std@@@5@@std@@QAEAAV01@ABV01@@Z 100c9be0 f i NMButton.obj
 0002:0005bc40       ??4?$map@V?$basic_string@DU?$char_traits@D@std@@V?$allocator@D@2@@std@@PAVxSprite@GRAPHICGDI@NMBASE@@U?$less@V?$basic_string@DU?$char_traits@D@std@@V?$allocator@D@2@@std@@@2@V?$allocator@U?$pair@$$CBV?$basic_string@DU?$char_traits@D@std@@V?$allocator@D@2@@std@@PAVxSprite@GRAPHICGDI@NMBASE@@@std@@@2@@std@@QAEAAV01@ABV01@@Z 100c9c40 f i NMButton.obj
 0002:0005bca0       ??4?$multimap@V?$basic_string@DU?$char_traits@D@std@@V?$allocator@D@2@@std@@V12@U?$less@V?$basic_string@DU?$char_traits@D@std@@V?$allocator@D@2@@std@@@2@V?$allocator@U?$pair@$$CBV?$basic_string@DU?$char_traits@D@std@@V?$allocator@D@2@@std@@V12@@std@@@2@@std@@QAEAAV01@ABV01@@Z 100c9ca0 f i NMButton.obj
 0002:0005bd00       ??4?$vector@PAVINMWidget@SKINGDI@NMBASE@@V?$allocator@PAVINMWidget@SKINGDI@NMBASE@@@std@@@std@@QAEAAV01@ABV01@@Z 100c9d00 f i NMButton.obj
 0002:0005bdb0       ??4CNMAudioMananger@SKINGDI@NMBASE@@QAEAAV012@ABV012@@Z 100c9db0 f i NMButton.obj
 0002:0005be60       ??4CNMButton@SKINGDI@NMBASE@@QAEAAV012@ABV012@@Z 100c9e60 f i NMButton.obj
 0002:0005c010       ??4CNMCheckButton@SKINGDI@NMBASE@@QAEAAV012@ABV012@@Z 100ca010 f i NMButton.obj
 0002:0005c080       ??4CNMFontManager@SKINGDI@NMBASE@@QAEAAV012@$$QAV012@@Z 100ca080 f i NMButton.obj
 0002:0005c0c0       ??4CNMFontManager@SKINGDI@NMBASE@@QAEAAV012@ABV012@@Z 100ca0c0 f i NMButton.obj
 0002:0005c100       ??4CNMInvisibleButton@SKINGDI@NMBASE@@QAEAAV012@ABV012@@Z 100ca100 f i NMButton.obj
 0002:0005c210       ??4CNMMultiSceneButton@SKINGDI@NMBASE@@QAEAAV012@ABV012@@Z 100ca210 f i NMButton.obj
 0002:0005c270       ??4CNMSceneButton@SKINGDI@NMBASE@@QAEAAV012@ABV012@@Z 100ca270 f i NMButton.obj
 0002:0005c2e0       ??4CNMSpriteManager@SKINGDI@NMBASE@@QAEAAV012@ABV012@@Z 100ca2e0 f i NMButton.obj
 0002:0005c380       ??4CNMThumButton@SKINGDI@NMBASE@@QAEAAV012@ABV012@@Z 100ca380 f i NMButton.obj
 0002:0005c530       ??4CNMWidgetCompact@SKINGDI@NMBASE@@QAEAAV012@ABV012@@Z 100ca530 f i NMButton.obj
 0002:0005c590       ??4CNMWidgetComposite@SKINGDI@NMBASE@@QAEAAV012@ABV012@@Z 100ca590 f i NMButton.obj
 0002:0005c600       ??4CNMWidgetState@SKINGDI@NMBASE@@QAEAAV012@ABV012@@Z 100ca600 f i NMButton.obj
 0002:0005c680       ??4CObserverSet@SKINGDI@NMBASE@@QAEAAV012@ABV012@@Z 100ca680 f i NMButton.obj
 0002:0005c6f0       ??4INMWidget@SKINGDI@NMBASE@@QAEAAV012@ABV012@@Z 100ca6f0 f i NMButton.obj
 0002:0005c730       ??8?$_List_const_iterator@V?$_List_val@U?$_List_simple_types@UtagPLAY_DATA@CNMAudioMananger@SKINGDI@NMBASE@@@std@@@std@@@std@@QBE_NABV01@@Z 100ca730 f i NMButton.obj
 0002:0005c850       ??8?$_List_unchecked_const_iterator@V?$_List_val@U?$_List_simple_types@UtagPLAY_DATA@CNMAudioMananger@SKINGDI@NMBASE@@@std@@@std@@U_Iterator_base0@2@@std@@QBE_NABV01@@Z 100ca850 f i NMButton.obj
 0002:0005c8c0       ??8?$_Tree_const_iterator@V?$_Tree_val@U?$_Tree_simple_types@U?$pair@$$CBHPAVINMWidget@SKINGDI@NMBASE@@@std@@@std@@@std@@@std@@QBE_NABV01@@Z 100ca8c0 f i NMButton.obj
 0002:0005c9e0       ??8?$_Tree_const_iterator@V?$_Tree_val@U?$_Tree_simple_types@U?$pair@$$CBV?$basic_string@DU?$char_traits@D@std@@V?$allocator@D@2@@std@@PAVxSprite@GRAPHICGDI@NMBASE@@@std@@@std@@@std@@@std@@QBE_NABV01@@Z 100ca9e0 f i NMButton.obj
 0002:0005cb00       ??8?$_Tree_const_iterator@V?$_Tree_val@U?$_Tree_simple_types@U?$pair@$$CBV?$basic_string@DU?$char_traits@D@std@@V?$allocator@D@2@@std@@V12@@std@@@std@@@std@@@std@@QBE_NABV01@@Z 100cab00 f i NMButton.obj
 0002:0005cc20       ??9?$_List_const_iterator@V?$_List_val@U?$_List_simple_types@UtagPLAY_DATA@CNMAudioMananger@SKINGDI@NMBASE@@@std@@@std@@@std@@QBE_NABV01@@Z 100cac20 f i NMButton.obj
 0002:0005ccb0       ??9?$_List_unchecked_const_iterator@V?$_List_val@U?$_List_simple_types@UtagPLAY_DATA@CNMAudioMananger@SKINGDI@NMBASE@@@std@@@std@@U_Iterator_base0@2@@std@@QBE_NABV01@@Z 100cacb0 f i NMButton.obj
 0002:0005cd40       ??9?$_Tree_const_iterator@V?$_Tree_val@U?$_Tree_simple_types@U?$pair@$$CBHPAVINMWidget@SKINGDI@NMBASE@@@std@@@std@@@std@@@std@@QBE_NABV01@@Z 100cad40 f i NMButton.obj
 0002:0005cdd0       ??9?$_Tree_const_iterator@V?$_Tree_val@U?$_Tree_simple_types@U?$pair@$$CBV?$basic_string@DU?$char_traits@D@std@@V?$allocator@D@2@@std@@PAVxSprite@GRAPHICGDI@NMBASE@@@std@@@std@@@std@@@std@@QBE_NABV01@@Z 100cadd0 f i NMButton.obj
 0002:0005ce60       ??9?$_Tree_const_iterator@V?$_Tree_val@U?$_Tree_simple_types@U?$pair@$$CBV?$basic_string@DU?$char_traits@D@std@@V?$allocator@D@2@@std@@V12@@std@@@std@@@std@@@std@@QBE_NABV01@@Z 100cae60 f i NMButton.obj
 0002:0005cef0       ??D?$_List_const_iterator@V?$_List_val@U?$_List_simple_types@UtagPLAY_DATA@CNMAudioMananger@SKINGDI@NMBASE@@@std@@@std@@@std@@QBEABUtagPLAY_DATA@CNMAudioMananger@SKINGDI@NMBASE@@XZ 100caef0 f i NMButton.obj
 0002:0005d060       ??D?$_List_unchecked_const_iterator@V?$_List_val@U?$_List_simple_types@UtagPLAY_DATA@CNMAudioMananger@SKINGDI@NMBASE@@@std@@@std@@U_Iterator_base0@2@@std@@QBEABUtagPLAY_DATA@CNMAudioMananger@SKINGDI@NMBASE@@XZ 100cb060 f i NMButton.obj
 0002:0005d0a0       ??E?$_List_const_iterator@V?$_List_val@U?$_List_simple_types@UtagPLAY_DATA@CNMAudioMananger@SKINGDI@NMBASE@@@std@@@std@@@std@@QAE?AV01@H@Z 100cb0a0 f i NMButton.obj
 0002:0005d1c0       ??E?$_List_const_iterator@V?$_List_val@U?$_List_simple_types@UtagPLAY_DATA@CNMAudioMananger@SKINGDI@NMBASE@@@std@@@std@@@std@@QAEAAV01@XZ 100cb1c0 f i NMButton.obj
 0002:0005d340       ??E?$_List_iterator@V?$_List_val@U?$_List_simple_types@UtagPLAY_DATA@CNMAudioMananger@SKINGDI@NMBASE@@@std@@@std@@@std@@QAEAAV01@XZ 100cb340 f i NMButton.obj
 0002:0005d3a0       ??E?$_List_unchecked_const_iterator@V?$_List_val@U?$_List_simple_types@UtagPLAY_DATA@CNMAudioMananger@SKINGDI@NMBASE@@@std@@@std@@U_Iterator_base0@2@@std@@QAEAAV01@XZ 100cb3a0 f i NMButton.obj
 0002:0005d3f0       ??E?$_Tree_const_iterator@V?$_Tree_val@U?$_Tree_simple_types@U?$pair@$$CBHPAVINMWidget@SKINGDI@NMBASE@@@std@@@std@@@std@@@std@@QAE?AV01@H@Z 100cb3f0 f i NMButton.obj
 0002:0005d510       ??E?$_Tree_const_iterator@V?$_Tree_val@U?$_Tree_simple_types@U?$pair@$$CBHPAVINMWidget@SKINGDI@NMBASE@@@std@@@std@@@std@@@std@@QAEAAV01@XZ 100cb510 f i NMButton.obj
 0002:0005d680       ??E?$_Tree_const_iterator@V?$_Tree_val@U?$_Tree_simple_types@U?$pair@$$CBV?$basic_string@DU?$char_traits@D@std@@V?$allocator@D@2@@std@@PAVxSprite@GRAPHICGDI@NMBASE@@@std@@@std@@@std@@@std@@QAE?AV01@H@Z 100cb680 f i NMButton.obj
 0002:0005d7a0       ??E?$_Tree_const_iterator@V?$_Tree_val@U?$_Tree_simple_types@U?$pair@$$CBV?$basic_string@DU?$char_traits@D@std@@V?$allocator@D@2@@std@@PAVxSprite@GRAPHICGDI@NMBASE@@@std@@@std@@@std@@@std@@QAEAAV01@XZ 100cb7a0 f i NMButton.obj
 0002:0005d910       ??E?$_Tree_const_iterator@V?$_Tree_val@U?$_Tree_simple_types@U?$pair@$$CBV?$basic_string@DU?$char_traits@D@std@@V?$allocator@D@2@@std@@V12@@std@@@std@@@std@@@std@@QAE?AV01@H@Z 100cb910 f i NMButton.obj
 0002:0005da30       ??E?$_Tree_const_iterator@V?$_Tree_val@U?$_Tree_simple_types@U?$pair@$$CBV?$basic_string@DU?$char_traits@D@std@@V?$allocator@D@2@@std@@V12@@std@@@std@@@std@@@std@@QAEAAV01@XZ 100cba30 f i NMButton.obj
 0002:0005dba0       ??E?$_Tree_unchecked_const_iterator@V?$_Tree_val@U?$_Tree_simple_types@U?$pair@$$CBHPAVINMWidget@SKINGDI@NMBASE@@@std@@@std@@@std@@U_Iterator_base12@2@@std@@QAEAAV01@XZ 100cbba0 f i NMButton.obj
 0002:0005dc70       ??E?$_Tree_unchecked_const_iterator@V?$_Tree_val@U?$_Tree_simple_types@U?$pair@$$CBV?$basic_string@DU?$char_traits@D@std@@V?$allocator@D@2@@std@@PAVxSprite@GRAPHICGDI@NMBASE@@@std@@@std@@@std@@U_Iterator_base12@2@@std@@QAEAAV01@XZ 100cbc70 f i NMButton.obj
 0002:0005dd40       ??E?$_Tree_unchecked_const_iterator@V?$_Tree_val@U?$_Tree_simple_types@U?$pair@$$CBV?$basic_string@DU?$char_traits@D@std@@V?$allocator@D@2@@std@@V12@@std@@@std@@@std@@U_Iterator_base12@2@@std@@QAEAAV01@XZ 100cbd40 f i NMButton.obj
 0002:0005de10       ??F?$_List_const_iterator@V?$_List_val@U?$_List_simple_types@UtagPLAY_DATA@CNMAudioMananger@SKINGDI@NMBASE@@@std@@@std@@@std@@QAEAAV01@XZ 100cbe10 f i NMButton.obj
 0002:0005df90       ??F?$_List_iterator@V?$_List_val@U?$_List_simple_types@UtagPLAY_DATA@CNMAudioMananger@SKINGDI@NMBASE@@@std@@@std@@@std@@QAEAAV01@XZ 100cbf90 f i NMButton.obj
 0002:0005dff0       ??F?$_List_unchecked_const_iterator@V?$_List_val@U?$_List_simple_types@UtagPLAY_DATA@CNMAudioMananger@SKINGDI@NMBASE@@@std@@@std@@U_Iterator_base0@2@@std@@QAEAAV01@XZ 100cbff0 f i NMButton.obj
 0002:0005e040       ??R<lambda_9366063389c5f42a00a5088cf24e69de>@@QBEXQADIQBD@Z 100cc040 f i NMButton.obj
 0002:0005e0d0       ??_ECNMAudioMananger@SKINGDI@NMBASE@@UAEPAXI@Z 100cc0d0 f i NMButton.obj
 0002:0005e1d0       ??_ECNMButton@SKINGDI@NMBASE@@UAEPAXI@Z 100cc1d0 f i NMButton.obj
 0002:0005e2e0       ??_ECNMCheckButton@SKINGDI@NMBASE@@UAEPAXI@Z 100cc2e0 f i NMButton.obj
 0002:0005e3f0       ??_ECNMInvisibleButton@SKINGDI@NMBASE@@UAEPAXI@Z 100cc3f0 f i NMButton.obj
 0002:0005e4f0       ??_ECNMMultiSceneButton@SKINGDI@NMBASE@@UAEPAXI@Z 100cc4f0 f i NMButton.obj
 0002:0005e600       ??_ECNMSpriteManager@SKINGDI@NMBASE@@UAEPAXI@Z 100cc600 f i NMButton.obj
 0002:0005e710       ??_ECNMThumButton@SKINGDI@NMBASE@@UAEPAXI@Z 100cc710 f i NMButton.obj
 0002:0005e820       ??_ECNMWidgetCompact@SKINGDI@NMBASE@@UAEPAXI@Z 100cc820 f i NMButton.obj
 0002:0005e930       ??_ECNMWidgetComposite@SKINGDI@NMBASE@@UAEPAXI@Z 100cc930 f i NMButton.obj
 0002:0005ea40       ??_ECNMWidgetState@SKINGDI@NMBASE@@UAEPAXI@Z 100cca40 f i NMButton.obj
 0002:0005eb40       ??_ECObserverSet@SKINGDI@NMBASE@@UAEPAXI@Z 100ccb40 f i NMButton.obj
 0002:0005ec40       ??_EINMWidget@SKINGDI@NMBASE@@UAEPAXI@Z 100ccc40 f i NMButton.obj
 0002:0005ed50       ??_G?$pair@$$CBV?$basic_string@DU?$char_traits@D@std@@V?$allocator@D@2@@std@@PAVxSprite@GRAPHICGDI@NMBASE@@@std@@QAEPAXI@Z 100ccd50 f i NMButton.obj
 0002:0005edc0       ??_G?$pair@$$CBV?$basic_string@DU?$char_traits@D@std@@V?$allocator@D@2@@std@@V12@@std@@QAEPAXI@Z 100ccdc0 f i NMButton.obj
 0002:0005ee30       ??_GCNMAudioMananger@SKINGDI@NMBASE@@UAEPAXI@Z 100cce30 f i NMButton.obj
 0002:0005eea0       ??_GCNMButton@SKINGDI@NMBASE@@UAEPAXI@Z 100ccea0 f i NMButton.obj
 0002:0005ef20       ??_GCNMCheckButton@SKINGDI@NMBASE@@UAEPAXI@Z 100ccf20 f i NMButton.obj
 0002:0005efa0       ??_GCNMInvisibleButton@SKINGDI@NMBASE@@UAEPAXI@Z 100ccfa0 f i NMButton.obj
 0002:0005f010       ??_GCNMMultiSceneButton@SKINGDI@NMBASE@@UAEPAXI@Z 100cd010 f i NMButton.obj
 0002:0005f090       ??_ECNMSceneButton@SKINGDI@NMBASE@@UAEPAXI@Z 100cd090 f i NMButton.obj
 0002:0005f090       ??_GCNMSceneButton@SKINGDI@NMBASE@@UAEPAXI@Z 100cd090 f i NMButton.obj
 0002:0005f110       ??_GCNMSpriteManager@SKINGDI@NMBASE@@UAEPAXI@Z 100cd110 f i NMButton.obj
 0002:0005f190       ??_GCNMThumButton@SKINGDI@NMBASE@@UAEPAXI@Z 100cd190 f i NMButton.obj
 0002:0005f210       ??_GCNMWidgetCompact@SKINGDI@NMBASE@@UAEPAXI@Z 100cd210 f i NMButton.obj
 0002:0005f280       ??_GCNMWidgetComposite@SKINGDI@NMBASE@@UAEPAXI@Z 100cd280 f i NMButton.obj
 0002:0005f2f0       ??_GCNMWidgetState@SKINGDI@NMBASE@@UAEPAXI@Z 100cd2f0 f i NMButton.obj
 0002:0005f360       ??_GCObserverSet@SKINGDI@NMBASE@@UAEPAXI@Z 100cd360 f i NMButton.obj
 0002:0005f3d0       ??_GINMWidget@SKINGDI@NMBASE@@UAEPAXI@Z 100cd3d0 f i NMButton.obj
 0002:0005f440       ??_GtagPLAY_DATA@CNMAudioMananger@SKINGDI@NMBASE@@QAEPAXI@Z 100cd440 f i NMButton.obj
 0002:0005f4b0       ?BeforePage@CNMThumButton@SKINGDI@NMBASE@@QAEXXZ 100cd4b0 f   NMButton.obj
 0002:0005f520       ?ChangePosition@CNMThumButton@SKINGDI@NMBASE@@QAEXHH@Z 100cd520 f   NMButton.obj
 0002:0005f680       ?CreateWidget@CNMWidgetCompact@SKINGDI@NMBASE@@UAEHPAVCWnd@@@Z 100cd680 f i NMButton.obj
 0002:0005f6c0       ?DestroyWidget@CNMWidgetCompact@SKINGDI@NMBASE@@UAEXXZ 100cd6c0 f i NMButton.obj
 0002:0005f700       ?DrawToolTip@CNMButton@SKINGDI@NMBASE@@UAEXAAVCPage@GRAPHICGDI@3@AAVCDC@@@Z 100cd700 f   NMButton.obj
 0002:0005fc30       ?DrawWidget@CNMButton@SKINGDI@NMBASE@@UAEXAAVCPage@GRAPHICGDI@3@AAVCDC@@@Z 100cdc30 f   NMButton.obj
 0002:0005fd10       ?DrawWidget@CNMCheckButton@SKINGDI@NMBASE@@UAEXAAVCPage@GRAPHICGDI@3@AAVCDC@@@Z 100cdd10 f   NMButton.obj
 0002:0005fe20       ?DrawWidget@CNMInvisibleButton@SKINGDI@NMBASE@@UAEXAAVCPage@GRAPHICGDI@3@AAVCDC@@@Z 100cde20 f i NMButton.obj
 0002:0005fe60       ?DrawWidget@CNMMultiSceneButton@SKINGDI@NMBASE@@UAEXAAVCPage@GRAPHICGDI@3@AAVCDC@@@Z 100cde60 f   NMButton.obj
 0002:0005ff40       ?DrawWidget@CNMSceneButton@SKINGDI@NMBASE@@UAEXAAVCPage@GRAPHICGDI@3@AAVCDC@@@Z 100cdf40 f   NMButton.obj
 0002:00060020       ?DrawWidget@CNMThumButton@SKINGDI@NMBASE@@UAEXAAVCPage@GRAPHICGDI@3@AAVCDC@@@Z 100ce020 f   NMButton.obj
 0002:00060080       ?DrawWidget@CNMWidgetCompact@SKINGDI@NMBASE@@UAEXAAVCPage@GRAPHICGDI@3@AAVCDC@@@Z 100ce080 f i NMButton.obj
 0002:000600c0       ?EnterWidget@CNMWidgetCompact@SKINGDI@NMBASE@@UAEXXZ 100ce0c0 f i NMButton.obj
 0002:00060100       ?ExitWidget@CNMWidgetCompact@SKINGDI@NMBASE@@UAEXXZ 100ce100 f i NMButton.obj
 0002:00060140       ?GetButtonRect@CNMInvisibleButton@SKINGDI@NMBASE@@UAE?AVCRect@@XZ 100ce140 f i NMButton.obj
 0002:000601b0       ?GetButtonState@CNMCheckButton@SKINGDI@NMBASE@@QAE_NXZ 100ce1b0 f   NMButton.obj
 0002:000601f0       ?GetControlID@CNMInvisibleButton@SKINGDI@NMBASE@@UAEHXZ 100ce1f0 f i NMButton.obj
 0002:00060230       ?GetCurrentState@CNMWidgetState@SKINGDI@NMBASE@@UAEHXZ 100ce230 f i NMButton.obj
 0002:00060270       ?GetEnable@CNMInvisibleButton@SKINGDI@NMBASE@@UAEHXZ 100ce270 f i NMButton.obj
 0002:000602b0       ?GetPosX@CNMButton@SKINGDI@NMBASE@@UAEHXZ 100ce2b0 f i NMButton.obj
 0002:000602f0       ?GetPosY@CNMButton@SKINGDI@NMBASE@@UAEHXZ 100ce2f0 f i NMButton.obj
 0002:00060330       ?GetStartElement@CNMThumButton@SKINGDI@NMBASE@@QAEHXZ 100ce330 f   NMButton.obj
 0002:00060380       ?GetlParam@CNMButton@SKINGDI@NMBASE@@UAEJXZ 100ce380 f i NMButton.obj
 0002:000603c0       ?GetwParam@CNMButton@SKINGDI@NMBASE@@UAEIXZ 100ce3c0 f i NMButton.obj
 0002:00060400       ?Initialize@CNMButton@SKINGDI@NMBASE@@UAEHHPAVCWnd@@HHHH@Z 100ce400 f   NMButton.obj
 0002:00060480       ?Initialize@CNMButton@SKINGDI@NMBASE@@UAEHHPAVCWnd@@HHPADHH@Z 100ce480 f   NMButton.obj
 0002:000605a0       ?Initialize@CNMInvisibleButton@SKINGDI@NMBASE@@UAEHHPAVCWnd@@HHHH@Z 100ce5a0 f   NMButton.obj
 0002:000606a0       ?IsComposite@CNMWidgetComposite@SKINGDI@NMBASE@@UAEHXZ 100ce6a0 f i NMButton.obj
 0002:000606e0       ?IsComposite@INMWidget@SKINGDI@NMBASE@@UAEHXZ 100ce6e0 f i NMButton.obj
 0002:00060720       ?IsDrawAbleToolTip@CNMButton@SKINGDI@NMBASE@@UAEHXZ 100ce720 f   NMButton.obj
 0002:000607c0       ?IsInRect@CNMInvisibleButton@SKINGDI@NMBASE@@UAEHVCPoint@@@Z 100ce7c0 f   NMButton.obj
 0002:00060860       ?NMSendMessage@INMWidget@SKINGDI@NMBASE@@MAEHPAVCWnd@@HIJ@Z 100ce860 f i NMButton.obj
 0002:000608e0       ?NextPage@CNMThumButton@SKINGDI@NMBASE@@QAEXXZ 100ce8e0 f   NMButton.obj
 0002:00060950       ?OnCommandWidget@CNMWidgetCompact@SKINGDI@NMBASE@@UAEHHIJ@Z 100ce950 f i NMButton.obj
 0002:00060990       ?OnKeyDownWidget@CNMWidgetCompact@SKINGDI@NMBASE@@UAEHHH@Z 100ce990 f i NMButton.obj
 0002:000609d0       ?OnLButtonDbClkWidget@CNMWidgetCompact@SKINGDI@NMBASE@@UAEHIVCPoint@@@Z 100ce9d0 f i NMButton.obj
 0002:00060a10       ?OnLButtonDownWidget@CNMButton@SKINGDI@NMBASE@@UAEHIVCPoint@@@Z 100cea10 f   NMButton.obj
 0002:00060be0       ?OnLButtonDownWidget@CNMCheckButton@SKINGDI@NMBASE@@UAEHIVCPoint@@@Z 100cebe0 f   NMButton.obj
 0002:00060c30       ?OnLButtonDownWidget@CNMInvisibleButton@SKINGDI@NMBASE@@UAEHIVCPoint@@@Z 100cec30 f   NMButton.obj
 0002:00060cd0       ?OnLButtonDownWidget@CNMSceneButton@SKINGDI@NMBASE@@UAEHIVCPoint@@@Z 100cecd0 f   NMButton.obj
 0002:00060d50       ?OnLButtonDownWidget@CNMThumButton@SKINGDI@NMBASE@@UAEHIVCPoint@@@Z 100ced50 f   NMButton.obj
 0002:00060e50       ?OnLButtonDownWidget@CNMWidgetCompact@SKINGDI@NMBASE@@UAEHIVCPoint@@@Z 100cee50 f i NMButton.obj
 0002:00060e90       ?OnLButtonUpWidget@CNMButton@SKINGDI@NMBASE@@UAEHIVCPoint@@@Z 100cee90 f   NMButton.obj
 0002:00061070       ?OnLButtonUpWidget@CNMCheckButton@SKINGDI@NMBASE@@UAEHIVCPoint@@@Z 100cf070 f   NMButton.obj
 0002:00061190       ?OnLButtonUpWidget@CNMInvisibleButton@SKINGDI@NMBASE@@UAEHIVCPoint@@@Z 100cf190 f   NMButton.obj
 0002:00061270       ?OnLButtonUpWidget@CNMSceneButton@SKINGDI@NMBASE@@UAEHIVCPoint@@@Z 100cf270 f   NMButton.obj
 0002:000612f0       ?OnLButtonUpWidget@CNMThumButton@SKINGDI@NMBASE@@UAEHIVCPoint@@@Z 100cf2f0 f   NMButton.obj
 0002:00061470       ?OnLButtonUpWidget@CNMWidgetCompact@SKINGDI@NMBASE@@UAEHIVCPoint@@@Z 100cf470 f i NMButton.obj
 0002:000614b0       ?OnMouseLeaveWidget@CNMButton@SKINGDI@NMBASE@@UAEHIVCPoint@@@Z 100cf4b0 f   NMButton.obj
 0002:00061540       ?OnMouseLeaveWidget@CNMInvisibleButton@SKINGDI@NMBASE@@UAEHIVCPoint@@@Z 100cf540 f   NMButton.obj
 0002:000615a0       ?OnMouseLeaveWidget@CNMThumButton@SKINGDI@NMBASE@@UAEHIVCPoint@@@Z 100cf5a0 f   NMButton.obj
 0002:00061630       ?OnMouseLeaveWidget@CNMWidgetCompact@SKINGDI@NMBASE@@UAEHIVCPoint@@@Z 100cf630 f i NMButton.obj
 0002:00061670       ?OnMouseMoveWidget@CNMButton@SKINGDI@NMBASE@@UAEHIVCPoint@@@Z 100cf670 f   NMButton.obj
 0002:00061830       ?OnMouseMoveWidget@CNMCheckButton@SKINGDI@NMBASE@@UAEHIVCPoint@@@Z 100cf830 f   NMButton.obj
 0002:00061880       ?OnMouseMoveWidget@CNMInvisibleButton@SKINGDI@NMBASE@@UAEHIVCPoint@@@Z 100cf880 f   NMButton.obj
 0002:00061920       ?OnMouseMoveWidget@CNMSceneButton@SKINGDI@NMBASE@@UAEHIVCPoint@@@Z 100cf920 f   NMButton.obj
 0002:000619d0       ?OnMouseMoveWidget@CNMThumButton@SKINGDI@NMBASE@@UAEHIVCPoint@@@Z 100cf9d0 f   NMButton.obj
 0002:00061a80       ?OnMouseMoveWidget@CNMWidgetCompact@SKINGDI@NMBASE@@UAEHIVCPoint@@@Z 100cfa80 f i NMButton.obj
 0002:00061ac0       ?OnMouseWheelWidget@CNMThumButton@SKINGDI@NMBASE@@UAEHIFVCPoint@@@Z 100cfac0 f   NMButton.obj
 0002:00061bb0       ?OnMouseWheelWidget@CNMWidgetCompact@SKINGDI@NMBASE@@UAEHIFVCPoint@@@Z 100cfbb0 f i NMButton.obj
 0002:00061bf0       ?OnRButtonDbClkWidget@CNMWidgetCompact@SKINGDI@NMBASE@@UAEHIVCPoint@@@Z 100cfbf0 f i NMButton.obj
 0002:00061c30       ?OnRButtonDownWidget@CNMWidgetCompact@SKINGDI@NMBASE@@UAEHIVCPoint@@@Z 100cfc30 f i NMButton.obj
 0002:00061c70       ?OnRButtonUpWidget@CNMWidgetCompact@SKINGDI@NMBASE@@UAEHIVCPoint@@@Z 100cfc70 f i NMButton.obj
 0002:00061cb0       ?SetAutoLastPageAttri@CNMThumButton@SKINGDI@NMBASE@@QAEXH@Z 100cfcb0 f   NMButton.obj
 0002:00061d00       ?SetButtonState@CNMCheckButton@SKINGDI@NMBASE@@QAEX_N@Z 100cfd00 f   NMButton.obj
 0002:00061d50       ?SetControlID@CNMInvisibleButton@SKINGDI@NMBASE@@UAEXH@Z 100cfd50 f   NMButton.obj
 0002:00061da0       ?SetCurrentPage@CNMThumButton@SKINGDI@NMBASE@@QAEXH@Z 100cfda0 f   NMButton.obj
 0002:00061fe0       ?SetElementCount@CNMThumButton@SKINGDI@NMBASE@@QAEXH@Z 100cffe0 f   NMButton.obj
 0002:000622e0       ?SetEnable@CNMButton@SKINGDI@NMBASE@@UAEXH@Z 100d02e0 f   NMButton.obj
 0002:000623a0       ?SetEnable@CNMInvisibleButton@SKINGDI@NMBASE@@UAEXH@Z 100d03a0 f   NMButton.obj
 0002:000623f0       ?SetPosition@CNMButton@SKINGDI@NMBASE@@UAEXHH@Z 100d03f0 f   NMButton.obj
 0002:000624a0       ?SetRelationPosition@CNMButton@SKINGDI@NMBASE@@UAEXHH@Z 100d04a0 f   NMButton.obj
 0002:00062540       ?SetSendParam@CNMButton@SKINGDI@NMBASE@@UAEXIJ@Z 100d0540 f   NMButton.obj
 0002:000625a0       ?SetSound@CNMButton@SKINGDI@NMBASE@@UAEXPAD0@Z 100d05a0 f   NMButton.obj
 0002:00062610       ?SetSprite@CNMButton@SKINGDI@NMBASE@@UAEHPBDHH@Z 100d0610 f   NMButton.obj
 0002:000627c0       ?SetSprite@CNMSceneButton@SKINGDI@NMBASE@@UAEHPADHH@Z 100d07c0 f   NMButton.obj
 0002:00062940       ?SetThumAttribute@CNMThumButton@SKINGDI@NMBASE@@QAEHPAVCNMButton@23@0VCRect@@HH@Z 100d0940 f   NMButton.obj
 0002:00062b30       ?SetThumPosition@CNMThumButton@SKINGDI@NMBASE@@QAEXPAVCNMButton@23@0VCRect@@@Z 100d0b30 f   NMButton.obj
 0002:00062d60       ?SetTooltip@CNMButton@SKINGDI@NMBASE@@UAEXPADHH@Z 100d0d60 f   NMButton.obj
 0002:00062de0       ?SetupThumPosition@CNMThumButton@SKINGDI@NMBASE@@QAEXXZ 100d0de0 f   NMButton.obj
 0002:00062e80       ?Show@CNMButton@SKINGDI@NMBASE@@UAEXH@Z 100d0e80 f   NMButton.obj
 0002:00062ed0       ?UpdateWidget@CNMWidgetCompact@SKINGDI@NMBASE@@UAEXK@Z 100d0ed0 f i NMButton.obj
 0002:00062f10       ?_Adopt@_Iterator_base0@std@@QAEXPBX@Z 100d0f10 f i NMButton.obj
 0002:00062f50       ?_Alloc_proxy@?$_List_alloc@U?$_List_base_types@UtagPLAY_DATA@CNMAudioMananger@SKINGDI@NMBASE@@V?$allocator@UtagPLAY_DATA@CNMAudioMananger@SKINGDI@NMBASE@@@std@@@std@@@std@@QAEXXZ 100d0f50 f i NMButton.obj
 0002:00063070       ?_Alloc_proxy@?$_String_alloc@U?$_String_base_types@DV?$allocator@D@std@@@std@@@std@@QAEXXZ 100d1070 f i NMButton.obj
 0002:00063190       ?_Alloc_proxy@?$_Tree_comp_alloc@V?$_Tmap_traits@HPAVINMWidget@SKINGDI@NMBASE@@U?$less@H@std@@V?$allocator@U?$pair@$$CBHPAVINMWidget@SKINGDI@NMBASE@@@std@@@5@$0A@@std@@@std@@QAEXXZ 100d1190 f i NMButton.obj
 0002:000632b0       ?_Alloc_proxy@?$_Tree_comp_alloc@V?$_Tmap_traits@V?$basic_string@DU?$char_traits@D@std@@V?$allocator@D@2@@std@@PAVxSprite@GRAPHICGDI@NMBASE@@U?$less@V?$basic_string@DU?$char_traits@D@std@@V?$allocator@D@2@@std@@@2@V?$allocator@U?$pair@$$CBV?$basic_string@DU?$char_traits@D@std@@V?$allocator@D@2@@std@@PAVxSprite@GRAPHICGDI@NMBASE@@@std@@@2@$0A@@std@@@std@@QAEXXZ 100d12b0 f i NMButton.obj
 0002:000633d0       ?_Alloc_proxy@?$_Tree_comp_alloc@V?$_Tmap_traits@V?$basic_string@DU?$char_traits@D@std@@V?$allocator@D@2@@std@@V12@U?$less@V?$basic_string@DU?$char_traits@D@std@@V?$allocator@D@2@@std@@@2@V?$allocator@U?$pair@$$CBV?$basic_string@DU?$char_traits@D@std@@V?$allocator@D@2@@std@@V12@@std@@@2@$00@std@@@std@@QAEXXZ 100d13d0 f i NMButton.obj
 0002:000634f0       ?_Alloc_proxy@?$_Vector_alloc@U?$_Vec_base_types@PAVINMWidget@SKINGDI@NMBASE@@V?$allocator@PAVINMWidget@SKINGDI@NMBASE@@@std@@@std@@@std@@QAEXXZ 100d14f0 f i NMButton.obj
 0002:00063610       ?_Buy@?$vector@PAVINMWidget@SKINGDI@NMBASE@@V?$allocator@PAVINMWidget@SKINGDI@NMBASE@@@std@@@std@@AAE_NI@Z 100d1610 f i NMButton.obj
 0002:00063720       ?_Buyheadnode@?$_List_alloc@U?$_List_base_types@UtagPLAY_DATA@CNMAudioMananger@SKINGDI@NMBASE@@V?$allocator@UtagPLAY_DATA@CNMAudioMananger@SKINGDI@NMBASE@@@std@@@std@@@std@@QAEPAU?$_List_node@UtagPLAY_DATA@CNMAudioMananger@SKINGDI@NMBASE@@PAX@2@XZ 100d1720 f i NMButton.obj
 0002:00063780       ?_Buyheadnode@?$_Tree_comp_alloc@V?$_Tmap_traits@HPAVINMWidget@SKINGDI@NMBASE@@U?$less@H@std@@V?$allocator@U?$pair@$$CBHPAVINMWidget@SKINGDI@NMBASE@@@std@@@5@$0A@@std@@@std@@QAEPAU?$_Tree_node@U?$pair@$$CBHPAVINMWidget@SKINGDI@NMBASE@@@std@@PAX@2@XZ 100d1780 f i NMButton.obj
 0002:00063930       ?_Buyheadnode@?$_Tree_comp_alloc@V?$_Tmap_traits@V?$basic_string@DU?$char_traits@D@std@@V?$allocator@D@2@@std@@PAVxSprite@GRAPHICGDI@NMBASE@@U?$less@V?$basic_string@DU?$char_traits@D@std@@V?$allocator@D@2@@std@@@2@V?$allocator@U?$pair@$$CBV?$basic_string@DU?$char_traits@D@std@@V?$allocator@D@2@@std@@PAVxSprite@GRAPHICGDI@NMBASE@@@std@@@2@$0A@@std@@@std@@QAEPAU?$_Tree_node@U?$pair@$$CBV?$basic_string@DU?$char_traits@D@std@@V?$allocator@D@2@@std@@PAVxSprite@GRAPHICGDI@NMBASE@@@std@@PAX@2@XZ 100d1930 f i NMButton.obj
 0002:00063ae0       ?_Buyheadnode@?$_Tree_comp_alloc@V?$_Tmap_traits@V?$basic_string@DU?$char_traits@D@std@@V?$allocator@D@2@@std@@V12@U?$less@V?$basic_string@DU?$char_traits@D@std@@V?$allocator@D@2@@std@@@2@V?$allocator@U?$pair@$$CBV?$basic_string@DU?$char_traits@D@std@@V?$allocator@D@2@@std@@V12@@std@@@2@$00@std@@@std@@QAEPAU?$_Tree_node@U?$pair@$$CBV?$basic_string@DU?$char_traits@D@std@@V?$allocator@D@2@@std@@V12@@std@@PAX@2@XZ 100d1ae0 f i NMButton.obj
 0002:00063c90       ?_Buynode0@?$_List_alloc@U?$_List_base_types@UtagPLAY_DATA@CNMAudioMananger@SKINGDI@NMBASE@@V?$allocator@UtagPLAY_DATA@CNMAudioMananger@SKINGDI@NMBASE@@@std@@@std@@@std@@QAEPAU?$_List_node@UtagPLAY_DATA@CNMAudioMananger@SKINGDI@NMBASE@@PAX@2@PAU32@0@Z 100d1c90 f i NMButton.obj
 0002:00063df0       ?_Buynode0@?$_Tree_comp_alloc@V?$_Tmap_traits@HPAVINMWidget@SKINGDI@NMBASE@@U?$less@H@std@@V?$allocator@U?$pair@$$CBHPAVINMWidget@SKINGDI@NMBASE@@@std@@@5@$0A@@std@@@std@@QAEPAU?$_Tree_node@U?$pair@$$CBHPAVINMWidget@SKINGDI@NMBASE@@@std@@PAX@2@XZ 100d1df0 f i NMButton.obj
 0002:00063f60       ?_Buynode0@?$_Tree_comp_alloc@V?$_Tmap_traits@V?$basic_string@DU?$char_traits@D@std@@V?$allocator@D@2@@std@@PAVxSprite@GRAPHICGDI@NMBASE@@U?$less@V?$basic_string@DU?$char_traits@D@std@@V?$allocator@D@2@@std@@@2@V?$allocator@U?$pair@$$CBV?$basic_string@DU?$char_traits@D@std@@V?$allocator@D@2@@std@@PAVxSprite@GRAPHICGDI@NMBASE@@@std@@@2@$0A@@std@@@std@@QAEPAU?$_Tree_node@U?$pair@$$CBV?$basic_string@DU?$char_traits@D@std@@V?$allocator@D@2@@std@@PAVxSprite@GRAPHICGDI@NMBASE@@@std@@PAX@2@XZ 100d1f60 f i NMButton.obj
 0002:000640d0       ?_Buynode0@?$_Tree_comp_alloc@V?$_Tmap_traits@V?$basic_string@DU?$char_traits@D@std@@V?$allocator@D@2@@std@@V12@U?$less@V?$basic_string@DU?$char_traits@D@std@@V?$allocator@D@2@@std@@@2@V?$allocator@U?$pair@$$CBV?$basic_string@DU?$char_traits@D@std@@V?$allocator@D@2@@std@@V12@@std@@@2@$00@std@@@std@@QAEPAU?$_Tree_node@U?$pair@$$CBV?$basic_string@DU?$char_traits@D@std@@V?$allocator@D@2@@std@@V12@@std@@PAX@2@XZ 100d20d0 f i NMButton.obj
 0002:00064240       ?_Calculate_growth@?$basic_string@DU?$char_traits@D@std@@V?$allocator@D@2@@std@@QBEII@Z 100d2240 f i NMButton.obj
 0002:00064350       ?_Calculate_growth@?$vector@PAVINMWidget@SKINGDI@NMBASE@@V?$allocator@PAVINMWidget@SKINGDI@NMBASE@@@std@@@std@@ABEII@Z 100d2350 f i NMButton.obj
 0002:000643f0       ?_Construct@?$_Tree_comp_alloc@V?$_Tmap_traits@HPAVINMWidget@SKINGDI@NMBASE@@U?$less@H@std@@V?$allocator@U?$pair@$$CBHPAVINMWidget@SKINGDI@NMBASE@@@std@@@5@$0A@@std@@@std@@QAEXXZ 100d23f0 f i NMButton.obj
 0002:000644e0       ?_Construct@?$_Tree_comp_alloc@V?$_Tmap_traits@V?$basic_string@DU?$char_traits@D@std@@V?$allocator@D@2@@std@@PAVxSprite@GRAPHICGDI@NMBASE@@U?$less@V?$basic_string@DU?$char_traits@D@std@@V?$allocator@D@2@@std@@@2@V?$allocator@U?$pair@$$CBV?$basic_string@DU?$char_traits@D@std@@V?$allocator@D@2@@std@@PAVxSprite@GRAPHICGDI@NMBASE@@@std@@@2@$0A@@std@@@std@@QAEXXZ 100d24e0 f i NMButton.obj
 0002:000645d0       ?_Construct@?$_Tree_comp_alloc@V?$_Tmap_traits@V?$basic_string@DU?$char_traits@D@std@@V?$allocator@D@2@@std@@V12@U?$less@V?$basic_string@DU?$char_traits@D@std@@V?$allocator@D@2@@std@@@2@V?$allocator@U?$pair@$$CBV?$basic_string@DU?$char_traits@D@std@@V?$allocator@D@2@@std@@V12@@std@@@2@$00@std@@@std@@QAEXXZ 100d25d0 f i NMButton.obj
 0002:000646c0       ?_Construct_lv_contents@?$basic_string@DU?$char_traits@D@std@@V?$allocator@D@2@@std@@QAEXABV12@@Z 100d26c0 f i NMButton.obj
 0002:00064890       ?_Copy_alloc@?$_List_alloc@U?$_List_base_types@UtagPLAY_DATA@CNMAudioMananger@SKINGDI@NMBASE@@V?$allocator@UtagPLAY_DATA@CNMAudioMananger@SKINGDI@NMBASE@@@std@@@std@@@std@@QAEXABV?$allocator@U?$_List_node@UtagPLAY_DATA@CNMAudioMananger@SKINGDI@NMBASE@@PAX@std@@@2@@Z 100d2890 f i NMButton.obj
 0002:00064950       ?_Copy_alloc@?$_String_alloc@U?$_String_base_types@DV?$allocator@D@std@@@std@@@std@@QAEXABV?$allocator@D@2@@Z 100d2950 f i NMButton.obj
 0002:000649e0       ?_Copy_alloc@?$_Tree_comp_alloc@V?$_Tmap_traits@HPAVINMWidget@SKINGDI@NMBASE@@U?$less@H@std@@V?$allocator@U?$pair@$$CBHPAVINMWidget@SKINGDI@NMBASE@@@std@@@5@$0A@@std@@@std@@QAEXABV?$allocator@U?$_Tree_node@U?$pair@$$CBHPAVINMWidget@SKINGDI@NMBASE@@@std@@PAX@std@@@2@@Z 100d29e0 f i NMButton.obj
 0002:00064aa0       ?_Copy_alloc@?$_Tree_comp_alloc@V?$_Tmap_traits@V?$basic_string@DU?$char_traits@D@std@@V?$allocator@D@2@@std@@PAVxSprite@GRAPHICGDI@NMBASE@@U?$less@V?$basic_string@DU?$char_traits@D@std@@V?$allocator@D@2@@std@@@2@V?$allocator@U?$pair@$$CBV?$basic_string@DU?$char_traits@D@std@@V?$allocator@D@2@@std@@PAVxSprite@GRAPHICGDI@NMBASE@@@std@@@2@$0A@@std@@@std@@QAEXABV?$allocator@U?$_Tree_node@U?$pair@$$CBV?$basic_string@DU?$char_traits@D@std@@V?$allocator@D@2@@std@@PAVxSprite@GRAPHICGDI@NMBASE@@@std@@PAX@std@@@2@@Z 100d2aa0 f i NMButton.obj
 0002:00064b60       ?_Copy_alloc@?$_Tree_comp_alloc@V?$_Tmap_traits@V?$basic_string@DU?$char_traits@D@std@@V?$allocator@D@2@@std@@V12@U?$less@V?$basic_string@DU?$char_traits@D@std@@V?$allocator@D@2@@std@@@2@V?$allocator@U?$pair@$$CBV?$basic_string@DU?$char_traits@D@std@@V?$allocator@D@2@@std@@V12@@std@@@2@$00@std@@@std@@QAEXABV?$allocator@U?$_Tree_node@U?$pair@$$CBV?$basic_string@DU?$char_traits@D@std@@V?$allocator@D@2@@std@@V12@@std@@PAX@std@@@2@@Z 100d2b60 f i NMButton.obj
 0002:00064c20       ?_Copy_alloc@?$_Vector_alloc@U?$_Vec_base_types@PAVINMWidget@SKINGDI@NMBASE@@V?$allocator@PAVINMWidget@SKINGDI@NMBASE@@@std@@@std@@@std@@QAEXABV?$allocator@PAVINMWidget@SKINGDI@NMBASE@@@2@@Z 100d2c20 f i NMButton.obj
 0002:00064cb0       ?_Destroy@?$vector@PAVINMWidget@SKINGDI@NMBASE@@V?$allocator@PAVINMWidget@SKINGDI@NMBASE@@@std@@@std@@AAEXPAPAVINMWidget@SKINGDI@NMBASE@@0@Z 100d2cb0 f i NMButton.obj
 0002:00064d20       ?_Erase@?$_Tree@V?$_Tmap_traits@HPAVINMWidget@SKINGDI@NMBASE@@U?$less@H@std@@V?$allocator@U?$pair@$$CBHPAVINMWidget@SKINGDI@NMBASE@@@std@@@5@$0A@@std@@@std@@IAEXPAU?$_Tree_node@U?$pair@$$CBHPAVINMWidget@SKINGDI@NMBASE@@@std@@PAX@2@@Z 100d2d20 f i NMButton.obj
 0002:00064df0       ?_Erase@?$_Tree@V?$_Tmap_traits@V?$basic_string@DU?$char_traits@D@std@@V?$allocator@D@2@@std@@PAVxSprite@GRAPHICGDI@NMBASE@@U?$less@V?$basic_string@DU?$char_traits@D@std@@V?$allocator@D@2@@std@@@2@V?$allocator@U?$pair@$$CBV?$basic_string@DU?$char_traits@D@std@@V?$allocator@D@2@@std@@PAVxSprite@GRAPHICGDI@NMBASE@@@std@@@2@$0A@@std@@@std@@IAEXPAU?$_Tree_node@U?$pair@$$CBV?$basic_string@DU?$char_traits@D@std@@V?$allocator@D@2@@std@@PAVxSprite@GRAPHICGDI@NMBASE@@@std@@PAX@2@@Z 100d2df0 f i NMButton.obj
 0002:00064ec0       ?_Erase@?$_Tree@V?$_Tmap_traits@V?$basic_string@DU?$char_traits@D@std@@V?$allocator@D@2@@std@@V12@U?$less@V?$basic_string@DU?$char_traits@D@std@@V?$allocator@D@2@@std@@@2@V?$allocator@U?$pair@$$CBV?$basic_string@DU?$char_traits@D@std@@V?$allocator@D@2@@std@@V12@@std@@@2@$00@std@@@std@@IAEXPAU?$_Tree_node@U?$pair@$$CBV?$basic_string@DU?$char_traits@D@std@@V?$allocator@D@2@@std@@V12@@std@@PAX@2@@Z 100d2ec0 f i NMButton.obj
 0002:00064f90       ?_Extract@?$_Tree_val@U?$_Tree_simple_types@U?$pair@$$CBHPAVINMWidget@SKINGDI@NMBASE@@@std@@@std@@@std@@QAEPAU?$_Tree_node@U?$pair@$$CBHPAVINMWidget@SKINGDI@NMBASE@@@std@@PAX@2@V?$_Tree_const_iterator@V?$_Tree_val@U?$_Tree_simple_types@U?$pair@$$CBHPAVINMWidget@SKINGDI@NMBASE@@@std@@@std@@@std@@@2@@Z 100d2f90 f i NMButton.obj
 0002:00065620       ?_Extract@?$_Tree_val@U?$_Tree_simple_types@U?$pair@$$CBV?$basic_string@DU?$char_traits@D@std@@V?$allocator@D@2@@std@@PAVxSprite@GRAPHICGDI@NMBASE@@@std@@@std@@@std@@QAEPAU?$_Tree_node@U?$pair@$$CBV?$basic_string@DU?$char_traits@D@std@@V?$allocator@D@2@@std@@PAVxSprite@GRAPHICGDI@NMBASE@@@std@@PAX@2@V?$_Tree_const_iterator@V?$_Tree_val@U?$_Tree_simple_types@U?$pair@$$CBV?$basic_string@DU?$char_traits@D@std@@V?$allocator@D@2@@std@@PAVxSprite@GRAPHICGDI@NMBASE@@@std@@@std@@@std@@@2@@Z 100d3620 f i NMButton.obj
 0002:00065cb0       ?_Extract@?$_Tree_val@U?$_Tree_simple_types@U?$pair@$$CBV?$basic_string@DU?$char_traits@D@std@@V?$allocator@D@2@@std@@V12@@std@@@std@@@std@@QAEPAU?$_Tree_node@U?$pair@$$CBV?$basic_string@DU?$char_traits@D@std@@V?$allocator@D@2@@std@@V12@@std@@PAX@2@V?$_Tree_const_iterator@V?$_Tree_val@U?$_Tree_simple_types@U?$pair@$$CBV?$basic_string@DU?$char_traits@D@std@@V?$allocator@D@2@@std@@V12@@std@@@std@@@std@@@2@@Z 100d3cb0 f i NMButton.obj
 0002:00066340       ?_Free_proxy@?$_List_alloc@U?$_List_base_types@UtagPLAY_DATA@CNMAudioMananger@SKINGDI@NMBASE@@V?$allocator@UtagPLAY_DATA@CNMAudioMananger@SKINGDI@NMBASE@@@std@@@std@@@std@@QAEXXZ 100d4340 f i NMButton.obj
 0002:00066440       ?_Free_proxy@?$_String_alloc@U?$_String_base_types@DV?$allocator@D@std@@@std@@@std@@QAEXXZ 100d4440 f i NMButton.obj
 0002:00066540       ?_Free_proxy@?$_Tree_comp_alloc@V?$_Tmap_traits@HPAVINMWidget@SKINGDI@NMBASE@@U?$less@H@std@@V?$allocator@U?$pair@$$CBHPAVINMWidget@SKINGDI@NMBASE@@@std@@@5@$0A@@std@@@std@@QAEXXZ 100d4540 f i NMButton.obj
 0002:00066640       ?_Free_proxy@?$_Tree_comp_alloc@V?$_Tmap_traits@V?$basic_string@DU?$char_traits@D@std@@V?$allocator@D@2@@std@@PAVxSprite@GRAPHICGDI@NMBASE@@U?$less@V?$basic_string@DU?$char_traits@D@std@@V?$allocator@D@2@@std@@@2@V?$allocator@U?$pair@$$CBV?$basic_string@DU?$char_traits@D@std@@V?$allocator@D@2@@std@@PAVxSprite@GRAPHICGDI@NMBASE@@@std@@@2@$0A@@std@@@std@@QAEXXZ 100d4640 f i NMButton.obj
 0002:00066740       ?_Free_proxy@?$_Tree_comp_alloc@V?$_Tmap_traits@V?$basic_string@DU?$char_traits@D@std@@V?$allocator@D@2@@std@@V12@U?$less@V?$basic_string@DU?$char_traits@D@std@@V?$allocator@D@2@@std@@@2@V?$allocator@U?$pair@$$CBV?$basic_string@DU?$char_traits@D@std@@V?$allocator@D@2@@std@@V12@@std@@@2@$00@std@@@std@@QAEXXZ 100d4740 f i NMButton.obj
 0002:00066840       ?_Free_proxy@?$_Vector_alloc@U?$_Vec_base_types@PAVINMWidget@SKINGDI@NMBASE@@V?$allocator@PAVINMWidget@SKINGDI@NMBASE@@@std@@@std@@@std@@QAEXXZ 100d4840 f i NMButton.obj
 0002:00066940       ?_Freeheadnode@?$_List_alloc@U?$_List_base_types@UtagPLAY_DATA@CNMAudioMananger@SKINGDI@NMBASE@@V?$allocator@UtagPLAY_DATA@CNMAudioMananger@SKINGDI@NMBASE@@@std@@@std@@@std@@QAEXPAU?$_List_node@UtagPLAY_DATA@CNMAudioMananger@SKINGDI@NMBASE@@PAX@2@@Z 100d4940 f i NMButton.obj
 0002:000669b0       ?_Freeheadnode@?$_Tree_comp_alloc@V?$_Tmap_traits@HPAVINMWidget@SKINGDI@NMBASE@@U?$less@H@std@@V?$allocator@U?$pair@$$CBHPAVINMWidget@SKINGDI@NMBASE@@@std@@@5@$0A@@std@@@std@@QAEXPAU?$_Tree_node@U?$pair@$$CBHPAVINMWidget@SKINGDI@NMBASE@@@std@@PAX@2@@Z 100d49b0 f i NMButton.obj
 0002:00066a20       ?_Freeheadnode@?$_Tree_comp_alloc@V?$_Tmap_traits@V?$basic_string@DU?$char_traits@D@std@@V?$allocator@D@2@@std@@PAVxSprite@GRAPHICGDI@NMBASE@@U?$less@V?$basic_string@DU?$char_traits@D@std@@V?$allocator@D@2@@std@@@2@V?$allocator@U?$pair@$$CBV?$basic_string@DU?$char_traits@D@std@@V?$allocator@D@2@@std@@PAVxSprite@GRAPHICGDI@NMBASE@@@std@@@2@$0A@@std@@@std@@QAEXPAU?$_Tree_node@U?$pair@$$CBV?$basic_string@DU?$char_traits@D@std@@V?$allocator@D@2@@std@@PAVxSprite@GRAPHICGDI@NMBASE@@@std@@PAX@2@@Z 100d4a20 f i NMButton.obj
 0002:00066a90       ?_Freeheadnode@?$_Tree_comp_alloc@V?$_Tmap_traits@V?$basic_string@DU?$char_traits@D@std@@V?$allocator@D@2@@std@@V12@U?$less@V?$basic_string@DU?$char_traits@D@std@@V?$allocator@D@2@@std@@@2@V?$allocator@U?$pair@$$CBV?$basic_string@DU?$char_traits@D@std@@V?$allocator@D@2@@std@@V12@@std@@@2@$00@std@@@std@@QAEXPAU?$_Tree_node@U?$pair@$$CBV?$basic_string@DU?$char_traits@D@std@@V?$allocator@D@2@@std@@V12@@std@@PAX@2@@Z 100d4a90 f i NMButton.obj
 0002:00066b00       ?_Freenode0@?$_Tree_comp_alloc@V?$_Tmap_traits@HPAVINMWidget@SKINGDI@NMBASE@@U?$less@H@std@@V?$allocator@U?$pair@$$CBHPAVINMWidget@SKINGDI@NMBASE@@@std@@@5@$0A@@std@@@std@@QAEXPAU?$_Tree_node@U?$pair@$$CBHPAVINMWidget@SKINGDI@NMBASE@@@std@@PAX@2@@Z 100d4b00 f i NMButton.obj
 0002:00066b70       ?_Freenode0@?$_Tree_comp_alloc@V?$_Tmap_traits@V?$basic_string@DU?$char_traits@D@std@@V?$allocator@D@2@@std@@PAVxSprite@GRAPHICGDI@NMBASE@@U?$less@V?$basic_string@DU?$char_traits@D@std@@V?$allocator@D@2@@std@@@2@V?$allocator@U?$pair@$$CBV?$basic_string@DU?$char_traits@D@std@@V?$allocator@D@2@@std@@PAVxSprite@GRAPHICGDI@NMBASE@@@std@@@2@$0A@@std@@@std@@QAEXPAU?$_Tree_node@U?$pair@$$CBV?$basic_string@DU?$char_traits@D@std@@V?$allocator@D@2@@std@@PAVxSprite@GRAPHICGDI@NMBASE@@@std@@PAX@2@@Z 100d4b70 f i NMButton.obj
 0002:00066be0       ?_Freenode0@?$_Tree_comp_alloc@V?$_Tmap_traits@V?$basic_string@DU?$char_traits@D@std@@V?$allocator@D@2@@std@@V12@U?$less@V?$basic_string@DU?$char_traits@D@std@@V?$allocator@D@2@@std@@@2@V?$allocator@U?$pair@$$CBV?$basic_string@DU?$char_traits@D@std@@V?$allocator@D@2@@std@@V12@@std@@@2@$00@std@@@std@@QAEXPAU?$_Tree_node@U?$pair@$$CBV?$basic_string@DU?$char_traits@D@std@@V?$allocator@D@2@@std@@V12@@std@@PAX@2@@Z 100d4be0 f i NMButton.obj
 0002:00066c50       ?_Freenode@?$_List_buy@UtagPLAY_DATA@CNMAudioMananger@SKINGDI@NMBASE@@V?$allocator@UtagPLAY_DATA@CNMAudioMananger@SKINGDI@NMBASE@@@std@@@std@@QAEXPAU?$_List_node@UtagPLAY_DATA@CNMAudioMananger@SKINGDI@NMBASE@@PAX@2@@Z 100d4c50 f i NMButton.obj
 0002:00066ce0       ?_Get_data@?$_List_alloc@U?$_List_base_types@UtagPLAY_DATA@CNMAudioMananger@SKINGDI@NMBASE@@V?$allocator@UtagPLAY_DATA@CNMAudioMananger@SKINGDI@NMBASE@@@std@@@std@@@std@@QAEAAV?$_List_val@U?$_List_simple_types@UtagPLAY_DATA@CNMAudioMananger@SKINGDI@NMBASE@@@std@@@2@XZ 100d4ce0 f i NMButton.obj
 0002:00066d30       ?_Get_data@?$_List_alloc@U?$_List_base_types@UtagPLAY_DATA@CNMAudioMananger@SKINGDI@NMBASE@@V?$allocator@UtagPLAY_DATA@CNMAudioMananger@SKINGDI@NMBASE@@@std@@@std@@@std@@QBEABV?$_List_val@U?$_List_simple_types@UtagPLAY_DATA@CNMAudioMananger@SKINGDI@NMBASE@@@std@@@2@XZ 100d4d30 f i NMButton.obj
 0002:00066d80       ?_Get_data@?$_String_alloc@U?$_String_base_types@DV?$allocator@D@std@@@std@@@std@@QAEAAV?$_String_val@U?$_Simple_types@D@std@@@2@XZ 100d4d80 f i NMButton.obj
 0002:00066dd0       ?_Get_data@?$_String_alloc@U?$_String_base_types@DV?$allocator@D@std@@@std@@@std@@QBEABV?$_String_val@U?$_Simple_types@D@std@@@2@XZ 100d4dd0 f i NMButton.obj
 0002:00066e20       ?_Get_data@?$_Tree_comp_alloc@V?$_Tmap_traits@HPAVINMWidget@SKINGDI@NMBASE@@U?$less@H@std@@V?$allocator@U?$pair@$$CBHPAVINMWidget@SKINGDI@NMBASE@@@std@@@5@$0A@@std@@@std@@QAEAAV?$_Tree_val@U?$_Tree_simple_types@U?$pair@$$CBHPAVINMWidget@SKINGDI@NMBASE@@@std@@@std@@@2@XZ 100d4e20 f i NMButton.obj
 0002:00066e80       ?_Get_data@?$_Tree_comp_alloc@V?$_Tmap_traits@HPAVINMWidget@SKINGDI@NMBASE@@U?$less@H@std@@V?$allocator@U?$pair@$$CBHPAVINMWidget@SKINGDI@NMBASE@@@std@@@5@$0A@@std@@@std@@QBEABV?$_Tree_val@U?$_Tree_simple_types@U?$pair@$$CBHPAVINMWidget@SKINGDI@NMBASE@@@std@@@std@@@2@XZ 100d4e80 f i NMButton.obj
 0002:00066ee0       ?_Get_data@?$_Tree_comp_alloc@V?$_Tmap_traits@V?$basic_string@DU?$char_traits@D@std@@V?$allocator@D@2@@std@@PAVxSprite@GRAPHICGDI@NMBASE@@U?$less@V?$basic_string@DU?$char_traits@D@std@@V?$allocator@D@2@@std@@@2@V?$allocator@U?$pair@$$CBV?$basic_string@DU?$char_traits@D@std@@V?$allocator@D@2@@std@@PAVxSprite@GRAPHICGDI@NMBASE@@@std@@@2@$0A@@std@@@std@@QAEAAV?$_Tree_val@U?$_Tree_simple_types@U?$pair@$$CBV?$basic_string@DU?$char_traits@D@std@@V?$allocator@D@2@@std@@PAVxSprite@GRAPHICGDI@NMBASE@@@std@@@std@@@2@XZ 100d4ee0 f i NMButton.obj
 0002:00066f40       ?_Get_data@?$_Tree_comp_alloc@V?$_Tmap_traits@V?$basic_string@DU?$char_traits@D@std@@V?$allocator@D@2@@std@@PAVxSprite@GRAPHICGDI@NMBASE@@U?$less@V?$basic_string@DU?$char_traits@D@std@@V?$allocator@D@2@@std@@@2@V?$allocator@U?$pair@$$CBV?$basic_string@DU?$char_traits@D@std@@V?$allocator@D@2@@std@@PAVxSprite@GRAPHICGDI@NMBASE@@@std@@@2@$0A@@std@@@std@@QBEABV?$_Tree_val@U?$_Tree_simple_types@U?$pair@$$CBV?$basic_string@DU?$char_traits@D@std@@V?$allocator@D@2@@std@@PAVxSprite@GRAPHICGDI@NMBASE@@@std@@@std@@@2@XZ 100d4f40 f i NMButton.obj
 0002:00066fa0       ?_Get_data@?$_Tree_comp_alloc@V?$_Tmap_traits@V?$basic_string@DU?$char_traits@D@std@@V?$allocator@D@2@@std@@V12@U?$less@V?$basic_string@DU?$char_traits@D@std@@V?$allocator@D@2@@std@@@2@V?$allocator@U?$pair@$$CBV?$basic_string@DU?$char_traits@D@std@@V?$allocator@D@2@@std@@V12@@std@@@2@$00@std@@@std@@QAEAAV?$_Tree_val@U?$_Tree_simple_types@U?$pair@$$CBV?$basic_string@DU?$char_traits@D@std@@V?$allocator@D@2@@std@@V12@@std@@@std@@@2@XZ 100d4fa0 f i NMButton.obj
 0002:00067000       ?_Get_data@?$_Tree_comp_alloc@V?$_Tmap_traits@V?$basic_string@DU?$char_traits@D@std@@V?$allocator@D@2@@std@@V12@U?$less@V?$basic_string@DU?$char_traits@D@std@@V?$allocator@D@2@@std@@@2@V?$allocator@U?$pair@$$CBV?$basic_string@DU?$char_traits@D@std@@V?$allocator@D@2@@std@@V12@@std@@@2@$00@std@@@std@@QBEABV?$_Tree_val@U?$_Tree_simple_types@U?$pair@$$CBV?$basic_string@DU?$char_traits@D@std@@V?$allocator@D@2@@std@@V12@@std@@@std@@@2@XZ 100d5000 f i NMButton.obj
 0002:00067060       ?_Get_data@?$_Vector_alloc@U?$_Vec_base_types@PAVINMWidget@SKINGDI@NMBASE@@V?$allocator@PAVINMWidget@SKINGDI@NMBASE@@@std@@@std@@@std@@QAEAAV?$_Vector_val@U?$_Simple_types@PAVINMWidget@SKINGDI@NMBASE@@@std@@@2@XZ 100d5060 f i NMButton.obj
 0002:000670b0       ?_Get_data@?$_Vector_alloc@U?$_Vec_base_types@PAVINMWidget@SKINGDI@NMBASE@@V?$allocator@PAVINMWidget@SKINGDI@NMBASE@@@std@@@std@@@std@@QBEABV?$_Vector_val@U?$_Simple_types@PAVINMWidget@SKINGDI@NMBASE@@@std@@@2@XZ 100d50b0 f i NMButton.obj
 0002:00067100       ?_Get_first@?$_Compressed_pair@U?$less@H@std@@V?$_Compressed_pair@V?$allocator@U?$_Tree_node@U?$pair@$$CBHPAVINMWidget@SKINGDI@NMBASE@@@std@@PAX@std@@@std@@V?$_Tree_val@U?$_Tree_simple_types@U?$pair@$$CBHPAVINMWidget@SKINGDI@NMBASE@@@std@@@std@@@2@$00@2@$00@std@@QAEAAU?$less@H@2@XZ 100d5100 f i NMButton.obj
 0002:00067140       ?_Get_first@?$_Compressed_pair@U?$less@H@std@@V?$_Compressed_pair@V?$allocator@U?$_Tree_node@U?$pair@$$CBHPAVINMWidget@SKINGDI@NMBASE@@@std@@PAX@std@@@std@@V?$_Tree_val@U?$_Tree_simple_types@U?$pair@$$CBHPAVINMWidget@SKINGDI@NMBASE@@@std@@@std@@@2@$00@2@$00@std@@QBEABU?$less@H@2@XZ 100d5140 f i NMButton.obj
 0002:00067180       ?_Get_first@?$_Compressed_pair@U?$less@V?$basic_string@DU?$char_traits@D@std@@V?$allocator@D@2@@std@@@std@@V?$_Compressed_pair@V?$allocator@U?$_Tree_node@U?$pair@$$CBV?$basic_string@DU?$char_traits@D@std@@V?$allocator@D@2@@std@@PAVxSprite@GRAPHICGDI@NMBASE@@@std@@PAX@std@@@std@@V?$_Tree_val@U?$_Tree_simple_types@U?$pair@$$CBV?$basic_string@DU?$char_traits@D@std@@V?$allocator@D@2@@std@@PAVxSprite@GRAPHICGDI@NMBASE@@@std@@@std@@@2@$00@2@$00@std@@QAEAAU?$less@V?$basic_string@DU?$char_traits@D@std@@V?$allocator@D@2@@std@@@2@XZ 100d5180 f i NMButton.obj
 0002:000671c0       ?_Get_first@?$_Compressed_pair@U?$less@V?$basic_string@DU?$char_traits@D@std@@V?$allocator@D@2@@std@@@std@@V?$_Compressed_pair@V?$allocator@U?$_Tree_node@U?$pair@$$CBV?$basic_string@DU?$char_traits@D@std@@V?$allocator@D@2@@std@@PAVxSprite@GRAPHICGDI@NMBASE@@@std@@PAX@std@@@std@@V?$_Tree_val@U?$_Tree_simple_types@U?$pair@$$CBV?$basic_string@DU?$char_traits@D@std@@V?$allocator@D@2@@std@@PAVxSprite@GRAPHICGDI@NMBASE@@@std@@@std@@@2@$00@2@$00@std@@QBEABU?$less@V?$basic_string@DU?$char_traits@D@std@@V?$allocator@D@2@@std@@@2@XZ 100d51c0 f i NMButton.obj
 0002:00067200       ?_Get_first@?$_Compressed_pair@U?$less@V?$basic_string@DU?$char_traits@D@std@@V?$allocator@D@2@@std@@@std@@V?$_Compressed_pair@V?$allocator@U?$_Tree_node@U?$pair@$$CBV?$basic_string@DU?$char_traits@D@std@@V?$allocator@D@2@@std@@V12@@std@@PAX@std@@@std@@V?$_Tree_val@U?$_Tree_simple_types@U?$pair@$$CBV?$basic_string@DU?$char_traits@D@std@@V?$allocator@D@2@@std@@V12@@std@@@std@@@2@$00@2@$00@std@@QAEAAU?$less@V?$basic_string@DU?$char_traits@D@std@@V?$allocator@D@2@@std@@@2@XZ 100d5200 f i NMButton.obj
 0002:00067240       ?_Get_first@?$_Compressed_pair@U?$less@V?$basic_string@DU?$char_traits@D@std@@V?$allocator@D@2@@std@@@std@@V?$_Compressed_pair@V?$allocator@U?$_Tree_node@U?$pair@$$CBV?$basic_string@DU?$char_traits@D@std@@V?$allocator@D@2@@std@@V12@@std@@PAX@std@@@std@@V?$_Tree_val@U?$_Tree_simple_types@U?$pair@$$CBV?$basic_string@DU?$char_traits@D@std@@V?$allocator@D@2@@std@@V12@@std@@@std@@@2@$00@2@$00@std@@QBEABU?$less@V?$basic_string@DU?$char_traits@D@std@@V?$allocator@D@2@@std@@@2@XZ 100d5240 f i NMButton.obj
 0002:00067280       ?_Get_first@?$_Compressed_pair@V?$allocator@D@std@@V?$_String_val@U?$_Simple_types@D@std@@@2@$00@std@@QAEAAV?$allocator@D@2@XZ 100d5280 f i NMButton.obj
 0002:000672c0       ?_Get_first@?$_Compressed_pair@V?$allocator@D@std@@V?$_String_val@U?$_Simple_types@D@std@@@2@$00@std@@QBEABV?$allocator@D@2@XZ 100d52c0 f i NMButton.obj
 0002:00067300       ?_Get_first@?$_Compressed_pair@V?$allocator@PAVINMWidget@SKINGDI@NMBASE@@@std@@V?$_Vector_val@U?$_Simple_types@PAVINMWidget@SKINGDI@NMBASE@@@std@@@2@$00@std@@QAEAAV?$allocator@PAVINMWidget@SKINGDI@NMBASE@@@2@XZ 100d5300 f i NMButton.obj
 0002:00067340       ?_Get_first@?$_Compressed_pair@V?$allocator@PAVINMWidget@SKINGDI@NMBASE@@@std@@V?$_Vector_val@U?$_Simple_types@PAVINMWidget@SKINGDI@NMBASE@@@std@@@2@$00@std@@QBEABV?$allocator@PAVINMWidget@SKINGDI@NMBASE@@@2@XZ 100d5340 f i NMButton.obj
 0002:00067380       ?_Get_first@?$_Compressed_pair@V?$allocator@U?$_List_node@UtagPLAY_DATA@CNMAudioMananger@SKINGDI@NMBASE@@PAX@std@@@std@@V?$_List_val@U?$_List_simple_types@UtagPLAY_DATA@CNMAudioMananger@SKINGDI@NMBASE@@@std@@@2@$00@std@@QAEAAV?$allocator@U?$_List_node@UtagPLAY_DATA@CNMAudioMananger@SKINGDI@NMBASE@@PAX@std@@@2@XZ 100d5380 f i NMButton.obj
 0002:000673c0       ?_Get_first@?$_Compressed_pair@V?$allocator@U?$_List_node@UtagPLAY_DATA@CNMAudioMananger@SKINGDI@NMBASE@@PAX@std@@@std@@V?$_List_val@U?$_List_simple_types@UtagPLAY_DATA@CNMAudioMananger@SKINGDI@NMBASE@@@std@@@2@$00@std@@QBEABV?$allocator@U?$_List_node@UtagPLAY_DATA@CNMAudioMananger@SKINGDI@NMBASE@@PAX@std@@@2@XZ 100d53c0 f i NMButton.obj
 0002:00067400       ?_Get_first@?$_Compressed_pair@V?$allocator@U?$_Tree_node@U?$pair@$$CBHPAVINMWidget@SKINGDI@NMBASE@@@std@@PAX@std@@@std@@V?$_Tree_val@U?$_Tree_simple_types@U?$pair@$$CBHPAVINMWidget@SKINGDI@NMBASE@@@std@@@std@@@2@$00@std@@QAEAAV?$allocator@U?$_Tree_node@U?$pair@$$CBHPAVINMWidget@SKINGDI@NMBASE@@@std@@PAX@std@@@2@XZ 100d5400 f i NMButton.obj
 0002:00067440       ?_Get_first@?$_Compressed_pair@V?$allocator@U?$_Tree_node@U?$pair@$$CBHPAVINMWidget@SKINGDI@NMBASE@@@std@@PAX@std@@@std@@V?$_Tree_val@U?$_Tree_simple_types@U?$pair@$$CBHPAVINMWidget@SKINGDI@NMBASE@@@std@@@std@@@2@$00@std@@QBEABV?$allocator@U?$_Tree_node@U?$pair@$$CBHPAVINMWidget@SKINGDI@NMBASE@@@std@@PAX@std@@@2@XZ 100d5440 f i NMButton.obj
 0002:00067480       ?_Get_first@?$_Compressed_pair@V?$allocator@U?$_Tree_node@U?$pair@$$CBV?$basic_string@DU?$char_traits@D@std@@V?$allocator@D@2@@std@@PAVxSprite@GRAPHICGDI@NMBASE@@@std@@PAX@std@@@std@@V?$_Tree_val@U?$_Tree_simple_types@U?$pair@$$CBV?$basic_string@DU?$char_traits@D@std@@V?$allocator@D@2@@std@@PAVxSprite@GRAPHICGDI@NMBASE@@@std@@@std@@@2@$00@std@@QAEAAV?$allocator@U?$_Tree_node@U?$pair@$$CBV?$basic_string@DU?$char_traits@D@std@@V?$allocator@D@2@@std@@PAVxSprite@GRAPHICGDI@NMBASE@@@std@@PAX@std@@@2@XZ 100d5480 f i NMButton.obj
 0002:000674c0       ?_Get_first@?$_Compressed_pair@V?$allocator@U?$_Tree_node@U?$pair@$$CBV?$basic_string@DU?$char_traits@D@std@@V?$allocator@D@2@@std@@PAVxSprite@GRAPHICGDI@NMBASE@@@std@@PAX@std@@@std@@V?$_Tree_val@U?$_Tree_simple_types@U?$pair@$$CBV?$basic_string@DU?$char_traits@D@std@@V?$allocator@D@2@@std@@PAVxSprite@GRAPHICGDI@NMBASE@@@std@@@std@@@2@$00@std@@QBEABV?$allocator@U?$_Tree_node@U?$pair@$$CBV?$basic_string@DU?$char_traits@D@std@@V?$allocator@D@2@@std@@PAVxSprite@GRAPHICGDI@NMBASE@@@std@@PAX@std@@@2@XZ 100d54c0 f i NMButton.obj
 0002:00067500       ?_Get_first@?$_Compressed_pair@V?$allocator@U?$_Tree_node@U?$pair@$$CBV?$basic_string@DU?$char_traits@D@std@@V?$allocator@D@2@@std@@V12@@std@@PAX@std@@@std@@V?$_Tree_val@U?$_Tree_simple_types@U?$pair@$$CBV?$basic_string@DU?$char_traits@D@std@@V?$allocator@D@2@@std@@V12@@std@@@std@@@2@$00@std@@QAEAAV?$allocator@U?$_Tree_node@U?$pair@$$CBV?$basic_string@DU?$char_traits@D@std@@V?$allocator@D@2@@std@@V12@@std@@PAX@std@@@2@XZ 100d5500 f i NMButton.obj
 0002:00067540       ?_Get_first@?$_Compressed_pair@V?$allocator@U?$_Tree_node@U?$pair@$$CBV?$basic_string@DU?$char_traits@D@std@@V?$allocator@D@2@@std@@V12@@std@@PAX@std@@@std@@V?$_Tree_val@U?$_Tree_simple_types@U?$pair@$$CBV?$basic_string@DU?$char_traits@D@std@@V?$allocator@D@2@@std@@V12@@std@@@std@@@2@$00@std@@QBEABV?$allocator@U?$_Tree_node@U?$pair@$$CBV?$basic_string@DU?$char_traits@D@std@@V?$allocator@D@2@@std@@V12@@std@@PAX@std@@@2@XZ 100d5540 f i NMButton.obj
 0002:00067580       ?_Get_second@?$_Compressed_pair@U?$less@H@std@@V?$_Compressed_pair@V?$allocator@U?$_Tree_node@U?$pair@$$CBHPAVINMWidget@SKINGDI@NMBASE@@@std@@PAX@std@@@std@@V?$_Tree_val@U?$_Tree_simple_types@U?$pair@$$CBHPAVINMWidget@SKINGDI@NMBASE@@@std@@@std@@@2@$00@2@$00@std@@QAEAAV?$_Compressed_pair@V?$allocator@U?$_Tree_node@U?$pair@$$CBHPAVINMWidget@SKINGDI@NMBASE@@@std@@PAX@std@@@std@@V?$_Tree_val@U?$_Tree_simple_types@U?$pair@$$CBHPAVINMWidget@SKINGDI@NMBASE@@@std@@@std@@@2@$00@2@XZ 100d5580 f i NMButton.obj
 0002:000675c0       ?_Get_second@?$_Compressed_pair@U?$less@H@std@@V?$_Compressed_pair@V?$allocator@U?$_Tree_node@U?$pair@$$CBHPAVINMWidget@SKINGDI@NMBASE@@@std@@PAX@std@@@std@@V?$_Tree_val@U?$_Tree_simple_types@U?$pair@$$CBHPAVINMWidget@SKINGDI@NMBASE@@@std@@@std@@@2@$00@2@$00@std@@QBEABV?$_Compressed_pair@V?$allocator@U?$_Tree_node@U?$pair@$$CBHPAVINMWidget@SKINGDI@NMBASE@@@std@@PAX@std@@@std@@V?$_Tree_val@U?$_Tree_simple_types@U?$pair@$$CBHPAVINMWidget@SKINGDI@NMBASE@@@std@@@std@@@2@$00@2@XZ 100d55c0 f i NMButton.obj
 0002:00067600       ?_Get_second@?$_Compressed_pair@U?$less@V?$basic_string@DU?$char_traits@D@std@@V?$allocator@D@2@@std@@@std@@V?$_Compressed_pair@V?$allocator@U?$_Tree_node@U?$pair@$$CBV?$basic_string@DU?$char_traits@D@std@@V?$allocator@D@2@@std@@PAVxSprite@GRAPHICGDI@NMBASE@@@std@@PAX@std@@@std@@V?$_Tree_val@U?$_Tree_simple_types@U?$pair@$$CBV?$basic_string@DU?$char_traits@D@std@@V?$allocator@D@2@@std@@PAVxSprite@GRAPHICGDI@NMBASE@@@std@@@std@@@2@$00@2@$00@std@@QAEAAV?$_Compressed_pair@V?$allocator@U?$_Tree_node@U?$pair@$$CBV?$basic_string@DU?$char_traits@D@std@@V?$allocator@D@2@@std@@PAVxSprite@GRAPHICGDI@NMBASE@@@std@@PAX@std@@@std@@V?$_Tree_val@U?$_Tree_simple_types@U?$pair@$$CBV?$basic_string@DU?$char_traits@D@std@@V?$allocator@D@2@@std@@PAVxSprite@GRAPHICGDI@NMBASE@@@std@@@std@@@2@$00@2@XZ 100d5600 f i NMButton.obj
 0002:00067640       ?_Get_second@?$_Compressed_pair@U?$less@V?$basic_string@DU?$char_traits@D@std@@V?$allocator@D@2@@std@@@std@@V?$_Compressed_pair@V?$allocator@U?$_Tree_node@U?$pair@$$CBV?$basic_string@DU?$char_traits@D@std@@V?$allocator@D@2@@std@@PAVxSprite@GRAPHICGDI@NMBASE@@@std@@PAX@std@@@std@@V?$_Tree_val@U?$_Tree_simple_types@U?$pair@$$CBV?$basic_string@DU?$char_traits@D@std@@V?$allocator@D@2@@std@@PAVxSprite@GRAPHICGDI@NMBASE@@@std@@@std@@@2@$00@2@$00@std@@QBEABV?$_Compressed_pair@V?$allocator@U?$_Tree_node@U?$pair@$$CBV?$basic_string@DU?$char_traits@D@std@@V?$allocator@D@2@@std@@PAVxSprite@GRAPHICGDI@NMBASE@@@std@@PAX@std@@@std@@V?$_Tree_val@U?$_Tree_simple_types@U?$pair@$$CBV?$basic_string@DU?$char_traits@D@std@@V?$allocator@D@2@@std@@PAVxSprite@GRAPHICGDI@NMBASE@@@std@@@std@@@2@$00@2@XZ 100d5640 f i NMButton.obj
 0002:00067680       ?_Get_second@?$_Compressed_pair@U?$less@V?$basic_string@DU?$char_traits@D@std@@V?$allocator@D@2@@std@@@std@@V?$_Compressed_pair@V?$allocator@U?$_Tree_node@U?$pair@$$CBV?$basic_string@DU?$char_traits@D@std@@V?$allocator@D@2@@std@@V12@@std@@PAX@std@@@std@@V?$_Tree_val@U?$_Tree_simple_types@U?$pair@$$CBV?$basic_string@DU?$char_traits@D@std@@V?$allocator@D@2@@std@@V12@@std@@@std@@@2@$00@2@$00@std@@QAEAAV?$_Compressed_pair@V?$allocator@U?$_Tree_node@U?$pair@$$CBV?$basic_string@DU?$char_traits@D@std@@V?$allocator@D@2@@std@@V12@@std@@PAX@std@@@std@@V?$_Tree_val@U?$_Tree_simple_types@U?$pair@$$CBV?$basic_string@DU?$char_traits@D@std@@V?$allocator@D@2@@std@@V12@@std@@@std@@@2@$00@2@XZ 100d5680 f i NMButton.obj
 0002:000676c0       ?_Get_second@?$_Compressed_pair@U?$less@V?$basic_string@DU?$char_traits@D@std@@V?$allocator@D@2@@std@@@std@@V?$_Compressed_pair@V?$allocator@U?$_Tree_node@U?$pair@$$CBV?$basic_string@DU?$char_traits@D@std@@V?$allocator@D@2@@std@@V12@@std@@PAX@std@@@std@@V?$_Tree_val@U?$_Tree_simple_types@U?$pair@$$CBV?$basic_string@DU?$char_traits@D@std@@V?$allocator@D@2@@std@@V12@@std@@@std@@@2@$00@2@$00@std@@QBEABV?$_Compressed_pair@V?$allocator@U?$_Tree_node@U?$pair@$$CBV?$basic_string@DU?$char_traits@D@std@@V?$allocator@D@2@@std@@V12@@std@@PAX@std@@@std@@V?$_Tree_val@U?$_Tree_simple_types@U?$pair@$$CBV?$basic_string@DU?$char_traits@D@std@@V?$allocator@D@2@@std@@V12@@std@@@std@@@2@$00@2@XZ 100d56c0 f i NMButton.obj
 0002:00067700       ?_Get_second@?$_Compressed_pair@V?$allocator@D@std@@V?$_String_val@U?$_Simple_types@D@std@@@2@$00@std@@QAEAAV?$_String_val@U?$_Simple_types@D@std@@@2@XZ 100d5700 f i NMButton.obj
 0002:00067740       ?_Get_second@?$_Compressed_pair@V?$allocator@D@std@@V?$_String_val@U?$_Simple_types@D@std@@@2@$00@std@@QBEABV?$_String_val@U?$_Simple_types@D@std@@@2@XZ 100d5740 f i NMButton.obj
 0002:00067780       ?_Get_second@?$_Compressed_pair@V?$allocator@PAVINMWidget@SKINGDI@NMBASE@@@std@@V?$_Vector_val@U?$_Simple_types@PAVINMWidget@SKINGDI@NMBASE@@@std@@@2@$00@std@@QAEAAV?$_Vector_val@U?$_Simple_types@PAVINMWidget@SKINGDI@NMBASE@@@std@@@2@XZ 100d5780 f i NMButton.obj
 0002:000677c0       ?_Get_second@?$_Compressed_pair@V?$allocator@PAVINMWidget@SKINGDI@NMBASE@@@std@@V?$_Vector_val@U?$_Simple_types@PAVINMWidget@SKINGDI@NMBASE@@@std@@@2@$00@std@@QBEABV?$_Vector_val@U?$_Simple_types@PAVINMWidget@SKINGDI@NMBASE@@@std@@@2@XZ 100d57c0 f i NMButton.obj
 0002:00067800       ?_Get_second@?$_Compressed_pair@V?$allocator@U?$_List_node@UtagPLAY_DATA@CNMAudioMananger@SKINGDI@NMBASE@@PAX@std@@@std@@V?$_List_val@U?$_List_simple_types@UtagPLAY_DATA@CNMAudioMananger@SKINGDI@NMBASE@@@std@@@2@$00@std@@QAEAAV?$_List_val@U?$_List_simple_types@UtagPLAY_DATA@CNMAudioMananger@SKINGDI@NMBASE@@@std@@@2@XZ 100d5800 f i NMButton.obj
 0002:00067840       ?_Get_second@?$_Compressed_pair@V?$allocator@U?$_List_node@UtagPLAY_DATA@CNMAudioMananger@SKINGDI@NMBASE@@PAX@std@@@std@@V?$_List_val@U?$_List_simple_types@UtagPLAY_DATA@CNMAudioMananger@SKINGDI@NMBASE@@@std@@@2@$00@std@@QBEABV?$_List_val@U?$_List_simple_types@UtagPLAY_DATA@CNMAudioMananger@SKINGDI@NMBASE@@@std@@@2@XZ 100d5840 f i NMButton.obj
 0002:00067880       ?_Get_second@?$_Compressed_pair@V?$allocator@U?$_Tree_node@U?$pair@$$CBHPAVINMWidget@SKINGDI@NMBASE@@@std@@PAX@std@@@std@@V?$_Tree_val@U?$_Tree_simple_types@U?$pair@$$CBHPAVINMWidget@SKINGDI@NMBASE@@@std@@@std@@@2@$00@std@@QAEAAV?$_Tree_val@U?$_Tree_simple_types@U?$pair@$$CBHPAVINMWidget@SKINGDI@NMBASE@@@std@@@std@@@2@XZ 100d5880 f i NMButton.obj
 0002:000678c0       ?_Get_second@?$_Compressed_pair@V?$allocator@U?$_Tree_node@U?$pair@$$CBHPAVINMWidget@SKINGDI@NMBASE@@@std@@PAX@std@@@std@@V?$_Tree_val@U?$_Tree_simple_types@U?$pair@$$CBHPAVINMWidget@SKINGDI@NMBASE@@@std@@@std@@@2@$00@std@@QBEABV?$_Tree_val@U?$_Tree_simple_types@U?$pair@$$CBHPAVINMWidget@SKINGDI@NMBASE@@@std@@@std@@@2@XZ 100d58c0 f i NMButton.obj
 0002:00067900       ?_Get_second@?$_Compressed_pair@V?$allocator@U?$_Tree_node@U?$pair@$$CBV?$basic_string@DU?$char_traits@D@std@@V?$allocator@D@2@@std@@PAVxSprite@GRAPHICGDI@NMBASE@@@std@@PAX@std@@@std@@V?$_Tree_val@U?$_Tree_simple_types@U?$pair@$$CBV?$basic_string@DU?$char_traits@D@std@@V?$allocator@D@2@@std@@PAVxSprite@GRAPHICGDI@NMBASE@@@std@@@std@@@2@$00@std@@QAEAAV?$_Tree_val@U?$_Tree_simple_types@U?$pair@$$CBV?$basic_string@DU?$char_traits@D@std@@V?$allocator@D@2@@std@@PAVxSprite@GRAPHICGDI@NMBASE@@@std@@@std@@@2@XZ 100d5900 f i NMButton.obj
 0002:00067940       ?_Get_second@?$_Compressed_pair@V?$allocator@U?$_Tree_node@U?$pair@$$CBV?$basic_string@DU?$char_traits@D@std@@V?$allocator@D@2@@std@@PAVxSprite@GRAPHICGDI@NMBASE@@@std@@PAX@std@@@std@@V?$_Tree_val@U?$_Tree_simple_types@U?$pair@$$CBV?$basic_string@DU?$char_traits@D@std@@V?$allocator@D@2@@std@@PAVxSprite@GRAPHICGDI@NMBASE@@@std@@@std@@@2@$00@std@@QBEABV?$_Tree_val@U?$_Tree_simple_types@U?$pair@$$CBV?$basic_string@DU?$char_traits@D@std@@V?$allocator@D@2@@std@@PAVxSprite@GRAPHICGDI@NMBASE@@@std@@@std@@@2@XZ 100d5940 f i NMButton.obj
 0002:00067980       ?_Get_second@?$_Compressed_pair@V?$allocator@U?$_Tree_node@U?$pair@$$CBV?$basic_string@DU?$char_traits@D@std@@V?$allocator@D@2@@std@@V12@@std@@PAX@std@@@std@@V?$_Tree_val@U?$_Tree_simple_types@U?$pair@$$CBV?$basic_string@DU?$char_traits@D@std@@V?$allocator@D@2@@std@@V12@@std@@@std@@@2@$00@std@@QAEAAV?$_Tree_val@U?$_Tree_simple_types@U?$pair@$$CBV?$basic_string@DU?$char_traits@D@std@@V?$allocator@D@2@@std@@V12@@std@@@std@@@2@XZ 100d5980 f i NMButton.obj
 0002:000679c0       ?_Get_second@?$_Compressed_pair@V?$allocator@U?$_Tree_node@U?$pair@$$CBV?$basic_string@DU?$char_traits@D@std@@V?$allocator@D@2@@std@@V12@@std@@PAX@std@@@std@@V?$_Tree_val@U?$_Tree_simple_types@U?$pair@$$CBV?$basic_string@DU?$char_traits@D@std@@V?$allocator@D@2@@std@@V12@@std@@@std@@@2@$00@std@@QBEABV?$_Tree_val@U?$_Tree_simple_types@U?$pair@$$CBV?$basic_string@DU?$char_traits@D@std@@V?$allocator@D@2@@std@@V12@@std@@@std@@@2@XZ 100d59c0 f i NMButton.obj
 0002:00067a00       ?_Getal@?$_List_alloc@U?$_List_base_types@UtagPLAY_DATA@CNMAudioMananger@SKINGDI@NMBASE@@V?$allocator@UtagPLAY_DATA@CNMAudioMananger@SKINGDI@NMBASE@@@std@@@std@@@std@@QAEAAV?$allocator@U?$_List_node@UtagPLAY_DATA@CNMAudioMananger@SKINGDI@NMBASE@@PAX@std@@@2@XZ 100d5a00 f i NMButton.obj
 0002:00067a50       ?_Getal@?$_List_alloc@U?$_List_base_types@UtagPLAY_DATA@CNMAudioMananger@SKINGDI@NMBASE@@V?$allocator@UtagPLAY_DATA@CNMAudioMananger@SKINGDI@NMBASE@@@std@@@std@@@std@@QBEABV?$allocator@U?$_List_node@UtagPLAY_DATA@CNMAudioMananger@SKINGDI@NMBASE@@PAX@std@@@2@XZ 100d5a50 f i NMButton.obj
 0002:00067aa0       ?_Getal@?$_String_alloc@U?$_String_base_types@DV?$allocator@D@std@@@std@@@std@@QAEAAV?$allocator@D@2@XZ 100d5aa0 f i NMButton.obj
 0002:00067af0       ?_Getal@?$_String_alloc@U?$_String_base_types@DV?$allocator@D@std@@@std@@@std@@QBEABV?$allocator@D@2@XZ 100d5af0 f i NMButton.obj
 0002:00067b40       ?_Getal@?$_Tree_comp_alloc@V?$_Tmap_traits@HPAVINMWidget@SKINGDI@NMBASE@@U?$less@H@std@@V?$allocator@U?$pair@$$CBHPAVINMWidget@SKINGDI@NMBASE@@@std@@@5@$0A@@std@@@std@@QAEAAV?$allocator@U?$_Tree_node@U?$pair@$$CBHPAVINMWidget@SKINGDI@NMBASE@@@std@@PAX@std@@@2@XZ 100d5b40 f i NMButton.obj
 0002:00067ba0       ?_Getal@?$_Tree_comp_alloc@V?$_Tmap_traits@HPAVINMWidget@SKINGDI@NMBASE@@U?$less@H@std@@V?$allocator@U?$pair@$$CBHPAVINMWidget@SKINGDI@NMBASE@@@std@@@5@$0A@@std@@@std@@QBEABV?$allocator@U?$_Tree_node@U?$pair@$$CBHPAVINMWidget@SKINGDI@NMBASE@@@std@@PAX@std@@@2@XZ 100d5ba0 f i NMButton.obj
 0002:00067c00       ?_Getal@?$_Tree_comp_alloc@V?$_Tmap_traits@V?$basic_string@DU?$char_traits@D@std@@V?$allocator@D@2@@std@@PAVxSprite@GRAPHICGDI@NMBASE@@U?$less@V?$basic_string@DU?$char_traits@D@std@@V?$allocator@D@2@@std@@@2@V?$allocator@U?$pair@$$CBV?$basic_string@DU?$char_traits@D@std@@V?$allocator@D@2@@std@@PAVxSprite@GRAPHICGDI@NMBASE@@@std@@@2@$0A@@std@@@std@@QAEAAV?$allocator@U?$_Tree_node@U?$pair@$$CBV?$basic_string@DU?$char_traits@D@std@@V?$allocator@D@2@@std@@PAVxSprite@GRAPHICGDI@NMBASE@@@std@@PAX@std@@@2@XZ 100d5c00 f i NMButton.obj
 0002:00067c60       ?_Getal@?$_Tree_comp_alloc@V?$_Tmap_traits@V?$basic_string@DU?$char_traits@D@std@@V?$allocator@D@2@@std@@PAVxSprite@GRAPHICGDI@NMBASE@@U?$less@V?$basic_string@DU?$char_traits@D@std@@V?$allocator@D@2@@std@@@2@V?$allocator@U?$pair@$$CBV?$basic_string@DU?$char_traits@D@std@@V?$allocator@D@2@@std@@PAVxSprite@GRAPHICGDI@NMBASE@@@std@@@2@$0A@@std@@@std@@QBEABV?$allocator@U?$_Tree_node@U?$pair@$$CBV?$basic_string@DU?$char_traits@D@std@@V?$allocator@D@2@@std@@PAVxSprite@GRAPHICGDI@NMBASE@@@std@@PAX@std@@@2@XZ 100d5c60 f i NMButton.obj
 0002:00067cc0       ?_Getal@?$_Tree_comp_alloc@V?$_Tmap_traits@V?$basic_string@DU?$char_traits@D@std@@V?$allocator@D@2@@std@@V12@U?$less@V?$basic_string@DU?$char_traits@D@std@@V?$allocator@D@2@@std@@@2@V?$allocator@U?$pair@$$CBV?$basic_string@DU?$char_traits@D@std@@V?$allocator@D@2@@std@@V12@@std@@@2@$00@std@@@std@@QAEAAV?$allocator@U?$_Tree_node@U?$pair@$$CBV?$basic_string@DU?$char_traits@D@std@@V?$allocator@D@2@@std@@V12@@std@@PAX@std@@@2@XZ 100d5cc0 f i NMButton.obj
 0002:00067d20       ?_Getal@?$_Tree_comp_alloc@V?$_Tmap_traits@V?$basic_string@DU?$char_traits@D@std@@V?$allocator@D@2@@std@@V12@U?$less@V?$basic_string@DU?$char_traits@D@std@@V?$allocator@D@2@@std@@@2@V?$allocator@U?$pair@$$CBV?$basic_string@DU?$char_traits@D@std@@V?$allocator@D@2@@std@@V12@@std@@@2@$00@std@@@std@@QBEABV?$allocator@U?$_Tree_node@U?$pair@$$CBV?$basic_string@DU?$char_traits@D@std@@V?$allocator@D@2@@std@@V12@@std@@PAX@std@@@2@XZ 100d5d20 f i NMButton.obj
 0002:00067d80       ?_Getal@?$_Vector_alloc@U?$_Vec_base_types@PAVINMWidget@SKINGDI@NMBASE@@V?$allocator@PAVINMWidget@SKINGDI@NMBASE@@@std@@@std@@@std@@QAEAAV?$allocator@PAVINMWidget@SKINGDI@NMBASE@@@2@XZ 100d5d80 f i NMButton.obj
 0002:00067dd0       ?_Getal@?$_Vector_alloc@U?$_Vec_base_types@PAVINMWidget@SKINGDI@NMBASE@@V?$allocator@PAVINMWidget@SKINGDI@NMBASE@@@std@@@std@@@std@@QBEABV?$allocator@PAVINMWidget@SKINGDI@NMBASE@@@2@XZ 100d5dd0 f i NMButton.obj
 0002:00067e20       ?_Getcomp@?$_Tree_comp_alloc@V?$_Tmap_traits@HPAVINMWidget@SKINGDI@NMBASE@@U?$less@H@std@@V?$allocator@U?$pair@$$CBHPAVINMWidget@SKINGDI@NMBASE@@@std@@@5@$0A@@std@@@std@@QAEAAU?$less@H@2@XZ 100d5e20 f i NMButton.obj
 0002:00067e70       ?_Getcomp@?$_Tree_comp_alloc@V?$_Tmap_traits@HPAVINMWidget@SKINGDI@NMBASE@@U?$less@H@std@@V?$allocator@U?$pair@$$CBHPAVINMWidget@SKINGDI@NMBASE@@@std@@@5@$0A@@std@@@std@@QBEABU?$less@H@2@XZ 100d5e70 f i NMButton.obj
 0002:00067ec0       ?_Getcomp@?$_Tree_comp_alloc@V?$_Tmap_traits@V?$basic_string@DU?$char_traits@D@std@@V?$allocator@D@2@@std@@PAVxSprite@GRAPHICGDI@NMBASE@@U?$less@V?$basic_string@DU?$char_traits@D@std@@V?$allocator@D@2@@std@@@2@V?$allocator@U?$pair@$$CBV?$basic_string@DU?$char_traits@D@std@@V?$allocator@D@2@@std@@PAVxSprite@GRAPHICGDI@NMBASE@@@std@@@2@$0A@@std@@@std@@QAEAAU?$less@V?$basic_string@DU?$char_traits@D@std@@V?$allocator@D@2@@std@@@2@XZ 100d5ec0 f i NMButton.obj
 0002:00067f10       ?_Getcomp@?$_Tree_comp_alloc@V?$_Tmap_traits@V?$basic_string@DU?$char_traits@D@std@@V?$allocator@D@2@@std@@PAVxSprite@GRAPHICGDI@NMBASE@@U?$less@V?$basic_string@DU?$char_traits@D@std@@V?$allocator@D@2@@std@@@2@V?$allocator@U?$pair@$$CBV?$basic_string@DU?$char_traits@D@std@@V?$allocator@D@2@@std@@PAVxSprite@GRAPHICGDI@NMBASE@@@std@@@2@$0A@@std@@@std@@QBEABU?$less@V?$basic_string@DU?$char_traits@D@std@@V?$allocator@D@2@@std@@@2@XZ 100d5f10 f i NMButton.obj
 0002:00067f60       ?_Getcomp@?$_Tree_comp_alloc@V?$_Tmap_traits@V?$basic_string@DU?$char_traits@D@std@@V?$allocator@D@2@@std@@V12@U?$less@V?$basic_string@DU?$char_traits@D@std@@V?$allocator@D@2@@std@@@2@V?$allocator@U?$pair@$$CBV?$basic_string@DU?$char_traits@D@std@@V?$allocator@D@2@@std@@V12@@std@@@2@$00@std@@@std@@QAEAAU?$less@V?$basic_string@DU?$char_traits@D@std@@V?$allocator@D@2@@std@@@2@XZ 100d5f60 f i NMButton.obj
 0002:00067fb0       ?_Getcomp@?$_Tree_comp_alloc@V?$_Tmap_traits@V?$basic_string@DU?$char_traits@D@std@@V?$allocator@D@2@@std@@V12@U?$less@V?$basic_string@DU?$char_traits@D@std@@V?$allocator@D@2@@std@@@2@V?$allocator@U?$pair@$$CBV?$basic_string@DU?$char_traits@D@std@@V?$allocator@D@2@@std@@V12@@std@@@2@$00@std@@@std@@QBEABU?$less@V?$basic_string@DU?$char_traits@D@std@@V?$allocator@D@2@@std@@@2@XZ 100d5fb0 f i NMButton.obj
 0002:00068000       ?_Getpfirst@?$_List_alloc@U?$_List_base_types@UtagPLAY_DATA@CNMAudioMananger@SKINGDI@NMBASE@@V?$allocator@UtagPLAY_DATA@CNMAudioMananger@SKINGDI@NMBASE@@@std@@@std@@@std@@QBEPAPAU_Iterator_base12@2@XZ 100d6000 f i NMButton.obj
 0002:00068060       ?_Getpfirst@?$_Tree_comp_alloc@V?$_Tmap_traits@HPAVINMWidget@SKINGDI@NMBASE@@U?$less@H@std@@V?$allocator@U?$pair@$$CBHPAVINMWidget@SKINGDI@NMBASE@@@std@@@5@$0A@@std@@@std@@QBEPAPAU_Iterator_base12@2@XZ 100d6060 f i NMButton.obj
 0002:000680c0       ?_Getpfirst@?$_Tree_comp_alloc@V?$_Tmap_traits@V?$basic_string@DU?$char_traits@D@std@@V?$allocator@D@2@@std@@PAVxSprite@GRAPHICGDI@NMBASE@@U?$less@V?$basic_string@DU?$char_traits@D@std@@V?$allocator@D@2@@std@@@2@V?$allocator@U?$pair@$$CBV?$basic_string@DU?$char_traits@D@std@@V?$allocator@D@2@@std@@PAVxSprite@GRAPHICGDI@NMBASE@@@std@@@2@$0A@@std@@@std@@QBEPAPAU_Iterator_base12@2@XZ 100d60c0 f i NMButton.obj
 0002:00068120       ?_Getpfirst@?$_Tree_comp_alloc@V?$_Tmap_traits@V?$basic_string@DU?$char_traits@D@std@@V?$allocator@D@2@@std@@V12@U?$less@V?$basic_string@DU?$char_traits@D@std@@V?$allocator@D@2@@std@@@2@V?$allocator@U?$pair@$$CBV?$basic_string@DU?$char_traits@D@std@@V?$allocator@D@2@@std@@V12@@std@@@2@$00@std@@@std@@QBEPAPAU_Iterator_base12@2@XZ 100d6120 f i NMButton.obj
 0002:00068180       ?_Incsize@?$list@UtagPLAY_DATA@CNMAudioMananger@SKINGDI@NMBASE@@V?$allocator@UtagPLAY_DATA@CNMAudioMananger@SKINGDI@NMBASE@@@std@@@std@@QAEXI@Z 100d6180 f i NMButton.obj
 0002:00068220       ?_Large_string_engaged@?$_String_val@U?$_Simple_types@D@std@@@std@@QBE_NXZ 100d6220 f i NMButton.obj
 0002:00068290       ?_Lmost@?$_Tree_val@U?$_Tree_simple_types@U?$pair@$$CBHPAVINMWidget@SKINGDI@NMBASE@@@std@@@std@@@std@@QBEAAPAU?$_Tree_node@U?$pair@$$CBHPAVINMWidget@SKINGDI@NMBASE@@@std@@PAX@2@XZ 100d6290 f i NMButton.obj
 0002:000682d0       ?_Lmost@?$_Tree_val@U?$_Tree_simple_types@U?$pair@$$CBV?$basic_string@DU?$char_traits@D@std@@V?$allocator@D@2@@std@@PAVxSprite@GRAPHICGDI@NMBASE@@@std@@@std@@@std@@QBEAAPAU?$_Tree_node@U?$pair@$$CBV?$basic_string@DU?$char_traits@D@std@@V?$allocator@D@2@@std@@PAVxSprite@GRAPHICGDI@NMBASE@@@std@@PAX@2@XZ 100d62d0 f i NMButton.obj
 0002:00068310       ?_Lmost@?$_Tree_val@U?$_Tree_simple_types@U?$pair@$$CBV?$basic_string@DU?$char_traits@D@std@@V?$allocator@D@2@@std@@V12@@std@@@std@@@std@@QBEAAPAU?$_Tree_node@U?$pair@$$CBV?$basic_string@DU?$char_traits@D@std@@V?$allocator@D@2@@std@@V12@@std@@PAX@2@XZ 100d6310 f i NMButton.obj
 0002:00068350       ?_Lrotate@?$_Tree_val@U?$_Tree_simple_types@U?$pair@$$CBHPAVINMWidget@SKINGDI@NMBASE@@@std@@@std@@@std@@QAEXPAU?$_Tree_node@U?$pair@$$CBHPAVINMWidget@SKINGDI@NMBASE@@@std@@PAX@2@@Z 100d6350 f i NMButton.obj
 0002:00068440       ?_Lrotate@?$_Tree_val@U?$_Tree_simple_types@U?$pair@$$CBV?$basic_string@DU?$char_traits@D@std@@V?$allocator@D@2@@std@@PAVxSprite@GRAPHICGDI@NMBASE@@@std@@@std@@@std@@QAEXPAU?$_Tree_node@U?$pair@$$CBV?$basic_string@DU?$char_traits@D@std@@V?$allocator@D@2@@std@@PAVxSprite@GRAPHICGDI@NMBASE@@@std@@PAX@2@@Z 100d6440 f i NMButton.obj
 0002:00068530       ?_Lrotate@?$_Tree_val@U?$_Tree_simple_types@U?$pair@$$CBV?$basic_string@DU?$char_traits@D@std@@V?$allocator@D@2@@std@@V12@@std@@@std@@@std@@QAEXPAU?$_Tree_node@U?$pair@$$CBV?$basic_string@DU?$char_traits@D@std@@V?$allocator@D@2@@std@@V12@@std@@PAX@2@@Z 100d6530 f i NMButton.obj
 0002:00068620       ?_Make_iter@?$list@UtagPLAY_DATA@CNMAudioMananger@SKINGDI@NMBASE@@V?$allocator@UtagPLAY_DATA@CNMAudioMananger@SKINGDI@NMBASE@@@std@@@std@@QBE?AV?$_List_iterator@V?$_List_val@U?$_List_simple_types@UtagPLAY_DATA@CNMAudioMananger@SKINGDI@NMBASE@@@std@@@std@@@2@V?$_List_const_iterator@V?$_List_val@U?$_List_simple_types@UtagPLAY_DATA@CNMAudioMananger@SKINGDI@NMBASE@@@std@@@std@@@2@@Z 100d6620 f i NMButton.obj
 0002:000686d0       ?_Max@?$_Tree_val@U?$_Tree_simple_types@U?$pair@$$CBHPAVINMWidget@SKINGDI@NMBASE@@@std@@@std@@@std@@SAPAU?$_Tree_node@U?$pair@$$CBHPAVINMWidget@SKINGDI@NMBASE@@@std@@PAX@2@PAU32@@Z 100d66d0 f i NMButton.obj
 0002:00068730       ?_Max@?$_Tree_val@U?$_Tree_simple_types@U?$pair@$$CBV?$basic_string@DU?$char_traits@D@std@@V?$allocator@D@2@@std@@PAVxSprite@GRAPHICGDI@NMBASE@@@std@@@std@@@std@@SAPAU?$_Tree_node@U?$pair@$$CBV?$basic_string@DU?$char_traits@D@std@@V?$allocator@D@2@@std@@PAVxSprite@GRAPHICGDI@NMBASE@@@std@@PAX@2@PAU32@@Z 100d6730 f i NMButton.obj
 0002:00068790       ?_Max@?$_Tree_val@U?$_Tree_simple_types@U?$pair@$$CBV?$basic_string@DU?$char_traits@D@std@@V?$allocator@D@2@@std@@V12@@std@@@std@@@std@@SAPAU?$_Tree_node@U?$pair@$$CBV?$basic_string@DU?$char_traits@D@std@@V?$allocator@D@2@@std@@V12@@std@@PAX@2@PAU32@@Z 100d6790 f i NMButton.obj
 0002:000687f0       ?_Min@?$_Tree_val@U?$_Tree_simple_types@U?$pair@$$CBHPAVINMWidget@SKINGDI@NMBASE@@@std@@@std@@@std@@SAPAU?$_Tree_node@U?$pair@$$CBHPAVINMWidget@SKINGDI@NMBASE@@@std@@PAX@2@PAU32@@Z 100d67f0 f i NMButton.obj
 0002:00068840       ?_Min@?$_Tree_val@U?$_Tree_simple_types@U?$pair@$$CBV?$basic_string@DU?$char_traits@D@std@@V?$allocator@D@2@@std@@PAVxSprite@GRAPHICGDI@NMBASE@@@std@@@std@@@std@@SAPAU?$_Tree_node@U?$pair@$$CBV?$basic_string@DU?$char_traits@D@std@@V?$allocator@D@2@@std@@PAVxSprite@GRAPHICGDI@NMBASE@@@std@@PAX@2@PAU32@@Z 100d6840 f i NMButton.obj
 0002:00068890       ?_Min@?$_Tree_val@U?$_Tree_simple_types@U?$pair@$$CBV?$basic_string@DU?$char_traits@D@std@@V?$allocator@D@2@@std@@V12@@std@@@std@@@std@@SAPAU?$_Tree_node@U?$pair@$$CBV?$basic_string@DU?$char_traits@D@std@@V?$allocator@D@2@@std@@V12@@std@@PAX@2@PAU32@@Z 100d6890 f i NMButton.obj
 0002:000688e0       ?_Myend@?$_Vector_alloc@U?$_Vec_base_types@PAVINMWidget@SKINGDI@NMBASE@@V?$allocator@PAVINMWidget@SKINGDI@NMBASE@@@std@@@std@@@std@@QAEAAPAPAVINMWidget@SKINGDI@NMBASE@@XZ 100d68e0 f i NMButton.obj
 0002:00068940       ?_Myend@?$_Vector_alloc@U?$_Vec_base_types@PAVINMWidget@SKINGDI@NMBASE@@V?$allocator@PAVINMWidget@SKINGDI@NMBASE@@@std@@@std@@@std@@QBEABQAPAVINMWidget@SKINGDI@NMBASE@@XZ 100d6940 f i NMButton.obj
 0002:000689a0       ?_Myfirst@?$_Vector_alloc@U?$_Vec_base_types@PAVINMWidget@SKINGDI@NMBASE@@V?$allocator@PAVINMWidget@SKINGDI@NMBASE@@@std@@@std@@@std@@QAEAAPAPAVINMWidget@SKINGDI@NMBASE@@XZ 100d69a0 f i NMButton.obj
 0002:00068a00       ?_Myfirst@?$_Vector_alloc@U?$_Vec_base_types@PAVINMWidget@SKINGDI@NMBASE@@V?$allocator@PAVINMWidget@SKINGDI@NMBASE@@@std@@@std@@@std@@QBEABQAPAVINMWidget@SKINGDI@NMBASE@@XZ 100d6a00 f i NMButton.obj
 0002:00068a60       ?_Myhead@?$_List_alloc@U?$_List_base_types@UtagPLAY_DATA@CNMAudioMananger@SKINGDI@NMBASE@@V?$allocator@UtagPLAY_DATA@CNMAudioMananger@SKINGDI@NMBASE@@@std@@@std@@@std@@QAEAAPAU?$_List_node@UtagPLAY_DATA@CNMAudioMananger@SKINGDI@NMBASE@@PAX@2@XZ 100d6a60 f i NMButton.obj
 0002:00068ac0       ?_Myhead@?$_List_alloc@U?$_List_base_types@UtagPLAY_DATA@CNMAudioMananger@SKINGDI@NMBASE@@V?$allocator@UtagPLAY_DATA@CNMAudioMananger@SKINGDI@NMBASE@@@std@@@std@@@std@@QBEABQAU?$_List_node@UtagPLAY_DATA@CNMAudioMananger@SKINGDI@NMBASE@@PAX@2@XZ 100d6ac0 f i NMButton.obj
 0002:00068b20       ?_Mylast@?$_Vector_alloc@U?$_Vec_base_types@PAVINMWidget@SKINGDI@NMBASE@@V?$allocator@PAVINMWidget@SKINGDI@NMBASE@@@std@@@std@@@std@@QAEAAPAPAVINMWidget@SKINGDI@NMBASE@@XZ 100d6b20 f i NMButton.obj
 0002:00068b80       ?_Mylast@?$_Vector_alloc@U?$_Vec_base_types@PAVINMWidget@SKINGDI@NMBASE@@V?$allocator@PAVINMWidget@SKINGDI@NMBASE@@@std@@@std@@@std@@QBEABQAPAVINMWidget@SKINGDI@NMBASE@@XZ 100d6b80 f i NMButton.obj
 0002:00068be0       ?_Myproxy@?$_List_alloc@U?$_List_base_types@UtagPLAY_DATA@CNMAudioMananger@SKINGDI@NMBASE@@V?$allocator@UtagPLAY_DATA@CNMAudioMananger@SKINGDI@NMBASE@@@std@@@std@@@std@@QAEAAPAU_Container_proxy@2@XZ 100d6be0 f i NMButton.obj
 0002:00068c30       ?_Myproxy@?$_String_alloc@U?$_String_base_types@DV?$allocator@D@std@@@std@@@std@@QAEAAPAU_Container_proxy@2@XZ 100d6c30 f i NMButton.obj
 0002:00068c80       ?_Myproxy@?$_Tree_comp_alloc@V?$_Tmap_traits@HPAVINMWidget@SKINGDI@NMBASE@@U?$less@H@std@@V?$allocator@U?$pair@$$CBHPAVINMWidget@SKINGDI@NMBASE@@@std@@@5@$0A@@std@@@std@@QAEAAPAU_Container_proxy@2@XZ 100d6c80 f i NMButton.obj
 0002:00068cd0       ?_Myproxy@?$_Tree_comp_alloc@V?$_Tmap_traits@V?$basic_string@DU?$char_traits@D@std@@V?$allocator@D@2@@std@@PAVxSprite@GRAPHICGDI@NMBASE@@U?$less@V?$basic_string@DU?$char_traits@D@std@@V?$allocator@D@2@@std@@@2@V?$allocator@U?$pair@$$CBV?$basic_string@DU?$char_traits@D@std@@V?$allocator@D@2@@std@@PAVxSprite@GRAPHICGDI@NMBASE@@@std@@@2@$0A@@std@@@std@@QAEAAPAU_Container_proxy@2@XZ 100d6cd0 f i NMButton.obj
 0002:00068d20       ?_Myproxy@?$_Tree_comp_alloc@V?$_Tmap_traits@V?$basic_string@DU?$char_traits@D@std@@V?$allocator@D@2@@std@@V12@U?$less@V?$basic_string@DU?$char_traits@D@std@@V?$allocator@D@2@@std@@@2@V?$allocator@U?$pair@$$CBV?$basic_string@DU?$char_traits@D@std@@V?$allocator@D@2@@std@@V12@@std@@@2@$00@std@@@std@@QAEAAPAU_Container_proxy@2@XZ 100d6d20 f i NMButton.obj
 0002:00068d70       ?_Myproxy@?$_Vector_alloc@U?$_Vec_base_types@PAVINMWidget@SKINGDI@NMBASE@@V?$allocator@PAVINMWidget@SKINGDI@NMBASE@@@std@@@std@@@std@@QAEAAPAU_Container_proxy@2@XZ 100d6d70 f i NMButton.obj
 0002:00068dc0       ?_Myptr@?$_String_val@U?$_Simple_types@D@std@@@std@@QAEPADXZ 100d6dc0 f i NMButton.obj
 0002:00068e40       ?_Myptr@?$_String_val@U?$_Simple_types@D@std@@@std@@QBEPBDXZ 100d6e40 f i NMButton.obj
 0002:00068ec0       ?_Mysize@?$_List_alloc@U?$_List_base_types@UtagPLAY_DATA@CNMAudioMananger@SKINGDI@NMBASE@@V?$allocator@UtagPLAY_DATA@CNMAudioMananger@SKINGDI@NMBASE@@@std@@@std@@@std@@QAEAAIXZ 100d6ec0 f i NMButton.obj
 0002:00068f20       ?_Orphan_all@?$_List_alloc@U?$_List_base_types@UtagPLAY_DATA@CNMAudioMananger@SKINGDI@NMBASE@@V?$allocator@UtagPLAY_DATA@CNMAudioMananger@SKINGDI@NMBASE@@@std@@@std@@@std@@QAEXXZ 100d6f20 f i NMButton.obj
 0002:00068f80       ?_Orphan_all@?$_String_alloc@U?$_String_base_types@DV?$allocator@D@std@@@std@@@std@@QAEXXZ 100d6f80 f i NMButton.obj
 0002:00068fe0       ?_Orphan_all@?$_Tree_comp_alloc@V?$_Tmap_traits@HPAVINMWidget@SKINGDI@NMBASE@@U?$less@H@std@@V?$allocator@U?$pair@$$CBHPAVINMWidget@SKINGDI@NMBASE@@@std@@@5@$0A@@std@@@std@@QAEXXZ 100d6fe0 f i NMButton.obj
 0002:00069040       ?_Orphan_all@?$_Tree_comp_alloc@V?$_Tmap_traits@V?$basic_string@DU?$char_traits@D@std@@V?$allocator@D@2@@std@@PAVxSprite@GRAPHICGDI@NMBASE@@U?$less@V?$basic_string@DU?$char_traits@D@std@@V?$allocator@D@2@@std@@@2@V?$allocator@U?$pair@$$CBV?$basic_string@DU?$char_traits@D@std@@V?$allocator@D@2@@std@@PAVxSprite@GRAPHICGDI@NMBASE@@@std@@@2@$0A@@std@@@std@@QAEXXZ 100d7040 f i NMButton.obj
 0002:000690a0       ?_Orphan_all@?$_Tree_comp_alloc@V?$_Tmap_traits@V?$basic_string@DU?$char_traits@D@std@@V?$allocator@D@2@@std@@V12@U?$less@V?$basic_string@DU?$char_traits@D@std@@V?$allocator@D@2@@std@@@2@V?$allocator@U?$pair@$$CBV?$basic_string@DU?$char_traits@D@std@@V?$allocator@D@2@@std@@V12@@std@@@2@$00@std@@@std@@QAEXXZ 100d70a0 f i NMButton.obj
 0002:00069100       ?_Orphan_all@?$_Vector_alloc@U?$_Vec_base_types@PAVINMWidget@SKINGDI@NMBASE@@V?$allocator@PAVINMWidget@SKINGDI@NMBASE@@@std@@@std@@@std@@QAEXXZ 100d7100 f i NMButton.obj
 0002:00069160       ?_Orphan_ptr@?$_Tree@V?$_Tmap_traits@HPAVINMWidget@SKINGDI@NMBASE@@U?$less@H@std@@V?$allocator@U?$pair@$$CBHPAVINMWidget@SKINGDI@NMBASE@@@std@@@5@$0A@@std@@@std@@IAEXPAU?$_Tree_node@U?$pair@$$CBHPAVINMWidget@SKINGDI@NMBASE@@@std@@PAX@2@@Z 100d7160 f i NMButton.obj
 0002:000692e0       ?_Orphan_ptr@?$_Tree@V?$_Tmap_traits@V?$basic_string@DU?$char_traits@D@std@@V?$allocator@D@2@@std@@PAVxSprite@GRAPHICGDI@NMBASE@@U?$less@V?$basic_string@DU?$char_traits@D@std@@V?$allocator@D@2@@std@@@2@V?$allocator@U?$pair@$$CBV?$basic_string@DU?$char_traits@D@std@@V?$allocator@D@2@@std@@PAVxSprite@GRAPHICGDI@NMBASE@@@std@@@2@$0A@@std@@@std@@IAEXPAU?$_Tree_node@U?$pair@$$CBV?$basic_string@DU?$char_traits@D@std@@V?$allocator@D@2@@std@@PAVxSprite@GRAPHICGDI@NMBASE@@@std@@PAX@2@@Z 100d72e0 f i NMButton.obj
 0002:00069460       ?_Orphan_ptr@?$_Tree@V?$_Tmap_traits@V?$basic_string@DU?$char_traits@D@std@@V?$allocator@D@2@@std@@V12@U?$less@V?$basic_string@DU?$char_traits@D@std@@V?$allocator@D@2@@std@@@2@V?$allocator@U?$pair@$$CBV?$basic_string@DU?$char_traits@D@std@@V?$allocator@D@2@@std@@V12@@std@@@2@$00@std@@@std@@IAEXPAU?$_Tree_node@U?$pair@$$CBV?$basic_string@DU?$char_traits@D@std@@V?$allocator@D@2@@std@@V12@@std@@PAX@2@@Z 100d7460 f i NMButton.obj
 0002:000695e0       ?_Orphan_ptr@?$list@UtagPLAY_DATA@CNMAudioMananger@SKINGDI@NMBASE@@V?$allocator@UtagPLAY_DATA@CNMAudioMananger@SKINGDI@NMBASE@@@std@@@std@@QAEXPAU?$_List_node@UtagPLAY_DATA@CNMAudioMananger@SKINGDI@NMBASE@@PAX@2@@Z 100d75e0 f i NMButton.obj
 0002:00069760       ?_Rmost@?$_Tree_val@U?$_Tree_simple_types@U?$pair@$$CBHPAVINMWidget@SKINGDI@NMBASE@@@std@@@std@@@std@@QBEAAPAU?$_Tree_node@U?$pair@$$CBHPAVINMWidget@SKINGDI@NMBASE@@@std@@PAX@2@XZ 100d7760 f i NMButton.obj
 0002:000697a0       ?_Rmost@?$_Tree_val@U?$_Tree_simple_types@U?$pair@$$CBV?$basic_string@DU?$char_traits@D@std@@V?$allocator@D@2@@std@@PAVxSprite@GRAPHICGDI@NMBASE@@@std@@@std@@@std@@QBEAAPAU?$_Tree_node@U?$pair@$$CBV?$basic_string@DU?$char_traits@D@std@@V?$allocator@D@2@@std@@PAVxSprite@GRAPHICGDI@NMBASE@@@std@@PAX@2@XZ 100d77a0 f i NMButton.obj
 0002:000697e0       ?_Rmost@?$_Tree_val@U?$_Tree_simple_types@U?$pair@$$CBV?$basic_string@DU?$char_traits@D@std@@V?$allocator@D@2@@std@@V12@@std@@@std@@@std@@QBEAAPAU?$_Tree_node@U?$pair@$$CBV?$basic_string@DU?$char_traits@D@std@@V?$allocator@D@2@@std@@V12@@std@@PAX@2@XZ 100d77e0 f i NMButton.obj
 0002:00069820       ?_Root@?$_Tree_val@U?$_Tree_simple_types@U?$pair@$$CBHPAVINMWidget@SKINGDI@NMBASE@@@std@@@std@@@std@@QBEAAPAU?$_Tree_node@U?$pair@$$CBHPAVINMWidget@SKINGDI@NMBASE@@@std@@PAX@2@XZ 100d7820 f i NMButton.obj
 0002:00069860       ?_Root@?$_Tree_val@U?$_Tree_simple_types@U?$pair@$$CBV?$basic_string@DU?$char_traits@D@std@@V?$allocator@D@2@@std@@PAVxSprite@GRAPHICGDI@NMBASE@@@std@@@std@@@std@@QBEAAPAU?$_Tree_node@U?$pair@$$CBV?$basic_string@DU?$char_traits@D@std@@V?$allocator@D@2@@std@@PAVxSprite@GRAPHICGDI@NMBASE@@@std@@PAX@2@XZ 100d7860 f i NMButton.obj
 0002:000698a0       ?_Root@?$_Tree_val@U?$_Tree_simple_types@U?$pair@$$CBV?$basic_string@DU?$char_traits@D@std@@V?$allocator@D@2@@std@@V12@@std@@@std@@@std@@QBEAAPAU?$_Tree_node@U?$pair@$$CBV?$basic_string@DU?$char_traits@D@std@@V?$allocator@D@2@@std@@V12@@std@@PAX@2@XZ 100d78a0 f i NMButton.obj
 0002:000698e0       ?_Rrotate@?$_Tree_val@U?$_Tree_simple_types@U?$pair@$$CBHPAVINMWidget@SKINGDI@NMBASE@@@std@@@std@@@std@@QAEXPAU?$_Tree_node@U?$pair@$$CBHPAVINMWidget@SKINGDI@NMBASE@@@std@@PAX@2@@Z 100d78e0 f i NMButton.obj
 0002:000699d0       ?_Rrotate@?$_Tree_val@U?$_Tree_simple_types@U?$pair@$$CBV?$basic_string@DU?$char_traits@D@std@@V?$allocator@D@2@@std@@PAVxSprite@GRAPHICGDI@NMBASE@@@std@@@std@@@std@@QAEXPAU?$_Tree_node@U?$pair@$$CBV?$basic_string@DU?$char_traits@D@std@@V?$allocator@D@2@@std@@PAVxSprite@GRAPHICGDI@NMBASE@@@std@@PAX@2@@Z 100d79d0 f i NMButton.obj
 0002:00069ac0       ?_Rrotate@?$_Tree_val@U?$_Tree_simple_types@U?$pair@$$CBV?$basic_string@DU?$char_traits@D@std@@V?$allocator@D@2@@std@@V12@@std@@@std@@@std@@QAEXPAU?$_Tree_node@U?$pair@$$CBV?$basic_string@DU?$char_traits@D@std@@V?$allocator@D@2@@std@@V12@@std@@PAX@2@@Z 100d7ac0 f i NMButton.obj
 0002:00069bb0       ?_Tidy@?$_Tree@V?$_Tmap_traits@HPAVINMWidget@SKINGDI@NMBASE@@U?$less@H@std@@V?$allocator@U?$pair@$$CBHPAVINMWidget@SKINGDI@NMBASE@@@std@@@5@$0A@@std@@@std@@IAEXXZ 100d7bb0 f i NMButton.obj
 0002:00069d20       ?_Tidy@?$_Tree@V?$_Tmap_traits@V?$basic_string@DU?$char_traits@D@std@@V?$allocator@D@2@@std@@PAVxSprite@GRAPHICGDI@NMBASE@@U?$less@V?$basic_string@DU?$char_traits@D@std@@V?$allocator@D@2@@std@@@2@V?$allocator@U?$pair@$$CBV?$basic_string@DU?$char_traits@D@std@@V?$allocator@D@2@@std@@PAVxSprite@GRAPHICGDI@NMBASE@@@std@@@2@$0A@@std@@@std@@IAEXXZ 100d7d20 f i NMButton.obj
 0002:00069e90       ?_Tidy@?$_Tree@V?$_Tmap_traits@V?$basic_string@DU?$char_traits@D@std@@V?$allocator@D@2@@std@@V12@U?$less@V?$basic_string@DU?$char_traits@D@std@@V?$allocator@D@2@@std@@@2@V?$allocator@U?$pair@$$CBV?$basic_string@DU?$char_traits@D@std@@V?$allocator@D@2@@std@@V12@@std@@@2@$00@std@@@std@@IAEXXZ 100d7e90 f i NMButton.obj
 0002:0006a000       ?_Tidy@?$list@UtagPLAY_DATA@CNMAudioMananger@SKINGDI@NMBASE@@V?$allocator@UtagPLAY_DATA@CNMAudioMananger@SKINGDI@NMBASE@@@std@@@std@@QAEXXZ 100d8000 f i NMButton.obj
 0002:0006a050       ?_Tidy@?$vector@PAVINMWidget@SKINGDI@NMBASE@@V?$allocator@PAVINMWidget@SKINGDI@NMBASE@@@std@@@std@@AAEXXZ 100d8050 f i NMButton.obj
 0002:0006a140       ?_Tidy_deallocate@?$basic_string@DU?$char_traits@D@std@@V?$allocator@D@2@@std@@QAEXXZ 100d8140 f i NMButton.obj
 0002:0006a250       ?_Tidy_init@?$basic_string@DU?$char_traits@D@std@@V?$allocator@D@2@@std@@QAEXXZ 100d8250 f i NMButton.obj
 0002:0006a2f0       ?_Unchecked_end@?$list@UtagPLAY_DATA@CNMAudioMananger@SKINGDI@NMBASE@@V?$allocator@UtagPLAY_DATA@CNMAudioMananger@SKINGDI@NMBASE@@@std@@@std@@QAE?AV?$_List_unchecked_iterator@V?$_List_val@U?$_List_simple_types@UtagPLAY_DATA@CNMAudioMananger@SKINGDI@NMBASE@@@std@@@std@@@2@XZ 100d82f0 f i NMButton.obj
 0002:0006a360       ?_Unchecked_erase@?$list@UtagPLAY_DATA@CNMAudioMananger@SKINGDI@NMBASE@@V?$allocator@UtagPLAY_DATA@CNMAudioMananger@SKINGDI@NMBASE@@@std@@@std@@QAEXV?$_List_unchecked_const_iterator@V?$_List_val@U?$_List_simple_types@UtagPLAY_DATA@CNMAudioMananger@SKINGDI@NMBASE@@@std@@@std@@U_Iterator_base0@2@@2@@Z 100d8360 f i NMButton.obj
 0002:0006a410       ?_Unlinknode@?$list@UtagPLAY_DATA@CNMAudioMananger@SKINGDI@NMBASE@@V?$allocator@UtagPLAY_DATA@CNMAudioMananger@SKINGDI@NMBASE@@@std@@@std@@QAEPAU?$_List_node@UtagPLAY_DATA@CNMAudioMananger@SKINGDI@NMBASE@@PAX@2@V?$_List_const_iterator@V?$_List_val@U?$_List_simple_types@UtagPLAY_DATA@CNMAudioMananger@SKINGDI@NMBASE@@@std@@@std@@@2@@Z 100d8410 f i NMButton.obj
 0002:0006a5d0       ?_Unwrapped@?$_List_const_iterator@V?$_List_val@U?$_List_simple_types@UtagPLAY_DATA@CNMAudioMananger@SKINGDI@NMBASE@@@std@@@std@@@std@@QBE?AV?$_List_unchecked_const_iterator@V?$_List_val@U?$_List_simple_types@UtagPLAY_DATA@CNMAudioMananger@SKINGDI@NMBASE@@@std@@@std@@U_Iterator_base0@2@@2@XZ 100d85d0 f i NMButton.obj
 0002:0006a640       ?_Verify_range@std@@YAXABV?$_List_const_iterator@V?$_List_val@U?$_List_simple_types@UtagPLAY_DATA@CNMAudioMananger@SKINGDI@NMBASE@@@std@@@std@@@1@0@Z 100d8640 f i NMButton.obj
 0002:0006a720       ?_Xlen@?$basic_string@DU?$char_traits@D@std@@V?$allocator@D@2@@std@@SAXXZ 100d8720 f i NMButton.obj
 0002:0006a770       ?_Xlength@?$vector@PAVINMWidget@SKINGDI@NMBASE@@V?$allocator@PAVINMWidget@SKINGDI@NMBASE@@@std@@@std@@CAXXZ 100d8770 f i NMButton.obj
 0002:0006a7c0       ?allocate@?$allocator@D@std@@QAEPADI@Z 100d87c0 f i NMButton.obj
 0002:0006a830       ?allocate@?$allocator@PAVINMWidget@SKINGDI@NMBASE@@@std@@QAEPAPAVINMWidget@SKINGDI@NMBASE@@I@Z 100d8830 f i NMButton.obj
 0002:0006a8a0       ?allocate@?$allocator@U?$_List_node@UtagPLAY_DATA@CNMAudioMananger@SKINGDI@NMBASE@@PAX@std@@@std@@QAEPAU?$_List_node@UtagPLAY_DATA@CNMAudioMananger@SKINGDI@NMBASE@@PAX@2@I@Z 100d88a0 f i NMButton.obj
 0002:0006a910       ?allocate@?$allocator@U?$_Tree_node@U?$pair@$$CBHPAVINMWidget@SKINGDI@NMBASE@@@std@@PAX@std@@@std@@QAEPAU?$_Tree_node@U?$pair@$$CBHPAVINMWidget@SKINGDI@NMBASE@@@std@@PAX@2@I@Z 100d8910 f i NMButton.obj
 0002:0006a980       ?allocate@?$allocator@U?$_Tree_node@U?$pair@$$CBV?$basic_string@DU?$char_traits@D@std@@V?$allocator@D@2@@std@@PAVxSprite@GRAPHICGDI@NMBASE@@@std@@PAX@std@@@std@@QAEPAU?$_Tree_node@U?$pair@$$CBV?$basic_string@DU?$char_traits@D@std@@V?$allocator@D@2@@std@@PAVxSprite@GRAPHICGDI@NMBASE@@@std@@PAX@2@I@Z 100d8980 f i NMButton.obj
 0002:0006a9f0       ?allocate@?$allocator@U?$_Tree_node@U?$pair@$$CBV?$basic_string@DU?$char_traits@D@std@@V?$allocator@D@2@@std@@V12@@std@@PAX@std@@@std@@QAEPAU?$_Tree_node@U?$pair@$$CBV?$basic_string@DU?$char_traits@D@std@@V?$allocator@D@2@@std@@V12@@std@@PAX@2@I@Z 100d89f0 f i NMButton.obj
 0002:0006aa60       ?assign@?$basic_string@DU?$char_traits@D@std@@V?$allocator@D@2@@std@@QAEAAV12@QBD@Z 100d8a60 f i NMButton.obj
 0002:0006aae0       ?assign@?$basic_string@DU?$char_traits@D@std@@V?$allocator@D@2@@std@@QAEAAV12@QBDI@Z 100d8ae0 f i NMButton.obj
 0002:0006abd0       ?assign@?$char_traits@D@std@@SAXAADABD@Z 100d8bd0 f i NMButton.obj
 0002:0006ac10       ?begin@?$_Tree@V?$_Tmap_traits@HPAVINMWidget@SKINGDI@NMBASE@@U?$less@H@std@@V?$allocator@U?$pair@$$CBHPAVINMWidget@SKINGDI@NMBASE@@@std@@@5@$0A@@std@@@std@@QAE?AV?$_Tree_iterator@V?$_Tree_val@U?$_Tree_simple_types@U?$pair@$$CBHPAVINMWidget@SKINGDI@NMBASE@@@std@@@std@@@std@@@2@XZ 100d8c10 f i NMButton.obj
 0002:0006acd0       ?begin@?$_Tree@V?$_Tmap_traits@V?$basic_string@DU?$char_traits@D@std@@V?$allocator@D@2@@std@@PAVxSprite@GRAPHICGDI@NMBASE@@U?$less@V?$basic_string@DU?$char_traits@D@std@@V?$allocator@D@2@@std@@@2@V?$allocator@U?$pair@$$CBV?$basic_string@DU?$char_traits@D@std@@V?$allocator@D@2@@std@@PAVxSprite@GRAPHICGDI@NMBASE@@@std@@@2@$0A@@std@@@std@@QAE?AV?$_Tree_iterator@V?$_Tree_val@U?$_Tree_simple_types@U?$pair@$$CBV?$basic_string@DU?$char_traits@D@std@@V?$allocator@D@2@@std@@PAVxSprite@GRAPHICGDI@NMBASE@@@std@@@std@@@std@@@2@XZ 100d8cd0 f i NMButton.obj
 0002:0006ad90       ?begin@?$_Tree@V?$_Tmap_traits@V?$basic_string@DU?$char_traits@D@std@@V?$allocator@D@2@@std@@V12@U?$less@V?$basic_string@DU?$char_traits@D@std@@V?$allocator@D@2@@std@@@2@V?$allocator@U?$pair@$$CBV?$basic_string@DU?$char_traits@D@std@@V?$allocator@D@2@@std@@V12@@std@@@2@$00@std@@@std@@QAE?AV?$_Tree_iterator@V?$_Tree_val@U?$_Tree_simple_types@U?$pair@$$CBV?$basic_string@DU?$char_traits@D@std@@V?$allocator@D@2@@std@@V12@@std@@@std@@@std@@@2@XZ 100d8d90 f i NMButton.obj
 0002:0006ae50       ?begin@?$list@UtagPLAY_DATA@CNMAudioMananger@SKINGDI@NMBASE@@V?$allocator@UtagPLAY_DATA@CNMAudioMananger@SKINGDI@NMBASE@@@std@@@std@@QAE?AV?$_List_iterator@V?$_List_val@U?$_List_simple_types@UtagPLAY_DATA@CNMAudioMananger@SKINGDI@NMBASE@@@std@@@std@@@2@XZ 100d8e50 f i NMButton.obj
 0002:0006af00       ?begin@?$list@UtagPLAY_DATA@CNMAudioMananger@SKINGDI@NMBASE@@V?$allocator@UtagPLAY_DATA@CNMAudioMananger@SKINGDI@NMBASE@@@std@@@std@@QBE?AV?$_List_const_iterator@V?$_List_val@U?$_List_simple_types@UtagPLAY_DATA@CNMAudioMananger@SKINGDI@NMBASE@@@std@@@std@@@2@XZ 100d8f00 f i NMButton.obj
 0002:0006afb0       ?c_str@?$basic_string@DU?$char_traits@D@std@@V?$allocator@D@2@@std@@QBEPBDXZ 100d8fb0 f i NMButton.obj
 0002:0006b040       ?capacity@?$vector@PAVINMWidget@SKINGDI@NMBASE@@V?$allocator@PAVINMWidget@SKINGDI@NMBASE@@@std@@@std@@QBEIXZ 100d9040 f i NMButton.obj
 0002:0006b0b0       ?clear@?$_Tree@V?$_Tmap_traits@HPAVINMWidget@SKINGDI@NMBASE@@U?$less@H@std@@V?$allocator@U?$pair@$$CBHPAVINMWidget@SKINGDI@NMBASE@@@std@@@5@$0A@@std@@@std@@QAEXXZ 100d90b0 f i NMButton.obj
 0002:0006b1b0       ?clear@?$_Tree@V?$_Tmap_traits@V?$basic_string@DU?$char_traits@D@std@@V?$allocator@D@2@@std@@PAVxSprite@GRAPHICGDI@NMBASE@@U?$less@V?$basic_string@DU?$char_traits@D@std@@V?$allocator@D@2@@std@@@2@V?$allocator@U?$pair@$$CBV?$basic_string@DU?$char_traits@D@std@@V?$allocator@D@2@@std@@PAVxSprite@GRAPHICGDI@NMBASE@@@std@@@2@$0A@@std@@@std@@QAEXXZ 100d91b0 f i NMButton.obj
 0002:0006b2b0       ?clear@?$_Tree@V?$_Tmap_traits@V?$basic_string@DU?$char_traits@D@std@@V?$allocator@D@2@@std@@V12@U?$less@V?$basic_string@DU?$char_traits@D@std@@V?$allocator@D@2@@std@@@2@V?$allocator@U?$pair@$$CBV?$basic_string@DU?$char_traits@D@std@@V?$allocator@D@2@@std@@V12@@std@@@2@$00@std@@@std@@QAEXXZ 100d92b0 f i NMButton.obj
 0002:0006b3b0       ?clear@?$list@UtagPLAY_DATA@CNMAudioMananger@SKINGDI@NMBASE@@V?$allocator@UtagPLAY_DATA@CNMAudioMananger@SKINGDI@NMBASE@@@std@@@std@@QAEXXZ 100d93b0 f i NMButton.obj
 0002:0006b4d0       ?copy@?$char_traits@D@std@@SAPADQADQBDI@Z 100d94d0 f i NMButton.obj
 0002:0006b530       ?deallocate@?$_Default_allocator_traits@V?$allocator@U?$_List_node@UtagPLAY_DATA@CNMAudioMananger@SKINGDI@NMBASE@@PAX@std@@@std@@@std@@SAXAAV?$allocator@U?$_List_node@UtagPLAY_DATA@CNMAudioMananger@SKINGDI@NMBASE@@PAX@std@@@2@QAU?$_List_node@UtagPLAY_DATA@CNMAudioMananger@SKINGDI@NMBASE@@PAX@2@I@Z 100d9530 f i NMButton.obj
 0002:0006b590       ?deallocate@?$_Default_allocator_traits@V?$allocator@U?$_Tree_node@U?$pair@$$CBHPAVINMWidget@SKINGDI@NMBASE@@@std@@PAX@std@@@std@@@std@@SAXAAV?$allocator@U?$_Tree_node@U?$pair@$$CBHPAVINMWidget@SKINGDI@NMBASE@@@std@@PAX@std@@@2@QAU?$_Tree_node@U?$pair@$$CBHPAVINMWidget@SKINGDI@NMBASE@@@std@@PAX@2@I@Z 100d9590 f i NMButton.obj
 0002:0006b5f0       ?deallocate@?$_Default_allocator_traits@V?$allocator@U?$_Tree_node@U?$pair@$$CBV?$basic_string@DU?$char_traits@D@std@@V?$allocator@D@2@@std@@PAVxSprite@GRAPHICGDI@NMBASE@@@std@@PAX@std@@@std@@@std@@SAXAAV?$allocator@U?$_Tree_node@U?$pair@$$CBV?$basic_string@DU?$char_traits@D@std@@V?$allocator@D@2@@std@@PAVxSprite@GRAPHICGDI@NMBASE@@@std@@PAX@std@@@2@QAU?$_Tree_node@U?$pair@$$CBV?$basic_string@DU?$char_traits@D@std@@V?$allocator@D@2@@std@@PAVxSprite@GRAPHICGDI@NMBASE@@@std@@PAX@2@I@Z 100d95f0 f i NMButton.obj
 0002:0006b650       ?deallocate@?$_Default_allocator_traits@V?$allocator@U?$_Tree_node@U?$pair@$$CBV?$basic_string@DU?$char_traits@D@std@@V?$allocator@D@2@@std@@V12@@std@@PAX@std@@@std@@@std@@SAXAAV?$allocator@U?$_Tree_node@U?$pair@$$CBV?$basic_string@DU?$char_traits@D@std@@V?$allocator@D@2@@std@@V12@@std@@PAX@std@@@2@QAU?$_Tree_node@U?$pair@$$CBV?$basic_string@DU?$char_traits@D@std@@V?$allocator@D@2@@std@@V12@@std@@PAX@2@I@Z 100d9650 f i NMButton.obj
 0002:0006b6b0       ?deallocate@?$allocator@D@std@@QAEXQADI@Z 100d96b0 f i NMButton.obj
 0002:0006b710       ?deallocate@?$allocator@PAVINMWidget@SKINGDI@NMBASE@@@std@@QAEXQAPAVINMWidget@SKINGDI@NMBASE@@I@Z 100d9710 f i NMButton.obj
 0002:0006b770       ?deallocate@?$allocator@U?$_List_node@UtagPLAY_DATA@CNMAudioMananger@SKINGDI@NMBASE@@PAX@std@@@std@@QAEXQAU?$_List_node@UtagPLAY_DATA@CNMAudioMananger@SKINGDI@NMBASE@@PAX@2@I@Z 100d9770 f i NMButton.obj
 0002:0006b7d0       ?deallocate@?$allocator@U?$_Tree_node@U?$pair@$$CBHPAVINMWidget@SKINGDI@NMBASE@@@std@@PAX@std@@@std@@QAEXQAU?$_Tree_node@U?$pair@$$CBHPAVINMWidget@SKINGDI@NMBASE@@@std@@PAX@2@I@Z 100d97d0 f i NMButton.obj
 0002:0006b830       ?deallocate@?$allocator@U?$_Tree_node@U?$pair@$$CBV?$basic_string@DU?$char_traits@D@std@@V?$allocator@D@2@@std@@PAVxSprite@GRAPHICGDI@NMBASE@@@std@@PAX@std@@@std@@QAEXQAU?$_Tree_node@U?$pair@$$CBV?$basic_string@DU?$char_traits@D@std@@V?$allocator@D@2@@std@@PAVxSprite@GRAPHICGDI@NMBASE@@@std@@PAX@2@I@Z 100d9830 f i NMButton.obj
 0002:0006b890       ?deallocate@?$allocator@U?$_Tree_node@U?$pair@$$CBV?$basic_string@DU?$char_traits@D@std@@V?$allocator@D@2@@std@@V12@@std@@PAX@std@@@std@@QAEXQAU?$_Tree_node@U?$pair@$$CBV?$basic_string@DU?$char_traits@D@std@@V?$allocator@D@2@@std@@V12@@std@@PAX@2@I@Z 100d9890 f i NMButton.obj
 0002:0006b8f0       ?end@?$_Tree@V?$_Tmap_traits@HPAVINMWidget@SKINGDI@NMBASE@@U?$less@H@std@@V?$allocator@U?$pair@$$CBHPAVINMWidget@SKINGDI@NMBASE@@@std@@@5@$0A@@std@@@std@@QAE?AV?$_Tree_iterator@V?$_Tree_val@U?$_Tree_simple_types@U?$pair@$$CBHPAVINMWidget@SKINGDI@NMBASE@@@std@@@std@@@std@@@2@XZ 100d98f0 f i NMButton.obj
 0002:0006b9a0       ?end@?$_Tree@V?$_Tmap_traits@V?$basic_string@DU?$char_traits@D@std@@V?$allocator@D@2@@std@@PAVxSprite@GRAPHICGDI@NMBASE@@U?$less@V?$basic_string@DU?$char_traits@D@std@@V?$allocator@D@2@@std@@@2@V?$allocator@U?$pair@$$CBV?$basic_string@DU?$char_traits@D@std@@V?$allocator@D@2@@std@@PAVxSprite@GRAPHICGDI@NMBASE@@@std@@@2@$0A@@std@@@std@@QAE?AV?$_Tree_iterator@V?$_Tree_val@U?$_Tree_simple_types@U?$pair@$$CBV?$basic_string@DU?$char_traits@D@std@@V?$allocator@D@2@@std@@PAVxSprite@GRAPHICGDI@NMBASE@@@std@@@std@@@std@@@2@XZ 100d99a0 f i NMButton.obj
 0002:0006ba50       ?end@?$_Tree@V?$_Tmap_traits@V?$basic_string@DU?$char_traits@D@std@@V?$allocator@D@2@@std@@V12@U?$less@V?$basic_string@DU?$char_traits@D@std@@V?$allocator@D@2@@std@@@2@V?$allocator@U?$pair@$$CBV?$basic_string@DU?$char_traits@D@std@@V?$allocator@D@2@@std@@V12@@std@@@2@$00@std@@@std@@QAE?AV?$_Tree_iterator@V?$_Tree_val@U?$_Tree_simple_types@U?$pair@$$CBV?$basic_string@DU?$char_traits@D@std@@V?$allocator@D@2@@std@@V12@@std@@@std@@@std@@@2@XZ 100d9a50 f i NMButton.obj
 0002:0006bb00       ?end@?$list@UtagPLAY_DATA@CNMAudioMananger@SKINGDI@NMBASE@@V?$allocator@UtagPLAY_DATA@CNMAudioMananger@SKINGDI@NMBASE@@@std@@@std@@QAE?AV?$_List_iterator@V?$_List_val@U?$_List_simple_types@UtagPLAY_DATA@CNMAudioMananger@SKINGDI@NMBASE@@@std@@@std@@@2@XZ 100d9b00 f i NMButton.obj
 0002:0006bbb0       ?end@?$list@UtagPLAY_DATA@CNMAudioMananger@SKINGDI@NMBASE@@V?$allocator@UtagPLAY_DATA@CNMAudioMananger@SKINGDI@NMBASE@@@std@@@std@@QBE?AV?$_List_const_iterator@V?$_List_val@U?$_List_simple_types@UtagPLAY_DATA@CNMAudioMananger@SKINGDI@NMBASE@@@std@@@std@@@2@XZ 100d9bb0 f i NMButton.obj
 0002:0006bc60       ?erase@?$_Tree@V?$_Tmap_traits@HPAVINMWidget@SKINGDI@NMBASE@@U?$less@H@std@@V?$allocator@U?$pair@$$CBHPAVINMWidget@SKINGDI@NMBASE@@@std@@@5@$0A@@std@@@std@@QAE?AV?$_Tree_iterator@V?$_Tree_val@U?$_Tree_simple_types@U?$pair@$$CBHPAVINMWidget@SKINGDI@NMBASE@@@std@@@std@@@std@@@2@V?$_Tree_const_iterator@V?$_Tree_val@U?$_Tree_simple_types@U?$pair@$$CBHPAVINMWidget@SKINGDI@NMBASE@@@std@@@std@@@std@@@2@0@Z 100d9c60 f i NMButton.obj
 0002:0006bf80       ?erase@?$_Tree@V?$_Tmap_traits@HPAVINMWidget@SKINGDI@NMBASE@@U?$less@H@std@@V?$allocator@U?$pair@$$CBHPAVINMWidget@SKINGDI@NMBASE@@@std@@@5@$0A@@std@@@std@@QAE?AV?$_Tree_iterator@V?$_Tree_val@U?$_Tree_simple_types@U?$pair@$$CBHPAVINMWidget@SKINGDI@NMBASE@@@std@@@std@@@std@@@2@V?$_Tree_const_iterator@V?$_Tree_val@U?$_Tree_simple_types@U?$pair@$$CBHPAVINMWidget@SKINGDI@NMBASE@@@std@@@std@@@std@@@2@@Z 100d9f80 f i NMButton.obj
 0002:0006c210       ?erase@?$_Tree@V?$_Tmap_traits@V?$basic_string@DU?$char_traits@D@std@@V?$allocator@D@2@@std@@PAVxSprite@GRAPHICGDI@NMBASE@@U?$less@V?$basic_string@DU?$char_traits@D@std@@V?$allocator@D@2@@std@@@2@V?$allocator@U?$pair@$$CBV?$basic_string@DU?$char_traits@D@std@@V?$allocator@D@2@@std@@PAVxSprite@GRAPHICGDI@NMBASE@@@std@@@2@$0A@@std@@@std@@QAE?AV?$_Tree_iterator@V?$_Tree_val@U?$_Tree_simple_types@U?$pair@$$CBV?$basic_string@DU?$char_traits@D@std@@V?$allocator@D@2@@std@@PAVxSprite@GRAPHICGDI@NMBASE@@@std@@@std@@@std@@@2@V?$_Tree_const_iterator@V?$_Tree_val@U?$_Tree_simple_types@U?$pair@$$CBV?$basic_string@DU?$char_traits@D@std@@V?$allocator@D@2@@std@@PAVxSprite@GRAPHICGDI@NMBASE@@@std@@@std@@@std@@@2@0@Z 100da210 f i NMButton.obj
 0002:0006c530       ?erase@?$_Tree@V?$_Tmap_traits@V?$basic_string@DU?$char_traits@D@std@@V?$allocator@D@2@@std@@PAVxSprite@GRAPHICGDI@NMBASE@@U?$less@V?$basic_string@DU?$char_traits@D@std@@V?$allocator@D@2@@std@@@2@V?$allocator@U?$pair@$$CBV?$basic_string@DU?$char_traits@D@std@@V?$allocator@D@2@@std@@PAVxSprite@GRAPHICGDI@NMBASE@@@std@@@2@$0A@@std@@@std@@QAE?AV?$_Tree_iterator@V?$_Tree_val@U?$_Tree_simple_types@U?$pair@$$CBV?$basic_string@DU?$char_traits@D@std@@V?$allocator@D@2@@std@@PAVxSprite@GRAPHICGDI@NMBASE@@@std@@@std@@@std@@@2@V?$_Tree_const_iterator@V?$_Tree_val@U?$_Tree_simple_types@U?$pair@$$CBV?$basic_string@DU?$char_traits@D@std@@V?$allocator@D@2@@std@@PAVxSprite@GRAPHICGDI@NMBASE@@@std@@@std@@@std@@@2@@Z 100da530 f i NMButton.obj
 0002:0006c7c0       ?erase@?$_Tree@V?$_Tmap_traits@V?$basic_string@DU?$char_traits@D@std@@V?$allocator@D@2@@std@@V12@U?$less@V?$basic_string@DU?$char_traits@D@std@@V?$allocator@D@2@@std@@@2@V?$allocator@U?$pair@$$CBV?$basic_string@DU?$char_traits@D@std@@V?$allocator@D@2@@std@@V12@@std@@@2@$00@std@@@std@@QAE?AV?$_Tree_iterator@V?$_Tree_val@U?$_Tree_simple_types@U?$pair@$$CBV?$basic_string@DU?$char_traits@D@std@@V?$allocator@D@2@@std@@V12@@std@@@std@@@std@@@2@V?$_Tree_const_iterator@V?$_Tree_val@U?$_Tree_simple_types@U?$pair@$$CBV?$basic_string@DU?$char_traits@D@std@@V?$allocator@D@2@@std@@V12@@std@@@std@@@std@@@2@0@Z 100da7c0 f i NMButton.obj
 0002:0006cae0       ?erase@?$_Tree@V?$_Tmap_traits@V?$basic_string@DU?$char_traits@D@std@@V?$allocator@D@2@@std@@V12@U?$less@V?$basic_string@DU?$char_traits@D@std@@V?$allocator@D@2@@std@@@2@V?$allocator@U?$pair@$$CBV?$basic_string@DU?$char_traits@D@std@@V?$allocator@D@2@@std@@V12@@std@@@2@$00@std@@@std@@QAE?AV?$_Tree_iterator@V?$_Tree_val@U?$_Tree_simple_types@U?$pair@$$CBV?$basic_string@DU?$char_traits@D@std@@V?$allocator@D@2@@std@@V12@@std@@@std@@@std@@@2@V?$_Tree_const_iterator@V?$_Tree_val@U?$_Tree_simple_types@U?$pair@$$CBV?$basic_string@DU?$char_traits@D@std@@V?$allocator@D@2@@std@@V12@@std@@@std@@@std@@@2@@Z 100daae0 f i NMButton.obj
 0002:0006cd70       ?erase@?$list@UtagPLAY_DATA@CNMAudioMananger@SKINGDI@NMBASE@@V?$allocator@UtagPLAY_DATA@CNMAudioMananger@SKINGDI@NMBASE@@@std@@@std@@QAE?AV?$_List_iterator@V?$_List_val@U?$_List_simple_types@UtagPLAY_DATA@CNMAudioMananger@SKINGDI@NMBASE@@@std@@@std@@@2@V?$_List_const_iterator@V?$_List_val@U?$_List_simple_types@UtagPLAY_DATA@CNMAudioMananger@SKINGDI@NMBASE@@@std@@@std@@@2@0@Z 100dad70 f i NMButton.obj
 0002:0006d0c0       ?erase@?$list@UtagPLAY_DATA@CNMAudioMananger@SKINGDI@NMBASE@@V?$allocator@UtagPLAY_DATA@CNMAudioMananger@SKINGDI@NMBASE@@@std@@@std@@QAE?AV?$_List_iterator@V?$_List_val@U?$_List_simple_types@UtagPLAY_DATA@CNMAudioMananger@SKINGDI@NMBASE@@@std@@@std@@@2@V?$_List_const_iterator@V?$_List_val@U?$_List_simple_types@UtagPLAY_DATA@CNMAudioMananger@SKINGDI@NMBASE@@@std@@@std@@@2@@Z 100db0c0 f i NMButton.obj
 0002:0006d200       ?key_comp@?$_Tree@V?$_Tmap_traits@HPAVINMWidget@SKINGDI@NMBASE@@U?$less@H@std@@V?$allocator@U?$pair@$$CBHPAVINMWidget@SKINGDI@NMBASE@@@std@@@5@$0A@@std@@@std@@QBE?AU?$less@H@2@XZ 100db200 f i NMButton.obj
 0002:0006d260       ?key_comp@?$_Tree@V?$_Tmap_traits@V?$basic_string@DU?$char_traits@D@std@@V?$allocator@D@2@@std@@PAVxSprite@GRAPHICGDI@NMBASE@@U?$less@V?$basic_string@DU?$char_traits@D@std@@V?$allocator@D@2@@std@@@2@V?$allocator@U?$pair@$$CBV?$basic_string@DU?$char_traits@D@std@@V?$allocator@D@2@@std@@PAVxSprite@GRAPHICGDI@NMBASE@@@std@@@2@$0A@@std@@@std@@QBE?AU?$less@V?$basic_string@DU?$char_traits@D@std@@V?$allocator@D@2@@std@@@2@XZ 100db260 f i NMButton.obj
 0002:0006d2c0       ?key_comp@?$_Tree@V?$_Tmap_traits@V?$basic_string@DU?$char_traits@D@std@@V?$allocator@D@2@@std@@V12@U?$less@V?$basic_string@DU?$char_traits@D@std@@V?$allocator@D@2@@std@@@2@V?$allocator@U?$pair@$$CBV?$basic_string@DU?$char_traits@D@std@@V?$allocator@D@2@@std@@V12@@std@@@2@$00@std@@@std@@QBE?AU?$less@V?$basic_string@DU?$char_traits@D@std@@V?$allocator@D@2@@std@@@2@XZ 100db2c0 f i NMButton.obj
 0002:0006d320       ?length@?$basic_string@DU?$char_traits@D@std@@V?$allocator@D@2@@std@@QBEIXZ 100db320 f i NMButton.obj
 0002:0006d380       ?length@?$char_traits@D@std@@SAIQBD@Z 100db380 f i NMButton.obj
 0002:0006d3d0       ?max_size@?$_Default_allocator_traits@V?$allocator@D@std@@@std@@SAIABV?$allocator@D@2@@Z 100db3d0 f i NMButton.obj
 0002:0006d410       ?max_size@?$_Default_allocator_traits@V?$allocator@PAVINMWidget@SKINGDI@NMBASE@@@std@@@std@@SAIABV?$allocator@PAVINMWidget@SKINGDI@NMBASE@@@2@@Z 100db410 f i NMButton.obj
 0002:0006d450       ?max_size@?$_Default_allocator_traits@V?$allocator@U?$_List_node@UtagPLAY_DATA@CNMAudioMananger@SKINGDI@NMBASE@@PAX@std@@@std@@@std@@SAIABV?$allocator@U?$_List_node@UtagPLAY_DATA@CNMAudioMananger@SKINGDI@NMBASE@@PAX@std@@@2@@Z 100db450 f i NMButton.obj
 0002:0006d490       ?max_size@?$basic_string@DU?$char_traits@D@std@@V?$allocator@D@2@@std@@QBEIXZ 100db490 f i NMButton.obj
 0002:0006d5a0       ?max_size@?$list@UtagPLAY_DATA@CNMAudioMananger@SKINGDI@NMBASE@@V?$allocator@UtagPLAY_DATA@CNMAudioMananger@SKINGDI@NMBASE@@@std@@@std@@QBEIXZ 100db5a0 f i NMButton.obj
 0002:0006d600       ?max_size@?$vector@PAVINMWidget@SKINGDI@NMBASE@@V?$allocator@PAVINMWidget@SKINGDI@NMBASE@@@std@@@std@@QBEIXZ 100db600 f i NMButton.obj
 0002:0006d690       ?move@?$char_traits@D@std@@SAPADQADQBDI@Z 100db690 f i NMButton.obj
 0002:0006d6f0       ?select_on_container_copy_construction@?$_Default_allocator_traits@V?$allocator@D@std@@@std@@SA?AV?$allocator@D@2@ABV32@@Z 100db6f0 f i NMButton.obj
 0002:0006d730       ?select_on_container_copy_construction@?$_Default_allocator_traits@V?$allocator@PAVINMWidget@SKINGDI@NMBASE@@@std@@@std@@SA?AV?$allocator@PAVINMWidget@SKINGDI@NMBASE@@@2@ABV32@@Z 100db730 f i NMButton.obj
 0002:0006d770       ?select_on_container_copy_construction@?$_Default_allocator_traits@V?$allocator@U?$_List_node@UtagPLAY_DATA@CNMAudioMananger@SKINGDI@NMBASE@@PAX@std@@@std@@@std@@SA?AV?$allocator@U?$_List_node@UtagPLAY_DATA@CNMAudioMananger@SKINGDI@NMBASE@@PAX@std@@@2@ABV32@@Z 100db770 f i NMButton.obj
 0002:0006d7b0       ?select_on_container_copy_construction@?$_Default_allocator_traits@V?$allocator@U?$_Tree_node@U?$pair@$$CBHPAVINMWidget@SKINGDI@NMBASE@@@std@@PAX@std@@@std@@@std@@SA?AV?$allocator@U?$_Tree_node@U?$pair@$$CBHPAVINMWidget@SKINGDI@NMBASE@@@std@@PAX@std@@@2@ABV32@@Z 100db7b0 f i NMButton.obj
 0002:0006d7f0       ?select_on_container_copy_construction@?$_Default_allocator_traits@V?$allocator@U?$_Tree_node@U?$pair@$$CBV?$basic_string@DU?$char_traits@D@std@@V?$allocator@D@2@@std@@PAVxSprite@GRAPHICGDI@NMBASE@@@std@@PAX@std@@@std@@@std@@SA?AV?$allocator@U?$_Tree_node@U?$pair@$$CBV?$basic_string@DU?$char_traits@D@std@@V?$allocator@D@2@@std@@PAVxSprite@GRAPHICGDI@NMBASE@@@std@@PAX@std@@@2@ABV32@@Z 100db7f0 f i NMButton.obj
 0002:0006d830       ?select_on_container_copy_construction@?$_Default_allocator_traits@V?$allocator@U?$_Tree_node@U?$pair@$$CBV?$basic_string@DU?$char_traits@D@std@@V?$allocator@D@2@@std@@V12@@std@@PAX@std@@@std@@@std@@SA?AV?$allocator@U?$_Tree_node@U?$pair@$$CBV?$basic_string@DU?$char_traits@D@std@@V?$allocator@D@2@@std@@V12@@std@@PAX@std@@@2@ABV32@@Z 100db830 f i NMButton.obj
 0002:0006d870       ?size@?$_Tree@V?$_Tmap_traits@HPAVINMWidget@SKINGDI@NMBASE@@U?$less@H@std@@V?$allocator@U?$pair@$$CBHPAVINMWidget@SKINGDI@NMBASE@@@std@@@5@$0A@@std@@@std@@QBEIXZ 100db870 f i NMButton.obj
 0002:0006d8d0       ?size@?$_Tree@V?$_Tmap_traits@V?$basic_string@DU?$char_traits@D@std@@V?$allocator@D@2@@std@@PAVxSprite@GRAPHICGDI@NMBASE@@U?$less@V?$basic_string@DU?$char_traits@D@std@@V?$allocator@D@2@@std@@@2@V?$allocator@U?$pair@$$CBV?$basic_string@DU?$char_traits@D@std@@V?$allocator@D@2@@std@@PAVxSprite@GRAPHICGDI@NMBASE@@@std@@@2@$0A@@std@@@std@@QBEIXZ 100db8d0 f i NMButton.obj
 0002:0006d930       ?size@?$_Tree@V?$_Tmap_traits@V?$basic_string@DU?$char_traits@D@std@@V?$allocator@D@2@@std@@V12@U?$less@V?$basic_string@DU?$char_traits@D@std@@V?$allocator@D@2@@std@@@2@V?$allocator@U?$pair@$$CBV?$basic_string@DU?$char_traits@D@std@@V?$allocator@D@2@@std@@V12@@std@@@2@$00@std@@@std@@QBEIXZ 100db930 f i NMButton.obj
 0002:0006d990       ?size@?$vector@PAVINMWidget@SKINGDI@NMBASE@@V?$allocator@PAVINMWidget@SKINGDI@NMBASE@@@std@@@std@@QBEIXZ 100db990 f i NMButton.obj
 0002:0006da00       ?OnSetFocus@CNMCommonRichEdit@SKINGDI@NMBASE@@IAEXPAVCWnd@@@Z 100dba00 f   NMChatWidget.obj
 0002:0006da80       ??0CNMChatWidget@SKINGDI@NMBASE@@QAE@XZ 100dba80 f   NMChatWidget.obj
 0002:0006dbb0       ??0CNMCommonRichEdit@SKINGDI@NMBASE@@QAE@XZ 100dbbb0 f   NMChatWidget.obj
 0002:0006dc20       ??1CNMChatWidget@SKINGDI@NMBASE@@UAE@XZ 100dbc20 f   NMChatWidget.obj
 0002:0006dc90       ??1CNMCommonRichEdit@SKINGDI@NMBASE@@UAE@XZ 100dbc90 f   NMChatWidget.obj
 0002:0006dcf0       ??_ECNMChatWidget@SKINGDI@NMBASE@@UAEPAXI@Z 100dbcf0 f i NMChatWidget.obj
 0002:0006de00       ??_ECNMCommonRichEdit@SKINGDI@NMBASE@@UAEPAXI@Z 100dbe00 f i NMChatWidget.obj
 0002:0006df30       ??_GCNMChatWidget@SKINGDI@NMBASE@@UAEPAXI@Z 100dbf30 f i NMChatWidget.obj
 0002:0006dfb0       ??_GCNMCommonRichEdit@SKINGDI@NMBASE@@UAEPAXI@Z 100dbfb0 f i NMChatWidget.obj
 0002:0006e040       ?AddText@CNMCommonRichEdit@SKINGDI@NMBASE@@QAEXPBDKH@Z 100dc040 f   NMChatWidget.obj
 0002:0006e1f0       ?ClearAllData@CNMChatWidget@SKINGDI@NMBASE@@UAEXXZ 100dc1f0 f   NMChatWidget.obj
 0002:0006e2a0       ?ClearAllData@CNMCommonRichEdit@SKINGDI@NMBASE@@QAEXXZ 100dc2a0 f   NMChatWidget.obj
 0002:0006e300       ?Create@CNMCommonRichEdit@SKINGDI@NMBASE@@QAEHKABUtagRECT@@PAVCWnd@@I@Z 100dc300 f   NMChatWidget.obj
 0002:0006e3a0       ?DrawWidget@CNMChatWidget@SKINGDI@NMBASE@@UAEXAAVCPage@GRAPHICGDI@3@AAVCDC@@@Z 100dc3a0 f   NMChatWidget.obj
 0002:0006e900       ?GetMessageMap@CNMCommonRichEdit@SKINGDI@NMBASE@@MBEPBUAFX_MSGMAP@@XZ 100dc900 f   NMChatWidget.obj
 0002:0006e950       ?GetThisMessageMap@CNMCommonRichEdit@SKINGDI@NMBASE@@KGPBUAFX_MSGMAP@@XZ 100dc950 f   NMChatWidget.obj
 0002:0006e990       ?Initialize@CNMChatWidget@SKINGDI@NMBASE@@UAEHHPAVCWnd@@VCRect@@HH@Z 100dc990 f   NMChatWidget.obj
 0002:0006eb40       ?Initialize@CNMCommonRichEdit@SKINGDI@NMBASE@@QAEHPAVINMWidget@23@@Z 100dcb40 f   NMChatWidget.obj
 0002:0006eb90       ?InsertData@CNMChatWidget@SKINGDI@NMBASE@@UAEXPAV?$CStringT@DV?$StrTraitMFC_DLL@DV?$ChTraitsCRT@D@ATL@@@@@ATL@@KH@Z 100dcb90 f   NMChatWidget.obj
 0002:0006ec20       ?InsertData@CNMChatWidget@SKINGDI@NMBASE@@UAEXPBDKH@Z 100dcc20 f   NMChatWidget.obj
 0002:0006ed00       ?SetCurrentLine@CNMChatWidget@SKINGDI@NMBASE@@UAEXH@Z 100dcd00 f   NMChatWidget.obj
 0002:0006ed50       ?SetFont@CNMChatWidget@SKINGDI@NMBASE@@UAEXPAVCFont@@@Z 100dcd50 f   NMChatWidget.obj
 0002:0006edc0       ?SetPosition@CNMChatWidget@SKINGDI@NMBASE@@UAEXHH@Z 100dcdc0 f   NMChatWidget.obj
 0002:0006ee60       ??$?0$$V@?$_Compressed_pair@V?$allocator@UCOMBODATA@CNMComboBox@SKINGDI@NMBASE@@@std@@V?$_Vector_val@U?$_Simple_types@UCOMBODATA@CNMComboBox@SKINGDI@NMBASE@@@std@@@2@$00@std@@QAE@U_Zero_then_variadic_args_t@1@@Z 100dce60 f i NMComboBox.obj
 0002:0006eec0       ??$?0UCOMBODATA@CNMComboBox@SKINGDI@NMBASE@@@?$allocator@U_Container_proxy@std@@@std@@QAE@ABV?$allocator@UCOMBODATA@CNMComboBox@SKINGDI@NMBASE@@@1@@Z 100dcec0 f i NMComboBox.obj
 0002:0006ef00       ??$?0V?$allocator@UCOMBODATA@CNMComboBox@SKINGDI@NMBASE@@@std@@$$V@?$_Compressed_pair@V?$allocator@UCOMBODATA@CNMComboBox@SKINGDI@NMBASE@@@std@@V?$_Vector_val@U?$_Simple_types@UCOMBODATA@CNMComboBox@SKINGDI@NMBASE@@@std@@@2@$00@std@@QAE@U_One_then_variadic_args_t@1@$$QAV?$allocator@UCOMBODATA@CNMComboBox@SKINGDI@NMBASE@@@1@@Z 100dcf00 f i NMComboBox.obj
 0002:0006ef70       ??$?0V?$allocator@UCOMBODATA@CNMComboBox@SKINGDI@NMBASE@@@std@@X@?$_Vector_alloc@U?$_Vec_base_types@UCOMBODATA@CNMComboBox@SKINGDI@NMBASE@@V?$allocator@UCOMBODATA@CNMComboBox@SKINGDI@NMBASE@@@std@@@std@@@std@@QAE@$$QAV?$allocator@UCOMBODATA@CNMComboBox@SKINGDI@NMBASE@@@1@@Z 100dcf70 f i NMComboBox.obj
 0002:0006eff0       ??$_Adl_verify_range1@PAUCOMBODATA@CNMComboBox@SKINGDI@NMBASE@@PAU1234@@std@@YAXABQAUCOMBODATA@CNMComboBox@SKINGDI@NMBASE@@0U?$integral_constant@_N$00@0@@Z 100dcff0 f i NMComboBox.obj
 0002:0006f050       ??$_Adl_verify_range@PAUCOMBODATA@CNMComboBox@SKINGDI@NMBASE@@PAU1234@@std@@YAXABQAUCOMBODATA@CNMComboBox@SKINGDI@NMBASE@@0@Z 100dd050 f i NMComboBox.obj
 0002:0006f0c0       ??$_Advance1@PAUCOMBODATA@CNMComboBox@SKINGDI@NMBASE@@H@std@@YAXAAPAUCOMBODATA@CNMComboBox@SKINGDI@NMBASE@@HUrandom_access_iterator_tag@0@@Z 100dd0c0 f i NMComboBox.obj
 0002:0006f100       ??$_Assign_range@PAUCOMBODATA@CNMComboBox@SKINGDI@NMBASE@@@?$vector@UCOMBODATA@CNMComboBox@SKINGDI@NMBASE@@V?$allocator@UCOMBODATA@CNMComboBox@SKINGDI@NMBASE@@@std@@@std@@AAEXPAUCOMBODATA@CNMComboBox@SKINGDI@NMBASE@@0Uforward_iterator_tag@1@@Z 100dd100 f i NMComboBox.obj
 0002:0006f350       ??$_Copy_unchecked1@PAUCOMBODATA@CNMComboBox@SKINGDI@NMBASE@@PAU1234@@std@@YAPAUCOMBODATA@CNMComboBox@SKINGDI@NMBASE@@PAU1234@00U_General_ptr_iterator_tag@0@@Z 100dd350 f i NMComboBox.obj
 0002:0006f3d0       ??$_Copy_unchecked@PAUCOMBODATA@CNMComboBox@SKINGDI@NMBASE@@PAU1234@@std@@YAPAUCOMBODATA@CNMComboBox@SKINGDI@NMBASE@@PAU1234@00@Z 100dd3d0 f i NMComboBox.obj
 0002:0006f450       ??$_Destroy_range1@V?$allocator@UCOMBODATA@CNMComboBox@SKINGDI@NMBASE@@@std@@@std@@YAXPAUCOMBODATA@CNMComboBox@SKINGDI@NMBASE@@0AAV?$allocator@UCOMBODATA@CNMComboBox@SKINGDI@NMBASE@@@0@U?$integral_constant@_N$0A@@0@@Z 100dd450 f i NMComboBox.obj
 0002:0006f4d0       ??$_Destroy_range@V?$allocator@UCOMBODATA@CNMComboBox@SKINGDI@NMBASE@@@std@@@std@@YAXPAUCOMBODATA@CNMComboBox@SKINGDI@NMBASE@@0AAV?$allocator@UCOMBODATA@CNMComboBox@SKINGDI@NMBASE@@@0@@Z 100dd4d0 f i NMComboBox.obj
 0002:0006f540       ??$_Distance1@PAUCOMBODATA@CNMComboBox@SKINGDI@NMBASE@@@std@@YAHPAUCOMBODATA@CNMComboBox@SKINGDI@NMBASE@@0Urandom_access_iterator_tag@0@@Z 100dd540 f i NMComboBox.obj
 0002:0006f580       ??$_Emplace_back@AAUCOMBODATA@CNMComboBox@SKINGDI@NMBASE@@@?$_Uninitialized_backout_al@PAUCOMBODATA@CNMComboBox@SKINGDI@NMBASE@@V?$allocator@UCOMBODATA@CNMComboBox@SKINGDI@NMBASE@@@std@@@std@@QAEXAAUCOMBODATA@CNMComboBox@SKINGDI@NMBASE@@@Z 100dd580 f i NMComboBox.obj
 0002:0006f620       ??$_Emplace_back@UCOMBODATA@CNMComboBox@SKINGDI@NMBASE@@@?$_Uninitialized_backout_al@PAUCOMBODATA@CNMComboBox@SKINGDI@NMBASE@@V?$allocator@UCOMBODATA@CNMComboBox@SKINGDI@NMBASE@@@std@@@std@@QAEX$$QAUCOMBODATA@CNMComboBox@SKINGDI@NMBASE@@@Z 100dd620 f i NMComboBox.obj
 0002:0006f6c0       ??$_Emplace_back_with_unused_capacity@ABUCOMBODATA@CNMComboBox@SKINGDI@NMBASE@@@?$vector@UCOMBODATA@CNMComboBox@SKINGDI@NMBASE@@V?$allocator@UCOMBODATA@CNMComboBox@SKINGDI@NMBASE@@@std@@@std@@AAE@ABUCOMBODATA@CNMComboBox@SKINGDI@NMBASE@@@Z 100dd6c0 f i NMComboBox.obj
 0002:0006f7b0       ??$_Emplace_reallocate@ABUCOMBODATA@CNMComboBox@SKINGDI@NMBASE@@@?$vector@UCOMBODATA@CNMComboBox@SKINGDI@NMBASE@@V?$allocator@UCOMBODATA@CNMComboBox@SKINGDI@NMBASE@@@std@@@std@@QAEPAUCOMBODATA@CNMComboBox@SKINGDI@NMBASE@@QAU2345@ABU2345@@Z 100dd7b0 f i NMComboBox.obj
 0002:0006fa40       ??$_Get_size_of_n@$0CE@@std@@YAII@Z 100dda40 f i NMComboBox.obj
 0002:0006faa0       ??$_Get_unwrapped@UCOMBODATA@CNMComboBox@SKINGDI@NMBASE@@@std@@YAPAUCOMBODATA@CNMComboBox@SKINGDI@NMBASE@@QAU1234@@Z 100ddaa0 f i NMComboBox.obj
 0002:0006fae0       ??$_Get_unwrapped_n@UCOMBODATA@CNMComboBox@SKINGDI@NMBASE@@H$0A@@std@@YAPAUCOMBODATA@CNMComboBox@SKINGDI@NMBASE@@QAU1234@H@Z 100ddae0 f i NMComboBox.obj
 0002:0006fb20       ??$_Idl_distance1@PAUCOMBODATA@CNMComboBox@SKINGDI@NMBASE@@PAU1234@@std@@YAHABQAUCOMBODATA@CNMComboBox@SKINGDI@NMBASE@@0Urandom_access_iterator_tag@0@@Z 100ddb20 f i NMComboBox.obj
 0002:0006fb70       ??$_Idl_distance@PAUCOMBODATA@CNMComboBox@SKINGDI@NMBASE@@PAU1234@@std@@YA@ABQAUCOMBODATA@CNMComboBox@SKINGDI@NMBASE@@0@Z 100ddb70 f i NMComboBox.obj
 0002:0006fbd0       ??$_Pocca@V?$allocator@UCOMBODATA@CNMComboBox@SKINGDI@NMBASE@@@std@@@std@@YAXAAV?$allocator@UCOMBODATA@CNMComboBox@SKINGDI@NMBASE@@@0@ABV10@@Z 100ddbd0 f i NMComboBox.obj
 0002:0006fc60       ??$_Pocca@V?$allocator@UCOMBODATA@CNMComboBox@SKINGDI@NMBASE@@@std@@@std@@YAXAAV?$allocator@UCOMBODATA@CNMComboBox@SKINGDI@NMBASE@@@0@ABV10@U?$integral_constant@_N$0A@@0@@Z 100ddc60 f i NMComboBox.obj
 0002:0006fc90       ??$_Ptr_copy_cat@UCOMBODATA@CNMComboBox@SKINGDI@NMBASE@@U1234@@std@@YA?AU_General_ptr_iterator_tag@0@ABQAUCOMBODATA@CNMComboBox@SKINGDI@NMBASE@@0@Z 100ddc90 f i NMComboBox.obj
 0002:0006fcd0       ??$_Ptr_move_cat@UCOMBODATA@CNMComboBox@SKINGDI@NMBASE@@U1234@@std@@YA?AU_General_ptr_iterator_tag@0@ABQAUCOMBODATA@CNMComboBox@SKINGDI@NMBASE@@0@Z 100ddcd0 f i NMComboBox.obj
 0002:0006fd10       ??$_Seek_wrapped@UCOMBODATA@CNMComboBox@SKINGDI@NMBASE@@@std@@YAXAAPAUCOMBODATA@CNMComboBox@SKINGDI@NMBASE@@QAU1234@@Z 100ddd10 f i NMComboBox.obj
 0002:0006fd50       ??$_Ucopy@PAUCOMBODATA@CNMComboBox@SKINGDI@NMBASE@@@?$vector@UCOMBODATA@CNMComboBox@SKINGDI@NMBASE@@V?$allocator@UCOMBODATA@CNMComboBox@SKINGDI@NMBASE@@@std@@@std@@AAEPAUCOMBODATA@CNMComboBox@SKINGDI@NMBASE@@PAU2345@00@Z 100ddd50 f i NMComboBox.obj
 0002:0006fdc0       ??$_Unfancy@UCOMBODATA@CNMComboBox@SKINGDI@NMBASE@@@std@@YAPAUCOMBODATA@CNMComboBox@SKINGDI@NMBASE@@PAU1234@@Z 100dddc0 f i NMComboBox.obj
 0002:0006fe00       ??$_Uninitialized_copy@PAUCOMBODATA@CNMComboBox@SKINGDI@NMBASE@@PAU1234@V?$allocator@UCOMBODATA@CNMComboBox@SKINGDI@NMBASE@@@std@@@std@@YAPAUCOMBODATA@CNMComboBox@SKINGDI@NMBASE@@QAU1234@0PAU1234@AAV?$allocator@UCOMBODATA@CNMComboBox@SKINGDI@NMBASE@@@0@@Z 100dde00 f i NMComboBox.obj
 0002:0006ff60       ??$_Uninitialized_copy_al_unchecked@PAUCOMBODATA@CNMComboBox@SKINGDI@NMBASE@@PAU1234@V?$allocator@UCOMBODATA@CNMComboBox@SKINGDI@NMBASE@@@std@@@std@@YAPAUCOMBODATA@CNMComboBox@SKINGDI@NMBASE@@PAU1234@QAU1234@1AAV?$allocator@UCOMBODATA@CNMComboBox@SKINGDI@NMBASE@@@0@U_General_ptr_iterator_tag@0@U_Unused_parameter@0@@Z 100ddf60 f i NMComboBox.obj
 0002:00070080       ??$_Uninitialized_move@PAUCOMBODATA@CNMComboBox@SKINGDI@NMBASE@@PAU1234@V?$allocator@UCOMBODATA@CNMComboBox@SKINGDI@NMBASE@@@std@@@std@@YAPAUCOMBODATA@CNMComboBox@SKINGDI@NMBASE@@QAU1234@0PAU1234@AAV?$allocator@UCOMBODATA@CNMComboBox@SKINGDI@NMBASE@@@0@@Z 100de080 f i NMComboBox.obj
 0002:000701e0       ??$_Uninitialized_move_al_unchecked@PAUCOMBODATA@CNMComboBox@SKINGDI@NMBASE@@PAU1234@V?$allocator@UCOMBODATA@CNMComboBox@SKINGDI@NMBASE@@@std@@@std@@YAPAUCOMBODATA@CNMComboBox@SKINGDI@NMBASE@@PAU1234@QAU1234@1AAV?$allocator@UCOMBODATA@CNMComboBox@SKINGDI@NMBASE@@@0@U_General_ptr_iterator_tag@0@U_Unused_parameter@0@@Z 100de1e0 f i NMComboBox.obj
 0002:00070310       ??$_Verify_range@UCOMBODATA@CNMComboBox@SKINGDI@NMBASE@@@std@@YAXQBUCOMBODATA@CNMComboBox@SKINGDI@NMBASE@@0@Z 100de310 f i NMComboBox.obj
 0002:000703e0       ??$addressof@$$CBV?$vector@UCOMBODATA@CNMComboBox@SKINGDI@NMBASE@@V?$allocator@UCOMBODATA@CNMComboBox@SKINGDI@NMBASE@@@std@@@std@@@std@@YAPBV?$vector@UCOMBODATA@CNMComboBox@SKINGDI@NMBASE@@V?$allocator@UCOMBODATA@CNMComboBox@SKINGDI@NMBASE@@@std@@@0@ABV10@@Z 100de3e0 f i NMComboBox.obj
 0002:00070420       ??$addressof@V?$_Vector_val@U?$_Simple_types@UCOMBODATA@CNMComboBox@SKINGDI@NMBASE@@@std@@@std@@@std@@YAPAV?$_Vector_val@U?$_Simple_types@UCOMBODATA@CNMComboBox@SKINGDI@NMBASE@@@std@@@0@AAV10@@Z 100de420 f i NMComboBox.obj
 0002:00070460       ??$advance@PAUCOMBODATA@CNMComboBox@SKINGDI@NMBASE@@H@std@@YAXAAPAUCOMBODATA@CNMComboBox@SKINGDI@NMBASE@@H@Z 100de460 f i NMComboBox.obj
 0002:000704c0       ??$assign@PAUCOMBODATA@CNMComboBox@SKINGDI@NMBASE@@X@?$vector@UCOMBODATA@CNMComboBox@SKINGDI@NMBASE@@V?$allocator@UCOMBODATA@CNMComboBox@SKINGDI@NMBASE@@@std@@@std@@QAEXPAUCOMBODATA@CNMComboBox@SKINGDI@NMBASE@@0@Z 100de4c0 f i NMComboBox.obj
 0002:00070550       ??$construct@UCOMBODATA@CNMComboBox@SKINGDI@NMBASE@@AAU1234@@?$_Default_allocator_traits@V?$allocator@UCOMBODATA@CNMComboBox@SKINGDI@NMBASE@@@std@@@std@@SAXAAV?$allocator@UCOMBODATA@CNMComboBox@SKINGDI@NMBASE@@@1@QAUCOMBODATA@CNMComboBox@SKINGDI@NMBASE@@AAU3456@@Z 100de550 f i NMComboBox.obj
 0002:000705d0       ??$construct@UCOMBODATA@CNMComboBox@SKINGDI@NMBASE@@ABU1234@@?$_Default_allocator_traits@V?$allocator@UCOMBODATA@CNMComboBox@SKINGDI@NMBASE@@@std@@@std@@SAXAAV?$allocator@UCOMBODATA@CNMComboBox@SKINGDI@NMBASE@@@1@QAUCOMBODATA@CNMComboBox@SKINGDI@NMBASE@@ABU3456@@Z 100de5d0 f i NMComboBox.obj
 0002:00070650       ??$construct@UCOMBODATA@CNMComboBox@SKINGDI@NMBASE@@U1234@@?$_Default_allocator_traits@V?$allocator@UCOMBODATA@CNMComboBox@SKINGDI@NMBASE@@@std@@@std@@SAXAAV?$allocator@UCOMBODATA@CNMComboBox@SKINGDI@NMBASE@@@1@QAUCOMBODATA@CNMComboBox@SKINGDI@NMBASE@@$$QAU3456@@Z 100de650 f i NMComboBox.obj
 0002:000706d0       ??$destroy@UCOMBODATA@CNMComboBox@SKINGDI@NMBASE@@@?$_Default_allocator_traits@V?$allocator@UCOMBODATA@CNMComboBox@SKINGDI@NMBASE@@@std@@@std@@SAXAAV?$allocator@UCOMBODATA@CNMComboBox@SKINGDI@NMBASE@@@1@QAUCOMBODATA@CNMComboBox@SKINGDI@NMBASE@@@Z 100de6d0 f i NMComboBox.obj
 0002:00070720       ??$distance@PAUCOMBODATA@CNMComboBox@SKINGDI@NMBASE@@@std@@YAHPAUCOMBODATA@CNMComboBox@SKINGDI@NMBASE@@0@Z 100de720 f i NMComboBox.obj
 0002:00070780       ??$emplace_back@ABUCOMBODATA@CNMComboBox@SKINGDI@NMBASE@@@?$vector@UCOMBODATA@CNMComboBox@SKINGDI@NMBASE@@V?$allocator@UCOMBODATA@CNMComboBox@SKINGDI@NMBASE@@@std@@@std@@QAE@ABUCOMBODATA@CNMComboBox@SKINGDI@NMBASE@@@Z 100de780 f i NMComboBox.obj
 0002:00070830       ??$forward@AAUCOMBODATA@CNMComboBox@SKINGDI@NMBASE@@@std@@YAAAUCOMBODATA@CNMComboBox@SKINGDI@NMBASE@@AAU1234@@Z 100de830 f i NMComboBox.obj
 0002:00070870       ??$forward@ABUCOMBODATA@CNMComboBox@SKINGDI@NMBASE@@@std@@YAABUCOMBODATA@CNMComboBox@SKINGDI@NMBASE@@ABU1234@@Z 100de870 f i NMComboBox.obj
 0002:000708b0       ??$forward@UCOMBODATA@CNMComboBox@SKINGDI@NMBASE@@@std@@YA$$QAUCOMBODATA@CNMComboBox@SKINGDI@NMBASE@@AAU1234@@Z 100de8b0 f i NMComboBox.obj
 0002:000708f0       ??$forward@V?$allocator@UCOMBODATA@CNMComboBox@SKINGDI@NMBASE@@@std@@@std@@YA$$QAV?$allocator@UCOMBODATA@CNMComboBox@SKINGDI@NMBASE@@@0@AAV10@@Z 100de8f0 f i NMComboBox.obj
 0002:00070930       ??$move@AAUCOMBODATA@CNMComboBox@SKINGDI@NMBASE@@@std@@YA$$QAUCOMBODATA@CNMComboBox@SKINGDI@NMBASE@@AAU1234@@Z 100de930 f i NMComboBox.obj
 0002:00070970       ??$move@AAV?$allocator@D@std@@@std@@YA$$QAV?$allocator@D@0@AAV10@@Z 100de970 f i NMComboBox.obj
 0002:000709b0       ??$move@AAV?$basic_string@DU?$char_traits@D@std@@V?$allocator@D@2@@std@@@std@@YA$$QAV?$basic_string@DU?$char_traits@D@std@@V?$allocator@D@2@@0@AAV10@@Z 100de9b0 f i NMComboBox.obj
 0002:000709f0       ??$next@PAUCOMBODATA@CNMComboBox@SKINGDI@NMBASE@@@std@@YAPAUCOMBODATA@CNMComboBox@SKINGDI@NMBASE@@PAU1234@H@Z 100de9f0 f i NMComboBox.obj
 0002:00070a50       ??0?$_Uninitialized_backout_al@PAUCOMBODATA@CNMComboBox@SKINGDI@NMBASE@@V?$allocator@UCOMBODATA@CNMComboBox@SKINGDI@NMBASE@@@std@@@std@@QAE@PAUCOMBODATA@CNMComboBox@SKINGDI@NMBASE@@AAV?$allocator@UCOMBODATA@CNMComboBox@SKINGDI@NMBASE@@@1@@Z 100dea50 f i NMComboBox.obj
 0002:00070ab0       ??0?$_Vector_alloc@U?$_Vec_base_types@UCOMBODATA@CNMComboBox@SKINGDI@NMBASE@@V?$allocator@UCOMBODATA@CNMComboBox@SKINGDI@NMBASE@@@std@@@std@@@std@@QAE@XZ 100deab0 f i NMComboBox.obj
 0002:00070b20       ??0?$_Vector_val@U?$_Simple_types@UCOMBODATA@CNMComboBox@SKINGDI@NMBASE@@@std@@@std@@QAE@XZ 100deb20 f i NMComboBox.obj
 0002:00070ba0       ??0?$allocator@UCOMBODATA@CNMComboBox@SKINGDI@NMBASE@@@std@@QAE@XZ 100deba0 f i NMComboBox.obj
 0002:00070be0       ??0?$basic_string@DU?$char_traits@D@std@@V?$allocator@D@2@@std@@QAE@$$QAV01@@Z 100debe0 f i NMComboBox.obj
 0002:00070cb0       ??0?$vector@UCOMBODATA@CNMComboBox@SKINGDI@NMBASE@@V?$allocator@UCOMBODATA@CNMComboBox@SKINGDI@NMBASE@@@std@@@std@@QAE@ABV01@@Z 100decb0 f i NMComboBox.obj
 0002:00070e20       ??0?$vector@UCOMBODATA@CNMComboBox@SKINGDI@NMBASE@@V?$allocator@UCOMBODATA@CNMComboBox@SKINGDI@NMBASE@@@std@@@std@@QAE@XZ 100dee20 f i NMComboBox.obj
 0002:00070eb0       ??0CNMComboBox@SKINGDI@NMBASE@@QAE@ABV012@@Z 100deeb0 f i NMComboBox.obj
 0002:000710e0       ??0CNMComboBox@SKINGDI@NMBASE@@QAE@XZ 100df0e0 f   NMComboBox.obj
 0002:000712d0       ??0COMBODATA@CNMComboBox@SKINGDI@NMBASE@@QAE@$$QAU0123@@Z 100df2d0 f i NMComboBox.obj
 0002:00071350       ??0COMBODATA@CNMComboBox@SKINGDI@NMBASE@@QAE@ABU0123@@Z 100df350 f i NMComboBox.obj
 0002:000713d0       ??0COMBODATA@CNMComboBox@SKINGDI@NMBASE@@QAE@XZ 100df3d0 f i NMComboBox.obj
 0002:00071430       ??1?$_Uninitialized_backout_al@PAUCOMBODATA@CNMComboBox@SKINGDI@NMBASE@@V?$allocator@UCOMBODATA@CNMComboBox@SKINGDI@NMBASE@@@std@@@std@@QAE@XZ 100df430 f i NMComboBox.obj
 0002:000714d0       ??1?$_Vector_alloc@U?$_Vec_base_types@UCOMBODATA@CNMComboBox@SKINGDI@NMBASE@@V?$allocator@UCOMBODATA@CNMComboBox@SKINGDI@NMBASE@@@std@@@std@@@std@@QAE@XZ 100df4d0 f i NMComboBox.obj
 0002:00071560       ??1?$vector@UCOMBODATA@CNMComboBox@SKINGDI@NMBASE@@V?$allocator@UCOMBODATA@CNMComboBox@SKINGDI@NMBASE@@@std@@@std@@QAE@XZ 100df560 f i NMComboBox.obj
 0002:000715f0       ??1CNMComboBox@SKINGDI@NMBASE@@UAE@XZ 100df5f0 f   NMComboBox.obj
 0002:00071680       ??1COMBODATA@CNMComboBox@SKINGDI@NMBASE@@QAE@XZ 100df680 f i NMComboBox.obj
 0002:000716d0       ??4?$vector@UCOMBODATA@CNMComboBox@SKINGDI@NMBASE@@V?$allocator@UCOMBODATA@CNMComboBox@SKINGDI@NMBASE@@@std@@@std@@QAEAAV01@ABV01@@Z 100df6d0 f i NMComboBox.obj
 0002:00071780       ??4CNMComboBox@SKINGDI@NMBASE@@QAEAAV012@ABV012@@Z 100df780 f i NMComboBox.obj
 0002:00071960       ??4COMBODATA@CNMComboBox@SKINGDI@NMBASE@@QAEAAU0123@ABU0123@@Z 100df960 f i NMComboBox.obj
 0002:000719e0       ??A?$vector@UCOMBODATA@CNMComboBox@SKINGDI@NMBASE@@V?$allocator@UCOMBODATA@CNMComboBox@SKINGDI@NMBASE@@@std@@@std@@QAEAAUCOMBODATA@CNMComboBox@SKINGDI@NMBASE@@I@Z 100df9e0 f i NMComboBox.obj
 0002:00071ad0       ??_ECNMComboBox@SKINGDI@NMBASE@@UAEPAXI@Z 100dfad0 f i NMComboBox.obj
 0002:00071be0       ??_GCNMComboBox@SKINGDI@NMBASE@@UAEPAXI@Z 100dfbe0 f i NMComboBox.obj
 0002:00071c60       ??_GCOMBODATA@CNMComboBox@SKINGDI@NMBASE@@QAEPAXI@Z 100dfc60 f i NMComboBox.obj
 0002:00071cd0       ?AddString@CNMComboBox@SKINGDI@NMBASE@@QAEXPBDK@Z 100dfcd0 f   NMComboBox.obj
 0002:00071ea0       ?DrawWidget@CNMComboBox@SKINGDI@NMBASE@@UAEXAAVCPage@GRAPHICGDI@3@AAVCDC@@@Z 100dfea0 f   NMComboBox.obj
 0002:000724c0       ?GetCount@CNMComboBox@SKINGDI@NMBASE@@QAEHXZ 100e04c0 f i NMComboBox.obj
 0002:00072520       ?GetCurSel@CNMComboBox@SKINGDI@NMBASE@@QAEHXZ 100e0520 f i NMComboBox.obj
 0002:00072560       ?GetItemData@CNMComboBox@SKINGDI@NMBASE@@QAEKH@Z 100e0560 f   NMComboBox.obj
 0002:000725e0       ?Initialize@CNMComboBox@SKINGDI@NMBASE@@QAEHHPAVCWnd@@PAVCRect@@PADHH@Z 100e05e0 f   NMComboBox.obj
 0002:00072800       ?OnLButtonDownWidget@CNMComboBox@SKINGDI@NMBASE@@UAEHIVCPoint@@@Z 100e0800 f   NMComboBox.obj
 0002:00072ae0       ?OnLButtonUpWidget@CNMComboBox@SKINGDI@NMBASE@@UAEHIVCPoint@@@Z 100e0ae0 f   NMComboBox.obj
 0002:00072b70       ?OnMouseLeaveWidget@CNMComboBox@SKINGDI@NMBASE@@UAEHIVCPoint@@@Z 100e0b70 f   NMComboBox.obj
 0002:00072c00       ?OnMouseMoveWidget@CNMComboBox@SKINGDI@NMBASE@@UAEHIVCPoint@@@Z 100e0c00 f   NMComboBox.obj
 0002:00072d40       ?PtInSelRect@CNMComboBox@SKINGDI@NMBASE@@IAEHUtagPOINT@@@Z 100e0d40 f   NMComboBox.obj
 0002:00072e90       ?ResetContent@CNMComboBox@SKINGDI@NMBASE@@QAEXXZ 100e0e90 f   NMComboBox.obj
 0002:00072f60       ?SetBackColor@CNMComboBox@SKINGDI@NMBASE@@QAEXG@Z 100e0f60 f i NMComboBox.obj
 0002:00072fb0       ?SetBorderColor@CNMComboBox@SKINGDI@NMBASE@@QAEXG@Z 100e0fb0 f i NMComboBox.obj
 0002:00073000       ?SetCurSel@CNMComboBox@SKINGDI@NMBASE@@QAEHH@Z 100e1000 f   NMComboBox.obj
 0002:00073070       ?SetFont@CNMComboBox@SKINGDI@NMBASE@@QAEXPAVCFont@@@Z 100e1070 f i NMComboBox.obj
 0002:000730c0       ?SetItemData@CNMComboBox@SKINGDI@NMBASE@@QAEHHK@Z 100e10c0 f   NMComboBox.obj
 0002:00073150       ?SetMouseOverColor@CNMComboBox@SKINGDI@NMBASE@@QAEXG@Z 100e1150 f i NMComboBox.obj
 0002:000731a0       ?SetTextColor@CNMComboBox@SKINGDI@NMBASE@@QAEXHK@Z 100e11a0 f   NMComboBox.obj
 0002:00073220       ?SetTextColor@CNMComboBox@SKINGDI@NMBASE@@QAEXK@Z 100e1220 f i NMComboBox.obj
 0002:00073270       ?Show@CNMComboBox@SKINGDI@NMBASE@@UAEXH@Z 100e1270 f   NMComboBox.obj
 0002:000732c0       ?_Alloc_proxy@?$_Vector_alloc@U?$_Vec_base_types@UCOMBODATA@CNMComboBox@SKINGDI@NMBASE@@V?$allocator@UCOMBODATA@CNMComboBox@SKINGDI@NMBASE@@@std@@@std@@@std@@QAEXXZ 100e12c0 f i NMComboBox.obj
 0002:000733e0       ?_Assign_rv_contents_with_alloc_always_equal@?$basic_string@DU?$char_traits@D@std@@V?$allocator@D@2@@std@@QAEX$$QAV12@U?$integral_constant@_N$00@2@@Z 100e13e0 f i NMComboBox.obj
 0002:000734f0       ?_Buy@?$vector@UCOMBODATA@CNMComboBox@SKINGDI@NMBASE@@V?$allocator@UCOMBODATA@CNMComboBox@SKINGDI@NMBASE@@@std@@@std@@AAE_NI@Z 100e14f0 f i NMComboBox.obj
 0002:00073600       ?_Calculate_growth@?$vector@UCOMBODATA@CNMComboBox@SKINGDI@NMBASE@@V?$allocator@UCOMBODATA@CNMComboBox@SKINGDI@NMBASE@@@std@@@std@@ABEII@Z 100e1600 f i NMComboBox.obj
 0002:000736a0       ?_Change_array@?$vector@UCOMBODATA@CNMComboBox@SKINGDI@NMBASE@@V?$allocator@UCOMBODATA@CNMComboBox@SKINGDI@NMBASE@@@std@@@std@@AAEXQAUCOMBODATA@CNMComboBox@SKINGDI@NMBASE@@II@Z 100e16a0 f i NMComboBox.obj
 0002:00073790       ?_Copy_alloc@?$_Vector_alloc@U?$_Vec_base_types@UCOMBODATA@CNMComboBox@SKINGDI@NMBASE@@V?$allocator@UCOMBODATA@CNMComboBox@SKINGDI@NMBASE@@@std@@@std@@@std@@QAEXABV?$allocator@UCOMBODATA@CNMComboBox@SKINGDI@NMBASE@@@2@@Z 100e1790 f i NMComboBox.obj
 0002:00073820       ?_Destroy@?$vector@UCOMBODATA@CNMComboBox@SKINGDI@NMBASE@@V?$allocator@UCOMBODATA@CNMComboBox@SKINGDI@NMBASE@@@std@@@std@@AAEXPAUCOMBODATA@CNMComboBox@SKINGDI@NMBASE@@0@Z 100e1820 f i NMComboBox.obj
 0002:00073890       ?_Free_proxy@?$_Vector_alloc@U?$_Vec_base_types@UCOMBODATA@CNMComboBox@SKINGDI@NMBASE@@V?$allocator@UCOMBODATA@CNMComboBox@SKINGDI@NMBASE@@@std@@@std@@@std@@QAEXXZ 100e1890 f i NMComboBox.obj
 0002:00073990       ?_Get_data@?$_Vector_alloc@U?$_Vec_base_types@UCOMBODATA@CNMComboBox@SKINGDI@NMBASE@@V?$allocator@UCOMBODATA@CNMComboBox@SKINGDI@NMBASE@@@std@@@std@@@std@@QAEAAV?$_Vector_val@U?$_Simple_types@UCOMBODATA@CNMComboBox@SKINGDI@NMBASE@@@std@@@2@XZ 100e1990 f i NMComboBox.obj
 0002:000739e0       ?_Get_data@?$_Vector_alloc@U?$_Vec_base_types@UCOMBODATA@CNMComboBox@SKINGDI@NMBASE@@V?$allocator@UCOMBODATA@CNMComboBox@SKINGDI@NMBASE@@@std@@@std@@@std@@QBEABV?$_Vector_val@U?$_Simple_types@UCOMBODATA@CNMComboBox@SKINGDI@NMBASE@@@std@@@2@XZ 100e19e0 f i NMComboBox.obj
 0002:00073a30       ?_Get_first@?$_Compressed_pair@V?$allocator@UCOMBODATA@CNMComboBox@SKINGDI@NMBASE@@@std@@V?$_Vector_val@U?$_Simple_types@UCOMBODATA@CNMComboBox@SKINGDI@NMBASE@@@std@@@2@$00@std@@QAEAAV?$allocator@UCOMBODATA@CNMComboBox@SKINGDI@NMBASE@@@2@XZ 100e1a30 f i NMComboBox.obj
 0002:00073a70       ?_Get_first@?$_Compressed_pair@V?$allocator@UCOMBODATA@CNMComboBox@SKINGDI@NMBASE@@@std@@V?$_Vector_val@U?$_Simple_types@UCOMBODATA@CNMComboBox@SKINGDI@NMBASE@@@std@@@2@$00@std@@QBEABV?$allocator@UCOMBODATA@CNMComboBox@SKINGDI@NMBASE@@@2@XZ 100e1a70 f i NMComboBox.obj
 0002:00073ab0       ?_Get_second@?$_Compressed_pair@V?$allocator@UCOMBODATA@CNMComboBox@SKINGDI@NMBASE@@@std@@V?$_Vector_val@U?$_Simple_types@UCOMBODATA@CNMComboBox@SKINGDI@NMBASE@@@std@@@2@$00@std@@QAEAAV?$_Vector_val@U?$_Simple_types@UCOMBODATA@CNMComboBox@SKINGDI@NMBASE@@@std@@@2@XZ 100e1ab0 f i NMComboBox.obj
 0002:00073af0       ?_Get_second@?$_Compressed_pair@V?$allocator@UCOMBODATA@CNMComboBox@SKINGDI@NMBASE@@@std@@V?$_Vector_val@U?$_Simple_types@UCOMBODATA@CNMComboBox@SKINGDI@NMBASE@@@std@@@2@$00@std@@QBEABV?$_Vector_val@U?$_Simple_types@UCOMBODATA@CNMComboBox@SKINGDI@NMBASE@@@std@@@2@XZ 100e1af0 f i NMComboBox.obj
 0002:00073b30       ?_Getal@?$_Vector_alloc@U?$_Vec_base_types@UCOMBODATA@CNMComboBox@SKINGDI@NMBASE@@V?$allocator@UCOMBODATA@CNMComboBox@SKINGDI@NMBASE@@@std@@@std@@@std@@QAEAAV?$allocator@UCOMBODATA@CNMComboBox@SKINGDI@NMBASE@@@2@XZ 100e1b30 f i NMComboBox.obj
 0002:00073b80       ?_Getal@?$_Vector_alloc@U?$_Vec_base_types@UCOMBODATA@CNMComboBox@SKINGDI@NMBASE@@V?$allocator@UCOMBODATA@CNMComboBox@SKINGDI@NMBASE@@@std@@@std@@@std@@QBEABV?$allocator@UCOMBODATA@CNMComboBox@SKINGDI@NMBASE@@@2@XZ 100e1b80 f i NMComboBox.obj
 0002:00073bd0       ?_Getpfirst@?$_Vector_alloc@U?$_Vec_base_types@UCOMBODATA@CNMComboBox@SKINGDI@NMBASE@@V?$allocator@UCOMBODATA@CNMComboBox@SKINGDI@NMBASE@@@std@@@std@@@std@@QBEPAPAU_Iterator_base12@2@XZ 100e1bd0 f i NMComboBox.obj
 0002:00073c30       ?_Has_unused_capacity@?$vector@UCOMBODATA@CNMComboBox@SKINGDI@NMBASE@@V?$allocator@UCOMBODATA@CNMComboBox@SKINGDI@NMBASE@@@std@@@std@@ABE_NXZ 100e1c30 f i NMComboBox.obj
 0002:00073cc0       ?_Myend@?$_Vector_alloc@U?$_Vec_base_types@UCOMBODATA@CNMComboBox@SKINGDI@NMBASE@@V?$allocator@UCOMBODATA@CNMComboBox@SKINGDI@NMBASE@@@std@@@std@@@std@@QAEAAPAUCOMBODATA@CNMComboBox@SKINGDI@NMBASE@@XZ 100e1cc0 f i NMComboBox.obj
 0002:00073d20       ?_Myend@?$_Vector_alloc@U?$_Vec_base_types@UCOMBODATA@CNMComboBox@SKINGDI@NMBASE@@V?$allocator@UCOMBODATA@CNMComboBox@SKINGDI@NMBASE@@@std@@@std@@@std@@QBEABQAUCOMBODATA@CNMComboBox@SKINGDI@NMBASE@@XZ 100e1d20 f i NMComboBox.obj
 0002:00073d80       ?_Myfirst@?$_Vector_alloc@U?$_Vec_base_types@UCOMBODATA@CNMComboBox@SKINGDI@NMBASE@@V?$allocator@UCOMBODATA@CNMComboBox@SKINGDI@NMBASE@@@std@@@std@@@std@@QAEAAPAUCOMBODATA@CNMComboBox@SKINGDI@NMBASE@@XZ 100e1d80 f i NMComboBox.obj
 0002:00073de0       ?_Myfirst@?$_Vector_alloc@U?$_Vec_base_types@UCOMBODATA@CNMComboBox@SKINGDI@NMBASE@@V?$allocator@UCOMBODATA@CNMComboBox@SKINGDI@NMBASE@@@std@@@std@@@std@@QBEABQAUCOMBODATA@CNMComboBox@SKINGDI@NMBASE@@XZ 100e1de0 f i NMComboBox.obj
 0002:00073e40       ?_Mylast@?$_Vector_alloc@U?$_Vec_base_types@UCOMBODATA@CNMComboBox@SKINGDI@NMBASE@@V?$allocator@UCOMBODATA@CNMComboBox@SKINGDI@NMBASE@@@std@@@std@@@std@@QAEAAPAUCOMBODATA@CNMComboBox@SKINGDI@NMBASE@@XZ 100e1e40 f i NMComboBox.obj
 0002:00073ea0       ?_Mylast@?$_Vector_alloc@U?$_Vec_base_types@UCOMBODATA@CNMComboBox@SKINGDI@NMBASE@@V?$allocator@UCOMBODATA@CNMComboBox@SKINGDI@NMBASE@@@std@@@std@@@std@@QBEABQAUCOMBODATA@CNMComboBox@SKINGDI@NMBASE@@XZ 100e1ea0 f i NMComboBox.obj
 0002:00073f00       ?_Myproxy@?$_Vector_alloc@U?$_Vec_base_types@UCOMBODATA@CNMComboBox@SKINGDI@NMBASE@@V?$allocator@UCOMBODATA@CNMComboBox@SKINGDI@NMBASE@@@std@@@std@@@std@@QAEAAPAU_Container_proxy@2@XZ 100e1f00 f i NMComboBox.obj
 0002:00073f50       ?_Orphan_all@?$_Vector_alloc@U?$_Vec_base_types@UCOMBODATA@CNMComboBox@SKINGDI@NMBASE@@V?$allocator@UCOMBODATA@CNMComboBox@SKINGDI@NMBASE@@@std@@@std@@@std@@QAEXXZ 100e1f50 f i NMComboBox.obj
 0002:00073fb0       ?_Orphan_range@?$vector@UCOMBODATA@CNMComboBox@SKINGDI@NMBASE@@V?$allocator@UCOMBODATA@CNMComboBox@SKINGDI@NMBASE@@@std@@@std@@ABEXPAUCOMBODATA@CNMComboBox@SKINGDI@NMBASE@@0@Z 100e1fb0 f i NMComboBox.obj
 0002:00074120       ?_Release@?$_Uninitialized_backout_al@PAUCOMBODATA@CNMComboBox@SKINGDI@NMBASE@@V?$allocator@UCOMBODATA@CNMComboBox@SKINGDI@NMBASE@@@std@@@std@@QAEPAUCOMBODATA@CNMComboBox@SKINGDI@NMBASE@@XZ 100e2120 f i NMComboBox.obj
 0002:00074170       ?_Swap_all@?$_String_alloc@U?$_String_base_types@DV?$allocator@D@std@@@std@@@std@@QAEXAAV12@@Z 100e2170 f i NMComboBox.obj
 0002:000741e0       ?_Swap_all@_Container_base12@std@@QAEXAAU12@@Z 100e21e0 f i NMComboBox.obj
 0002:00074310       ?_Tidy@?$vector@UCOMBODATA@CNMComboBox@SKINGDI@NMBASE@@V?$allocator@UCOMBODATA@CNMComboBox@SKINGDI@NMBASE@@@std@@@std@@AAEXXZ 100e2310 f i NMComboBox.obj
 0002:00074400       ?_Umove@?$vector@UCOMBODATA@CNMComboBox@SKINGDI@NMBASE@@V?$allocator@UCOMBODATA@CNMComboBox@SKINGDI@NMBASE@@@std@@@std@@AAEPAUCOMBODATA@CNMComboBox@SKINGDI@NMBASE@@PAU3456@00@Z 100e2400 f i NMComboBox.obj
 0002:00074470       ?_Umove_if_noexcept1@?$vector@UCOMBODATA@CNMComboBox@SKINGDI@NMBASE@@V?$allocator@UCOMBODATA@CNMComboBox@SKINGDI@NMBASE@@@std@@@std@@AAEXPAUCOMBODATA@CNMComboBox@SKINGDI@NMBASE@@00U?$integral_constant@_N$00@2@@Z 100e2470 f i NMComboBox.obj
 0002:000744e0       ?_Umove_if_noexcept@?$vector@UCOMBODATA@CNMComboBox@SKINGDI@NMBASE@@V?$allocator@UCOMBODATA@CNMComboBox@SKINGDI@NMBASE@@@std@@@std@@AAEXPAUCOMBODATA@CNMComboBox@SKINGDI@NMBASE@@00@Z 100e24e0 f i NMComboBox.obj
 0002:00074560       ?_Xlength@?$vector@UCOMBODATA@CNMComboBox@SKINGDI@NMBASE@@V?$allocator@UCOMBODATA@CNMComboBox@SKINGDI@NMBASE@@@std@@@std@@CAXXZ 100e2560 f i NMComboBox.obj
 0002:000745b0       ?allocate@?$allocator@UCOMBODATA@CNMComboBox@SKINGDI@NMBASE@@@std@@QAEPAUCOMBODATA@CNMComboBox@SKINGDI@NMBASE@@I@Z 100e25b0 f i NMComboBox.obj
 0002:00074620       ?capacity@?$vector@UCOMBODATA@CNMComboBox@SKINGDI@NMBASE@@V?$allocator@UCOMBODATA@CNMComboBox@SKINGDI@NMBASE@@@std@@@std@@QBEIXZ 100e2620 f i NMComboBox.obj
 0002:00074690       ?clear@?$vector@UCOMBODATA@CNMComboBox@SKINGDI@NMBASE@@V?$allocator@UCOMBODATA@CNMComboBox@SKINGDI@NMBASE@@@std@@@std@@QAEXXZ 100e2690 f i NMComboBox.obj
 0002:00074760       ?deallocate@?$allocator@UCOMBODATA@CNMComboBox@SKINGDI@NMBASE@@@std@@QAEXQAUCOMBODATA@CNMComboBox@SKINGDI@NMBASE@@I@Z 100e2760 f i NMComboBox.obj
 0002:000747c0       ?max_size@?$_Default_allocator_traits@V?$allocator@UCOMBODATA@CNMComboBox@SKINGDI@NMBASE@@@std@@@std@@SAIABV?$allocator@UCOMBODATA@CNMComboBox@SKINGDI@NMBASE@@@2@@Z 100e27c0 f i NMComboBox.obj
 0002:00074800       ?max_size@?$vector@UCOMBODATA@CNMComboBox@SKINGDI@NMBASE@@V?$allocator@UCOMBODATA@CNMComboBox@SKINGDI@NMBASE@@@std@@@std@@QBEIXZ 100e2800 f i NMComboBox.obj
 0002:00074890       ?push_back@?$vector@UCOMBODATA@CNMComboBox@SKINGDI@NMBASE@@V?$allocator@UCOMBODATA@CNMComboBox@SKINGDI@NMBASE@@@std@@@std@@QAEXABUCOMBODATA@CNMComboBox@SKINGDI@NMBASE@@@Z 100e2890 f i NMComboBox.obj
 0002:000748f0       ?select_on_container_copy_construction@?$_Default_allocator_traits@V?$allocator@UCOMBODATA@CNMComboBox@SKINGDI@NMBASE@@@std@@@std@@SA?AV?$allocator@UCOMBODATA@CNMComboBox@SKINGDI@NMBASE@@@2@ABV32@@Z 100e28f0 f i NMComboBox.obj
 0002:00074930       ?size@?$vector@UCOMBODATA@CNMComboBox@SKINGDI@NMBASE@@V?$allocator@UCOMBODATA@CNMComboBox@SKINGDI@NMBASE@@@std@@@std@@QBEIXZ 100e2930 f i NMComboBox.obj
 0002:000749a0       ??$?0UTABINFO@CNMTab@SKINGDI@NMBASE@@@?$allocator@U_Container_proxy@std@@@std@@QAE@ABV?$allocator@UTABINFO@CNMTab@SKINGDI@NMBASE@@@1@@Z 100e29a0 f i NMDialog.obj
 0002:000749e0       ??$?0V?$allocator@UTABINFO@CNMTab@SKINGDI@NMBASE@@@std@@$$V@?$_Compressed_pair@V?$allocator@UTABINFO@CNMTab@SKINGDI@NMBASE@@@std@@V?$_Vector_val@U?$_Simple_types@UTABINFO@CNMTab@SKINGDI@NMBASE@@@std@@@2@$00@std@@QAE@U_One_then_variadic_args_t@1@$$QAV?$allocator@UTABINFO@CNMTab@SKINGDI@NMBASE@@@1@@Z 100e29e0 f i NMDialog.obj
 0002:00074a50       ??$?0V?$allocator@UTABINFO@CNMTab@SKINGDI@NMBASE@@@std@@X@?$_Vector_alloc@U?$_Vec_base_types@UTABINFO@CNMTab@SKINGDI@NMBASE@@V?$allocator@UTABINFO@CNMTab@SKINGDI@NMBASE@@@std@@@std@@@std@@QAE@$$QAV?$allocator@UTABINFO@CNMTab@SKINGDI@NMBASE@@@1@@Z 100e2a50 f i NMDialog.obj
 0002:00074ad0       ??$?8V?$_Tree_iterator@V?$_Tree_val@U?$_Tree_simple_types@U?$pair@$$CBHPAVINMWidget@SKINGDI@NMBASE@@@std@@@std@@@std@@@std@@V01@@std@@YA_NABV?$reverse_iterator@V?$_Tree_iterator@V?$_Tree_val@U?$_Tree_simple_types@U?$pair@$$CBHPAVINMWidget@SKINGDI@NMBASE@@@std@@@std@@@std@@@std@@@0@0@Z 100e2ad0 f i NMDialog.obj
 0002:00074c00       ??$?9V?$_Tree_iterator@V?$_Tree_val@U?$_Tree_simple_types@U?$pair@$$CBHPAVINMWidget@SKINGDI@NMBASE@@@std@@@std@@@std@@@std@@V01@@std@@YA_NABV?$reverse_iterator@V?$_Tree_iterator@V?$_Tree_val@U?$_Tree_simple_types@U?$pair@$$CBHPAVINMWidget@SKINGDI@NMBASE@@@std@@@std@@@std@@@std@@@0@0@Z 100e2c00 f i NMDialog.obj
 0002:00074c80       ??$_Adl_verify_range1@PAUTABINFO@CNMTab@SKINGDI@NMBASE@@PAU1234@@std@@YAXABQAUTABINFO@CNMTab@SKINGDI@NMBASE@@0U?$integral_constant@_N$00@0@@Z 100e2c80 f i NMDialog.obj
 0002:00074ce0       ??$_Adl_verify_range@PAUTABINFO@CNMTab@SKINGDI@NMBASE@@PAU1234@@std@@YAXABQAUTABINFO@CNMTab@SKINGDI@NMBASE@@0@Z 100e2ce0 f i NMDialog.obj
 0002:00074d50       ??$_Advance1@PAUTABINFO@CNMTab@SKINGDI@NMBASE@@H@std@@YAXAAPAUTABINFO@CNMTab@SKINGDI@NMBASE@@HUrandom_access_iterator_tag@0@@Z 100e2d50 f i NMDialog.obj
 0002:00074d90       ??$_Assign_range@PAUTABINFO@CNMTab@SKINGDI@NMBASE@@@?$vector@UTABINFO@CNMTab@SKINGDI@NMBASE@@V?$allocator@UTABINFO@CNMTab@SKINGDI@NMBASE@@@std@@@std@@AAEXPAUTABINFO@CNMTab@SKINGDI@NMBASE@@0Uforward_iterator_tag@1@@Z 100e2d90 f i NMDialog.obj
 0002:00074fe0       ??$_Copy_memmove@PAUTABINFO@CNMTab@SKINGDI@NMBASE@@PAU1234@@std@@YAPAUTABINFO@CNMTab@SKINGDI@NMBASE@@PAU1234@00@Z 100e2fe0 f i NMDialog.obj
 0002:00075060       ??$_Copy_unchecked1@PAUTABINFO@CNMTab@SKINGDI@NMBASE@@PAU1234@@std@@YAPAUTABINFO@CNMTab@SKINGDI@NMBASE@@PAU1234@00U_Trivially_copyable_ptr_iterator_tag@0@@Z 100e3060 f i NMDialog.obj
 0002:000750c0       ??$_Copy_unchecked@PAUTABINFO@CNMTab@SKINGDI@NMBASE@@PAU1234@@std@@YAPAUTABINFO@CNMTab@SKINGDI@NMBASE@@PAU1234@00@Z 100e30c0 f i NMDialog.obj
 0002:00075140       ??$_Destroy_range1@V?$allocator@UTABINFO@CNMTab@SKINGDI@NMBASE@@@std@@@std@@YAXPAUTABINFO@CNMTab@SKINGDI@NMBASE@@0AAV?$allocator@UTABINFO@CNMTab@SKINGDI@NMBASE@@@0@U?$integral_constant@_N$00@0@@Z 100e3140 f i NMDialog.obj
 0002:00075170       ??$_Destroy_range@V?$allocator@UTABINFO@CNMTab@SKINGDI@NMBASE@@@std@@@std@@YAXPAUTABINFO@CNMTab@SKINGDI@NMBASE@@0AAV?$allocator@UTABINFO@CNMTab@SKINGDI@NMBASE@@@0@@Z 100e3170 f i NMDialog.obj
 0002:000751e0       ??$_Distance1@PAUTABINFO@CNMTab@SKINGDI@NMBASE@@@std@@YAHPAUTABINFO@CNMTab@SKINGDI@NMBASE@@0Urandom_access_iterator_tag@0@@Z 100e31e0 f i NMDialog.obj
 0002:00075220       ??$_Get_size_of_n@$0M@@std@@YAII@Z 100e3220 f i NMDialog.obj
 0002:00075280       ??$_Get_unwrapped@UTABINFO@CNMTab@SKINGDI@NMBASE@@@std@@YAPAUTABINFO@CNMTab@SKINGDI@NMBASE@@QAU1234@@Z 100e3280 f i NMDialog.obj
 0002:000752c0       ??$_Get_unwrapped_n@UTABINFO@CNMTab@SKINGDI@NMBASE@@H$0A@@std@@YAPAUTABINFO@CNMTab@SKINGDI@NMBASE@@QAU1234@H@Z 100e32c0 f i NMDialog.obj
 0002:00075300       ??$_Idl_distance1@PAUTABINFO@CNMTab@SKINGDI@NMBASE@@PAU1234@@std@@YAHABQAUTABINFO@CNMTab@SKINGDI@NMBASE@@0Urandom_access_iterator_tag@0@@Z 100e3300 f i NMDialog.obj
 0002:00075350       ??$_Idl_distance@PAUTABINFO@CNMTab@SKINGDI@NMBASE@@PAU1234@@std@@YA@ABQAUTABINFO@CNMTab@SKINGDI@NMBASE@@0@Z 100e3350 f i NMDialog.obj
 0002:000753b0       ??$_Operator_arrow@AAV?$_Tree_iterator@V?$_Tree_val@U?$_Tree_simple_types@U?$pair@$$CBHPAVINMWidget@SKINGDI@NMBASE@@@std@@@std@@@std@@@std@@@std@@YA@AAV?$_Tree_iterator@V?$_Tree_val@U?$_Tree_simple_types@U?$pair@$$CBHPAVINMWidget@SKINGDI@NMBASE@@@std@@@std@@@std@@@0@U?$integral_constant@_N$0A@@0@@Z 100e33b0 f i NMDialog.obj
 0002:00075410       ??$_Pocca@V?$allocator@UTABINFO@CNMTab@SKINGDI@NMBASE@@@std@@@std@@YAXAAV?$allocator@UTABINFO@CNMTab@SKINGDI@NMBASE@@@0@ABV10@@Z 100e3410 f i NMDialog.obj
 0002:000754a0       ??$_Pocca@V?$allocator@UTABINFO@CNMTab@SKINGDI@NMBASE@@@std@@@std@@YAXAAV?$allocator@UTABINFO@CNMTab@SKINGDI@NMBASE@@@0@ABV10@U?$integral_constant@_N$0A@@0@@Z 100e34a0 f i NMDialog.obj
 0002:000754d0       ??$_Ptr_copy_cat@UTABINFO@CNMTab@SKINGDI@NMBASE@@U1234@@std@@YA?AU_Really_trivial_ptr_iterator_tag@0@ABQAUTABINFO@CNMTab@SKINGDI@NMBASE@@0@Z 100e34d0 f i NMDialog.obj
 0002:00075510       ??$_Seek_wrapped@UTABINFO@CNMTab@SKINGDI@NMBASE@@@std@@YAXAAPAUTABINFO@CNMTab@SKINGDI@NMBASE@@QAU1234@@Z 100e3510 f i NMDialog.obj
 0002:00075550       ??$_Ucopy@PAUTABINFO@CNMTab@SKINGDI@NMBASE@@@?$vector@UTABINFO@CNMTab@SKINGDI@NMBASE@@V?$allocator@UTABINFO@CNMTab@SKINGDI@NMBASE@@@std@@@std@@AAEPAUTABINFO@CNMTab@SKINGDI@NMBASE@@PAU2345@00@Z 100e3550 f i NMDialog.obj
 0002:000755c0       ??$_Uninitialized_copy@PAUTABINFO@CNMTab@SKINGDI@NMBASE@@PAU1234@V?$allocator@UTABINFO@CNMTab@SKINGDI@NMBASE@@@std@@@std@@YAPAUTABINFO@CNMTab@SKINGDI@NMBASE@@QAU1234@0PAU1234@AAV?$allocator@UTABINFO@CNMTab@SKINGDI@NMBASE@@@0@@Z 100e35c0 f i NMDialog.obj
 0002:00075720       ??$_Uninitialized_copy_al_unchecked@UTABINFO@CNMTab@SKINGDI@NMBASE@@U1234@V?$allocator@UTABINFO@CNMTab@SKINGDI@NMBASE@@@std@@@std@@YAPAUTABINFO@CNMTab@SKINGDI@NMBASE@@QAU1234@00AAV?$allocator@UTABINFO@CNMTab@SKINGDI@NMBASE@@@0@U_Really_trivial_ptr_iterator_tag@0@U?$integral_constant@_N$00@0@@Z 100e3720 f i NMDialog.obj
 0002:00075780       ??$_Verify_range@UTABINFO@CNMTab@SKINGDI@NMBASE@@@std@@YAXQBUTABINFO@CNMTab@SKINGDI@NMBASE@@0@Z 100e3780 f i NMDialog.obj
 0002:00075850       ??$addressof@$$CBV?$vector@UTABINFO@CNMTab@SKINGDI@NMBASE@@V?$allocator@UTABINFO@CNMTab@SKINGDI@NMBASE@@@std@@@std@@@std@@YAPBV?$vector@UTABINFO@CNMTab@SKINGDI@NMBASE@@V?$allocator@UTABINFO@CNMTab@SKINGDI@NMBASE@@@std@@@0@ABV10@@Z 100e3850 f i NMDialog.obj
 0002:00075890       ??$addressof@V?$_Vector_val@U?$_Simple_types@UTABINFO@CNMTab@SKINGDI@NMBASE@@@std@@@std@@@std@@YAPAV?$_Vector_val@U?$_Simple_types@UTABINFO@CNMTab@SKINGDI@NMBASE@@@std@@@0@AAV10@@Z 100e3890 f i NMDialog.obj
 0002:000758d0       ??$advance@PAUTABINFO@CNMTab@SKINGDI@NMBASE@@H@std@@YAXAAPAUTABINFO@CNMTab@SKINGDI@NMBASE@@H@Z 100e38d0 f i NMDialog.obj
 0002:00075930       ??$assign@PAUTABINFO@CNMTab@SKINGDI@NMBASE@@X@?$vector@UTABINFO@CNMTab@SKINGDI@NMBASE@@V?$allocator@UTABINFO@CNMTab@SKINGDI@NMBASE@@@std@@@std@@QAEXPAUTABINFO@CNMTab@SKINGDI@NMBASE@@0@Z 100e3930 f i NMDialog.obj
 0002:000759c0       ??$distance@PAUTABINFO@CNMTab@SKINGDI@NMBASE@@@std@@YAHPAUTABINFO@CNMTab@SKINGDI@NMBASE@@0@Z 100e39c0 f i NMDialog.obj
 0002:00075a20       ??$forward@AAV?$_Tree_iterator@V?$_Tree_val@U?$_Tree_simple_types@U?$pair@$$CBHPAVINMWidget@SKINGDI@NMBASE@@@std@@@std@@@std@@@std@@@std@@YAAAV?$_Tree_iterator@V?$_Tree_val@U?$_Tree_simple_types@U?$pair@$$CBHPAVINMWidget@SKINGDI@NMBASE@@@std@@@std@@@std@@@0@AAV10@@Z 100e3a20 f i NMDialog.obj
 0002:00075a60       ??$forward@V?$allocator@UTABINFO@CNMTab@SKINGDI@NMBASE@@@std@@@std@@YA$$QAV?$allocator@UTABINFO@CNMTab@SKINGDI@NMBASE@@@0@AAV10@@Z 100e3a60 f i NMDialog.obj
 0002:00075aa0       ??$next@PAUTABINFO@CNMTab@SKINGDI@NMBASE@@@std@@YAPAUTABINFO@CNMTab@SKINGDI@NMBASE@@PAU1234@H@Z 100e3aa0 f i NMDialog.obj
 0002:00075b00       ??0?$_Tree_iterator@V?$_Tree_val@U?$_Tree_simple_types@U?$pair@$$CBHPAVINMWidget@SKINGDI@NMBASE@@@std@@@std@@@std@@@std@@QAE@$$QAV01@@Z 100e3b00 f i NMDialog.obj
 0002:00075b60       ??0?$_Tree_iterator@V?$_Tree_val@U?$_Tree_simple_types@U?$pair@$$CBHPAVINMWidget@SKINGDI@NMBASE@@@std@@@std@@@std@@@std@@QAE@ABV01@@Z 100e3b60 f i NMDialog.obj
 0002:00075bc0       ??0?$_Vector_val@U?$_Simple_types@UTABINFO@CNMTab@SKINGDI@NMBASE@@@std@@@std@@QAE@XZ 100e3bc0 f i NMDialog.obj
 0002:00075c40       ??0?$reverse_iterator@V?$_Tree_iterator@V?$_Tree_val@U?$_Tree_simple_types@U?$pair@$$CBHPAVINMWidget@SKINGDI@NMBASE@@@std@@@std@@@std@@@std@@@std@@QAE@$$QAV01@@Z 100e3c40 f i NMDialog.obj
 0002:00075ca0       ??0?$reverse_iterator@V?$_Tree_iterator@V?$_Tree_val@U?$_Tree_simple_types@U?$pair@$$CBHPAVINMWidget@SKINGDI@NMBASE@@@std@@@std@@@std@@@std@@@std@@QAE@ABV01@@Z 100e3ca0 f i NMDialog.obj
 0002:00075d00       ??0?$reverse_iterator@V?$_Tree_iterator@V?$_Tree_val@U?$_Tree_simple_types@U?$pair@$$CBHPAVINMWidget@SKINGDI@NMBASE@@@std@@@std@@@std@@@std@@@std@@QAE@V?$_Tree_iterator@V?$_Tree_val@U?$_Tree_simple_types@U?$pair@$$CBHPAVINMWidget@SKINGDI@NMBASE@@@std@@@std@@@std@@@1@@Z 100e3d00 f i NMDialog.obj
 0002:00075d70       ??0?$vector@UTABINFO@CNMTab@SKINGDI@NMBASE@@V?$allocator@UTABINFO@CNMTab@SKINGDI@NMBASE@@@std@@@std@@QAE@ABV01@@Z 100e3d70 f i NMDialog.obj
 0002:00075ee0       ??0CNMDialog@SKINGDI@NMBASE@@QAE@ABV012@@Z 100e3ee0 f i NMDialog.obj
 0002:00076020       ??0CNMDialog@SKINGDI@NMBASE@@QAE@XZ 100e4020 f   NMDialog.obj
 0002:00076130       ??0CNMTab@SKINGDI@NMBASE@@QAE@ABV012@@Z 100e4130 f i NMDialog.obj
 0002:00076220       ??0CNMTimeGauge@SKINGDI@NMBASE@@QAE@ABV012@@Z 100e4220 f i NMDialog.obj
 0002:00076370       ??0CSize@@QAE@XZ           100e4370 f i NMDialog.obj
 0002:000763c0       ??1?$_Vector_alloc@U?$_Vec_base_types@UTABINFO@CNMTab@SKINGDI@NMBASE@@V?$allocator@UTABINFO@CNMTab@SKINGDI@NMBASE@@@std@@@std@@@std@@QAE@XZ 100e43c0 f i NMDialog.obj
 0002:00076450       ??1?$reverse_iterator@V?$_Tree_iterator@V?$_Tree_val@U?$_Tree_simple_types@U?$pair@$$CBHPAVINMWidget@SKINGDI@NMBASE@@@std@@@std@@@std@@@std@@@std@@QAE@XZ 100e4450 f i NMDialog.obj
 0002:000764a0       ??1CNMDialog@SKINGDI@NMBASE@@UAE@XZ 100e44a0 f   NMDialog.obj
 0002:00076500       ??4?$vector@UTABINFO@CNMTab@SKINGDI@NMBASE@@V?$allocator@UTABINFO@CNMTab@SKINGDI@NMBASE@@@std@@@std@@QAEAAV01@ABV01@@Z 100e4500 f i NMDialog.obj
 0002:000765b0       ??4CNMDialog@SKINGDI@NMBASE@@QAEAAV012@ABV012@@Z 100e45b0 f i NMDialog.obj
 0002:000766f0       ??4CNMTab@SKINGDI@NMBASE@@QAEAAV012@ABV012@@Z 100e46f0 f i NMDialog.obj
 0002:00076790       ??4CNMTimeGauge@SKINGDI@NMBASE@@QAEAAV012@ABV012@@Z 100e4790 f i NMDialog.obj
 0002:000768d0       ??C?$_Tree_iterator@V?$_Tree_val@U?$_Tree_simple_types@U?$pair@$$CBHPAVINMWidget@SKINGDI@NMBASE@@@std@@@std@@@std@@@std@@QBEPAU?$pair@$$CBHPAVINMWidget@SKINGDI@NMBASE@@@1@XZ 100e48d0 f i NMDialog.obj
 0002:00076930       ??C?$reverse_iterator@V?$_Tree_iterator@V?$_Tree_val@U?$_Tree_simple_types@U?$pair@$$CBHPAVINMWidget@SKINGDI@NMBASE@@@std@@@std@@@std@@@std@@@std@@QBEPAU?$pair@$$CBHPAVINMWidget@SKINGDI@NMBASE@@@1@XZ 100e4930 f i NMDialog.obj
 0002:00076a40       ??D?$_Tree_const_iterator@V?$_Tree_val@U?$_Tree_simple_types@U?$pair@$$CBHPAVINMWidget@SKINGDI@NMBASE@@@std@@@std@@@std@@@std@@QBEABU?$pair@$$CBHPAVINMWidget@SKINGDI@NMBASE@@@1@XZ 100e4a40 f i NMDialog.obj
 0002:00076bb0       ??D?$_Tree_iterator@V?$_Tree_val@U?$_Tree_simple_types@U?$pair@$$CBHPAVINMWidget@SKINGDI@NMBASE@@@std@@@std@@@std@@@std@@QBEAAU?$pair@$$CBHPAVINMWidget@SKINGDI@NMBASE@@@1@XZ 100e4bb0 f i NMDialog.obj
 0002:00076c00       ??E?$reverse_iterator@V?$_Tree_iterator@V?$_Tree_val@U?$_Tree_simple_types@U?$pair@$$CBHPAVINMWidget@SKINGDI@NMBASE@@@std@@@std@@@std@@@std@@@std@@QAE?AV01@H@Z 100e4c00 f i NMDialog.obj
 0002:00076d20       ??F?$_Tree_const_iterator@V?$_Tree_val@U?$_Tree_simple_types@U?$pair@$$CBHPAVINMWidget@SKINGDI@NMBASE@@@std@@@std@@@std@@@std@@QAEAAV01@XZ 100e4d20 f i NMDialog.obj
 0002:00076e90       ??F?$_Tree_iterator@V?$_Tree_val@U?$_Tree_simple_types@U?$pair@$$CBHPAVINMWidget@SKINGDI@NMBASE@@@std@@@std@@@std@@@std@@QAEAAV01@XZ 100e4e90 f i NMDialog.obj
 0002:00076ef0       ??F?$_Tree_unchecked_const_iterator@V?$_Tree_val@U?$_Tree_simple_types@U?$pair@$$CBHPAVINMWidget@SKINGDI@NMBASE@@@std@@@std@@@std@@U_Iterator_base12@2@@std@@QAEAAV01@XZ 100e4ef0 f i NMDialog.obj
 0002:00076ff0       ??_ECNMDialog@SKINGDI@NMBASE@@UAEPAXI@Z 100e4ff0 f i NMDialog.obj
 0002:000770f0       ??_ECNMTab@SKINGDI@NMBASE@@UAEPAXI@Z 100e50f0 f i NMDialog.obj
 0002:000771f0       ??_ECNMTimeGauge@SKINGDI@NMBASE@@UAEPAXI@Z 100e51f0 f i NMDialog.obj
 0002:000772f0       ??_GCNMDialog@SKINGDI@NMBASE@@UAEPAXI@Z 100e52f0 f i NMDialog.obj
 0002:00077360       ??_GCNMTab@SKINGDI@NMBASE@@UAEPAXI@Z 100e5360 f i NMDialog.obj
 0002:000773d0       ??_GCNMTimeGauge@SKINGDI@NMBASE@@UAEPAXI@Z 100e53d0 f i NMDialog.obj
 0002:00077440       ?DrawWidget@CNMDialog@SKINGDI@NMBASE@@UAEXAAVCPage@GRAPHICGDI@3@AAVCDC@@@Z 100e5440 f   NMDialog.obj
 0002:00077520       ?GetWindowRectInScreen@CNMDialog@SKINGDI@NMBASE@@IAE?AVCPoint@@HH@Z 100e5520 f   NMDialog.obj
 0002:00077660       ?InitializeDialog@CNMDialog@SKINGDI@NMBASE@@MAEXPAVCWnd@@HH@Z 100e5660 f   NMDialog.obj
 0002:000776d0       ?IsInWindowRect@CNMDialog@SKINGDI@NMBASE@@MAEHVCPoint@@@Z 100e56d0 f   NMDialog.obj
 0002:00077770       ?IsShow@CNMDialog@SKINGDI@NMBASE@@UAEHXZ 100e5770 f i NMDialog.obj
 0002:000777b0       ?OnCommandWidget@CNMDialog@SKINGDI@NMBASE@@UAEHHIJ@Z 100e57b0 f   NMDialog.obj
 0002:00077850       ?OnKeyDownWidget@CNMDialog@SKINGDI@NMBASE@@UAEHHH@Z 100e5850 f   NMDialog.obj
 0002:00077900       ?OnLButtonDbClkWidget@CNMDialog@SKINGDI@NMBASE@@UAEHIVCPoint@@@Z 100e5900 f   NMDialog.obj
 0002:000779b0       ?OnLButtonDownDialog@CNMDialog@SKINGDI@NMBASE@@MAEHIVCPoint@@@Z 100e59b0 f i NMDialog.obj
 0002:000779f0       ?OnLButtonDownWidget@CNMDialog@SKINGDI@NMBASE@@UAEHIVCPoint@@@Z 100e59f0 f   NMDialog.obj
 0002:00077b20       ?OnLButtonUpDialog@CNMDialog@SKINGDI@NMBASE@@MAEHIVCPoint@@@Z 100e5b20 f i NMDialog.obj
 0002:00077b60       ?OnLButtonUpWidget@CNMDialog@SKINGDI@NMBASE@@UAEHIVCPoint@@@Z 100e5b60 f   NMDialog.obj
 0002:00077d00       ?OnMouseLeaveWidget@CNMDialog@SKINGDI@NMBASE@@UAEHIVCPoint@@@Z 100e5d00 f   NMDialog.obj
 0002:00077d70       ?OnMouseMoveDialog@CNMDialog@SKINGDI@NMBASE@@MAEHIVCPoint@@@Z 100e5d70 f i NMDialog.obj
 0002:00077db0       ?OnMouseMoveWidget@CNMDialog@SKINGDI@NMBASE@@UAEHIVCPoint@@@Z 100e5db0 f   NMDialog.obj
 0002:00077f50       ?OnRButtonDownDialog@CNMDialog@SKINGDI@NMBASE@@MAEHIVCPoint@@@Z 100e5f50 f i NMDialog.obj
 0002:00077f90       ?OnRButtonDownWidget@CNMDialog@SKINGDI@NMBASE@@UAEHIVCPoint@@@Z 100e5f90 f   NMDialog.obj
 0002:00078040       ?PopDownDialog@CNMDialog@SKINGDI@NMBASE@@UAEXXZ 100e6040 f   NMDialog.obj
 0002:000780a0       ?PopUpDialog@CNMDialog@SKINGDI@NMBASE@@UAEHXZ 100e60a0 f   NMDialog.obj
 0002:00078130       ?RelationChildPosition@CNMDialog@SKINGDI@NMBASE@@MAEXXZ 100e6130 f   NMDialog.obj
 0002:00078420       ?SetDragEnable@CNMDialog@SKINGDI@NMBASE@@MAEXH@Z 100e6420 f i NMDialog.obj
 0002:00078470       ?SetPosition@CNMDialog@SKINGDI@NMBASE@@MAEXHH@Z 100e6470 f   NMDialog.obj
 0002:00078550       ?SetSize@CSize@@QAEXHH@Z   100e6550 f i NMDialog.obj
 0002:000785a0       ?SetSprite@CNMDialog@SKINGDI@NMBASE@@MAEXPADHHH@Z 100e65a0 f   NMDialog.obj
 0002:00078740       ?SetVisible@CNMTimeGauge@SKINGDI@NMBASE@@UAEXH@Z 100e6740 f i NMDialog.obj
 0002:00078790       ?_Alloc_proxy@?$_Vector_alloc@U?$_Vec_base_types@UTABINFO@CNMTab@SKINGDI@NMBASE@@V?$allocator@UTABINFO@CNMTab@SKINGDI@NMBASE@@@std@@@std@@@std@@QAEXXZ 100e6790 f i NMDialog.obj
 0002:000788b0       ?_Buy@?$vector@UTABINFO@CNMTab@SKINGDI@NMBASE@@V?$allocator@UTABINFO@CNMTab@SKINGDI@NMBASE@@@std@@@std@@AAE_NI@Z 100e68b0 f i NMDialog.obj
 0002:000789c0       ?_Calculate_growth@?$vector@UTABINFO@CNMTab@SKINGDI@NMBASE@@V?$allocator@UTABINFO@CNMTab@SKINGDI@NMBASE@@@std@@@std@@ABEII@Z 100e69c0 f i NMDialog.obj
 0002:00078a60       ?_Copy_alloc@?$_Vector_alloc@U?$_Vec_base_types@UTABINFO@CNMTab@SKINGDI@NMBASE@@V?$allocator@UTABINFO@CNMTab@SKINGDI@NMBASE@@@std@@@std@@@std@@QAEXABV?$allocator@UTABINFO@CNMTab@SKINGDI@NMBASE@@@2@@Z 100e6a60 f i NMDialog.obj
 0002:00078af0       ?_Destroy@?$vector@UTABINFO@CNMTab@SKINGDI@NMBASE@@V?$allocator@UTABINFO@CNMTab@SKINGDI@NMBASE@@@std@@@std@@AAEXPAUTABINFO@CNMTab@SKINGDI@NMBASE@@0@Z 100e6af0 f i NMDialog.obj
 0002:00078b60       ?_Free_proxy@?$_Vector_alloc@U?$_Vec_base_types@UTABINFO@CNMTab@SKINGDI@NMBASE@@V?$allocator@UTABINFO@CNMTab@SKINGDI@NMBASE@@@std@@@std@@@std@@QAEXXZ 100e6b60 f i NMDialog.obj
 0002:00078c60       ?_Get_data@?$_Vector_alloc@U?$_Vec_base_types@UTABINFO@CNMTab@SKINGDI@NMBASE@@V?$allocator@UTABINFO@CNMTab@SKINGDI@NMBASE@@@std@@@std@@@std@@QAEAAV?$_Vector_val@U?$_Simple_types@UTABINFO@CNMTab@SKINGDI@NMBASE@@@std@@@2@XZ 100e6c60 f i NMDialog.obj
 0002:00078cb0       ?_Get_data@?$_Vector_alloc@U?$_Vec_base_types@UTABINFO@CNMTab@SKINGDI@NMBASE@@V?$allocator@UTABINFO@CNMTab@SKINGDI@NMBASE@@@std@@@std@@@std@@QBEABV?$_Vector_val@U?$_Simple_types@UTABINFO@CNMTab@SKINGDI@NMBASE@@@std@@@2@XZ 100e6cb0 f i NMDialog.obj
 0002:00078d00       ?_Get_first@?$_Compressed_pair@V?$allocator@UTABINFO@CNMTab@SKINGDI@NMBASE@@@std@@V?$_Vector_val@U?$_Simple_types@UTABINFO@CNMTab@SKINGDI@NMBASE@@@std@@@2@$00@std@@QAEAAV?$allocator@UTABINFO@CNMTab@SKINGDI@NMBASE@@@2@XZ 100e6d00 f i NMDialog.obj
 0002:00078d40       ?_Get_first@?$_Compressed_pair@V?$allocator@UTABINFO@CNMTab@SKINGDI@NMBASE@@@std@@V?$_Vector_val@U?$_Simple_types@UTABINFO@CNMTab@SKINGDI@NMBASE@@@std@@@2@$00@std@@QBEABV?$allocator@UTABINFO@CNMTab@SKINGDI@NMBASE@@@2@XZ 100e6d40 f i NMDialog.obj
 0002:00078d80       ?_Get_second@?$_Compressed_pair@V?$allocator@UTABINFO@CNMTab@SKINGDI@NMBASE@@@std@@V?$_Vector_val@U?$_Simple_types@UTABINFO@CNMTab@SKINGDI@NMBASE@@@std@@@2@$00@std@@QAEAAV?$_Vector_val@U?$_Simple_types@UTABINFO@CNMTab@SKINGDI@NMBASE@@@std@@@2@XZ 100e6d80 f i NMDialog.obj
 0002:00078dc0       ?_Get_second@?$_Compressed_pair@V?$allocator@UTABINFO@CNMTab@SKINGDI@NMBASE@@@std@@V?$_Vector_val@U?$_Simple_types@UTABINFO@CNMTab@SKINGDI@NMBASE@@@std@@@2@$00@std@@QBEABV?$_Vector_val@U?$_Simple_types@UTABINFO@CNMTab@SKINGDI@NMBASE@@@std@@@2@XZ 100e6dc0 f i NMDialog.obj
 0002:00078e00       ?_Getal@?$_Vector_alloc@U?$_Vec_base_types@UTABINFO@CNMTab@SKINGDI@NMBASE@@V?$allocator@UTABINFO@CNMTab@SKINGDI@NMBASE@@@std@@@std@@@std@@QAEAAV?$allocator@UTABINFO@CNMTab@SKINGDI@NMBASE@@@2@XZ 100e6e00 f i NMDialog.obj
 0002:00078e50       ?_Getal@?$_Vector_alloc@U?$_Vec_base_types@UTABINFO@CNMTab@SKINGDI@NMBASE@@V?$allocator@UTABINFO@CNMTab@SKINGDI@NMBASE@@@std@@@std@@@std@@QBEABV?$allocator@UTABINFO@CNMTab@SKINGDI@NMBASE@@@2@XZ 100e6e50 f i NMDialog.obj
 0002:00078ea0       ?_Myend@?$_Vector_alloc@U?$_Vec_base_types@UTABINFO@CNMTab@SKINGDI@NMBASE@@V?$allocator@UTABINFO@CNMTab@SKINGDI@NMBASE@@@std@@@std@@@std@@QAEAAPAUTABINFO@CNMTab@SKINGDI@NMBASE@@XZ 100e6ea0 f i NMDialog.obj
 0002:00078f00       ?_Myend@?$_Vector_alloc@U?$_Vec_base_types@UTABINFO@CNMTab@SKINGDI@NMBASE@@V?$allocator@UTABINFO@CNMTab@SKINGDI@NMBASE@@@std@@@std@@@std@@QBEABQAUTABINFO@CNMTab@SKINGDI@NMBASE@@XZ 100e6f00 f i NMDialog.obj
 0002:00078f60       ?_Myfirst@?$_Vector_alloc@U?$_Vec_base_types@UTABINFO@CNMTab@SKINGDI@NMBASE@@V?$allocator@UTABINFO@CNMTab@SKINGDI@NMBASE@@@std@@@std@@@std@@QAEAAPAUTABINFO@CNMTab@SKINGDI@NMBASE@@XZ 100e6f60 f i NMDialog.obj
 0002:00078fc0       ?_Myfirst@?$_Vector_alloc@U?$_Vec_base_types@UTABINFO@CNMTab@SKINGDI@NMBASE@@V?$allocator@UTABINFO@CNMTab@SKINGDI@NMBASE@@@std@@@std@@@std@@QBEABQAUTABINFO@CNMTab@SKINGDI@NMBASE@@XZ 100e6fc0 f i NMDialog.obj
 0002:00079020       ?_Mylast@?$_Vector_alloc@U?$_Vec_base_types@UTABINFO@CNMTab@SKINGDI@NMBASE@@V?$allocator@UTABINFO@CNMTab@SKINGDI@NMBASE@@@std@@@std@@@std@@QAEAAPAUTABINFO@CNMTab@SKINGDI@NMBASE@@XZ 100e7020 f i NMDialog.obj
 0002:00079080       ?_Mylast@?$_Vector_alloc@U?$_Vec_base_types@UTABINFO@CNMTab@SKINGDI@NMBASE@@V?$allocator@UTABINFO@CNMTab@SKINGDI@NMBASE@@@std@@@std@@@std@@QBEABQAUTABINFO@CNMTab@SKINGDI@NMBASE@@XZ 100e7080 f i NMDialog.obj
 0002:000790e0       ?_Myproxy@?$_Vector_alloc@U?$_Vec_base_types@UTABINFO@CNMTab@SKINGDI@NMBASE@@V?$allocator@UTABINFO@CNMTab@SKINGDI@NMBASE@@@std@@@std@@@std@@QAEAAPAU_Container_proxy@2@XZ 100e70e0 f i NMDialog.obj
 0002:00079130       ?_Orphan_all@?$_Vector_alloc@U?$_Vec_base_types@UTABINFO@CNMTab@SKINGDI@NMBASE@@V?$allocator@UTABINFO@CNMTab@SKINGDI@NMBASE@@@std@@@std@@@std@@QAEXXZ 100e7130 f i NMDialog.obj
 0002:00079190       ?_Tidy@?$vector@UTABINFO@CNMTab@SKINGDI@NMBASE@@V?$allocator@UTABINFO@CNMTab@SKINGDI@NMBASE@@@std@@@std@@AAEXXZ 100e7190 f i NMDialog.obj
 0002:00079280       ?_Xlength@?$vector@UTABINFO@CNMTab@SKINGDI@NMBASE@@V?$allocator@UTABINFO@CNMTab@SKINGDI@NMBASE@@@std@@@std@@CAXXZ 100e7280 f i NMDialog.obj
 0002:000792d0       ?allocate@?$allocator@UTABINFO@CNMTab@SKINGDI@NMBASE@@@std@@QAEPAUTABINFO@CNMTab@SKINGDI@NMBASE@@I@Z 100e72d0 f i NMDialog.obj
 0002:00079340       ?base@?$reverse_iterator@V?$_Tree_iterator@V?$_Tree_val@U?$_Tree_simple_types@U?$pair@$$CBHPAVINMWidget@SKINGDI@NMBASE@@@std@@@std@@@std@@@std@@@std@@QBE?AV?$_Tree_iterator@V?$_Tree_val@U?$_Tree_simple_types@U?$pair@$$CBHPAVINMWidget@SKINGDI@NMBASE@@@std@@@std@@@std@@@2@XZ 100e7340 f i NMDialog.obj
 0002:000793c0       ?capacity@?$vector@UTABINFO@CNMTab@SKINGDI@NMBASE@@V?$allocator@UTABINFO@CNMTab@SKINGDI@NMBASE@@@std@@@std@@QBEIXZ 100e73c0 f i NMDialog.obj
 0002:00079430       ?deallocate@?$allocator@UTABINFO@CNMTab@SKINGDI@NMBASE@@@std@@QAEXQAUTABINFO@CNMTab@SKINGDI@NMBASE@@I@Z 100e7430 f i NMDialog.obj
 0002:00079490       ?max_size@?$_Default_allocator_traits@V?$allocator@UTABINFO@CNMTab@SKINGDI@NMBASE@@@std@@@std@@SAIABV?$allocator@UTABINFO@CNMTab@SKINGDI@NMBASE@@@2@@Z 100e7490 f i NMDialog.obj
 0002:000794d0       ?max_size@?$vector@UTABINFO@CNMTab@SKINGDI@NMBASE@@V?$allocator@UTABINFO@CNMTab@SKINGDI@NMBASE@@@std@@@std@@QBEIXZ 100e74d0 f i NMDialog.obj
 0002:00079560       ?pointer_to@?$pointer_traits@PAU?$pair@$$CBHPAVINMWidget@SKINGDI@NMBASE@@@std@@@std@@SAPAU?$pair@$$CBHPAVINMWidget@SKINGDI@NMBASE@@@2@AAU32@@Z 100e7560 f i NMDialog.obj
 0002:000795b0       ?rbegin@?$_Tree@V?$_Tmap_traits@HPAVINMWidget@SKINGDI@NMBASE@@U?$less@H@std@@V?$allocator@U?$pair@$$CBHPAVINMWidget@SKINGDI@NMBASE@@@std@@@5@$0A@@std@@@std@@QAE?AV?$reverse_iterator@V?$_Tree_iterator@V?$_Tree_val@U?$_Tree_simple_types@U?$pair@$$CBHPAVINMWidget@SKINGDI@NMBASE@@@std@@@std@@@std@@@std@@@2@XZ 100e75b0 f i NMDialog.obj
 0002:00079660       ?rend@?$_Tree@V?$_Tmap_traits@HPAVINMWidget@SKINGDI@NMBASE@@U?$less@H@std@@V?$allocator@U?$pair@$$CBHPAVINMWidget@SKINGDI@NMBASE@@@std@@@5@$0A@@std@@@std@@QAE?AV?$reverse_iterator@V?$_Tree_iterator@V?$_Tree_val@U?$_Tree_simple_types@U?$pair@$$CBHPAVINMWidget@SKINGDI@NMBASE@@@std@@@std@@@std@@@std@@@2@XZ 100e7660 f i NMDialog.obj
 0002:00079710       ?select_on_container_copy_construction@?$_Default_allocator_traits@V?$allocator@UTABINFO@CNMTab@SKINGDI@NMBASE@@@std@@@std@@SA?AV?$allocator@UTABINFO@CNMTab@SKINGDI@NMBASE@@@2@ABV32@@Z 100e7710 f i NMDialog.obj
 0002:00079750       ?size@?$vector@UTABINFO@CNMTab@SKINGDI@NMBASE@@V?$allocator@UTABINFO@CNMTab@SKINGDI@NMBASE@@@std@@@std@@QBEIXZ 100e7750 f i NMDialog.obj
 0002:000797c0       ?_GetBaseClass@CNMCommonEdit@SKINGDI@NMBASE@@KGPAUCRuntimeClass@@XZ 100e77c0 f   NMEdit.obj
 0002:00079810       ?OnKeyDown@CNMCommonEdit@SKINGDI@NMBASE@@IAEXIII@Z 100e7810 f   NMEdit.obj
 0002:00079a70       ?OnChar@CNMCommonEdit@SKINGDI@NMBASE@@IAEXIII@Z 100e7a70 f   NMEdit.obj
 0002:00079af0       ?OnMouseWheel@CNMCommonEdit@SKINGDI@NMBASE@@IAEHIFVCPoint@@@Z 100e7af0 f   NMEdit.obj
 0002:00079b60       ?OnSysKeyDown@CNMCommonEdit@SKINGDI@NMBASE@@IAEXIII@Z 100e7b60 f   NMEdit.obj
 0002:00079bc0       ??0CNMCommonEdit@SKINGDI@NMBASE@@QAE@XZ 100e7bc0 f   NMEdit.obj
 0002:00079d20       ??0CNMEdit@SKINGDI@NMBASE@@QAE@XZ 100e7d20 f   NMEdit.obj
 0002:00079eb0       ??1CNMCommonEdit@SKINGDI@NMBASE@@UAE@XZ 100e7eb0 f   NMEdit.obj
 0002:00079f80       ??1CNMEdit@SKINGDI@NMBASE@@UAE@XZ 100e7f80 f   NMEdit.obj
 0002:0007a030       ??8ATL@@YA_NABV?$CStringT@DV?$StrTraitMFC_DLL@DV?$ChTraitsCRT@D@ATL@@@@@0@0@Z 100e8030 f i NMEdit.obj
 0002:0007a0d0       ??_ECNMCommonEdit@SKINGDI@NMBASE@@UAEPAXI@Z 100e80d0 f i NMEdit.obj
 0002:0007a200       ??_ECNMEdit@SKINGDI@NMBASE@@UAEPAXI@Z 100e8200 f i NMEdit.obj
 0002:0007a310       ??_GCNMCommonEdit@SKINGDI@NMBASE@@UAEPAXI@Z 100e8310 f i NMEdit.obj
 0002:0007a3a0       ??_GCNMEdit@SKINGDI@NMBASE@@UAEPAXI@Z 100e83a0 f i NMEdit.obj
 0002:0007a420       ?CheckEasterEgg@CNMCommonEdit@SKINGDI@NMBASE@@QAEHPAD@Z 100e8420 f   NMEdit.obj
 0002:0007a490       ?CheckPapering@CNMCommonEdit@SKINGDI@NMBASE@@QAEHPAD@Z 100e8490 f   NMEdit.obj
 0002:0007a610       ?ClearText@CNMEdit@SKINGDI@NMBASE@@QAEXXZ 100e8610 f   NMEdit.obj
 0002:0007a770       ?DrawWidget@CNMEdit@SKINGDI@NMBASE@@UAEXAAVCPage@GRAPHICGDI@3@AAVCDC@@@Z 100e8770 f   NMEdit.obj
 0002:0007ace0       ?EnableWindow@CNMEdit@SKINGDI@NMBASE@@QAEHH@Z 100e8ce0 f   NMEdit.obj
 0002:0007ad40       ?EnterMessage@CNMEdit@SKINGDI@NMBASE@@QAEXXZ 100e8d40 f   NMEdit.obj
 0002:0007ada0       ?GetFocus@CNMEdit@SKINGDI@NMBASE@@QAEHXZ 100e8da0 f   NMEdit.obj
 0002:0007ae20       ?GetMessageMap@CNMCommonEdit@SKINGDI@NMBASE@@MBEPBUAFX_MSGMAP@@XZ 100e8e20 f   NMEdit.obj
 0002:0007ae70       ?GetRuntimeClass@CNMCommonEdit@SKINGDI@NMBASE@@UBEPAUCRuntimeClass@@XZ 100e8e70 f   NMEdit.obj
 0002:0007aeb0       ?GetThisClass@CNMCommonEdit@SKINGDI@NMBASE@@SGPAUCRuntimeClass@@XZ 100e8eb0 f   NMEdit.obj
 0002:0007aef0       ?GetThisMessageMap@CNMCommonEdit@SKINGDI@NMBASE@@KGPBUAFX_MSGMAP@@XZ 100e8ef0 f   NMEdit.obj
 0002:0007af30       ?GraspData@CNMCommonEdit@SKINGDI@NMBASE@@QAEXXZ 100e8f30 f   NMEdit.obj
 0002:0007b0f0       ?GraspData@CNMEdit@SKINGDI@NMBASE@@QAEXXZ 100e90f0 f   NMEdit.obj
 0002:0007b160       ?Initialize@CNMCommonEdit@SKINGDI@NMBASE@@QAEHPAVINMWidget@23@@Z 100e9160 f   NMEdit.obj
 0002:0007b1d0       ?Initialize@CNMEdit@SKINGDI@NMBASE@@QAEHHPAVCWnd@@VCRect@@@Z 100e91d0 f   NMEdit.obj
 0002:0007b390       ?IsWindowEnabled@CNMEdit@SKINGDI@NMBASE@@QAEHXZ 100e9390 f   NMEdit.obj
 0002:0007b3f0       ?OnCommandWidget@CNMEdit@SKINGDI@NMBASE@@UAEHHIJ@Z 100e93f0 f   NMEdit.obj
 0002:0007b540       ?OnLButtonDownWidget@CNMEdit@SKINGDI@NMBASE@@UAEHIVCPoint@@@Z 100e9540 f   NMEdit.obj
 0002:0007b5e0       ?SetDefaultText@CNMEdit@SKINGDI@NMBASE@@QAEXPBD@Z 100e95e0 f   NMEdit.obj
 0002:0007b660       ?SetFocus@CNMEdit@SKINGDI@NMBASE@@QAEXXZ 100e9660 f   NMEdit.obj
 0002:0007b7b0       ?SetLimitText@CNMEdit@SKINGDI@NMBASE@@QAEXH@Z 100e97b0 f   NMEdit.obj
 0002:0007b830       ?SetPosition@CNMEdit@SKINGDI@NMBASE@@QAEXHH@Z 100e9830 f   NMEdit.obj
 0002:0007b8d0       ?SetStyleNumber@CNMEdit@SKINGDI@NMBASE@@QAEXH@Z 100e98d0 f   NMEdit.obj
 0002:0007b970       ?SetTextColor@CNMEdit@SKINGDI@NMBASE@@QAEXK@Z 100e9970 f   NMEdit.obj
 0002:0007b9c0       ?SetTextFont@CNMEdit@SKINGDI@NMBASE@@QAEXPAVCFont@@@Z 100e99c0 f   NMEdit.obj
 0002:0007ba20       ?SetWindowTextA@CNMEdit@SKINGDI@NMBASE@@QAEXPBD@Z 100e9a20 f   NMEdit.obj
 0002:0007ba80       ?WindowProc@CNMCommonEdit@SKINGDI@NMBASE@@MAEJIIJ@Z 100e9a80 f   NMEdit.obj
 0002:0007bb00       ??$?0$$V@?$_Compressed_pair@V?$allocator@PAVCNMButton@SKINGDI@NMBASE@@@std@@V?$_Vector_val@U?$_Simple_types@PAVCNMButton@SKINGDI@NMBASE@@@std@@@2@$00@std@@QAE@U_Zero_then_variadic_args_t@1@@Z 100e9b00 f i NMListWidget.obj
 0002:0007bb60       ??$?0$$V@?$_Compressed_pair@V?$allocator@PAVCNMUnitWidget@SKINGDI@NMBASE@@@std@@V?$_Vector_val@U?$_Simple_types@PAVCNMUnitWidget@SKINGDI@NMBASE@@@std@@@2@$00@std@@QAE@U_Zero_then_variadic_args_t@1@@Z 100e9b60 f i NMListWidget.obj
 0002:0007bbc0       ??$?0PAVCNMButton@SKINGDI@NMBASE@@@?$allocator@U_Container_proxy@std@@@std@@QAE@ABV?$allocator@PAVCNMButton@SKINGDI@NMBASE@@@1@@Z 100e9bc0 f i NMListWidget.obj
 0002:0007bc00       ??$?0PAVCNMUnitWidget@SKINGDI@NMBASE@@@?$allocator@U_Container_proxy@std@@@std@@QAE@ABV?$allocator@PAVCNMUnitWidget@SKINGDI@NMBASE@@@1@@Z 100e9c00 f i NMListWidget.obj
 0002:0007bc40       ??$?0V?$allocator@PAVCNMButton@SKINGDI@NMBASE@@@std@@$$V@?$_Compressed_pair@V?$allocator@PAVCNMButton@SKINGDI@NMBASE@@@std@@V?$_Vector_val@U?$_Simple_types@PAVCNMButton@SKINGDI@NMBASE@@@std@@@2@$00@std@@QAE@U_One_then_variadic_args_t@1@$$QAV?$allocator@PAVCNMButton@SKINGDI@NMBASE@@@1@@Z 100e9c40 f i NMListWidget.obj
 0002:0007bcb0       ??$?0V?$allocator@PAVCNMButton@SKINGDI@NMBASE@@@std@@X@?$_Vector_alloc@U?$_Vec_base_types@PAVCNMButton@SKINGDI@NMBASE@@V?$allocator@PAVCNMButton@SKINGDI@NMBASE@@@std@@@std@@@std@@QAE@$$QAV?$allocator@PAVCNMButton@SKINGDI@NMBASE@@@1@@Z 100e9cb0 f i NMListWidget.obj
 0002:0007bd30       ??$?0V?$allocator@PAVCNMUnitWidget@SKINGDI@NMBASE@@@std@@$$V@?$_Compressed_pair@V?$allocator@PAVCNMUnitWidget@SKINGDI@NMBASE@@@std@@V?$_Vector_val@U?$_Simple_types@PAVCNMUnitWidget@SKINGDI@NMBASE@@@std@@@2@$00@std@@QAE@U_One_then_variadic_args_t@1@$$QAV?$allocator@PAVCNMUnitWidget@SKINGDI@NMBASE@@@1@@Z 100e9d30 f i NMListWidget.obj
 0002:0007bda0       ??$?0V?$allocator@PAVCNMUnitWidget@SKINGDI@NMBASE@@@std@@X@?$_Vector_alloc@U?$_Vec_base_types@PAVCNMUnitWidget@SKINGDI@NMBASE@@V?$allocator@PAVCNMUnitWidget@SKINGDI@NMBASE@@@std@@@std@@@std@@QAE@$$QAV?$allocator@PAVCNMUnitWidget@SKINGDI@NMBASE@@@1@@Z 100e9da0 f i NMListWidget.obj
 0002:0007be20       ??$_Adl_verify_range1@PAPAVCNMButton@SKINGDI@NMBASE@@PAPAV123@@std@@YAXABQAPAVCNMButton@SKINGDI@NMBASE@@0U?$integral_constant@_N$00@0@@Z 100e9e20 f i NMListWidget.obj
 0002:0007be80       ??$_Adl_verify_range1@PAPAVCNMUnitWidget@SKINGDI@NMBASE@@PAPAV123@@std@@YAXABQAPAVCNMUnitWidget@SKINGDI@NMBASE@@0U?$integral_constant@_N$00@0@@Z 100e9e80 f i NMListWidget.obj
 0002:0007bee0       ??$_Adl_verify_range@PAPAVCNMButton@SKINGDI@NMBASE@@PAPAV123@@std@@YAXABQAPAVCNMButton@SKINGDI@NMBASE@@0@Z 100e9ee0 f i NMListWidget.obj
 0002:0007bf50       ??$_Adl_verify_range@PAPAVCNMUnitWidget@SKINGDI@NMBASE@@PAPAV123@@std@@YAXABQAPAVCNMUnitWidget@SKINGDI@NMBASE@@0@Z 100e9f50 f i NMListWidget.obj
 0002:0007bfc0       ??$_Advance1@PAPAVCNMButton@SKINGDI@NMBASE@@H@std@@YAXAAPAPAVCNMButton@SKINGDI@NMBASE@@HUrandom_access_iterator_tag@0@@Z 100e9fc0 f i NMListWidget.obj
 0002:0007c010       ??$_Advance1@PAPAVCNMUnitWidget@SKINGDI@NMBASE@@H@std@@YAXAAPAPAVCNMUnitWidget@SKINGDI@NMBASE@@HUrandom_access_iterator_tag@0@@Z 100ea010 f i NMListWidget.obj
 0002:0007c060       ??$_Assign_range@PAPAVCNMButton@SKINGDI@NMBASE@@@?$vector@PAVCNMButton@SKINGDI@NMBASE@@V?$allocator@PAVCNMButton@SKINGDI@NMBASE@@@std@@@std@@AAEXPAPAVCNMButton@SKINGDI@NMBASE@@0Uforward_iterator_tag@1@@Z 100ea060 f i NMListWidget.obj
 0002:0007c2b0       ??$_Assign_range@PAPAVCNMUnitWidget@SKINGDI@NMBASE@@@?$vector@PAVCNMUnitWidget@SKINGDI@NMBASE@@V?$allocator@PAVCNMUnitWidget@SKINGDI@NMBASE@@@std@@@std@@AAEXPAPAVCNMUnitWidget@SKINGDI@NMBASE@@0Uforward_iterator_tag@1@@Z 100ea2b0 f i NMListWidget.obj
 0002:0007c500       ??$_Copy_memmove@PAPAVCNMButton@SKINGDI@NMBASE@@PAPAV123@@std@@YAPAPAVCNMButton@SKINGDI@NMBASE@@PAPAV123@00@Z 100ea500 f i NMListWidget.obj
 0002:0007c580       ??$_Copy_memmove@PAPAVCNMUnitWidget@SKINGDI@NMBASE@@PAPAV123@@std@@YAPAPAVCNMUnitWidget@SKINGDI@NMBASE@@PAPAV123@00@Z 100ea580 f i NMListWidget.obj
 0002:0007c600       ??$_Copy_unchecked1@PAPAVCNMButton@SKINGDI@NMBASE@@PAPAV123@@std@@YAPAPAVCNMButton@SKINGDI@NMBASE@@PAPAV123@00U_Trivially_copyable_ptr_iterator_tag@0@@Z 100ea600 f i NMListWidget.obj
 0002:0007c660       ??$_Copy_unchecked1@PAPAVCNMUnitWidget@SKINGDI@NMBASE@@PAPAV123@@std@@YAPAPAVCNMUnitWidget@SKINGDI@NMBASE@@PAPAV123@00U_Trivially_copyable_ptr_iterator_tag@0@@Z 100ea660 f i NMListWidget.obj
 0002:0007c6c0       ??$_Copy_unchecked@PAPAVCNMButton@SKINGDI@NMBASE@@PAPAV123@@std@@YAPAPAVCNMButton@SKINGDI@NMBASE@@PAPAV123@00@Z 100ea6c0 f i NMListWidget.obj
 0002:0007c740       ??$_Copy_unchecked@PAPAVCNMUnitWidget@SKINGDI@NMBASE@@PAPAV123@@std@@YAPAPAVCNMUnitWidget@SKINGDI@NMBASE@@PAPAV123@00@Z 100ea740 f i NMListWidget.obj
 0002:0007c7c0       ??$_Destroy_range1@V?$allocator@PAVCNMButton@SKINGDI@NMBASE@@@std@@@std@@YAXPAPAVCNMButton@SKINGDI@NMBASE@@0AAV?$allocator@PAVCNMButton@SKINGDI@NMBASE@@@0@U?$integral_constant@_N$00@0@@Z 100ea7c0 f i NMListWidget.obj
 0002:0007c7f0       ??$_Destroy_range1@V?$allocator@PAVCNMUnitWidget@SKINGDI@NMBASE@@@std@@@std@@YAXPAPAVCNMUnitWidget@SKINGDI@NMBASE@@0AAV?$allocator@PAVCNMUnitWidget@SKINGDI@NMBASE@@@0@U?$integral_constant@_N$00@0@@Z 100ea7f0 f i NMListWidget.obj
 0002:0007c820       ??$_Destroy_range@V?$allocator@PAVCNMButton@SKINGDI@NMBASE@@@std@@@std@@YAXPAPAVCNMButton@SKINGDI@NMBASE@@0AAV?$allocator@PAVCNMButton@SKINGDI@NMBASE@@@0@@Z 100ea820 f i NMListWidget.obj
 0002:0007c890       ??$_Destroy_range@V?$allocator@PAVCNMUnitWidget@SKINGDI@NMBASE@@@std@@@std@@YAXPAPAVCNMUnitWidget@SKINGDI@NMBASE@@0AAV?$allocator@PAVCNMUnitWidget@SKINGDI@NMBASE@@@0@@Z 100ea890 f i NMListWidget.obj
 0002:0007c900       ??$_Distance1@PAPAVCNMButton@SKINGDI@NMBASE@@@std@@YAHPAPAVCNMButton@SKINGDI@NMBASE@@0Urandom_access_iterator_tag@0@@Z 100ea900 f i NMListWidget.obj
 0002:0007c940       ??$_Distance1@PAPAVCNMUnitWidget@SKINGDI@NMBASE@@@std@@YAHPAPAVCNMUnitWidget@SKINGDI@NMBASE@@0Urandom_access_iterator_tag@0@@Z 100ea940 f i NMListWidget.obj
 0002:0007c980       ??$_Emplace_back_with_unused_capacity@ABQAVCNMButton@SKINGDI@NMBASE@@@?$vector@PAVCNMButton@SKINGDI@NMBASE@@V?$allocator@PAVCNMButton@SKINGDI@NMBASE@@@std@@@std@@AAE@ABQAVCNMButton@SKINGDI@NMBASE@@@Z 100ea980 f i NMListWidget.obj
 0002:0007ca70       ??$_Emplace_back_with_unused_capacity@ABQAVCNMUnitWidget@SKINGDI@NMBASE@@@?$vector@PAVCNMUnitWidget@SKINGDI@NMBASE@@V?$allocator@PAVCNMUnitWidget@SKINGDI@NMBASE@@@std@@@std@@AAE@ABQAVCNMUnitWidget@SKINGDI@NMBASE@@@Z 100eaa70 f i NMListWidget.obj
 0002:0007cb60       ??$_Emplace_reallocate@ABQAVCNMButton@SKINGDI@NMBASE@@@?$vector@PAVCNMButton@SKINGDI@NMBASE@@V?$allocator@PAVCNMButton@SKINGDI@NMBASE@@@std@@@std@@QAEPAPAVCNMButton@SKINGDI@NMBASE@@QAPAV234@ABQAV234@@Z 100eab60 f i NMListWidget.obj
 0002:0007cdf0       ??$_Emplace_reallocate@ABQAVCNMUnitWidget@SKINGDI@NMBASE@@@?$vector@PAVCNMUnitWidget@SKINGDI@NMBASE@@V?$allocator@PAVCNMUnitWidget@SKINGDI@NMBASE@@@std@@@std@@QAEPAPAVCNMUnitWidget@SKINGDI@NMBASE@@QAPAV234@ABQAV234@@Z 100eadf0 f i NMListWidget.obj
 0002:0007d080       ??$_Get_unwrapped@PAVCNMButton@SKINGDI@NMBASE@@@std@@YAPAPAVCNMButton@SKINGDI@NMBASE@@QAPAV123@@Z 100eb080 f i NMListWidget.obj
 0002:0007d0c0       ??$_Get_unwrapped@PAVCNMUnitWidget@SKINGDI@NMBASE@@@std@@YAPAPAVCNMUnitWidget@SKINGDI@NMBASE@@QAPAV123@@Z 100eb0c0 f i NMListWidget.obj
 0002:0007d100       ??$_Get_unwrapped_n@PAVCNMButton@SKINGDI@NMBASE@@H$0A@@std@@YAPAPAVCNMButton@SKINGDI@NMBASE@@QAPAV123@H@Z 100eb100 f i NMListWidget.obj
 0002:0007d140       ??$_Get_unwrapped_n@PAVCNMUnitWidget@SKINGDI@NMBASE@@H$0A@@std@@YAPAPAVCNMUnitWidget@SKINGDI@NMBASE@@QAPAV123@H@Z 100eb140 f i NMListWidget.obj
 0002:0007d180       ??$_Idl_distance1@PAPAVCNMButton@SKINGDI@NMBASE@@PAPAV123@@std@@YAHABQAPAVCNMButton@SKINGDI@NMBASE@@0Urandom_access_iterator_tag@0@@Z 100eb180 f i NMListWidget.obj
 0002:0007d1c0       ??$_Idl_distance1@PAPAVCNMUnitWidget@SKINGDI@NMBASE@@PAPAV123@@std@@YAHABQAPAVCNMUnitWidget@SKINGDI@NMBASE@@0Urandom_access_iterator_tag@0@@Z 100eb1c0 f i NMListWidget.obj
 0002:0007d200       ??$_Idl_distance@PAPAVCNMButton@SKINGDI@NMBASE@@PAPAV123@@std@@YA@ABQAPAVCNMButton@SKINGDI@NMBASE@@0@Z 100eb200 f i NMListWidget.obj
 0002:0007d260       ??$_Idl_distance@PAPAVCNMUnitWidget@SKINGDI@NMBASE@@PAPAV123@@std@@YA@ABQAPAVCNMUnitWidget@SKINGDI@NMBASE@@0@Z 100eb260 f i NMListWidget.obj
 0002:0007d2c0       ??$_Move_unchecked1@PAPAVCNMButton@SKINGDI@NMBASE@@PAPAV123@@std@@YAPAPAVCNMButton@SKINGDI@NMBASE@@PAPAV123@00U_Trivially_copyable_ptr_iterator_tag@0@@Z 100eb2c0 f i NMListWidget.obj
 0002:0007d320       ??$_Move_unchecked1@PAPAVCNMUnitWidget@SKINGDI@NMBASE@@PAPAV123@@std@@YAPAPAVCNMUnitWidget@SKINGDI@NMBASE@@PAPAV123@00U_Trivially_copyable_ptr_iterator_tag@0@@Z 100eb320 f i NMListWidget.obj
 0002:0007d380       ??$_Move_unchecked@PAPAVCNMButton@SKINGDI@NMBASE@@PAPAV123@@std@@YAPAPAVCNMButton@SKINGDI@NMBASE@@PAPAV123@00@Z 100eb380 f i NMListWidget.obj
 0002:0007d400       ??$_Move_unchecked@PAPAVCNMUnitWidget@SKINGDI@NMBASE@@PAPAV123@@std@@YAPAPAVCNMUnitWidget@SKINGDI@NMBASE@@PAPAV123@00@Z 100eb400 f i NMListWidget.obj
 0002:0007d480       ??$_Pocca@V?$allocator@PAVCNMButton@SKINGDI@NMBASE@@@std@@@std@@YAXAAV?$allocator@PAVCNMButton@SKINGDI@NMBASE@@@0@ABV10@@Z 100eb480 f i NMListWidget.obj
 0002:0007d510       ??$_Pocca@V?$allocator@PAVCNMButton@SKINGDI@NMBASE@@@std@@@std@@YAXAAV?$allocator@PAVCNMButton@SKINGDI@NMBASE@@@0@ABV10@U?$integral_constant@_N$0A@@0@@Z 100eb510 f i NMListWidget.obj
 0002:0007d540       ??$_Pocca@V?$allocator@PAVCNMUnitWidget@SKINGDI@NMBASE@@@std@@@std@@YAXAAV?$allocator@PAVCNMUnitWidget@SKINGDI@NMBASE@@@0@ABV10@@Z 100eb540 f i NMListWidget.obj
 0002:0007d5d0       ??$_Pocca@V?$allocator@PAVCNMUnitWidget@SKINGDI@NMBASE@@@std@@@std@@YAXAAV?$allocator@PAVCNMUnitWidget@SKINGDI@NMBASE@@@0@ABV10@U?$integral_constant@_N$0A@@0@@Z 100eb5d0 f i NMListWidget.obj
 0002:0007d600       ??$_Ptr_copy_cat@PAVCNMButton@SKINGDI@NMBASE@@PAV123@@std@@YA?AU_Really_trivial_ptr_iterator_tag@0@ABQAPAVCNMButton@SKINGDI@NMBASE@@0@Z 100eb600 f i NMListWidget.obj
 0002:0007d640       ??$_Ptr_copy_cat@PAVCNMUnitWidget@SKINGDI@NMBASE@@PAV123@@std@@YA?AU_Really_trivial_ptr_iterator_tag@0@ABQAPAVCNMUnitWidget@SKINGDI@NMBASE@@0@Z 100eb640 f i NMListWidget.obj
 0002:0007d680       ??$_Ptr_move_cat@PAVCNMButton@SKINGDI@NMBASE@@PAV123@@std@@YA?AU_Really_trivial_ptr_iterator_tag@0@ABQAPAVCNMButton@SKINGDI@NMBASE@@0@Z 100eb680 f i NMListWidget.obj
 0002:0007d6c0       ??$_Ptr_move_cat@PAVCNMUnitWidget@SKINGDI@NMBASE@@PAV123@@std@@YA?AU_Really_trivial_ptr_iterator_tag@0@ABQAPAVCNMUnitWidget@SKINGDI@NMBASE@@0@Z 100eb6c0 f i NMListWidget.obj
 0002:0007d700       ??$_Seek_wrapped@PAVCNMButton@SKINGDI@NMBASE@@@std@@YAXAAPAPAVCNMButton@SKINGDI@NMBASE@@QAPAV123@@Z 100eb700 f i NMListWidget.obj
 0002:0007d740       ??$_Seek_wrapped@PAVCNMUnitWidget@SKINGDI@NMBASE@@@std@@YAXAAPAPAVCNMUnitWidget@SKINGDI@NMBASE@@QAPAV123@@Z 100eb740 f i NMListWidget.obj
 0002:0007d780       ??$_Ucopy@PAPAVCNMButton@SKINGDI@NMBASE@@@?$vector@PAVCNMButton@SKINGDI@NMBASE@@V?$allocator@PAVCNMButton@SKINGDI@NMBASE@@@std@@@std@@AAEPAPAVCNMButton@SKINGDI@NMBASE@@PAPAV234@00@Z 100eb780 f i NMListWidget.obj
 0002:0007d7f0       ??$_Ucopy@PAPAVCNMUnitWidget@SKINGDI@NMBASE@@@?$vector@PAVCNMUnitWidget@SKINGDI@NMBASE@@V?$allocator@PAVCNMUnitWidget@SKINGDI@NMBASE@@@std@@@std@@AAEPAPAVCNMUnitWidget@SKINGDI@NMBASE@@PAPAV234@00@Z 100eb7f0 f i NMListWidget.obj
 0002:0007d860       ??$_Unfancy@PAVCNMButton@SKINGDI@NMBASE@@@std@@YAPAPAVCNMButton@SKINGDI@NMBASE@@PAPAV123@@Z 100eb860 f i NMListWidget.obj
 0002:0007d8a0       ??$_Unfancy@PAVCNMUnitWidget@SKINGDI@NMBASE@@@std@@YAPAPAVCNMUnitWidget@SKINGDI@NMBASE@@PAPAV123@@Z 100eb8a0 f i NMListWidget.obj
 0002:0007d8e0       ??$_Uninitialized_copy@PAPAVCNMButton@SKINGDI@NMBASE@@PAPAV123@V?$allocator@PAVCNMButton@SKINGDI@NMBASE@@@std@@@std@@YAPAPAVCNMButton@SKINGDI@NMBASE@@QAPAV123@0PAPAV123@AAV?$allocator@PAVCNMButton@SKINGDI@NMBASE@@@0@@Z 100eb8e0 f i NMListWidget.obj
 0002:0007da40       ??$_Uninitialized_copy@PAPAVCNMUnitWidget@SKINGDI@NMBASE@@PAPAV123@V?$allocator@PAVCNMUnitWidget@SKINGDI@NMBASE@@@std@@@std@@YAPAPAVCNMUnitWidget@SKINGDI@NMBASE@@QAPAV123@0PAPAV123@AAV?$allocator@PAVCNMUnitWidget@SKINGDI@NMBASE@@@0@@Z 100eba40 f i NMListWidget.obj
 0002:0007dba0       ??$_Uninitialized_copy_al_unchecked@PAVCNMButton@SKINGDI@NMBASE@@PAV123@V?$allocator@PAVCNMButton@SKINGDI@NMBASE@@@std@@@std@@YAPAPAVCNMButton@SKINGDI@NMBASE@@QAPAV123@00AAV?$allocator@PAVCNMButton@SKINGDI@NMBASE@@@0@U_Really_trivial_ptr_iterator_tag@0@U?$integral_constant@_N$00@0@@Z 100ebba0 f i NMListWidget.obj
 0002:0007dc00       ??$_Uninitialized_copy_al_unchecked@PAVCNMUnitWidget@SKINGDI@NMBASE@@PAV123@V?$allocator@PAVCNMUnitWidget@SKINGDI@NMBASE@@@std@@@std@@YAPAPAVCNMUnitWidget@SKINGDI@NMBASE@@QAPAV123@00AAV?$allocator@PAVCNMUnitWidget@SKINGDI@NMBASE@@@0@U_Really_trivial_ptr_iterator_tag@0@U?$integral_constant@_N$00@0@@Z 100ebc00 f i NMListWidget.obj
 0002:0007dc60       ??$_Uninitialized_move@PAPAVCNMButton@SKINGDI@NMBASE@@PAPAV123@V?$allocator@PAVCNMButton@SKINGDI@NMBASE@@@std@@@std@@YAPAPAVCNMButton@SKINGDI@NMBASE@@QAPAV123@0PAPAV123@AAV?$allocator@PAVCNMButton@SKINGDI@NMBASE@@@0@@Z 100ebc60 f i NMListWidget.obj
 0002:0007ddc0       ??$_Uninitialized_move@PAPAVCNMUnitWidget@SKINGDI@NMBASE@@PAPAV123@V?$allocator@PAVCNMUnitWidget@SKINGDI@NMBASE@@@std@@@std@@YAPAPAVCNMUnitWidget@SKINGDI@NMBASE@@QAPAV123@0PAPAV123@AAV?$allocator@PAVCNMUnitWidget@SKINGDI@NMBASE@@@0@@Z 100ebdc0 f i NMListWidget.obj
 0002:0007df20       ??$_Uninitialized_move_al_unchecked@PAVCNMButton@SKINGDI@NMBASE@@PAV123@V?$allocator@PAVCNMButton@SKINGDI@NMBASE@@@std@@@std@@YAPAPAVCNMButton@SKINGDI@NMBASE@@QAPAV123@00AAV?$allocator@PAVCNMButton@SKINGDI@NMBASE@@@0@U_Really_trivial_ptr_iterator_tag@0@U?$integral_constant@_N$00@0@@Z 100ebf20 f i NMListWidget.obj
 0002:0007df80       ??$_Uninitialized_move_al_unchecked@PAVCNMUnitWidget@SKINGDI@NMBASE@@PAV123@V?$allocator@PAVCNMUnitWidget@SKINGDI@NMBASE@@@std@@@std@@YAPAPAVCNMUnitWidget@SKINGDI@NMBASE@@QAPAV123@00AAV?$allocator@PAVCNMUnitWidget@SKINGDI@NMBASE@@@0@U_Really_trivial_ptr_iterator_tag@0@U?$integral_constant@_N$00@0@@Z 100ebf80 f i NMListWidget.obj
 0002:0007dfe0       ??$_Verify_range@PAVCNMButton@SKINGDI@NMBASE@@@std@@YAXQBQAVCNMButton@SKINGDI@NMBASE@@0@Z 100ebfe0 f i NMListWidget.obj
 0002:0007e0b0       ??$_Verify_range@PAVCNMUnitWidget@SKINGDI@NMBASE@@@std@@YAXQBQAVCNMUnitWidget@SKINGDI@NMBASE@@0@Z 100ec0b0 f i NMListWidget.obj
 0002:0007e180       ??$addressof@$$CBV?$vector@PAVCNMButton@SKINGDI@NMBASE@@V?$allocator@PAVCNMButton@SKINGDI@NMBASE@@@std@@@std@@@std@@YAPBV?$vector@PAVCNMButton@SKINGDI@NMBASE@@V?$allocator@PAVCNMButton@SKINGDI@NMBASE@@@std@@@0@ABV10@@Z 100ec180 f i NMListWidget.obj
 0002:0007e1c0       ??$addressof@$$CBV?$vector@PAVCNMUnitWidget@SKINGDI@NMBASE@@V?$allocator@PAVCNMUnitWidget@SKINGDI@NMBASE@@@std@@@std@@@std@@YAPBV?$vector@PAVCNMUnitWidget@SKINGDI@NMBASE@@V?$allocator@PAVCNMUnitWidget@SKINGDI@NMBASE@@@std@@@0@ABV10@@Z 100ec1c0 f i NMListWidget.obj
 0002:0007e200       ??$addressof@V?$_Vector_val@U?$_Simple_types@PAVCNMButton@SKINGDI@NMBASE@@@std@@@std@@@std@@YAPAV?$_Vector_val@U?$_Simple_types@PAVCNMButton@SKINGDI@NMBASE@@@std@@@0@AAV10@@Z 100ec200 f i NMListWidget.obj
 0002:0007e240       ??$addressof@V?$_Vector_val@U?$_Simple_types@PAVCNMUnitWidget@SKINGDI@NMBASE@@@std@@@std@@@std@@YAPAV?$_Vector_val@U?$_Simple_types@PAVCNMUnitWidget@SKINGDI@NMBASE@@@std@@@0@AAV10@@Z 100ec240 f i NMListWidget.obj
 0002:0007e280       ??$advance@PAPAVCNMButton@SKINGDI@NMBASE@@H@std@@YAXAAPAPAVCNMButton@SKINGDI@NMBASE@@H@Z 100ec280 f i NMListWidget.obj
 0002:0007e2e0       ??$advance@PAPAVCNMUnitWidget@SKINGDI@NMBASE@@H@std@@YAXAAPAPAVCNMUnitWidget@SKINGDI@NMBASE@@H@Z 100ec2e0 f i NMListWidget.obj
 0002:0007e340       ??$assign@PAPAVCNMButton@SKINGDI@NMBASE@@X@?$vector@PAVCNMButton@SKINGDI@NMBASE@@V?$allocator@PAVCNMButton@SKINGDI@NMBASE@@@std@@@std@@QAEXPAPAVCNMButton@SKINGDI@NMBASE@@0@Z 100ec340 f i NMListWidget.obj
 0002:0007e3d0       ??$assign@PAPAVCNMUnitWidget@SKINGDI@NMBASE@@X@?$vector@PAVCNMUnitWidget@SKINGDI@NMBASE@@V?$allocator@PAVCNMUnitWidget@SKINGDI@NMBASE@@@std@@@std@@QAEXPAPAVCNMUnitWidget@SKINGDI@NMBASE@@0@Z 100ec3d0 f i NMListWidget.obj
 0002:0007e460       ??$construct@PAVCNMButton@SKINGDI@NMBASE@@ABQAV123@@?$_Default_allocator_traits@V?$allocator@PAVCNMButton@SKINGDI@NMBASE@@@std@@@std@@SAXAAV?$allocator@PAVCNMButton@SKINGDI@NMBASE@@@1@QAPAVCNMButton@SKINGDI@NMBASE@@ABQAV345@@Z 100ec460 f i NMListWidget.obj
 0002:0007e4e0       ??$construct@PAVCNMUnitWidget@SKINGDI@NMBASE@@ABQAV123@@?$_Default_allocator_traits@V?$allocator@PAVCNMUnitWidget@SKINGDI@NMBASE@@@std@@@std@@SAXAAV?$allocator@PAVCNMUnitWidget@SKINGDI@NMBASE@@@1@QAPAVCNMUnitWidget@SKINGDI@NMBASE@@ABQAV345@@Z 100ec4e0 f i NMListWidget.obj
 0002:0007e560       ??$destroy@PAVCNMButton@SKINGDI@NMBASE@@@?$_Default_allocator_traits@V?$allocator@PAVCNMButton@SKINGDI@NMBASE@@@std@@@std@@SAXAAV?$allocator@PAVCNMButton@SKINGDI@NMBASE@@@1@QAPAVCNMButton@SKINGDI@NMBASE@@@Z 100ec560 f i NMListWidget.obj
 0002:0007e590       ??$destroy@PAVCNMUnitWidget@SKINGDI@NMBASE@@@?$_Default_allocator_traits@V?$allocator@PAVCNMUnitWidget@SKINGDI@NMBASE@@@std@@@std@@SAXAAV?$allocator@PAVCNMUnitWidget@SKINGDI@NMBASE@@@1@QAPAVCNMUnitWidget@SKINGDI@NMBASE@@@Z 100ec590 f i NMListWidget.obj
 0002:0007e5c0       ??$distance@PAPAVCNMButton@SKINGDI@NMBASE@@@std@@YAHPAPAVCNMButton@SKINGDI@NMBASE@@0@Z 100ec5c0 f i NMListWidget.obj
 0002:0007e620       ??$distance@PAPAVCNMUnitWidget@SKINGDI@NMBASE@@@std@@YAHPAPAVCNMUnitWidget@SKINGDI@NMBASE@@0@Z 100ec620 f i NMListWidget.obj
 0002:0007e680       ??$emplace_back@ABQAVCNMButton@SKINGDI@NMBASE@@@?$vector@PAVCNMButton@SKINGDI@NMBASE@@V?$allocator@PAVCNMButton@SKINGDI@NMBASE@@@std@@@std@@QAE@ABQAVCNMButton@SKINGDI@NMBASE@@@Z 100ec680 f i NMListWidget.obj
 0002:0007e730       ??$emplace_back@ABQAVCNMUnitWidget@SKINGDI@NMBASE@@@?$vector@PAVCNMUnitWidget@SKINGDI@NMBASE@@V?$allocator@PAVCNMUnitWidget@SKINGDI@NMBASE@@@std@@@std@@QAE@ABQAVCNMUnitWidget@SKINGDI@NMBASE@@@Z 100ec730 f i NMListWidget.obj
 0002:0007e7e0       ??$forward@ABQAVCNMButton@SKINGDI@NMBASE@@@std@@YAABQAVCNMButton@SKINGDI@NMBASE@@ABQAV123@@Z 100ec7e0 f i NMListWidget.obj
 0002:0007e820       ??$forward@ABQAVCNMUnitWidget@SKINGDI@NMBASE@@@std@@YAABQAVCNMUnitWidget@SKINGDI@NMBASE@@ABQAV123@@Z 100ec820 f i NMListWidget.obj
 0002:0007e860       ??$forward@V?$allocator@PAVCNMButton@SKINGDI@NMBASE@@@std@@@std@@YA$$QAV?$allocator@PAVCNMButton@SKINGDI@NMBASE@@@0@AAV10@@Z 100ec860 f i NMListWidget.obj
 0002:0007e8a0       ??$forward@V?$allocator@PAVCNMUnitWidget@SKINGDI@NMBASE@@@std@@@std@@YA$$QAV?$allocator@PAVCNMUnitWidget@SKINGDI@NMBASE@@@0@AAV10@@Z 100ec8a0 f i NMListWidget.obj
 0002:0007e8e0       ??$next@PAPAVCNMButton@SKINGDI@NMBASE@@@std@@YAPAPAVCNMButton@SKINGDI@NMBASE@@PAPAV123@H@Z 100ec8e0 f i NMListWidget.obj
 0002:0007e940       ??$next@PAPAVCNMUnitWidget@SKINGDI@NMBASE@@@std@@YAPAPAVCNMUnitWidget@SKINGDI@NMBASE@@PAPAV123@H@Z 100ec940 f i NMListWidget.obj
 0002:0007e9a0       ??0?$_Vector_alloc@U?$_Vec_base_types@PAVCNMButton@SKINGDI@NMBASE@@V?$allocator@PAVCNMButton@SKINGDI@NMBASE@@@std@@@std@@@std@@QAE@XZ 100ec9a0 f i NMListWidget.obj
 0002:0007ea10       ??0?$_Vector_alloc@U?$_Vec_base_types@PAVCNMUnitWidget@SKINGDI@NMBASE@@V?$allocator@PAVCNMUnitWidget@SKINGDI@NMBASE@@@std@@@std@@@std@@QAE@XZ 100eca10 f i NMListWidget.obj
 0002:0007ea80       ??0?$_Vector_const_iterator@V?$_Vector_val@U?$_Simple_types@PAVCNMButton@SKINGDI@NMBASE@@@std@@@std@@@std@@QAE@$$QAV01@@Z 100eca80 f i NMListWidget.obj
 0002:0007eaf0       ??0?$_Vector_const_iterator@V?$_Vector_val@U?$_Simple_types@PAVCNMButton@SKINGDI@NMBASE@@@std@@@std@@@std@@QAE@ABV01@@Z 100ecaf0 f i NMListWidget.obj
 0002:0007eb60       ??0?$_Vector_const_iterator@V?$_Vector_val@U?$_Simple_types@PAVCNMButton@SKINGDI@NMBASE@@@std@@@std@@@std@@QAE@PAPAVCNMButton@SKINGDI@NMBASE@@PBU_Container_base12@1@@Z 100ecb60 f i NMListWidget.obj
 0002:0007ebd0       ??0?$_Vector_const_iterator@V?$_Vector_val@U?$_Simple_types@PAVCNMUnitWidget@SKINGDI@NMBASE@@@std@@@std@@@std@@QAE@$$QAV01@@Z 100ecbd0 f i NMListWidget.obj
 0002:0007ec40       ??0?$_Vector_const_iterator@V?$_Vector_val@U?$_Simple_types@PAVCNMUnitWidget@SKINGDI@NMBASE@@@std@@@std@@@std@@QAE@ABV01@@Z 100ecc40 f i NMListWidget.obj
 0002:0007ecb0       ??0?$_Vector_const_iterator@V?$_Vector_val@U?$_Simple_types@PAVCNMUnitWidget@SKINGDI@NMBASE@@@std@@@std@@@std@@QAE@PAPAVCNMUnitWidget@SKINGDI@NMBASE@@PBU_Container_base12@1@@Z 100eccb0 f i NMListWidget.obj
 0002:0007ed20       ??0?$_Vector_iterator@V?$_Vector_val@U?$_Simple_types@PAVCNMButton@SKINGDI@NMBASE@@@std@@@std@@@std@@QAE@$$QAV01@@Z 100ecd20 f i NMListWidget.obj
 0002:0007ed80       ??0?$_Vector_iterator@V?$_Vector_val@U?$_Simple_types@PAVCNMButton@SKINGDI@NMBASE@@@std@@@std@@@std@@QAE@ABV01@@Z 100ecd80 f i NMListWidget.obj
 0002:0007ede0       ??0?$_Vector_iterator@V?$_Vector_val@U?$_Simple_types@PAVCNMButton@SKINGDI@NMBASE@@@std@@@std@@@std@@QAE@PAPAVCNMButton@SKINGDI@NMBASE@@PBU_Container_base12@1@@Z 100ecde0 f i NMListWidget.obj
 0002:0007ee40       ??0?$_Vector_iterator@V?$_Vector_val@U?$_Simple_types@PAVCNMUnitWidget@SKINGDI@NMBASE@@@std@@@std@@@std@@QAE@ABV01@@Z 100ece40 f i NMListWidget.obj
 0002:0007eea0       ??0?$_Vector_iterator@V?$_Vector_val@U?$_Simple_types@PAVCNMUnitWidget@SKINGDI@NMBASE@@@std@@@std@@@std@@QAE@PAPAVCNMUnitWidget@SKINGDI@NMBASE@@PBU_Container_base12@1@@Z 100ecea0 f i NMListWidget.obj
 0002:0007ef00       ??0?$_Vector_val@U?$_Simple_types@PAVCNMButton@SKINGDI@NMBASE@@@std@@@std@@QAE@XZ 100ecf00 f i NMListWidget.obj
 0002:0007ef80       ??0?$_Vector_val@U?$_Simple_types@PAVCNMUnitWidget@SKINGDI@NMBASE@@@std@@@std@@QAE@XZ 100ecf80 f i NMListWidget.obj
 0002:0007f000       ??0?$allocator@PAVCNMButton@SKINGDI@NMBASE@@@std@@QAE@XZ 100ed000 f i NMListWidget.obj
 0002:0007f040       ??0?$allocator@PAVCNMUnitWidget@SKINGDI@NMBASE@@@std@@QAE@XZ 100ed040 f i NMListWidget.obj
 0002:0007f080       ??0?$vector@PAVCNMButton@SKINGDI@NMBASE@@V?$allocator@PAVCNMButton@SKINGDI@NMBASE@@@std@@@std@@QAE@ABV01@@Z 100ed080 f i NMListWidget.obj
 0002:0007f1f0       ??0?$vector@PAVCNMButton@SKINGDI@NMBASE@@V?$allocator@PAVCNMButton@SKINGDI@NMBASE@@@std@@@std@@QAE@XZ 100ed1f0 f i NMListWidget.obj
 0002:0007f280       ??0?$vector@PAVCNMUnitWidget@SKINGDI@NMBASE@@V?$allocator@PAVCNMUnitWidget@SKINGDI@NMBASE@@@std@@@std@@QAE@ABV01@@Z 100ed280 f i NMListWidget.obj
 0002:0007f3f0       ??0?$vector@PAVCNMUnitWidget@SKINGDI@NMBASE@@V?$allocator@PAVCNMUnitWidget@SKINGDI@NMBASE@@@std@@@std@@QAE@XZ 100ed3f0 f i NMListWidget.obj
 0002:0007f480       ??0CNMListWidget@SKINGDI@NMBASE@@QAE@ABV012@@Z 100ed480 f i NMListWidget.obj
 0002:0007f680       ??0CNMListWidget@SKINGDI@NMBASE@@QAE@XZ 100ed680 f   NMListWidget.obj
 0002:0007f7b0       ??0CNMUnitWidget@SKINGDI@NMBASE@@QAE@ABV012@@Z 100ed7b0 f i NMListWidget.obj
 0002:0007f9e0       ??1?$_Vector_alloc@U?$_Vec_base_types@PAVCNMButton@SKINGDI@NMBASE@@V?$allocator@PAVCNMButton@SKINGDI@NMBASE@@@std@@@std@@@std@@QAE@XZ 100ed9e0 f i NMListWidget.obj
 0002:0007fa70       ??1?$_Vector_alloc@U?$_Vec_base_types@PAVCNMUnitWidget@SKINGDI@NMBASE@@V?$allocator@PAVCNMUnitWidget@SKINGDI@NMBASE@@@std@@@std@@@std@@QAE@XZ 100eda70 f i NMListWidget.obj
 0002:0007fb00       ??1?$_Vector_const_iterator@V?$_Vector_val@U?$_Simple_types@PAVCNMButton@SKINGDI@NMBASE@@@std@@@std@@@std@@QAE@XZ 100edb00 f i NMListWidget.obj
 0002:0007fb50       ??1?$_Vector_const_iterator@V?$_Vector_val@U?$_Simple_types@PAVCNMUnitWidget@SKINGDI@NMBASE@@@std@@@std@@@std@@QAE@XZ 100edb50 f i NMListWidget.obj
 0002:0007fba0       ??1?$_Vector_iterator@V?$_Vector_val@U?$_Simple_types@PAVCNMButton@SKINGDI@NMBASE@@@std@@@std@@@std@@QAE@XZ 100edba0 f i NMListWidget.obj
 0002:0007fbf0       ??1?$_Vector_iterator@V?$_Vector_val@U?$_Simple_types@PAVCNMUnitWidget@SKINGDI@NMBASE@@@std@@@std@@@std@@QAE@XZ 100edbf0 f i NMListWidget.obj
 0002:0007fc40       ??1?$vector@PAVCNMButton@SKINGDI@NMBASE@@V?$allocator@PAVCNMButton@SKINGDI@NMBASE@@@std@@@std@@QAE@XZ 100edc40 f i NMListWidget.obj
 0002:0007fcd0       ??1?$vector@PAVCNMUnitWidget@SKINGDI@NMBASE@@V?$allocator@PAVCNMUnitWidget@SKINGDI@NMBASE@@@std@@@std@@QAE@XZ 100edcd0 f i NMListWidget.obj
 0002:0007fd60       ??1CNMListWidget@SKINGDI@NMBASE@@UAE@XZ 100edd60 f   NMListWidget.obj
 0002:0007fde0       ??4?$vector@PAVCNMButton@SKINGDI@NMBASE@@V?$allocator@PAVCNMButton@SKINGDI@NMBASE@@@std@@@std@@QAEAAV01@ABV01@@Z 100edde0 f i NMListWidget.obj
 0002:0007fe90       ??4?$vector@PAVCNMUnitWidget@SKINGDI@NMBASE@@V?$allocator@PAVCNMUnitWidget@SKINGDI@NMBASE@@@std@@@std@@QAEAAV01@ABV01@@Z 100ede90 f i NMListWidget.obj
 0002:0007ff40       ??4CNMListWidget@SKINGDI@NMBASE@@QAEAAV012@ABV012@@Z 100edf40 f i NMListWidget.obj
 0002:000800e0       ??4CNMUnitWidget@SKINGDI@NMBASE@@QAEAAV012@ABV012@@Z 100ee0e0 f i NMListWidget.obj
 0002:000802b0       ??8?$_Vector_const_iterator@V?$_Vector_val@U?$_Simple_types@PAVCNMButton@SKINGDI@NMBASE@@@std@@@std@@@std@@QBE_NABV01@@Z 100ee2b0 f i NMListWidget.obj
 0002:00080340       ??9?$_Vector_const_iterator@V?$_Vector_val@U?$_Simple_types@PAVCNMButton@SKINGDI@NMBASE@@@std@@@std@@@std@@QBE_NABV01@@Z 100ee340 f i NMListWidget.obj
 0002:000803d0       ??A?$vector@PAVCNMButton@SKINGDI@NMBASE@@V?$allocator@PAVCNMButton@SKINGDI@NMBASE@@@std@@@std@@QAEAAPAVCNMButton@SKINGDI@NMBASE@@I@Z 100ee3d0 f i NMListWidget.obj
 0002:000804c0       ??A?$vector@PAVCNMUnitWidget@SKINGDI@NMBASE@@V?$allocator@PAVCNMUnitWidget@SKINGDI@NMBASE@@@std@@@std@@QAEAAPAVCNMUnitWidget@SKINGDI@NMBASE@@I@Z 100ee4c0 f i NMListWidget.obj
 0002:000805b0       ??D?$_Vector_const_iterator@V?$_Vector_val@U?$_Simple_types@PAVCNMButton@SKINGDI@NMBASE@@@std@@@std@@@std@@QBEABQAVCNMButton@SKINGDI@NMBASE@@XZ 100ee5b0 f i NMListWidget.obj
 0002:00080720       ??D?$_Vector_const_iterator@V?$_Vector_val@U?$_Simple_types@PAVCNMUnitWidget@SKINGDI@NMBASE@@@std@@@std@@@std@@QBEABQAVCNMUnitWidget@SKINGDI@NMBASE@@XZ 100ee720 f i NMListWidget.obj
 0002:00080890       ??D?$_Vector_iterator@V?$_Vector_val@U?$_Simple_types@PAVCNMButton@SKINGDI@NMBASE@@@std@@@std@@@std@@QBEAAPAVCNMButton@SKINGDI@NMBASE@@XZ 100ee890 f i NMListWidget.obj
 0002:000808e0       ??D?$_Vector_iterator@V?$_Vector_val@U?$_Simple_types@PAVCNMUnitWidget@SKINGDI@NMBASE@@@std@@@std@@@std@@QBEAAPAVCNMUnitWidget@SKINGDI@NMBASE@@XZ 100ee8e0 f i NMListWidget.obj
 0002:00080930       ??E?$_Vector_const_iterator@V?$_Vector_val@U?$_Simple_types@PAVCNMButton@SKINGDI@NMBASE@@@std@@@std@@@std@@QAEAAV01@XZ 100ee930 f i NMListWidget.obj
 0002:00080aa0       ??E?$_Vector_iterator@V?$_Vector_val@U?$_Simple_types@PAVCNMButton@SKINGDI@NMBASE@@@std@@@std@@@std@@QAE?AV01@H@Z 100eeaa0 f i NMListWidget.obj
 0002:00080bc0       ??E?$_Vector_iterator@V?$_Vector_val@U?$_Simple_types@PAVCNMButton@SKINGDI@NMBASE@@@std@@@std@@@std@@QAEAAV01@XZ 100eebc0 f i NMListWidget.obj
 0002:00080c20       ??H?$_Vector_iterator@V?$_Vector_val@U?$_Simple_types@PAVCNMUnitWidget@SKINGDI@NMBASE@@@std@@@std@@@std@@QBE?AV01@H@Z 100eec20 f i NMListWidget.obj
 0002:00080d40       ??Y?$_Vector_const_iterator@V?$_Vector_val@U?$_Simple_types@PAVCNMUnitWidget@SKINGDI@NMBASE@@@std@@@std@@@std@@QAEAAV01@H@Z 100eed40 f i NMListWidget.obj
 0002:00080db0       ??Y?$_Vector_iterator@V?$_Vector_val@U?$_Simple_types@PAVCNMUnitWidget@SKINGDI@NMBASE@@@std@@@std@@@std@@QAEAAV01@H@Z 100eedb0 f i NMListWidget.obj
 0002:00080e10       ??_ECNMListWidget@SKINGDI@NMBASE@@UAEPAXI@Z 100eee10 f i NMListWidget.obj
 0002:00080f20       ??_ECNMUnitWidget@SKINGDI@NMBASE@@UAEPAXI@Z 100eef20 f i NMListWidget.obj
 0002:00081030       ??_GCNMListWidget@SKINGDI@NMBASE@@UAEPAXI@Z 100ef030 f i NMListWidget.obj
 0002:000810b0       ??_GCNMUnitWidget@SKINGDI@NMBASE@@UAEPAXI@Z 100ef0b0 f i NMListWidget.obj
 0002:00081130       ?AddSortButton@CNMListWidget@SKINGDI@NMBASE@@UAEXPAVCNMButton@23@@Z 100ef130 f   NMListWidget.obj
 0002:000812f0       ?CreateWidget@CNMListWidget@SKINGDI@NMBASE@@UAEHPAVCWnd@@@Z 100ef2f0 f   NMListWidget.obj
 0002:00081390       ?DrawWidget@CNMListWidget@SKINGDI@NMBASE@@UAEXAAVCPage@GRAPHICGDI@3@AAVCDC@@@Z 100ef390 f   NMListWidget.obj
 0002:000813f0       ?EnterWidget@CNMListWidget@SKINGDI@NMBASE@@UAEXXZ 100ef3f0 f   NMListWidget.obj
 0002:00081440       ?GetControlD@CNMUnitWidget@SKINGDI@NMBASE@@QAEHXZ 100ef440 f i NMListWidget.obj
 0002:00081480       ?GetSortButton@CNMListWidget@SKINGDI@NMBASE@@UAEPAVCNMButton@23@H@Z 100ef480 f   NMListWidget.obj
 0002:00081560       ?Initialize@CNMListWidget@SKINGDI@NMBASE@@UAEHHPAVCWnd@@PAVxSprite@GRAPHICGDI@3@HH@Z 100ef560 f   NMListWidget.obj
 0002:000815e0       ?OnCommandWidget@CNMListWidget@SKINGDI@NMBASE@@UAEHHIJ@Z 100ef5e0 f   NMListWidget.obj
 0002:00081770       ?OnMouseMoveWidget@CNMListWidget@SKINGDI@NMBASE@@UAEHIVCPoint@@@Z 100ef770 f   NMListWidget.obj
 0002:000817d0       ?OnResetDataList@CNMListWidget@SKINGDI@NMBASE@@UAEXXZ 100ef7d0 f   NMListWidget.obj
 0002:000818c0       ?RemoveSortButton@CNMListWidget@SKINGDI@NMBASE@@UAEHH@Z 100ef8c0 f   NMListWidget.obj
 0002:00081b50       ?RenewalList@CNMListWidget@SKINGDI@NMBASE@@UAEHXZ 100efb50 f   NMListWidget.obj
 0002:00081ba0       ?Reposition@CNMListWidget@SKINGDI@NMBASE@@QAEXHH@Z 100efba0 f   NMListWidget.obj
 0002:00081c50       ?RepositionButtons@CNMListWidget@SKINGDI@NMBASE@@MAEXXZ 100efc50 f   NMListWidget.obj
 0002:00081de0       ?RepositionScroll@CNMListWidget@SKINGDI@NMBASE@@MAEXXZ 100efde0 f   NMListWidget.obj
 0002:00082290       ?RepositionUnit@CNMListWidget@SKINGDI@NMBASE@@MAEXXZ 100f0290 f   NMListWidget.obj
 0002:00082530       ?SetScrollButton@CNMListWidget@SKINGDI@NMBASE@@UAEXPAVCNMButton@23@0PAVCNMThumButton@23@@Z 100f0530 f   NMListWidget.obj
 0002:000826c0       ?SetScrollTop@CNMListWidget@SKINGDI@NMBASE@@QAEXXZ 100f06c0 f   NMListWidget.obj
 0002:00082720       ?SetSpaceBetweenButtons@CNMListWidget@SKINGDI@NMBASE@@QAEXH@Z 100f0720 f i NMListWidget.obj
 0002:00082770       ?SetSpaceBetweenUnits@CNMListWidget@SKINGDI@NMBASE@@QAEXH@Z 100f0770 f i NMListWidget.obj
 0002:000827c0       ?SetSpaceScrollRect@CNMListWidget@SKINGDI@NMBASE@@QAEXH@Z 100f07c0 f i NMListWidget.obj
 0002:00082810       ?SetUnitSize@CNMListWidget@SKINGDI@NMBASE@@QAEXHH@Z 100f0810 f   NMListWidget.obj
 0002:00082bd0       ?_Alloc_proxy@?$_Vector_alloc@U?$_Vec_base_types@PAVCNMButton@SKINGDI@NMBASE@@V?$allocator@PAVCNMButton@SKINGDI@NMBASE@@@std@@@std@@@std@@QAEXXZ 100f0bd0 f i NMListWidget.obj
 0002:00082cf0       ?_Alloc_proxy@?$_Vector_alloc@U?$_Vec_base_types@PAVCNMUnitWidget@SKINGDI@NMBASE@@V?$allocator@PAVCNMUnitWidget@SKINGDI@NMBASE@@@std@@@std@@@std@@QAEXXZ 100f0cf0 f i NMListWidget.obj
 0002:00082e10       ?_Buy@?$vector@PAVCNMButton@SKINGDI@NMBASE@@V?$allocator@PAVCNMButton@SKINGDI@NMBASE@@@std@@@std@@AAE_NI@Z 100f0e10 f i NMListWidget.obj
 0002:00082f20       ?_Buy@?$vector@PAVCNMUnitWidget@SKINGDI@NMBASE@@V?$allocator@PAVCNMUnitWidget@SKINGDI@NMBASE@@@std@@@std@@AAE_NI@Z 100f0f20 f i NMListWidget.obj
 0002:00083030       ?_Calculate_growth@?$vector@PAVCNMButton@SKINGDI@NMBASE@@V?$allocator@PAVCNMButton@SKINGDI@NMBASE@@@std@@@std@@ABEII@Z 100f1030 f i NMListWidget.obj
 0002:000830d0       ?_Calculate_growth@?$vector@PAVCNMUnitWidget@SKINGDI@NMBASE@@V?$allocator@PAVCNMUnitWidget@SKINGDI@NMBASE@@@std@@@std@@ABEII@Z 100f10d0 f i NMListWidget.obj
 0002:00083170       ?_Change_array@?$vector@PAVCNMButton@SKINGDI@NMBASE@@V?$allocator@PAVCNMButton@SKINGDI@NMBASE@@@std@@@std@@AAEXQAPAVCNMButton@SKINGDI@NMBASE@@II@Z 100f1170 f i NMListWidget.obj
 0002:00083270       ?_Change_array@?$vector@PAVCNMUnitWidget@SKINGDI@NMBASE@@V?$allocator@PAVCNMUnitWidget@SKINGDI@NMBASE@@@std@@@std@@AAEXQAPAVCNMUnitWidget@SKINGDI@NMBASE@@II@Z 100f1270 f i NMListWidget.obj
 0002:00083370       ?_Compat@?$_Vector_const_iterator@V?$_Vector_val@U?$_Simple_types@PAVCNMButton@SKINGDI@NMBASE@@@std@@@std@@@std@@QBEXABV12@@Z 100f1370 f i NMListWidget.obj
 0002:00083450       ?_Copy_alloc@?$_Vector_alloc@U?$_Vec_base_types@PAVCNMButton@SKINGDI@NMBASE@@V?$allocator@PAVCNMButton@SKINGDI@NMBASE@@@std@@@std@@@std@@QAEXABV?$allocator@PAVCNMButton@SKINGDI@NMBASE@@@2@@Z 100f1450 f i NMListWidget.obj
 0002:000834e0       ?_Copy_alloc@?$_Vector_alloc@U?$_Vec_base_types@PAVCNMUnitWidget@SKINGDI@NMBASE@@V?$allocator@PAVCNMUnitWidget@SKINGDI@NMBASE@@@std@@@std@@@std@@QAEXABV?$allocator@PAVCNMUnitWidget@SKINGDI@NMBASE@@@2@@Z 100f14e0 f i NMListWidget.obj
 0002:00083570       ?_Destroy@?$vector@PAVCNMButton@SKINGDI@NMBASE@@V?$allocator@PAVCNMButton@SKINGDI@NMBASE@@@std@@@std@@AAEXPAPAVCNMButton@SKINGDI@NMBASE@@0@Z 100f1570 f i NMListWidget.obj
 0002:000835e0       ?_Destroy@?$vector@PAVCNMUnitWidget@SKINGDI@NMBASE@@V?$allocator@PAVCNMUnitWidget@SKINGDI@NMBASE@@@std@@@std@@AAEXPAPAVCNMUnitWidget@SKINGDI@NMBASE@@0@Z 100f15e0 f i NMListWidget.obj
 0002:00083650       ?_Free_proxy@?$_Vector_alloc@U?$_Vec_base_types@PAVCNMButton@SKINGDI@NMBASE@@V?$allocator@PAVCNMButton@SKINGDI@NMBASE@@@std@@@std@@@std@@QAEXXZ 100f1650 f i NMListWidget.obj
 0002:00083750       ?_Free_proxy@?$_Vector_alloc@U?$_Vec_base_types@PAVCNMUnitWidget@SKINGDI@NMBASE@@V?$allocator@PAVCNMUnitWidget@SKINGDI@NMBASE@@@std@@@std@@@std@@QAEXXZ 100f1750 f i NMListWidget.obj
 0002:00083850       ?_Get_data@?$_Vector_alloc@U?$_Vec_base_types@PAVCNMButton@SKINGDI@NMBASE@@V?$allocator@PAVCNMButton@SKINGDI@NMBASE@@@std@@@std@@@std@@QAEAAV?$_Vector_val@U?$_Simple_types@PAVCNMButton@SKINGDI@NMBASE@@@std@@@2@XZ 100f1850 f i NMListWidget.obj
 0002:000838a0       ?_Get_data@?$_Vector_alloc@U?$_Vec_base_types@PAVCNMButton@SKINGDI@NMBASE@@V?$allocator@PAVCNMButton@SKINGDI@NMBASE@@@std@@@std@@@std@@QBEABV?$_Vector_val@U?$_Simple_types@PAVCNMButton@SKINGDI@NMBASE@@@std@@@2@XZ 100f18a0 f i NMListWidget.obj
 0002:000838f0       ?_Get_data@?$_Vector_alloc@U?$_Vec_base_types@PAVCNMUnitWidget@SKINGDI@NMBASE@@V?$allocator@PAVCNMUnitWidget@SKINGDI@NMBASE@@@std@@@std@@@std@@QAEAAV?$_Vector_val@U?$_Simple_types@PAVCNMUnitWidget@SKINGDI@NMBASE@@@std@@@2@XZ 100f18f0 f i NMListWidget.obj
 0002:00083940       ?_Get_data@?$_Vector_alloc@U?$_Vec_base_types@PAVCNMUnitWidget@SKINGDI@NMBASE@@V?$allocator@PAVCNMUnitWidget@SKINGDI@NMBASE@@@std@@@std@@@std@@QBEABV?$_Vector_val@U?$_Simple_types@PAVCNMUnitWidget@SKINGDI@NMBASE@@@std@@@2@XZ 100f1940 f i NMListWidget.obj
 0002:00083990       ?_Get_first@?$_Compressed_pair@V?$allocator@PAVCNMButton@SKINGDI@NMBASE@@@std@@V?$_Vector_val@U?$_Simple_types@PAVCNMButton@SKINGDI@NMBASE@@@std@@@2@$00@std@@QAEAAV?$allocator@PAVCNMButton@SKINGDI@NMBASE@@@2@XZ 100f1990 f i NMListWidget.obj
 0002:000839d0       ?_Get_first@?$_Compressed_pair@V?$allocator@PAVCNMButton@SKINGDI@NMBASE@@@std@@V?$_Vector_val@U?$_Simple_types@PAVCNMButton@SKINGDI@NMBASE@@@std@@@2@$00@std@@QBEABV?$allocator@PAVCNMButton@SKINGDI@NMBASE@@@2@XZ 100f19d0 f i NMListWidget.obj
 0002:00083a10       ?_Get_first@?$_Compressed_pair@V?$allocator@PAVCNMUnitWidget@SKINGDI@NMBASE@@@std@@V?$_Vector_val@U?$_Simple_types@PAVCNMUnitWidget@SKINGDI@NMBASE@@@std@@@2@$00@std@@QAEAAV?$allocator@PAVCNMUnitWidget@SKINGDI@NMBASE@@@2@XZ 100f1a10 f i NMListWidget.obj
 0002:00083a50       ?_Get_first@?$_Compressed_pair@V?$allocator@PAVCNMUnitWidget@SKINGDI@NMBASE@@@std@@V?$_Vector_val@U?$_Simple_types@PAVCNMUnitWidget@SKINGDI@NMBASE@@@std@@@2@$00@std@@QBEABV?$allocator@PAVCNMUnitWidget@SKINGDI@NMBASE@@@2@XZ 100f1a50 f i NMListWidget.obj
 0002:00083a90       ?_Get_second@?$_Compressed_pair@V?$allocator@PAVCNMButton@SKINGDI@NMBASE@@@std@@V?$_Vector_val@U?$_Simple_types@PAVCNMButton@SKINGDI@NMBASE@@@std@@@2@$00@std@@QAEAAV?$_Vector_val@U?$_Simple_types@PAVCNMButton@SKINGDI@NMBASE@@@std@@@2@XZ 100f1a90 f i NMListWidget.obj
 0002:00083ad0       ?_Get_second@?$_Compressed_pair@V?$allocator@PAVCNMButton@SKINGDI@NMBASE@@@std@@V?$_Vector_val@U?$_Simple_types@PAVCNMButton@SKINGDI@NMBASE@@@std@@@2@$00@std@@QBEABV?$_Vector_val@U?$_Simple_types@PAVCNMButton@SKINGDI@NMBASE@@@std@@@2@XZ 100f1ad0 f i NMListWidget.obj
 0002:00083b10       ?_Get_second@?$_Compressed_pair@V?$allocator@PAVCNMUnitWidget@SKINGDI@NMBASE@@@std@@V?$_Vector_val@U?$_Simple_types@PAVCNMUnitWidget@SKINGDI@NMBASE@@@std@@@2@$00@std@@QAEAAV?$_Vector_val@U?$_Simple_types@PAVCNMUnitWidget@SKINGDI@NMBASE@@@std@@@2@XZ 100f1b10 f i NMListWidget.obj
 0002:00083b50       ?_Get_second@?$_Compressed_pair@V?$allocator@PAVCNMUnitWidget@SKINGDI@NMBASE@@@std@@V?$_Vector_val@U?$_Simple_types@PAVCNMUnitWidget@SKINGDI@NMBASE@@@std@@@2@$00@std@@QBEABV?$_Vector_val@U?$_Simple_types@PAVCNMUnitWidget@SKINGDI@NMBASE@@@std@@@2@XZ 100f1b50 f i NMListWidget.obj
 0002:00083b90       ?_Getal@?$_Vector_alloc@U?$_Vec_base_types@PAVCNMButton@SKINGDI@NMBASE@@V?$allocator@PAVCNMButton@SKINGDI@NMBASE@@@std@@@std@@@std@@QAEAAV?$allocator@PAVCNMButton@SKINGDI@NMBASE@@@2@XZ 100f1b90 f i NMListWidget.obj
 0002:00083be0       ?_Getal@?$_Vector_alloc@U?$_Vec_base_types@PAVCNMButton@SKINGDI@NMBASE@@V?$allocator@PAVCNMButton@SKINGDI@NMBASE@@@std@@@std@@@std@@QBEABV?$allocator@PAVCNMButton@SKINGDI@NMBASE@@@2@XZ 100f1be0 f i NMListWidget.obj
 0002:00083c30       ?_Getal@?$_Vector_alloc@U?$_Vec_base_types@PAVCNMUnitWidget@SKINGDI@NMBASE@@V?$allocator@PAVCNMUnitWidget@SKINGDI@NMBASE@@@std@@@std@@@std@@QAEAAV?$allocator@PAVCNMUnitWidget@SKINGDI@NMBASE@@@2@XZ 100f1c30 f i NMListWidget.obj
 0002:00083c80       ?_Getal@?$_Vector_alloc@U?$_Vec_base_types@PAVCNMUnitWidget@SKINGDI@NMBASE@@V?$allocator@PAVCNMUnitWidget@SKINGDI@NMBASE@@@std@@@std@@@std@@QBEABV?$allocator@PAVCNMUnitWidget@SKINGDI@NMBASE@@@2@XZ 100f1c80 f i NMListWidget.obj
 0002:00083cd0       ?_Getpfirst@?$_Vector_alloc@U?$_Vec_base_types@PAVCNMButton@SKINGDI@NMBASE@@V?$allocator@PAVCNMButton@SKINGDI@NMBASE@@@std@@@std@@@std@@QBEPAPAU_Iterator_base12@2@XZ 100f1cd0 f i NMListWidget.obj
 0002:00083d30       ?_Getpfirst@?$_Vector_alloc@U?$_Vec_base_types@PAVCNMUnitWidget@SKINGDI@NMBASE@@V?$allocator@PAVCNMUnitWidget@SKINGDI@NMBASE@@@std@@@std@@@std@@QBEPAPAU_Iterator_base12@2@XZ 100f1d30 f i NMListWidget.obj
 0002:00083d90       ?_Has_unused_capacity@?$vector@PAVCNMButton@SKINGDI@NMBASE@@V?$allocator@PAVCNMButton@SKINGDI@NMBASE@@@std@@@std@@ABE_NXZ 100f1d90 f i NMListWidget.obj
 0002:00083e20       ?_Has_unused_capacity@?$vector@PAVCNMUnitWidget@SKINGDI@NMBASE@@V?$allocator@PAVCNMUnitWidget@SKINGDI@NMBASE@@@std@@@std@@ABE_NXZ 100f1e20 f i NMListWidget.obj
 0002:00083eb0       ?_Myend@?$_Vector_alloc@U?$_Vec_base_types@PAVCNMButton@SKINGDI@NMBASE@@V?$allocator@PAVCNMButton@SKINGDI@NMBASE@@@std@@@std@@@std@@QAEAAPAPAVCNMButton@SKINGDI@NMBASE@@XZ 100f1eb0 f i NMListWidget.obj
 0002:00083f10       ?_Myend@?$_Vector_alloc@U?$_Vec_base_types@PAVCNMButton@SKINGDI@NMBASE@@V?$allocator@PAVCNMButton@SKINGDI@NMBASE@@@std@@@std@@@std@@QBEABQAPAVCNMButton@SKINGDI@NMBASE@@XZ 100f1f10 f i NMListWidget.obj
 0002:00083f70       ?_Myend@?$_Vector_alloc@U?$_Vec_base_types@PAVCNMUnitWidget@SKINGDI@NMBASE@@V?$allocator@PAVCNMUnitWidget@SKINGDI@NMBASE@@@std@@@std@@@std@@QAEAAPAPAVCNMUnitWidget@SKINGDI@NMBASE@@XZ 100f1f70 f i NMListWidget.obj
 0002:00083fd0       ?_Myend@?$_Vector_alloc@U?$_Vec_base_types@PAVCNMUnitWidget@SKINGDI@NMBASE@@V?$allocator@PAVCNMUnitWidget@SKINGDI@NMBASE@@@std@@@std@@@std@@QBEABQAPAVCNMUnitWidget@SKINGDI@NMBASE@@XZ 100f1fd0 f i NMListWidget.obj
 0002:00084030       ?_Myfirst@?$_Vector_alloc@U?$_Vec_base_types@PAVCNMButton@SKINGDI@NMBASE@@V?$allocator@PAVCNMButton@SKINGDI@NMBASE@@@std@@@std@@@std@@QAEAAPAPAVCNMButton@SKINGDI@NMBASE@@XZ 100f2030 f i NMListWidget.obj
 0002:00084090       ?_Myfirst@?$_Vector_alloc@U?$_Vec_base_types@PAVCNMButton@SKINGDI@NMBASE@@V?$allocator@PAVCNMButton@SKINGDI@NMBASE@@@std@@@std@@@std@@QBEABQAPAVCNMButton@SKINGDI@NMBASE@@XZ 100f2090 f i NMListWidget.obj
 0002:000840f0       ?_Myfirst@?$_Vector_alloc@U?$_Vec_base_types@PAVCNMUnitWidget@SKINGDI@NMBASE@@V?$allocator@PAVCNMUnitWidget@SKINGDI@NMBASE@@@std@@@std@@@std@@QAEAAPAPAVCNMUnitWidget@SKINGDI@NMBASE@@XZ 100f20f0 f i NMListWidget.obj
 0002:00084150       ?_Myfirst@?$_Vector_alloc@U?$_Vec_base_types@PAVCNMUnitWidget@SKINGDI@NMBASE@@V?$allocator@PAVCNMUnitWidget@SKINGDI@NMBASE@@@std@@@std@@@std@@QBEABQAPAVCNMUnitWidget@SKINGDI@NMBASE@@XZ 100f2150 f i NMListWidget.obj
 0002:000841b0       ?_Mylast@?$_Vector_alloc@U?$_Vec_base_types@PAVCNMButton@SKINGDI@NMBASE@@V?$allocator@PAVCNMButton@SKINGDI@NMBASE@@@std@@@std@@@std@@QAEAAPAPAVCNMButton@SKINGDI@NMBASE@@XZ 100f21b0 f i NMListWidget.obj
 0002:00084210       ?_Mylast@?$_Vector_alloc@U?$_Vec_base_types@PAVCNMButton@SKINGDI@NMBASE@@V?$allocator@PAVCNMButton@SKINGDI@NMBASE@@@std@@@std@@@std@@QBEABQAPAVCNMButton@SKINGDI@NMBASE@@XZ 100f2210 f i NMListWidget.obj
 0002:00084270       ?_Mylast@?$_Vector_alloc@U?$_Vec_base_types@PAVCNMUnitWidget@SKINGDI@NMBASE@@V?$allocator@PAVCNMUnitWidget@SKINGDI@NMBASE@@@std@@@std@@@std@@QAEAAPAPAVCNMUnitWidget@SKINGDI@NMBASE@@XZ 100f2270 f i NMListWidget.obj
 0002:000842d0       ?_Mylast@?$_Vector_alloc@U?$_Vec_base_types@PAVCNMUnitWidget@SKINGDI@NMBASE@@V?$allocator@PAVCNMUnitWidget@SKINGDI@NMBASE@@@std@@@std@@@std@@QBEABQAPAVCNMUnitWidget@SKINGDI@NMBASE@@XZ 100f22d0 f i NMListWidget.obj
 0002:00084330       ?_Myproxy@?$_Vector_alloc@U?$_Vec_base_types@PAVCNMButton@SKINGDI@NMBASE@@V?$allocator@PAVCNMButton@SKINGDI@NMBASE@@@std@@@std@@@std@@QAEAAPAU_Container_proxy@2@XZ 100f2330 f i NMListWidget.obj
 0002:00084380       ?_Myproxy@?$_Vector_alloc@U?$_Vec_base_types@PAVCNMUnitWidget@SKINGDI@NMBASE@@V?$allocator@PAVCNMUnitWidget@SKINGDI@NMBASE@@@std@@@std@@@std@@QAEAAPAU_Container_proxy@2@XZ 100f2380 f i NMListWidget.obj
 0002:000843d0       ?_Orphan_all@?$_Vector_alloc@U?$_Vec_base_types@PAVCNMButton@SKINGDI@NMBASE@@V?$allocator@PAVCNMButton@SKINGDI@NMBASE@@@std@@@std@@@std@@QAEXXZ 100f23d0 f i NMListWidget.obj
 0002:00084430       ?_Orphan_all@?$_Vector_alloc@U?$_Vec_base_types@PAVCNMUnitWidget@SKINGDI@NMBASE@@V?$allocator@PAVCNMUnitWidget@SKINGDI@NMBASE@@@std@@@std@@@std@@QAEXXZ 100f2430 f i NMListWidget.obj
 0002:00084490       ?_Orphan_range@?$vector@PAVCNMButton@SKINGDI@NMBASE@@V?$allocator@PAVCNMButton@SKINGDI@NMBASE@@@std@@@std@@ABEXPAPAVCNMButton@SKINGDI@NMBASE@@0@Z 100f2490 f i NMListWidget.obj
 0002:00084600       ?_Orphan_range@?$vector@PAVCNMUnitWidget@SKINGDI@NMBASE@@V?$allocator@PAVCNMUnitWidget@SKINGDI@NMBASE@@@std@@@std@@ABEXPAPAVCNMUnitWidget@SKINGDI@NMBASE@@0@Z 100f2600 f i NMListWidget.obj
 0002:00084770       ?_Tidy@?$vector@PAVCNMButton@SKINGDI@NMBASE@@V?$allocator@PAVCNMButton@SKINGDI@NMBASE@@@std@@@std@@AAEXXZ 100f2770 f i NMListWidget.obj
 0002:00084860       ?_Tidy@?$vector@PAVCNMUnitWidget@SKINGDI@NMBASE@@V?$allocator@PAVCNMUnitWidget@SKINGDI@NMBASE@@@std@@@std@@AAEXXZ 100f2860 f i NMListWidget.obj
 0002:00084950       ?_Umove@?$vector@PAVCNMButton@SKINGDI@NMBASE@@V?$allocator@PAVCNMButton@SKINGDI@NMBASE@@@std@@@std@@AAEPAPAVCNMButton@SKINGDI@NMBASE@@PAPAV345@00@Z 100f2950 f i NMListWidget.obj
 0002:000849c0       ?_Umove@?$vector@PAVCNMUnitWidget@SKINGDI@NMBASE@@V?$allocator@PAVCNMUnitWidget@SKINGDI@NMBASE@@@std@@@std@@AAEPAPAVCNMUnitWidget@SKINGDI@NMBASE@@PAPAV345@00@Z 100f29c0 f i NMListWidget.obj
 0002:00084a30       ?_Umove_if_noexcept1@?$vector@PAVCNMButton@SKINGDI@NMBASE@@V?$allocator@PAVCNMButton@SKINGDI@NMBASE@@@std@@@std@@AAEXPAPAVCNMButton@SKINGDI@NMBASE@@00U?$integral_constant@_N$00@2@@Z 100f2a30 f i NMListWidget.obj
 0002:00084aa0       ?_Umove_if_noexcept1@?$vector@PAVCNMUnitWidget@SKINGDI@NMBASE@@V?$allocator@PAVCNMUnitWidget@SKINGDI@NMBASE@@@std@@@std@@AAEXPAPAVCNMUnitWidget@SKINGDI@NMBASE@@00U?$integral_constant@_N$00@2@@Z 100f2aa0 f i NMListWidget.obj
 0002:00084b10       ?_Umove_if_noexcept@?$vector@PAVCNMButton@SKINGDI@NMBASE@@V?$allocator@PAVCNMButton@SKINGDI@NMBASE@@@std@@@std@@AAEXPAPAVCNMButton@SKINGDI@NMBASE@@00@Z 100f2b10 f i NMListWidget.obj
 0002:00084b90       ?_Umove_if_noexcept@?$vector@PAVCNMUnitWidget@SKINGDI@NMBASE@@V?$allocator@PAVCNMUnitWidget@SKINGDI@NMBASE@@@std@@@std@@AAEXPAPAVCNMUnitWidget@SKINGDI@NMBASE@@00@Z 100f2b90 f i NMListWidget.obj
 0002:00084c10       ?_Verify_offset@?$_Vector_const_iterator@V?$_Vector_val@U?$_Simple_types@PAVCNMUnitWidget@SKINGDI@NMBASE@@@std@@@std@@@std@@QBEXH@Z 100f2c10 f i NMListWidget.obj
 0002:00084e20       ?_Xlength@?$vector@PAVCNMButton@SKINGDI@NMBASE@@V?$allocator@PAVCNMButton@SKINGDI@NMBASE@@@std@@@std@@CAXXZ 100f2e20 f i NMListWidget.obj
 0002:00084e70       ?_Xlength@?$vector@PAVCNMUnitWidget@SKINGDI@NMBASE@@V?$allocator@PAVCNMUnitWidget@SKINGDI@NMBASE@@@std@@@std@@CAXXZ 100f2e70 f i NMListWidget.obj
 0002:00084ec0       ?allocate@?$allocator@PAVCNMButton@SKINGDI@NMBASE@@@std@@QAEPAPAVCNMButton@SKINGDI@NMBASE@@I@Z 100f2ec0 f i NMListWidget.obj
 0002:00084f30       ?allocate@?$allocator@PAVCNMUnitWidget@SKINGDI@NMBASE@@@std@@QAEPAPAVCNMUnitWidget@SKINGDI@NMBASE@@I@Z 100f2f30 f i NMListWidget.obj
 0002:00084fa0       ?begin@?$vector@PAVCNMButton@SKINGDI@NMBASE@@V?$allocator@PAVCNMButton@SKINGDI@NMBASE@@@std@@@std@@QAE?AV?$_Vector_iterator@V?$_Vector_val@U?$_Simple_types@PAVCNMButton@SKINGDI@NMBASE@@@std@@@std@@@2@XZ 100f2fa0 f i NMListWidget.obj
 0002:00085050       ?begin@?$vector@PAVCNMUnitWidget@SKINGDI@NMBASE@@V?$allocator@PAVCNMUnitWidget@SKINGDI@NMBASE@@@std@@@std@@QAE?AV?$_Vector_iterator@V?$_Vector_val@U?$_Simple_types@PAVCNMUnitWidget@SKINGDI@NMBASE@@@std@@@std@@@2@XZ 100f3050 f i NMListWidget.obj
 0002:00085100       ?capacity@?$vector@PAVCNMButton@SKINGDI@NMBASE@@V?$allocator@PAVCNMButton@SKINGDI@NMBASE@@@std@@@std@@QBEIXZ 100f3100 f i NMListWidget.obj
 0002:00085170       ?capacity@?$vector@PAVCNMUnitWidget@SKINGDI@NMBASE@@V?$allocator@PAVCNMUnitWidget@SKINGDI@NMBASE@@@std@@@std@@QBEIXZ 100f3170 f i NMListWidget.obj
 0002:000851e0       ?deallocate@?$allocator@PAVCNMButton@SKINGDI@NMBASE@@@std@@QAEXQAPAVCNMButton@SKINGDI@NMBASE@@I@Z 100f31e0 f i NMListWidget.obj
 0002:00085240       ?deallocate@?$allocator@PAVCNMUnitWidget@SKINGDI@NMBASE@@@std@@QAEXQAPAVCNMUnitWidget@SKINGDI@NMBASE@@I@Z 100f3240 f i NMListWidget.obj
 0002:000852a0       ?end@?$vector@PAVCNMButton@SKINGDI@NMBASE@@V?$allocator@PAVCNMButton@SKINGDI@NMBASE@@@std@@@std@@QAE?AV?$_Vector_iterator@V?$_Vector_val@U?$_Simple_types@PAVCNMButton@SKINGDI@NMBASE@@@std@@@std@@@2@XZ 100f32a0 f i NMListWidget.obj
 0002:00085350       ?erase@?$vector@PAVCNMButton@SKINGDI@NMBASE@@V?$allocator@PAVCNMButton@SKINGDI@NMBASE@@@std@@@std@@QAE?AV?$_Vector_iterator@V?$_Vector_val@U?$_Simple_types@PAVCNMButton@SKINGDI@NMBASE@@@std@@@std@@@2@V?$_Vector_const_iterator@V?$_Vector_val@U?$_Simple_types@PAVCNMButton@SKINGDI@NMBASE@@@std@@@std@@@2@@Z 100f3350 f i NMListWidget.obj
 0002:000855a0       ?erase@?$vector@PAVCNMUnitWidget@SKINGDI@NMBASE@@V?$allocator@PAVCNMUnitWidget@SKINGDI@NMBASE@@@std@@@std@@QAE?AV?$_Vector_iterator@V?$_Vector_val@U?$_Simple_types@PAVCNMUnitWidget@SKINGDI@NMBASE@@@std@@@std@@@2@V?$_Vector_const_iterator@V?$_Vector_val@U?$_Simple_types@PAVCNMUnitWidget@SKINGDI@NMBASE@@@std@@@std@@@2@@Z 100f35a0 f i NMListWidget.obj
 0002:000857f0       ?max_size@?$_Default_allocator_traits@V?$allocator@PAVCNMButton@SKINGDI@NMBASE@@@std@@@std@@SAIABV?$allocator@PAVCNMButton@SKINGDI@NMBASE@@@2@@Z 100f37f0 f i NMListWidget.obj
 0002:00085830       ?max_size@?$_Default_allocator_traits@V?$allocator@PAVCNMUnitWidget@SKINGDI@NMBASE@@@std@@@std@@SAIABV?$allocator@PAVCNMUnitWidget@SKINGDI@NMBASE@@@2@@Z 100f3830 f i NMListWidget.obj
 0002:00085870       ?max_size@?$vector@PAVCNMButton@SKINGDI@NMBASE@@V?$allocator@PAVCNMButton@SKINGDI@NMBASE@@@std@@@std@@QBEIXZ 100f3870 f i NMListWidget.obj
 0002:00085900       ?max_size@?$vector@PAVCNMUnitWidget@SKINGDI@NMBASE@@V?$allocator@PAVCNMUnitWidget@SKINGDI@NMBASE@@@std@@@std@@QBEIXZ 100f3900 f i NMListWidget.obj
 0002:00085990       ?push_back@?$vector@PAVCNMButton@SKINGDI@NMBASE@@V?$allocator@PAVCNMButton@SKINGDI@NMBASE@@@std@@@std@@QAEXABQAVCNMButton@SKINGDI@NMBASE@@@Z 100f3990 f i NMListWidget.obj
 0002:000859f0       ?push_back@?$vector@PAVCNMUnitWidget@SKINGDI@NMBASE@@V?$allocator@PAVCNMUnitWidget@SKINGDI@NMBASE@@@std@@@std@@QAEXABQAVCNMUnitWidget@SKINGDI@NMBASE@@@Z 100f39f0 f i NMListWidget.obj
 0002:00085a50       ?select_on_container_copy_construction@?$_Default_allocator_traits@V?$allocator@PAVCNMButton@SKINGDI@NMBASE@@@std@@@std@@SA?AV?$allocator@PAVCNMButton@SKINGDI@NMBASE@@@2@ABV32@@Z 100f3a50 f i NMListWidget.obj
 0002:00085a90       ?select_on_container_copy_construction@?$_Default_allocator_traits@V?$allocator@PAVCNMUnitWidget@SKINGDI@NMBASE@@@std@@@std@@SA?AV?$allocator@PAVCNMUnitWidget@SKINGDI@NMBASE@@@2@ABV32@@Z 100f3a90 f i NMListWidget.obj
 0002:00085ad0       ?size@?$vector@PAVCNMButton@SKINGDI@NMBASE@@V?$allocator@PAVCNMButton@SKINGDI@NMBASE@@@std@@@std@@QBEIXZ 100f3ad0 f i NMListWidget.obj
 0002:00085b40       ?size@?$vector@PAVCNMUnitWidget@SKINGDI@NMBASE@@V?$allocator@PAVCNMUnitWidget@SKINGDI@NMBASE@@@std@@@std@@QBEIXZ 100f3b40 f i NMListWidget.obj
 0002:00085bb0       ??$?0$$V@?$_Compressed_pair@V?$allocator@U?$_List_node@UtagPLAY_DATA@CNMAudioMananger@SKINGDI@NMBASE@@PAX@std@@@std@@V?$_List_val@U?$_List_simple_types@UtagPLAY_DATA@CNMAudioMananger@SKINGDI@NMBASE@@@std@@@2@$00@std@@QAE@U_Zero_then_variadic_args_t@1@@Z 100f3bb0 f i NMResourceManager.obj
 0002:00085c10       ??$?0$$V@?$_Compressed_pair@V?$allocator@U?$_Tree_node@U?$pair@$$CBV?$basic_string@DU?$char_traits@D@std@@V?$allocator@D@2@@std@@PAVxSprite@GRAPHICGDI@NMBASE@@@std@@PAX@std@@@std@@V?$_Tree_val@U?$_Tree_simple_types@U?$pair@$$CBV?$basic_string@DU?$char_traits@D@std@@V?$allocator@D@2@@std@@PAVxSprite@GRAPHICGDI@NMBASE@@@std@@@std@@@2@$00@std@@QAE@U_Zero_then_variadic_args_t@1@@Z 100f3c10 f i NMResourceManager.obj
 0002:00085c70       ??$?0$$V@?$_Compressed_pair@V?$allocator@U?$_Tree_node@U?$pair@$$CBV?$basic_string@DU?$char_traits@D@std@@V?$allocator@D@2@@std@@V12@@std@@PAX@std@@@std@@V?$_Tree_val@U?$_Tree_simple_types@U?$pair@$$CBV?$basic_string@DU?$char_traits@D@std@@V?$allocator@D@2@@std@@V12@@std@@@std@@@2@$00@std@@QAE@U_Zero_then_variadic_args_t@1@@Z 100f3c70 f i NMResourceManager.obj
 0002:00085cd0       ??$?0AAV?$_Tree_const_iterator@V?$_Tree_val@U?$_Tree_simple_types@U?$pair@$$CBV?$basic_string@DU?$char_traits@D@std@@V?$allocator@D@2@@std@@V12@@std@@@std@@@std@@@std@@AAV01@$0A@@?$pair@V?$_Tree_const_iterator@V?$_Tree_val@U?$_Tree_simple_types@U?$pair@$$CBV?$basic_string@DU?$char_traits@D@std@@V?$allocator@D@2@@std@@V12@@std@@@std@@@std@@@std@@V12@@std@@QAE@AAV?$_Tree_const_iterator@V?$_Tree_val@U?$_Tree_simple_types@U?$pair@$$CBV?$basic_string@DU?$char_traits@D@std@@V?$allocator@D@2@@std@@V12@@std@@@std@@@std@@@1@0@Z 100f3cd0 f i NMResourceManager.obj
 0002:00085d60       ??$?0AAV?$_Tree_iterator@V?$_Tree_val@U?$_Tree_simple_types@U?$pair@$$CBV?$basic_string@DU?$char_traits@D@std@@V?$allocator@D@2@@std@@PAVxSprite@GRAPHICGDI@NMBASE@@@std@@@std@@@std@@@std@@_N$0A@@?$pair@V?$_Tree_iterator@V?$_Tree_val@U?$_Tree_simple_types@U?$pair@$$CBV?$basic_string@DU?$char_traits@D@std@@V?$allocator@D@2@@std@@PAVxSprite@GRAPHICGDI@NMBASE@@@std@@@std@@@std@@@std@@_N@std@@QAE@AAV?$_Tree_iterator@V?$_Tree_val@U?$_Tree_simple_types@U?$pair@$$CBV?$basic_string@DU?$char_traits@D@std@@V?$allocator@D@2@@std@@PAVxSprite@GRAPHICGDI@NMBASE@@@std@@@std@@@std@@@1@$$QA_N@Z 100f3d60 f i NMResourceManager.obj
 0002:00085de0       ??$?0AAV?$_Tree_iterator@V?$_Tree_val@U?$_Tree_simple_types@U?$pair@$$CBV?$basic_string@DU?$char_traits@D@std@@V?$allocator@D@2@@std@@V12@@std@@@std@@@std@@@std@@_N$0A@@?$pair@V?$_Tree_iterator@V?$_Tree_val@U?$_Tree_simple_types@U?$pair@$$CBV?$basic_string@DU?$char_traits@D@std@@V?$allocator@D@2@@std@@V12@@std@@@std@@@std@@@std@@_N@std@@QAE@AAV?$_Tree_iterator@V?$_Tree_val@U?$_Tree_simple_types@U?$pair@$$CBV?$basic_string@DU?$char_traits@D@std@@V?$allocator@D@2@@std@@V12@@std@@@std@@@std@@@1@$$QA_N@Z 100f3de0 f i NMResourceManager.obj
 0002:00085e60       ??$?0AAV?$basic_string@DU?$char_traits@D@std@@V?$allocator@D@2@@std@@AAPAVxSprite@GRAPHICGDI@NMBASE@@$0A@@?$pair@$$CBV?$basic_string@DU?$char_traits@D@std@@V?$allocator@D@2@@std@@PAVxSprite@GRAPHICGDI@NMBASE@@@std@@QAE@AAV?$basic_string@DU?$char_traits@D@std@@V?$allocator@D@2@@1@AAPAVxSprite@GRAPHICGDI@NMBASE@@@Z 100f3e60 f i NMResourceManager.obj
 0002:00085ee0       ??$?0AAV?$basic_string@DU?$char_traits@D@std@@V?$allocator@D@2@@std@@AAV01@$0A@@?$pair@$$CBV?$basic_string@DU?$char_traits@D@std@@V?$allocator@D@2@@std@@V12@@std@@QAE@AAV?$basic_string@DU?$char_traits@D@std@@V?$allocator@D@2@@1@0@Z 100f3ee0 f i NMResourceManager.obj
 0002:00085fb0       ??$?0ABU?$less@V?$basic_string@DU?$char_traits@D@std@@V?$allocator@D@2@@std@@@std@@U_Zero_then_variadic_args_t@1@@?$_Compressed_pair@U?$less@V?$basic_string@DU?$char_traits@D@std@@V?$allocator@D@2@@std@@@std@@V?$_Compressed_pair@V?$allocator@U?$_Tree_node@U?$pair@$$CBV?$basic_string@DU?$char_traits@D@std@@V?$allocator@D@2@@std@@PAVxSprite@GRAPHICGDI@NMBASE@@@std@@PAX@std@@@std@@V?$_Tree_val@U?$_Tree_simple_types@U?$pair@$$CBV?$basic_string@DU?$char_traits@D@std@@V?$allocator@D@2@@std@@PAVxSprite@GRAPHICGDI@NMBASE@@@std@@@std@@@2@$00@2@$00@std@@QAE@U_One_then_variadic_args_t@1@ABU?$less@V?$basic_string@DU?$char_traits@D@std@@V?$allocator@D@2@@std@@@1@$$QAU_Zero_then_variadic_args_t@1@@Z 100f3fb0 f i NMResourceManager.obj
 0002:00086030       ??$?0ABU?$less@V?$basic_string@DU?$char_traits@D@std@@V?$allocator@D@2@@std@@@std@@U_Zero_then_variadic_args_t@1@@?$_Compressed_pair@U?$less@V?$basic_string@DU?$char_traits@D@std@@V?$allocator@D@2@@std@@@std@@V?$_Compressed_pair@V?$allocator@U?$_Tree_node@U?$pair@$$CBV?$basic_string@DU?$char_traits@D@std@@V?$allocator@D@2@@std@@V12@@std@@PAX@std@@@std@@V?$_Tree_val@U?$_Tree_simple_types@U?$pair@$$CBV?$basic_string@DU?$char_traits@D@std@@V?$allocator@D@2@@std@@V12@@std@@@std@@@2@$00@2@$00@std@@QAE@U_One_then_variadic_args_t@1@ABU?$less@V?$basic_string@DU?$char_traits@D@std@@V?$allocator@D@2@@std@@@1@$$QAU_Zero_then_variadic_args_t@1@@Z 100f4030 f i NMResourceManager.obj
 0002:000860b0       ??$?0ABV?$allocator@D@std@@$$V@?$_Compressed_pair@V?$allocator@D@std@@V?$_String_val@U?$_Simple_types@D@std@@@2@$00@std@@QAE@U_One_then_variadic_args_t@1@ABV?$allocator@D@1@@Z 100f40b0 f i NMResourceManager.obj
 0002:00086120       ??$?0ABV?$allocator@D@std@@X@?$_String_alloc@U?$_String_base_types@DV?$allocator@D@std@@@std@@@std@@QAE@ABV?$allocator@D@1@@Z 100f4120 f i NMResourceManager.obj
 0002:000861e0       ??$?0ABV?$basic_string@DU?$char_traits@D@std@@V?$allocator@D@2@@std@@$$Z$$V@?$pair@$$CBV?$basic_string@DU?$char_traits@D@std@@V?$allocator@D@2@@std@@PAVxSprite@GRAPHICGDI@NMBASE@@@std@@QAE@Upiecewise_construct_t@1@V?$tuple@ABV?$basic_string@DU?$char_traits@D@std@@V?$allocator@D@2@@std@@@1@V?$tuple@$$V@1@@Z 100f41e0 f i NMResourceManager.obj
 0002:00086260       ??$?0ABV?$basic_string@DU?$char_traits@D@std@@V?$allocator@D@2@@std@@$0A@@?$tuple@ABV?$basic_string@DU?$char_traits@D@std@@V?$allocator@D@2@@std@@@std@@QAE@ABV?$basic_string@DU?$char_traits@D@std@@V?$allocator@D@2@@1@@Z 100f4260 f i NMResourceManager.obj
 0002:00086310       ??$?0ABV?$basic_string@DU?$char_traits@D@std@@V?$allocator@D@2@@std@@@?$_Tuple_val@ABV?$basic_string@DU?$char_traits@D@std@@V?$allocator@D@2@@std@@@std@@QAE@ABV?$basic_string@DU?$char_traits@D@std@@V?$allocator@D@2@@1@@Z 100f4310 f i NMResourceManager.obj
 0002:00086370       ??$?0U_Exact_args_t@std@@ABV?$basic_string@DU?$char_traits@D@std@@V?$allocator@D@2@@1@$$V$0A@@?$tuple@ABV?$basic_string@DU?$char_traits@D@std@@V?$allocator@D@2@@std@@@std@@QAE@U_Exact_args_t@1@ABV?$basic_string@DU?$char_traits@D@std@@V?$allocator@D@2@@1@@Z 100f4370 f i NMResourceManager.obj
 0002:00086400       ??$?0V?$_String_iterator@V?$_String_val@U?$_Simple_types@D@std@@@std@@@std@@X@?$basic_string@DU?$char_traits@D@std@@V?$allocator@D@2@@std@@QAE@V?$_String_iterator@V?$_String_val@U?$_Simple_types@D@std@@@std@@@1@0ABV?$allocator@D@1@@Z 100f4400 f i NMResourceManager.obj
 0002:00086510       ??$?0V?$_Tree_iterator@V?$_Tree_val@U?$_Tree_simple_types@U?$pair@$$CBV?$basic_string@DU?$char_traits@D@std@@V?$allocator@D@2@@std@@PAVxSprite@GRAPHICGDI@NMBASE@@@std@@@std@@@std@@@std@@_N$0A@@?$pair@V?$_Tree_iterator@V?$_Tree_val@U?$_Tree_simple_types@U?$pair@$$CBV?$basic_string@DU?$char_traits@D@std@@V?$allocator@D@2@@std@@PAVxSprite@GRAPHICGDI@NMBASE@@@std@@@std@@@std@@@std@@_N@std@@QAE@$$QAV?$_Tree_iterator@V?$_Tree_val@U?$_Tree_simple_types@U?$pair@$$CBV?$basic_string@DU?$char_traits@D@std@@V?$allocator@D@2@@std@@PAVxSprite@GRAPHICGDI@NMBASE@@@std@@@std@@@std@@@1@$$QA_N@Z 100f4510 f i NMResourceManager.obj
 0002:00086590       ??$?0V?$_Tree_iterator@V?$_Tree_val@U?$_Tree_simple_types@U?$pair@$$CBV?$basic_string@DU?$char_traits@D@std@@V?$allocator@D@2@@std@@V12@@std@@@std@@@std@@@std@@_N$0A@@?$pair@V?$_Tree_iterator@V?$_Tree_val@U?$_Tree_simple_types@U?$pair@$$CBV?$basic_string@DU?$char_traits@D@std@@V?$allocator@D@2@@std@@V12@@std@@@std@@@std@@@std@@_N@std@@QAE@$$QAV?$_Tree_iterator@V?$_Tree_val@U?$_Tree_simple_types@U?$pair@$$CBV?$basic_string@DU?$char_traits@D@std@@V?$allocator@D@2@@std@@V12@@std@@@std@@@std@@@1@$$QA_N@Z 100f4590 f i NMResourceManager.obj
 0002:00086610       ??$?0V?$tuple@ABV?$basic_string@DU?$char_traits@D@std@@V?$allocator@D@2@@std@@@std@@V?$tuple@$$V@1@$0A@$$Z$S@?$pair@$$CBV?$basic_string@DU?$char_traits@D@std@@V?$allocator@D@2@@std@@PAVxSprite@GRAPHICGDI@NMBASE@@@std@@QAE@AAV?$tuple@ABV?$basic_string@DU?$char_traits@D@std@@V?$allocator@D@2@@std@@@1@AAV?$tuple@$$V@1@U?$integer_sequence@I$0A@@1@U?$integer_sequence@I$S@1@@Z 100f4610 f i NMResourceManager.obj
 0002:00086690       ??$?9DD@std@@YA_NABV?$allocator@D@0@0@Z 100f4690 f i NMResourceManager.obj
 0002:000866c0       ??$?HDU?$char_traits@D@std@@V?$allocator@D@1@@std@@YA?AV?$basic_string@DU?$char_traits@D@std@@V?$allocator@D@2@@0@$$QAV10@ABV10@@Z 100f46c0 f i NMResourceManager.obj
 0002:00086750       ??$?HDU?$char_traits@D@std@@V?$allocator@D@1@@std@@YA?AV?$basic_string@DU?$char_traits@D@std@@V?$allocator@D@2@@0@ABV10@QBD@Z 100f4750 f i NMResourceManager.obj
 0002:000868c0       ??$?MDU?$char_traits@D@std@@V?$allocator@D@1@@std@@YA_NABV?$basic_string@DU?$char_traits@D@std@@V?$allocator@D@2@@0@0@Z 100f48c0 f i NMResourceManager.obj
 0002:00086940       ??$_Adl_verify_range1@V?$_String_iterator@V?$_String_val@U?$_Simple_types@D@std@@@std@@@std@@V12@@std@@YAXABV?$_String_iterator@V?$_String_val@U?$_Simple_types@D@std@@@std@@@0@0U?$integral_constant@_N$00@0@@Z 100f4940 f i NMResourceManager.obj
 0002:000869a0       ??$_Adl_verify_range@V?$_String_iterator@V?$_String_val@U?$_Simple_types@D@std@@@std@@@std@@V12@@std@@YAXABV?$_String_iterator@V?$_String_val@U?$_Simple_types@D@std@@@std@@@0@0@Z 100f49a0 f i NMResourceManager.obj
 0002:00086a10       ??$_Buy_if_not_node@AAU?$pair@$$CBV?$basic_string@DU?$char_traits@D@std@@V?$allocator@D@2@@std@@PAVxSprite@GRAPHICGDI@NMBASE@@@std@@@?$_Tree@V?$_Tmap_traits@V?$basic_string@DU?$char_traits@D@std@@V?$allocator@D@2@@std@@PAVxSprite@GRAPHICGDI@NMBASE@@U?$less@V?$basic_string@DU?$char_traits@D@std@@V?$allocator@D@2@@std@@@2@V?$allocator@U?$pair@$$CBV?$basic_string@DU?$char_traits@D@std@@V?$allocator@D@2@@std@@PAVxSprite@GRAPHICGDI@NMBASE@@@std@@@2@$0A@@std@@@std@@IAEPAU?$_Tree_node@U?$pair@$$CBV?$basic_string@DU?$char_traits@D@std@@V?$allocator@D@2@@std@@PAVxSprite@GRAPHICGDI@NMBASE@@@std@@PAX@1@PAU21@AAU?$pair@$$CBV?$basic_string@DU?$char_traits@D@std@@V?$allocator@D@2@@std@@PAVxSprite@GRAPHICGDI@NMBASE@@@1@@Z 100f4a10 f i NMResourceManager.obj
 0002:00086a50       ??$_Buy_if_not_node@U?$pair@$$CBV?$basic_string@DU?$char_traits@D@std@@V?$allocator@D@2@@std@@PAVxSprite@GRAPHICGDI@NMBASE@@@std@@@?$_Tree@V?$_Tmap_traits@V?$basic_string@DU?$char_traits@D@std@@V?$allocator@D@2@@std@@PAVxSprite@GRAPHICGDI@NMBASE@@U?$less@V?$basic_string@DU?$char_traits@D@std@@V?$allocator@D@2@@std@@@2@V?$allocator@U?$pair@$$CBV?$basic_string@DU?$char_traits@D@std@@V?$allocator@D@2@@std@@PAVxSprite@GRAPHICGDI@NMBASE@@@std@@@2@$0A@@std@@@std@@IAEPAU?$_Tree_node@U?$pair@$$CBV?$basic_string@DU?$char_traits@D@std@@V?$allocator@D@2@@std@@PAVxSprite@GRAPHICGDI@NMBASE@@@std@@PAX@1@U_Not_a_node_tag@1@$$QAU?$pair@$$CBV?$basic_string@DU?$char_traits@D@std@@V?$allocator@D@2@@std@@PAVxSprite@GRAPHICGDI@NMBASE@@@1@@Z 100f4a50 f i NMResourceManager.obj
 0002:00086ac0       ??$_Buy_if_not_node@U?$pair@$$CBV?$basic_string@DU?$char_traits@D@std@@V?$allocator@D@2@@std@@V12@@std@@@?$_Tree@V?$_Tmap_traits@V?$basic_string@DU?$char_traits@D@std@@V?$allocator@D@2@@std@@V12@U?$less@V?$basic_string@DU?$char_traits@D@std@@V?$allocator@D@2@@std@@@2@V?$allocator@U?$pair@$$CBV?$basic_string@DU?$char_traits@D@std@@V?$allocator@D@2@@std@@V12@@std@@@2@$00@std@@@std@@IAEPAU?$_Tree_node@U?$pair@$$CBV?$basic_string@DU?$char_traits@D@std@@V?$allocator@D@2@@std@@V12@@std@@PAX@1@U_Not_a_node_tag@1@$$QAU?$pair@$$CBV?$basic_string@DU?$char_traits@D@std@@V?$allocator@D@2@@std@@V12@@1@@Z 100f4ac0 f i NMResourceManager.obj
 0002:00086b30       ??$_Buynode@ABUpiecewise_construct_t@std@@V?$tuple@ABV?$basic_string@DU?$char_traits@D@std@@V?$allocator@D@2@@std@@@2@V?$tuple@$$V@2@@?$_Tree_comp_alloc@V?$_Tmap_traits@V?$basic_string@DU?$char_traits@D@std@@V?$allocator@D@2@@std@@PAVxSprite@GRAPHICGDI@NMBASE@@U?$less@V?$basic_string@DU?$char_traits@D@std@@V?$allocator@D@2@@std@@@2@V?$allocator@U?$pair@$$CBV?$basic_string@DU?$char_traits@D@std@@V?$allocator@D@2@@std@@PAVxSprite@GRAPHICGDI@NMBASE@@@std@@@2@$0A@@std@@@std@@QAEPAU?$_Tree_node@U?$pair@$$CBV?$basic_string@DU?$char_traits@D@std@@V?$allocator@D@2@@std@@PAVxSprite@GRAPHICGDI@NMBASE@@@std@@PAX@1@ABUpiecewise_construct_t@1@$$QAV?$tuple@ABV?$basic_string@DU?$char_traits@D@std@@V?$allocator@D@2@@std@@@1@$$QAV?$tuple@$$V@1@@Z 100f4b30 f i NMResourceManager.obj
 0002:00086c70       ??$_Buynode@U?$pair@$$CBV?$basic_string@DU?$char_traits@D@std@@V?$allocator@D@2@@std@@PAVxSprite@GRAPHICGDI@NMBASE@@@std@@@?$_Tree_comp_alloc@V?$_Tmap_traits@V?$basic_string@DU?$char_traits@D@std@@V?$allocator@D@2@@std@@PAVxSprite@GRAPHICGDI@NMBASE@@U?$less@V?$basic_string@DU?$char_traits@D@std@@V?$allocator@D@2@@std@@@2@V?$allocator@U?$pair@$$CBV?$basic_string@DU?$char_traits@D@std@@V?$allocator@D@2@@std@@PAVxSprite@GRAPHICGDI@NMBASE@@@std@@@2@$0A@@std@@@std@@QAEPAU?$_Tree_node@U?$pair@$$CBV?$basic_string@DU?$char_traits@D@std@@V?$allocator@D@2@@std@@PAVxSprite@GRAPHICGDI@NMBASE@@@std@@PAX@1@$$QAU?$pair@$$CBV?$basic_string@DU?$char_traits@D@std@@V?$allocator@D@2@@std@@PAVxSprite@GRAPHICGDI@NMBASE@@@1@@Z 100f4c70 f i NMResourceManager.obj
 0002:00086d90       ??$_Buynode@U?$pair@$$CBV?$basic_string@DU?$char_traits@D@std@@V?$allocator@D@2@@std@@V12@@std@@@?$_Tree_comp_alloc@V?$_Tmap_traits@V?$basic_string@DU?$char_traits@D@std@@V?$allocator@D@2@@std@@V12@U?$less@V?$basic_string@DU?$char_traits@D@std@@V?$allocator@D@2@@std@@@2@V?$allocator@U?$pair@$$CBV?$basic_string@DU?$char_traits@D@std@@V?$allocator@D@2@@std@@V12@@std@@@2@$00@std@@@std@@QAEPAU?$_Tree_node@U?$pair@$$CBV?$basic_string@DU?$char_traits@D@std@@V?$allocator@D@2@@std@@V12@@std@@PAX@1@$$QAU?$pair@$$CBV?$basic_string@DU?$char_traits@D@std@@V?$allocator@D@2@@std@@V12@@1@@Z 100f4d90 f i NMResourceManager.obj
 0002:00086eb0       ??$_Const_cast@$$CBD@std@@YA@PBD@Z 100f4eb0 f i NMResourceManager.obj
 0002:00086ef0       ??$_Debug_lt_pred@AAU?$less@V?$basic_string@DU?$char_traits@D@std@@V?$allocator@D@2@@std@@@std@@ABV?$basic_string@DU?$char_traits@D@std@@V?$allocator@D@2@@2@ABV32@@std@@YA_NAAU?$less@V?$basic_string@DU?$char_traits@D@std@@V?$allocator@D@2@@std@@@0@ABV?$basic_string@DU?$char_traits@D@std@@V?$allocator@D@2@@0@1@Z 100f4ef0 f i NMResourceManager.obj
 0002:00086ff0       ??$_Debug_lt_pred@ABU?$less@V?$basic_string@DU?$char_traits@D@std@@V?$allocator@D@2@@std@@@std@@ABV?$basic_string@DU?$char_traits@D@std@@V?$allocator@D@2@@2@ABV32@@std@@YA_NABU?$less@V?$basic_string@DU?$char_traits@D@std@@V?$allocator@D@2@@std@@@0@ABV?$basic_string@DU?$char_traits@D@std@@V?$allocator@D@2@@0@1@Z 100f4ff0 f i NMResourceManager.obj
 0002:000870f0       ??$_Distance1@V?$_Tree_const_iterator@V?$_Tree_val@U?$_Tree_simple_types@U?$pair@$$CBV?$basic_string@DU?$char_traits@D@std@@V?$allocator@D@2@@std@@V12@@std@@@std@@@std@@@std@@@std@@YAHV?$_Tree_const_iterator@V?$_Tree_val@U?$_Tree_simple_types@U?$pair@$$CBV?$basic_string@DU?$char_traits@D@std@@V?$allocator@D@2@@std@@V12@@std@@@std@@@std@@@0@0Uinput_iterator_tag@0@@Z 100f50f0 f i NMResourceManager.obj
 0002:000871e0       ??$_Eqrange@V?$basic_string@DU?$char_traits@D@std@@V?$allocator@D@2@@std@@@?$_Tree@V?$_Tmap_traits@V?$basic_string@DU?$char_traits@D@std@@V?$allocator@D@2@@std@@V12@U?$less@V?$basic_string@DU?$char_traits@D@std@@V?$allocator@D@2@@std@@@2@V?$allocator@U?$pair@$$CBV?$basic_string@DU?$char_traits@D@std@@V?$allocator@D@2@@std@@V12@@std@@@2@$00@std@@@std@@IBE?AU?$pair@V?$_Tree_const_iterator@V?$_Tree_val@U?$_Tree_simple_types@U?$pair@$$CBV?$basic_string@DU?$char_traits@D@std@@V?$allocator@D@2@@std@@V12@@std@@@std@@@std@@@std@@V12@@1@ABV?$basic_string@DU?$char_traits@D@std@@V?$allocator@D@2@@1@@Z 100f51e0 f i NMResourceManager.obj
 0002:000874d0       ??$_Get_unwrapped@V?$_String_iterator@V?$_String_val@U?$_Simple_types@D@std@@@std@@@std@@$0A@@std@@YA@ABV?$_String_iterator@V?$_String_val@U?$_Simple_types@D@std@@@std@@@0@@Z 100f54d0 f i NMResourceManager.obj
 0002:00087520       ??$_Insert_at@AAU?$pair@$$CBV?$basic_string@DU?$char_traits@D@std@@V?$allocator@D@2@@std@@PAVxSprite@GRAPHICGDI@NMBASE@@@std@@PAU?$_Tree_node@U?$pair@$$CBV?$basic_string@DU?$char_traits@D@std@@V?$allocator@D@2@@std@@PAVxSprite@GRAPHICGDI@NMBASE@@@std@@PAX@2@@?$_Tree@V?$_Tmap_traits@V?$basic_string@DU?$char_traits@D@std@@V?$allocator@D@2@@std@@PAVxSprite@GRAPHICGDI@NMBASE@@U?$less@V?$basic_string@DU?$char_traits@D@std@@V?$allocator@D@2@@std@@@2@V?$allocator@U?$pair@$$CBV?$basic_string@DU?$char_traits@D@std@@V?$allocator@D@2@@std@@PAVxSprite@GRAPHICGDI@NMBASE@@@std@@@2@$0A@@std@@@std@@IAE?AV?$_Tree_iterator@V?$_Tree_val@U?$_Tree_simple_types@U?$pair@$$CBV?$basic_string@DU?$char_traits@D@std@@V?$allocator@D@2@@std@@PAVxSprite@GRAPHICGDI@NMBASE@@@std@@@std@@@std@@@1@_NPAU?$_Tree_node@U?$pair@$$CBV?$basic_string@DU?$char_traits@D@std@@V?$allocator@D@2@@std@@PAVxSprite@GRAPHICGDI@NMBASE@@@std@@PAX@1@AAU?$pair@$$CBV?$basic_string@DU?$char_traits@D@std@@V?$allocator@D@2@@std@@PAVxSprite@GRAPHICGDI@NMBASE@@@1@1@Z 100f5520 f i NMResourceManager.obj
 0002:000878a0       ??$_Insert_at@U?$pair@$$CBV?$basic_string@DU?$char_traits@D@std@@V?$allocator@D@2@@std@@PAVxSprite@GRAPHICGDI@NMBASE@@@std@@U_Not_a_node_tag@2@@?$_Tree@V?$_Tmap_traits@V?$basic_string@DU?$char_traits@D@std@@V?$allocator@D@2@@std@@PAVxSprite@GRAPHICGDI@NMBASE@@U?$less@V?$basic_string@DU?$char_traits@D@std@@V?$allocator@D@2@@std@@@2@V?$allocator@U?$pair@$$CBV?$basic_string@DU?$char_traits@D@std@@V?$allocator@D@2@@std@@PAVxSprite@GRAPHICGDI@NMBASE@@@std@@@2@$0A@@std@@@std@@IAE?AV?$_Tree_iterator@V?$_Tree_val@U?$_Tree_simple_types@U?$pair@$$CBV?$basic_string@DU?$char_traits@D@std@@V?$allocator@D@2@@std@@PAVxSprite@GRAPHICGDI@NMBASE@@@std@@@std@@@std@@@1@_NPAU?$_Tree_node@U?$pair@$$CBV?$basic_string@DU?$char_traits@D@std@@V?$allocator@D@2@@std@@PAVxSprite@GRAPHICGDI@NMBASE@@@std@@PAX@1@$$QAU?$pair@$$CBV?$basic_string@DU?$char_traits@D@std@@V?$allocator@D@2@@std@@PAVxSprite@GRAPHICGDI@NMBASE@@@1@U_Not_a_node_tag@1@@Z 100f58a0 f i NMResourceManager.obj
