 nmsound_d

 Timestamp is 5d6cb0a8 (Mon Sep  2 15:03:20 2019)

 Preferred load address is 10000000

 Start         Length     Name                   Class
 0001:00000000 00036da0H .text                   CODE
 0001:00036da0 00003700H .text$di                CODE
 0001:0003a4a0 00044f00H .text$mn                CODE
 0001:0007f3a0 00004c00H .text$x                 CODE
 0001:00083fa0 0000145cH .text$yd                CODE
 0002:00000000 00000104H .CRT$XCA                DATA
 0002:00000104 00000104H .CRT$XCL                DATA
 0002:00000208 000001e0H .CRT$XCU                DATA
 0002:000003e8 00000104H .CRT$XCZ                DATA
 0002:000004ec 00000104H .CRT$XIA                DATA
 0002:000005f0 00000104H .CRT$XIC                DATA
 0002:000006f4 00000104H .CRT$XIZ                DATA
 0002:000007f8 00000004H .CRT$XLA                DATA
 0002:000007fc 00000004H .CRT$XLZ                DATA
 0002:00000800 00000104H .CRT$XPA                DATA
 0002:00000904 00000104H .CRT$XPZ                DATA
 0002:00000a08 00000104H .CRT$XTA                DATA
 0002:00000b0c 00000104H .CRT$XTZ                DATA
 0002:00000c10 0001ec84H .rdata                  DATA
 0002:0001f894 0000011cH .rdata$T                DATA
 0002:0001f9b0 000004c0H .rdata$r                DATA
 0002:0001fe70 00000574H .rdata$sxdata           DATA
 0002:000203e4 0000017cH .rdata$zzzdbg           DATA
 0002:00020560 00000104H .rtc$IAA                DATA
 0002:00020664 00000194H .rtc$IMZ                DATA
 0002:000207f8 00000104H .rtc$IZZ                DATA
 0002:000208fc 00000104H .rtc$TAA                DATA
 0002:00020a00 00000194H .rtc$TMZ                DATA
 0002:00020b94 00000104H .rtc$TZZ                DATA
 0002:00020c98 00004118H .xdata$x                DATA
 0002:00024db0 00000104H ATL$__a                 DATA
 0002:00024eb4 0000010cH ATL$__z                 DATA
 0002:00024fc0 00001b6cH .edata                  DATA
 0003:00000000 00000778H .data                   DATA
 0003:00000778 00000328H .data$r                 DATA
 0003:00000aa0 000038e0H .bss                    DATA
 0004:00000000 000004e8H .idata$5                DATA
 0004:000004e8 000000b4H .idata$2                DATA
 0004:0000059c 00000014H .idata$3                DATA
 0004:000005b0 000004e8H .idata$4                DATA
 0004:00000a98 00000ce9H .idata$6                DATA
 0005:00000000 00000104H .tls                    DATA
 0005:00000104 00000104H .tls$                   DATA
 0005:00000208 00000101H .tls$ZZZ                DATA
 0006:00000000 00000104H .00cfg                  DATA
 0007:00000000 000001c0H .rsrc$01                DATA
 0007:000001c0 00000833H .rsrc$02                DATA

  Address         Publics by Value              Rva+Base       Lib:Object

 0000:00000000       ___guard_fids_table        00000000     <absolute>
 0000:00000000       ___guard_longjmp_count     00000000     <absolute>
 0000:00000000       ___dynamic_value_reloc_table 00000000     <absolute>
 0000:00000000       ___guard_iat_table         00000000     <absolute>
 0000:00000000       ___hybrid_code_map         00000000     <absolute>
 0000:00000000       ___enclave_config          00000000     <absolute>
 0000:00000000       ___hybrid_auxiliary_iat    00000000     <absolute>
 0000:00000000       ___guard_fids_count        00000000     <absolute>
 0000:00000000       ___hybrid_code_map_count   00000000     <absolute>
 0000:00000000       ___guard_longjmp_table     00000000     <absolute>
 0000:00000000       ___guard_iat_count         00000000     <absolute>
 0000:00000000       ___volatile_metadata       00000000     <absolute>
 0000:0000002c       __tls_array                0000002c     <absolute>
 0000:000000ed       ___safe_se_handler_count   000000ed     <absolute>
 0000:00000100       ___guard_flags             00000100     <absolute>
 0000:00000000       ___ImageBase               10000000     <linker-defined>
 0001:00004320       _ov_clear                  10005320 f   vorbisfile_static_d:vorbisfile.obj
 0001:00004580       _ov_open_callbacks         10005580 f   vorbisfile_static_d:vorbisfile.obj
 0001:00006820       _ov_open                   10007820 f   vorbisfile_static_d:vorbisfile.obj
 0001:00006990       _ov_fopen                  10007990 f   vorbisfile_static_d:vorbisfile.obj
 0001:00006a50       _ov_halfrate               10007a50 f   vorbisfile_static_d:vorbisfile.obj
 0001:00006bd0       _ov_halfrate_p             10007bd0 f   vorbisfile_static_d:vorbisfile.obj
 0001:00006c40       _ov_test_callbacks         10007c40 f   vorbisfile_static_d:vorbisfile.obj
 0001:00006cc0       _ov_test                   10007cc0 f   vorbisfile_static_d:vorbisfile.obj
 0001:00006db0       _ov_test_open              10007db0 f   vorbisfile_static_d:vorbisfile.obj
 0001:00006e20       _ov_streams                10007e20 f   vorbisfile_static_d:vorbisfile.obj
 0001:00006e60       _ov_seekable               10007e60 f   vorbisfile_static_d:vorbisfile.obj
 0001:00006ea0       _ov_bitrate                10007ea0 f   vorbisfile_static_d:vorbisfile.obj
 0001:000071a0       _ov_bitrate_instant        100081a0 f   vorbisfile_static_d:vorbisfile.obj
 0001:00007290       _ov_serialnumber           10008290 f   vorbisfile_static_d:vorbisfile.obj
 0001:00007350       _ov_raw_total              10008350 f   vorbisfile_static_d:vorbisfile.obj
 0001:00007470       _ov_pcm_total              10008470 f   vorbisfile_static_d:vorbisfile.obj
 0001:00007580       _ov_time_total             10008580 f   vorbisfile_static_d:vorbisfile.obj
 0001:00007680       _ov_raw_seek               10008680 f   vorbisfile_static_d:vorbisfile.obj
 0001:00008000       _ov_pcm_seek_page          10009000 f   vorbisfile_static_d:vorbisfile.obj
 0001:00008f10       _ov_pcm_seek               10009f10 f   vorbisfile_static_d:vorbisfile.obj
 0001:00009de0       _ov_time_seek              1000ade0 f   vorbisfile_static_d:vorbisfile.obj
 0001:00009f70       _ov_time_seek_page         1000af70 f   vorbisfile_static_d:vorbisfile.obj
 0001:0000a100       _ov_raw_tell               1000b100 f   vorbisfile_static_d:vorbisfile.obj
 0001:0000a160       _ov_pcm_tell               1000b160 f   vorbisfile_static_d:vorbisfile.obj
 0001:0000a1c0       _ov_time_tell              1000b1c0 f   vorbisfile_static_d:vorbisfile.obj
 0001:0000a360       _ov_info                   1000b360 f   vorbisfile_static_d:vorbisfile.obj
 0001:0000a410       _ov_comment                1000b410 f   vorbisfile_static_d:vorbisfile.obj
 0001:0000a4c0       _ov_read_filter            1000b4c0 f   vorbisfile_static_d:vorbisfile.obj
 0001:0000ae20       _ov_read                   1000be20 f   vorbisfile_static_d:vorbisfile.obj
 0001:0000ae90       _ov_read_float             1000be90 f   vorbisfile_static_d:vorbisfile.obj
 0001:0000b040       _ov_crosslap               1000c040 f   vorbisfile_static_d:vorbisfile.obj
 0001:0000b920       _ov_raw_seek_lap           1000c920 f   vorbisfile_static_d:vorbisfile.obj
 0001:0000bd30       _ov_pcm_seek_lap           1000cd30 f   vorbisfile_static_d:vorbisfile.obj
 0001:0000bd90       _ov_pcm_seek_page_lap      1000cd90 f   vorbisfile_static_d:vorbisfile.obj
 0001:0000bdf0       _ov_time_seek_lap          1000cdf0 f   vorbisfile_static_d:vorbisfile.obj
 0001:0000c200       _ov_time_seek_page_lap     1000d200 f   vorbisfile_static_d:vorbisfile.obj
 0001:0000c260       _ogg_page_version          1000d260 f   ogg_static_d:framing.obj
 0001:0000c2a0       _ogg_page_continued        1000d2a0 f   ogg_static_d:framing.obj
 0001:0000c2e0       _ogg_page_bos              1000d2e0 f   ogg_static_d:framing.obj
 0001:0000c320       _ogg_page_eos              1000d320 f   ogg_static_d:framing.obj
 0001:0000c360       _ogg_page_granulepos       1000d360 f   ogg_static_d:framing.obj
 0001:0000c530       _ogg_page_serialno         1000d530 f   ogg_static_d:framing.obj
 0001:0000c5a0       _ogg_page_pageno           1000d5a0 f   ogg_static_d:framing.obj
 0001:0000c610       _ogg_page_packets          1000d610 f   ogg_static_d:framing.obj
 0001:0000c6b0       _ogg_stream_init           1000d6b0 f   ogg_static_d:framing.obj
 0001:0000c800       _ogg_stream_check          1000d800 f   ogg_static_d:framing.obj
 0001:0000c850       _ogg_stream_clear          1000d850 f   ogg_static_d:framing.obj
 0001:0000c930       _ogg_stream_destroy        1000d930 f   ogg_static_d:framing.obj
 0001:0000c9b0       _ogg_page_checksum_set     1000d9b0 f   ogg_static_d:framing.obj
 0001:0000cb40       _ogg_stream_iovecin        1000db40 f   ogg_static_d:framing.obj
 0001:0000d090       _ogg_stream_packetin       1000e090 f   ogg_static_d:framing.obj
 0001:0000d150       _ogg_stream_flush          1000e150 f   ogg_static_d:framing.obj
 0001:0000d760       _ogg_stream_pageout        1000e760 f   ogg_static_d:framing.obj
 0001:0000d820       _ogg_stream_pageout_fill   1000e820 f   ogg_static_d:framing.obj
 0001:0000d8e0       _ogg_stream_eos            1000e8e0 f   ogg_static_d:framing.obj
 0001:0000d950       _ogg_sync_init             1000e950 f   ogg_static_d:framing.obj
 0001:0000d9c0       _ogg_sync_clear            1000e9c0 f   ogg_static_d:framing.obj
 0001:0000da50       _ogg_sync_destroy          1000ea50 f   ogg_static_d:framing.obj
 0001:0000dad0       _ogg_sync_check            1000ead0 f   ogg_static_d:framing.obj
 0001:0000db20       _ogg_sync_buffer           1000eb20 f   ogg_static_d:framing.obj
 0001:0000dcb0       _ogg_sync_wrote            1000ecb0 f   ogg_static_d:framing.obj
 0001:0000dd40       _ogg_sync_pageseek         1000ed40 f   ogg_static_d:framing.obj
 0001:0000e0b0       _ogg_sync_pageout          1000f0b0 f   ogg_static_d:framing.obj
 0001:0000e160       _ogg_stream_pagein         1000f160 f   ogg_static_d:framing.obj
 0001:0000e7d0       _ogg_sync_reset            1000f7d0 f   ogg_static_d:framing.obj
 0001:0000e870       _ogg_stream_reset          1000f870 f   ogg_static_d:framing.obj
 0001:0000e990       _ogg_stream_reset_serialno 1000f990 f   ogg_static_d:framing.obj
 0001:0000ea10       _ogg_stream_packetout      1000fa10 f   ogg_static_d:framing.obj
 0001:0000ecd0       _ogg_stream_packetpeek     1000fcd0 f   ogg_static_d:framing.obj
 0001:0000ed40       _ogg_packet_clear          1000fd40 f   ogg_static_d:framing.obj
 0001:0000edb0       _vorbis_comment_init       1000fdb0 f   vorbis_static_d:info.obj
 0001:0000ee10       _vorbis_comment_add        1000fe10 f   vorbis_static_d:info.obj
 0001:0000ef70       _vorbis_comment_add_tag    1000ff70 f   vorbis_static_d:info.obj
 0001:0000f0d0       _vorbis_comment_query      100100d0 f   vorbis_static_d:info.obj
 0001:0000f350       _vorbis_comment_query_count 10010350 f   vorbis_static_d:info.obj
 0001:0000f4f0       _vorbis_comment_clear      100104f0 f   vorbis_static_d:info.obj
 0001:0000f630       _vorbis_info_blocksize     10010630 f   vorbis_static_d:info.obj
 0001:0000f6a0       _vorbis_info_init          100106a0 f   vorbis_static_d:info.obj
 0001:0000f720       _vorbis_info_clear         10010720 f   vorbis_static_d:info.obj
 0001:0000fa70       _vorbis_synthesis_idheader 10010a70 f   vorbis_static_d:info.obj
 0001:0000fc60       _vorbis_synthesis_headerin 10010c60 f   vorbis_static_d:info.obj
 0001:00010920       _vorbis_commentheader_out  10011920 f   vorbis_static_d:info.obj
 0001:00010cb0       _vorbis_analysis_headerout 10011cb0 f   vorbis_static_d:info.obj
 0001:00011810       _vorbis_granule_time       10012810 f   vorbis_static_d:info.obj
 0001:000118f0       _vorbis_version_string     100128f0 f   vorbis_static_d:info.obj
 0001:00011930       _vorbis_block_init         10012930 f   vorbis_static_d:block.obj
 0001:00011a80       __vorbis_block_alloc       10012a80 f   vorbis_static_d:block.obj
 0001:00011bc0       __vorbis_block_ripcord     10012bc0 f   vorbis_static_d:block.obj
 0001:00011d00       _vorbis_block_clear        10012d00 f   vorbis_static_d:block.obj
 0001:00011e20       _vorbis_analysis_init      10012e20 f   vorbis_static_d:block.obj
 0001:000126e0       _vorbis_dsp_clear          100136e0 f   vorbis_static_d:block.obj
 0001:00012bf0       _vorbis_analysis_buffer    10013bf0 f   vorbis_static_d:block.obj
 0001:00012de0       _vorbis_analysis_wrote     10013de0 f   vorbis_static_d:block.obj
 0001:00013410       _vorbis_analysis_blockout  10014410 f   vorbis_static_d:block.obj
 0001:00013a30       _vorbis_synthesis_restart  10014a30 f   vorbis_static_d:block.obj
 0001:00013b50       _vorbis_synthesis_init     10014b50 f   vorbis_static_d:block.obj
 0001:00013be0       _vorbis_synthesis_blockin  10014be0 f   vorbis_static_d:block.obj
 0001:00014830       _vorbis_synthesis_pcmout   10015830 f   vorbis_static_d:block.obj
 0001:00014900       _vorbis_synthesis_read     10015900 f   vorbis_static_d:block.obj
 0001:00014970       _vorbis_synthesis_lapout   10015970 f   vorbis_static_d:block.obj
 0001:00014d70       _vorbis_window             10015d70 f   vorbis_static_d:block.obj
 0001:00014e20       _vorbis_synthesis          10015e20 f   vorbis_static_d:synthesis.obj
 0001:000151e0       _vorbis_synthesis_trackonly 100161e0 f   vorbis_static_d:synthesis.obj
 0001:000153e0       _vorbis_packet_blocksize   100163e0 f   vorbis_static_d:synthesis.obj
 0001:00015520       _vorbis_synthesis_halfrate 10016520 f   vorbis_static_d:synthesis.obj
 0001:00015590       _vorbis_synthesis_halfrate_p 10016590 f   vorbis_static_d:synthesis.obj
 0001:000155e0       __vp_global_look           100165e0 f   vorbis_static_d:psy.obj
 0001:00015690       __vp_global_free           10016690 f   vorbis_static_d:psy.obj
 0001:00015710       __vi_gpsy_free             10016710 f   vorbis_static_d:psy.obj
 0001:00015790       __vi_psy_free              10016790 f   vorbis_static_d:psy.obj
 0001:00015810       __vp_psy_init              10016810 f   vorbis_static_d:psy.obj
 0001:00017560       __vp_psy_clear             10018560 f   vorbis_static_d:psy.obj
 0001:00017780       __vp_noisemask             10018780 f   vorbis_static_d:psy.obj
 0001:000187b0       __vp_tonemask              100197b0 f   vorbis_static_d:psy.obj
 0001:00019310       __vp_offset_and_mix        1001a310 f   vorbis_static_d:psy.obj
 0001:000194f0       __vp_ampmax_decay          1001a4f0 f   vorbis_static_d:psy.obj
 0001:000195a0       __vp_couple_quantize_normalize 1001a5a0 f   vorbis_static_d:psy.obj
 0001:0001b110       __ilog                     1001c110 f   vorbis_static_d:sharedbook.obj
 0001:0001b170       __float32_pack             1001c170 f   vorbis_static_d:sharedbook.obj
 0001:0001b2c0       __float32_unpack           1001c2c0 f   vorbis_static_d:sharedbook.obj
 0001:0001b390       __make_words               1001c390 f   vorbis_static_d:sharedbook.obj
 0001:0001b7e0       __book_maptype1_quantvals  1001c7e0 f   vorbis_static_d:sharedbook.obj
 0001:0001b930       __book_unquantize          1001c930 f   vorbis_static_d:sharedbook.obj
 0001:0001bce0       _vorbis_staticbook_destroy 1001cce0 f   vorbis_static_d:sharedbook.obj
 0001:0001bdb0       _vorbis_book_clear         1001cdb0 f   vorbis_static_d:sharedbook.obj
 0001:0001bee0       _vorbis_book_init_encode   1001cee0 f   vorbis_static_d:sharedbook.obj
 0001:0001c040       _vorbis_book_init_decode   1001d040 f   vorbis_static_d:sharedbook.obj
 0001:0001c9b0       _vorbis_book_codeword      1001d9b0 f   vorbis_static_d:sharedbook.obj
 0001:0001ca00       _vorbis_book_codelen       1001da00 f   vorbis_static_d:sharedbook.obj
 0001:0001ca60       _vorbis_staticbook_pack    1001da60 f   vorbis_static_d:codebook.obj
 0001:0001cfa0       _vorbis_staticbook_unpack  1001dfa0 f   vorbis_static_d:codebook.obj
 0001:0001d5f0       _vorbis_book_encode        1001e5f0 f   vorbis_static_d:codebook.obj
 0001:0001d6a0       _vorbis_book_decode        1001e6a0 f   vorbis_static_d:codebook.obj
 0001:0001da30       _vorbis_book_decodevs_add  1001ea30 f   vorbis_static_d:codebook.obj
 0001:0001dcb0       _vorbis_book_decodev_add   1001ecb0 f   vorbis_static_d:codebook.obj
 0001:0001e060       _vorbis_book_decodev_set   1001f060 f   vorbis_static_d:codebook.obj
 0001:0001e1a0       _vorbis_book_decodevv_add  1001f1a0 f   vorbis_static_d:codebook.obj
 0001:0001e2f0       _vorbis_bitrate_init       1001f2f0 f   vorbis_static_d:bitrate.obj
 0001:0001e4d0       _vorbis_bitrate_clear      1001f4d0 f   vorbis_static_d:bitrate.obj
 0001:0001e530       _vorbis_bitrate_managed    1001f530 f   vorbis_static_d:bitrate.obj
 0001:0001e5a0       _vorbis_bitrate_addblock   1001f5a0 f   vorbis_static_d:bitrate.obj
 0001:0001ee00       _vorbis_bitrate_flushpacket 1001fe00 f   vorbis_static_d:bitrate.obj
 0001:0001ef50       __ve_envelope_init         1001ff50 f   vorbis_static_d:envelope.obj
 0001:0001f330       __ve_envelope_clear        10020330 f   vorbis_static_d:envelope.obj
 0001:0001f450       __ve_envelope_search       10020450 f   vorbis_static_d:envelope.obj
 0001:00020240       __ve_envelope_mark         10021240 f   vorbis_static_d:envelope.obj
 0001:00020400       __ve_envelope_shift        10021400 f   vorbis_static_d:envelope.obj
 0001:00020510       _drft_forward              10021510 f   vorbis_static_d:smallft.obj
 0001:00022a80       _drft_backward             10023a80 f   vorbis_static_d:smallft.obj
 0001:000255d0       _drft_init                 100265d0 f   vorbis_static_d:smallft.obj
 0001:00025aa0       _drft_clear                10026aa0 f   vorbis_static_d:smallft.obj
 0001:00025b50       _mdct_init                 10026b50 f   vorbis_static_d:mdct.obj
 0001:00025fd0       _mdct_clear                10026fd0 f   vorbis_static_d:mdct.obj
 0001:00026080       _mdct_backward             10027080 f   vorbis_static_d:mdct.obj
 0001:00027800       _mdct_forward              10028800 f   vorbis_static_d:mdct.obj
 0001:00027d60       _vorbis_lpc_from_data      10028d60 f   vorbis_static_d:lpc.obj
 0001:000281e0       _vorbis_lpc_predict        100291e0 f   vorbis_static_d:lpc.obj
 0001:00028400       __vorbis_window_get        10029400 f   vorbis_static_d:window.obj
 0001:00028440       __vorbis_apply_window      10029440 f   vorbis_static_d:window.obj
 0001:0002a830       _res0_free_info            1002b830 f   vorbis_static_d:res0.obj
 0001:0002a8b0       _res0_free_look            1002b8b0 f   vorbis_static_d:res0.obj
 0001:0002aa20       _res0_pack                 1002ba20 f   vorbis_static_d:res0.obj
 0001:0002acf0       _res0_unpack               1002bcf0 f   vorbis_static_d:res0.obj
 0001:0002b040       _res0_look                 1002c040 f   vorbis_static_d:res0.obj
 0001:0002b3d0       _res0_inverse              1002c3d0 f   vorbis_static_d:res0.obj
 0001:0002b940       _res1_forward              1002c940 f   vorbis_static_d:res0.obj
 0001:0002c590       _res1_class                1002d590 f   vorbis_static_d:res0.obj
 0001:0002c980       _res1_inverse              1002d980 f   vorbis_static_d:res0.obj
 0001:0002ca50       _res2_class                1002da50 f   vorbis_static_d:res0.obj
 0001:0002cdb0       _res2_forward              1002ddb0 f   vorbis_static_d:res0.obj
 0001:0002cf40       _res2_inverse              1002df40 f   vorbis_static_d:res0.obj
 0001:0002e230       _floor1_fit                1002f230 f   vorbis_static_d:floor1.obj
 0001:0002fa40       _floor1_interpolate_fit    10030a40 f   vorbis_static_d:floor1.obj
 0001:0002fb90       _floor1_encode             10030b90 f   vorbis_static_d:floor1.obj
 0001:00031e20       _vorbis_lsp_to_curve       10032e20 f   vorbis_static_d:lsp.obj
 0001:00032090       _vorbis_lpc_to_lsp         10033090 f   vorbis_static_d:lsp.obj
 0001:00032e10       _oggpack_writeinit         10033e10 f   ogg_static_d:bitwise.obj
 0001:00032eb0       _oggpackB_writeinit        10033eb0 f   ogg_static_d:bitwise.obj
 0001:00032f00       _oggpack_writecheck        10033f00 f   ogg_static_d:bitwise.obj
 0001:00032f50       _oggpackB_writecheck       10033f50 f   ogg_static_d:bitwise.obj
 0001:00032fa0       _oggpack_writetrunc        10033fa0 f   ogg_static_d:bitwise.obj
 0001:00033040       _oggpackB_writetrunc       10034040 f   ogg_static_d:bitwise.obj
 0001:000330e0       _oggpack_write             100340e0 f   ogg_static_d:bitwise.obj
 0001:00033350       _oggpackB_write            10034350 f   ogg_static_d:bitwise.obj
 0001:000335c0       _oggpack_writealign        100345c0 f   ogg_static_d:bitwise.obj
 0001:00033630       _oggpackB_writealign       10034630 f   ogg_static_d:bitwise.obj
 0001:000336a0       _oggpack_writecopy         100346a0 f   ogg_static_d:bitwise.obj
 0001:00033970       _oggpackB_writecopy        10034970 f   ogg_static_d:bitwise.obj
 0001:000339d0       _oggpack_reset             100349d0 f   ogg_static_d:bitwise.obj
 0001:00033a40       _oggpackB_reset            10034a40 f   ogg_static_d:bitwise.obj
 0001:00033a90       _oggpack_writeclear        10034a90 f   ogg_static_d:bitwise.obj
 0001:00033b10       _oggpackB_writeclear       10034b10 f   ogg_static_d:bitwise.obj
 0001:00033b60       _oggpack_readinit          10034b60 f   ogg_static_d:bitwise.obj
 0001:00033be0       _oggpackB_readinit         10034be0 f   ogg_static_d:bitwise.obj
 0001:00033c40       _oggpack_look              10034c40 f   ogg_static_d:bitwise.obj
 0001:00033de0       _oggpackB_look             10034de0 f   ogg_static_d:bitwise.obj
 0001:00033f80       _oggpack_look1             10034f80 f   ogg_static_d:bitwise.obj
 0001:00033fe0       _oggpackB_look1            10034fe0 f   ogg_static_d:bitwise.obj
 0001:00034050       _oggpack_adv               10035050 f   ogg_static_d:bitwise.obj
 0001:00034120       _oggpackB_adv              10035120 f   ogg_static_d:bitwise.obj
 0001:00034180       _oggpack_adv1              10035180 f   ogg_static_d:bitwise.obj
 0001:00034200       _oggpackB_adv1             10035200 f   ogg_static_d:bitwise.obj
 0001:00034250       _oggpack_read              10035250 f   ogg_static_d:bitwise.obj
 0001:00034460       _oggpackB_read             10035460 f   ogg_static_d:bitwise.obj
 0001:00034670       _oggpack_read1             10035670 f   ogg_static_d:bitwise.obj
 0001:00034750       _oggpackB_read1            10035750 f   ogg_static_d:bitwise.obj
 0001:00034840       _oggpack_bytes             10035840 f   ogg_static_d:bitwise.obj
 0001:00034890       _oggpack_bits              10035890 f   ogg_static_d:bitwise.obj
 0001:000348d0       _oggpackB_bytes            100358d0 f   ogg_static_d:bitwise.obj
 0001:00034920       _oggpackB_bits             10035920 f   ogg_static_d:bitwise.obj
 0001:00034970       _oggpack_get_buffer        10035970 f   ogg_static_d:bitwise.obj
 0001:000349b0       _oggpackB_get_buffer       100359b0 f   ogg_static_d:bitwise.obj
 0001:0003a4a0       ?_AfxInitManaged@@YAHXZ    1003b4a0 f i dllmain.obj
 0001:0003a4d0       _ExtRawDllMain@12          1003b4d0 f   dllmain.obj
 0001:0003a570       ??$AtlAdd@H@ATL@@YAJPAHHH@Z 1003b570 f i dllmain.obj
 0001:0003a5f0       ??$AtlAdd@I@ATL@@YAJPAIII@Z 1003b5f0 f i dllmain.obj
 0001:0003a660       ??$AtlAdd@K@ATL@@YAJPAKKK@Z 1003b660 f i dllmain.obj
 0001:0003a6d0       ??$AtlAlignUp@H@ATL@@YGHHK@Z 1003b6d0 f i dllmain.obj
 0001:0003a720       ??$AtlMultiply@I@ATL@@YAJPAIII@Z 1003b720 f i dllmain.obj
 0001:0003a7a0       ??$AtlMultiply@K@ATL@@YAJPAKKK@Z 1003b7a0 f i dllmain.obj
 0001:0003a820       ??0?$CHeapPtr@DVCCRTAllocator@ATL@@@ATL@@QAE@XZ 1003b820 f i dllmain.obj
 0001:0003a880       ??0?$CHeapPtr@_WVCCRTAllocator@ATL@@@ATL@@QAE@XZ 1003b880 f i dllmain.obj
 0001:0003a8e0       ??0?$CHeapPtrBase@DVCCRTAllocator@ATL@@@ATL@@IAE@XZ 1003b8e0 f i dllmain.obj
 0001:0003a930       ??0?$CHeapPtrBase@_WVCCRTAllocator@ATL@@@ATL@@IAE@XZ 1003b930 f i dllmain.obj
 0001:0003a980       ??0?$CSimpleArray@GV?$CSimpleArrayEqualHelper@G@ATL@@@ATL@@QAE@XZ 1003b980 f i dllmain.obj
 0001:0003a9e0       ??0?$CTraceCategoryEx@$00$0A@@ATL@@QAE@PBD@Z 1003b9e0 f i dllmain.obj
 0001:0003aa40       ??0?$CTraceCategoryEx@$01$0A@@ATL@@QAE@PBD@Z 1003ba40 f i dllmain.obj
 0001:0003aaa0       ??0?$CTraceCategoryEx@$03$0A@@ATL@@QAE@PBD@Z 1003baa0 f i dllmain.obj
 0001:0003ab00       ??0?$CTraceCategoryEx@$07$0A@@ATL@@QAE@PBD@Z 1003bb00 f i dllmain.obj
 0001:0003ab60       ??0?$CTraceCategoryEx@$0BA@$0A@@ATL@@QAE@PBD@Z 1003bb60 f i dllmain.obj
 0001:0003abc0       ??0?$CTraceCategoryEx@$0BAA@$0A@@ATL@@QAE@PBD@Z 1003bbc0 f i dllmain.obj
 0001:0003ac20       ??0?$CTraceCategoryEx@$0BAAA@$0A@@ATL@@QAE@PBD@Z 1003bc20 f i dllmain.obj
 0001:0003ac80       ??0?$CTraceCategoryEx@$0BAAAA@$0A@@ATL@@QAE@PBD@Z 1003bc80 f i dllmain.obj
 0001:0003ace0       ??0?$CTraceCategoryEx@$0BAAAAA@$0A@@ATL@@QAE@PBD@Z 1003bce0 f i dllmain.obj
 0001:0003ad40       ??0?$CTraceCategoryEx@$0CA@$0A@@ATL@@QAE@PBD@Z 1003bd40 f i dllmain.obj
 0001:0003ada0       ??0?$CTraceCategoryEx@$0CAA@$0A@@ATL@@QAE@PBD@Z 1003bda0 f i dllmain.obj
 0001:0003ae00       ??0?$CTraceCategoryEx@$0CAAA@$0A@@ATL@@QAE@PBD@Z 1003be00 f i dllmain.obj
 0001:0003ae60       ??0?$CTraceCategoryEx@$0CAAAA@$0A@@ATL@@QAE@PBD@Z 1003be60 f i dllmain.obj
 0001:0003aec0       ??0?$CTraceCategoryEx@$0CAAAAA@$0A@@ATL@@QAE@PBD@Z 1003bec0 f i dllmain.obj
 0001:0003af20       ??0?$CTraceCategoryEx@$0EA@$0A@@ATL@@QAE@PBD@Z 1003bf20 f i dllmain.obj
 0001:0003af80       ??0?$CTraceCategoryEx@$0EAA@$0A@@ATL@@QAE@PBD@Z 1003bf80 f i dllmain.obj
 0001:0003afe0       ??0?$CTraceCategoryEx@$0EAAA@$0A@@ATL@@QAE@PBD@Z 1003bfe0 f i dllmain.obj
 0001:0003b040       ??0?$CTraceCategoryEx@$0EAAAA@$0A@@ATL@@QAE@PBD@Z 1003c040 f i dllmain.obj
 0001:0003b0a0       ??0?$CTraceCategoryEx@$0EAAAAA@$0A@@ATL@@QAE@PBD@Z 1003c0a0 f i dllmain.obj
 0001:0003b100       ??0?$CTraceCategoryEx@$0IA@$0A@@ATL@@QAE@PBD@Z 1003c100 f i dllmain.obj
 0001:0003b160       ??0?$CTraceCategoryEx@$0IAA@$0A@@ATL@@QAE@PBD@Z 1003c160 f i dllmain.obj
 0001:0003b1c0       ??0?$CTraceCategoryEx@$0IAAA@$0A@@ATL@@QAE@PBD@Z 1003c1c0 f i dllmain.obj
 0001:0003b220       ??0?$CTraceCategoryEx@$0IAAAA@$0A@@ATL@@QAE@PBD@Z 1003c220 f i dllmain.obj
 0001:0003b280       ??0CAtlComModule@ATL@@QAE@XZ 1003c280 f i dllmain.obj
 0001:0003b3b0       ??0CAtlStringMgr@ATL@@QAE@PAUIAtlMemMgr@1@@Z 1003c3b0 f i dllmain.obj
 0001:0003b440       ??0CAtlStringMgrStaticInitializer@ATLImplementationDetails@ATL@@QAE@XZ 1003c440 f i dllmain.obj
 0001:0003b490       ??0CAtlWinModule@ATL@@QAE@XZ 1003c490 f i dllmain.obj
 0001:0003b560       ??0CComCriticalSection@ATL@@QAE@XZ 1003c560 f i dllmain.obj
 0001:0003b5c0       ??0CNilStringData@ATL@@QAE@XZ 1003c5c0 f i dllmain.obj
 0001:0003b660       ??0CPreserveLastError@ATL@@QAE@XZ 1003c660 f i dllmain.obj
 0001:0003b6d0       ??0CTraceFileAndLineInfo@ATL@@QAE@PBDH@Z 1003c6d0 f i dllmain.obj
 0001:0003b720       ??0CWin32Heap@ATL@@QAE@PAX@Z 1003c720 f i dllmain.obj
 0001:0003b7d0       ??0_ATL_COM_MODULE70@ATL@@QAE@XZ 1003c7d0 f i dllmain.obj
 0001:0003b830       ??0_ATL_WIN_MODULE70@ATL@@QAE@XZ 1003c830 f i dllmain.obj
 0001:0003b8e0       ??1?$CHeapPtr@DVCCRTAllocator@ATL@@@ATL@@QAE@XZ 1003c8e0 f i dllmain.obj
 0001:0003b930       ??1?$CHeapPtr@_WVCCRTAllocator@ATL@@@ATL@@QAE@XZ 1003c930 f i dllmain.obj
 0001:0003b980       ??1?$CHeapPtrBase@DVCCRTAllocator@ATL@@@ATL@@QAE@XZ 1003c980 f i dllmain.obj
 0001:0003b9d0       ??1?$CHeapPtrBase@_WVCCRTAllocator@ATL@@@ATL@@QAE@XZ 1003c9d0 f i dllmain.obj
 0001:0003ba20       ??1?$CSimpleArray@GV?$CSimpleArrayEqualHelper@G@ATL@@@ATL@@QAE@XZ 1003ca20 f i dllmain.obj
 0001:0003bab0       ??1CAtlComModule@ATL@@QAE@XZ 1003cab0 f i dllmain.obj
 0001:0003bb40       ??1CAtlStringMgr@ATL@@UAE@XZ 1003cb40 f i dllmain.obj
 0001:0003bb80       ??1CAtlWinModule@ATL@@QAE@XZ 1003cb80 f i dllmain.obj
 0001:0003bc10       ??1CComCriticalSection@ATL@@QAE@XZ 1003cc10 f i dllmain.obj
 0001:0003bc50       ??1CPreserveLastError@ATL@@QAE@XZ 1003cc50 f i dllmain.obj
 0001:0003bcb0       ??1CWin32Heap@ATL@@UAE@XZ  1003ccb0 f i dllmain.obj
 0001:0003bd80       ??1_ATL_COM_MODULE70@ATL@@QAE@XZ 1003cd80 f i dllmain.obj
 0001:0003bde0       ??1_ATL_WIN_MODULE70@ATL@@QAE@XZ 1003cde0 f i dllmain.obj
 0001:0003be40       ??A?$CSimpleArray@GV?$CSimpleArrayEqualHelper@G@ATL@@@ATL@@QAEAAGH@Z 1003ce40 f i dllmain.obj
 0001:0003bf10       ??B?$CHeapPtrBase@DVCCRTAllocator@ATL@@@ATL@@QBEPADXZ 1003cf10 f i dllmain.obj
 0001:0003bf50       ??B?$CHeapPtrBase@_WVCCRTAllocator@ATL@@@ATL@@QBEPA_WXZ 1003cf50 f i dllmain.obj
 0001:0003bf90       ??B?$CTraceCategoryEx@$00$0A@@ATL@@QAEIXZ 1003cf90 f i dllmain.obj
 0001:0003bfd0       ??B?$CTraceCategoryEx@$01$0A@@ATL@@QAEIXZ 1003cfd0 f i dllmain.obj
 0001:0003c010       ??B?$CTraceCategoryEx@$0CA@$0A@@ATL@@QAEIXZ 1003d010 f i dllmain.obj
 0001:0003c050       ??B?$CTypedSimpleList@PAUCRuntimeClass@@@@QAEPAUCRuntimeClass@@XZ 1003d050 f i dllmain.obj
 0001:0003c0a0       ??B?$CTypedSimpleList@PAVCOleObjectFactory@@@@QAEPAVCOleObjectFactory@@XZ 1003d0a0 f i dllmain.obj
 0001:0003c0f0       ??RCTraceFileAndLineInfo@ATL@@QBAXHIPBDZZ 1003d0f0 f i dllmain.obj
 0001:0003c200       ??RCTraceFileAndLineInfo@ATL@@QBAXPBDZZ 1003d200 f i dllmain.obj
 0001:0003c320       ??_ECAtlStringMgr@ATL@@UAEPAXI@Z 1003d320 f i dllmain.obj
 0001:0003c320       ??_GCAtlStringMgr@ATL@@UAEPAXI@Z 1003d320 f i dllmain.obj
 0001:0003c390       ??_ECWin32Heap@ATL@@UAEPAXI@Z 1003d390 f i dllmain.obj
 0001:0003c390       ??_GCWin32Heap@ATL@@UAEPAXI@Z 1003d390 f i dllmain.obj
 0001:0003c400       ??_H@YGXPAXIIP6EPAX0@Z@Z   1003d400 f i dllmain.obj
 0001:0003c4b0       ?AddRef@CStringData@ATL@@QAEXXZ 1003d4b0 f i dllmain.obj
 0001:0003c550       ?Allocate@?$CHeapPtr@DVCCRTAllocator@ATL@@@ATL@@QAE_NI@Z 1003d550 f i dllmain.obj
 0001:0003c610       ?Allocate@?$CHeapPtr@_WVCCRTAllocator@ATL@@@ATL@@QAE_NI@Z 1003d610 f i dllmain.obj
 0001:0003c6d0       ?Allocate@CAtlStringMgr@ATL@@UAEPAUCStringData@2@HH@Z 1003d6d0 f i dllmain.obj
 0001:0003c960       ?Allocate@CCRTAllocator@ATL@@SAPAXI@Z 1003d960 f i dllmain.obj
 0001:0003c9c0       ?Allocate@CWin32Heap@ATL@@UAEPAXI@Z 1003d9c0 f i dllmain.obj
 0001:0003ca30       ?AllocateBytes@?$CHeapPtrBase@DVCCRTAllocator@ATL@@@ATL@@QAE_NI@Z 1003da30 f i dllmain.obj
 0001:0003caf0       ?AllocateBytes@?$CHeapPtrBase@_WVCCRTAllocator@ATL@@@ATL@@QAE_NI@Z 1003daf0 f i dllmain.obj
 0001:0003cbb0       ?AtlWinModuleInit@ATL@@YGJPAU_ATL_WIN_MODULE70@1@@Z 1003dbb0 f i dllmain.obj
 0001:0003ccd0       ?AtlWinModuleTerm@ATL@@YGJPAU_ATL_WIN_MODULE70@1@PAUHINSTANCE__@@@Z 1003dcd0 f i dllmain.obj
 0001:0003cdd0       ?Clone@CAtlStringMgr@ATL@@UAEPAUIAtlStringMgr@2@XZ 1003ddd0 f i dllmain.obj
 0001:0003ce10       ?Free@?$CHeapPtrBase@DVCCRTAllocator@ATL@@@ATL@@QAEXXZ 1003de10 f i dllmain.obj
 0001:0003ce80       ?Free@?$CHeapPtrBase@_WVCCRTAllocator@ATL@@@ATL@@QAEXXZ 1003de80 f i dllmain.obj
 0001:0003cef0       ?Free@CAtlStringMgr@ATL@@UAEXPAUCStringData@2@@Z 1003def0 f i dllmain.obj
 0001:0003cff0       ?Free@CCRTAllocator@ATL@@SAXPAX@Z 1003dff0 f i dllmain.obj
 0001:0003d050       ?Free@CWin32Heap@ATL@@UAEXPAX@Z 1003e050 f i dllmain.obj
 0001:0003d110       ?GetCategoryName@CTrace@ATL@@CAPA_WI@Z 1003e110 f i dllmain.obj
 0001:0003d190       ?GetHead@CSimpleList@@QBEPAXXZ 1003e190 f i dllmain.obj
 0001:0003d1d0       ?GetInstance@CAtlStringMgr@ATL@@SAPAUIAtlStringMgr@2@XZ 1003e1d0 f i dllmain.obj
 0001:0003d310       ?GetModuleInstance@CAtlBaseModule@ATL@@QAEPAUHINSTANCE__@@XZ 1003e310 f i dllmain.obj
 0001:0003d350       ?GetNilString@CAtlStringMgr@ATL@@UAEPAUCStringData@2@XZ 1003e350 f i dllmain.obj
 0001:0003d3b0       ?GetSize@?$CSimpleArray@GV?$CSimpleArrayEqualHelper@G@ATL@@@ATL@@QBEHXZ 1003e3b0 f i dllmain.obj
 0001:0003d3f0       ?GetSize@CWin32Heap@ATL@@UAEIPAX@Z 1003e3f0 f i dllmain.obj
 0001:0003d460       ?Init@CComCriticalSection@ATL@@QAEJXZ 1003e460 f i dllmain.obj
 0001:0003d4f0       ?Reallocate@CAtlStringMgr@ATL@@UAEPAUCStringData@2@PAU32@HH@Z 1003e4f0 f i dllmain.obj
 0001:0003d7a0       ?Reallocate@CWin32Heap@ATL@@UAEPAXPAXI@Z 1003e7a0 f i dllmain.obj
 0001:0003d870       ?RegisterCategory@CTrace@ATL@@SAXPBDI@Z 1003e870 f i dllmain.obj
 0001:0003da00       ?RemoveAll@?$CSimpleArray@GV?$CSimpleArrayEqualHelper@G@ATL@@@ATL@@QAEXXZ 1003ea00 f i dllmain.obj
 0001:0003dac0       ?SetManager@CNilStringData@ATL@@QAEXPAUIAtlStringMgr@2@@Z 1003eac0 f i dllmain.obj
 0001:0003db60       ?Term@CAtlComModule@ATL@@QAEXXZ 1003eb60 f i dllmain.obj
 0001:0003dc70       ?Term@CAtlWinModule@ATL@@QAEXXZ 1003ec70 f i dllmain.obj
 0001:0003dcd0       ?Term@CComCriticalSection@ATL@@QAEJXZ 1003ecd0 f i dllmain.obj
 0001:0003dd30       ?TraceV@CTrace@ATL@@CAXPBDHIIPB_W@Z 1003ed30 f i dllmain.obj
 0001:0003e070       ?TraceV@CTrace@ATL@@SAXPBDHII0PAD@Z 1003f070 f i dllmain.obj
 0001:0003e320       ?_AtlInitializeCriticalSectionEx@ATL@@YAHPAU_RTL_CRITICAL_SECTION@@KK@Z 1003f320 f i dllmain.obj
 0001:0003e380       ?_AtlRaiseException@ATL@@YAXKK@Z 1003f380 f i dllmain.obj
 0001:0003e3e0       ?__empty_global_delete@@YAXPAX@Z 1003f3e0 f i dllmain.obj
 0001:0003e410       ?__empty_global_delete@@YAXPAXI@Z 1003f410 f i dllmain.obj
 0001:0003e440       _DllMain@12                1003f440 f   dllmain.obj
 0001:0003e5b0       _HRESULT_FROM_WIN32        1003f5b0 f i dllmain.obj
 0001:0003e620       ___local_stdio_printf_options 1003f620 f i dllmain.obj
 0001:0003e660       __vscprintf                1003f660 f i dllmain.obj
 0001:0003e6c0       __vscprintf_l              1003f6c0 f i dllmain.obj
 0001:0003e770       __vsnprintf_s              1003f770 f i dllmain.obj
 0001:0003e7e0       __vsnprintf_s_l            1003f7e0 f i dllmain.obj
 0001:0003e890       __vswprintf_s_l            1003f890 f i dllmain.obj
 0001:0003e940       _swprintf_s                1003f940 f i dllmain.obj
 0001:0003e9c0       ??0CMciMedia@SOUND@NMBASE@@QAE@XZ 1003f9c0 f   MciMedia.obj
 0001:0003ea40       ??1CMciMedia@SOUND@NMBASE@@UAE@XZ 1003fa40 f   MciMedia.obj
 0001:0003eae0       ??4xSound@SOUND@NMBASE@@QAEAAV012@ABV012@@Z 1003fae0 f i MciMedia.obj
 0001:0003eb20       ??_ECMciMedia@SOUND@NMBASE@@UAEPAXI@Z 1003fb20 f i MciMedia.obj
 0001:0003eb20       ??_GCMciMedia@SOUND@NMBASE@@UAEPAXI@Z 1003fb20 f i MciMedia.obj
 0001:0003eb90       ?Close@CMciMedia@SOUND@NMBASE@@QAEXXZ 1003fb90 f   MciMedia.obj
 0001:0003ec20       ?CreateMsgWindow@CMciMedia@SOUND@NMBASE@@IAEHXZ 1003fc20 f   MciMedia.obj
 0001:0003ede0       ?DestroyMsgWindow@CMciMedia@SOUND@NMBASE@@IAEHXZ 1003fde0 f   MciMedia.obj
 0001:0003ee70       ?DoMsgWndProc@CMciMedia@SOUND@NMBASE@@IAGJPAUHWND__@@IIJ@Z 1003fe70 f   MciMedia.obj
 0001:0003ef40       ?GetDS@xSound@SOUND@NMBASE@@SAPAUIDirectSound@@XZ 1003ff40 f i MciMedia.obj
 0001:0003ef80       ?GetErrorString@CMciMedia@SOUND@NMBASE@@QAEHKPBDI@Z 1003ff80 f   MciMedia.obj
 0001:0003eff0       ?GetListener@xSound@SOUND@NMBASE@@SAPAUIDirectSound3DListener@@XZ 1003fff0 f i MciMedia.obj
 0001:0003f030       ?GetPosition@CMciMedia@SOUND@NMBASE@@QAEKXZ 10040030 f   MciMedia.obj
 0001:0003f0a0       ?GetPrimary@xSound@SOUND@NMBASE@@SAPAUIDirectSoundBuffer@@XZ 100400a0 f i MciMedia.obj
 0001:0003f0e0       ?GetStatus@CMciMedia@SOUND@NMBASE@@QAEKK@Z 100400e0 f   MciMedia.obj
 0001:0003f1d0       ?GetTotalLength@CMciMedia@SOUND@NMBASE@@QAEKXZ 100401d0 f   MciMedia.obj
 0001:0003f240       ?GetTotalPosition@CMciMedia@SOUND@NMBASE@@QAEKXZ 10040240 f   MciMedia.obj
 0001:0003f290       ?GetVolume@CMciMedia@SOUND@NMBASE@@QAEKXZ 10040290 f   MciMedia.obj
 0001:0003f350       ?IsPause@CMciMedia@SOUND@NMBASE@@QAEHXZ 10040350 f   MciMedia.obj
 0001:0003f3c0       ?IsPlaying@CMciMedia@SOUND@NMBASE@@QAEHXZ 100403c0 f   MciMedia.obj
 0001:0003f430       ?IsReady@CMciMedia@SOUND@NMBASE@@QAEHXZ 10040430 f   MciMedia.obj
 0001:0003f4a0       ?IsRecord@CMciMedia@SOUND@NMBASE@@QAEHXZ 100404a0 f   MciMedia.obj
 0001:0003f510       ?IsStop@CMciMedia@SOUND@NMBASE@@QAEHXZ 10040510 f   MciMedia.obj
 0001:0003f580       ?MsgWndProc@CMciMedia@SOUND@NMBASE@@KGJPAUHWND__@@IIJ@Z 10040580 f   MciMedia.obj
 0001:0003f640       ?Open@CMciMedia@SOUND@NMBASE@@QAEHPBD@Z 10040640 f   MciMedia.obj
 0001:0003f800       ?Pause@CMciMedia@SOUND@NMBASE@@QAEHXZ 10040800 f   MciMedia.obj
 0001:0003f8f0       ?Play@CMciMedia@SOUND@NMBASE@@QAEHKH@Z 100408f0 f   MciMedia.obj
 0001:0003fa80       ?Resume@CMciMedia@SOUND@NMBASE@@QAEHXZ 10040a80 f   MciMedia.obj
 0001:0003fb70       ?SetVolume@CMciMedia@SOUND@NMBASE@@QAEXK@Z 10040b70 f   MciMedia.obj
 0001:0003fc90       ?Stop@CMciMedia@SOUND@NMBASE@@QAEHXZ 10040c90 f   MciMedia.obj
 0001:0003fd80       ??$?0$$QAV?$basic_string@DU?$char_traits@D@std@@V?$allocator@D@2@@std@@$$Z$$V@?$pair@$$CBV?$basic_string@DU?$char_traits@D@std@@V?$allocator@D@2@@std@@PAVCSndObj@SOUND@NMBASE@@@std@@QAE@Upiecewise_construct_t@1@V?$tuple@$$QAV?$basic_string@DU?$char_traits@D@std@@V?$allocator@D@2@@std@@@1@V?$tuple@$$V@1@@Z 10040d80 f i Sound.obj
 0001:0003fe00       ??$?0$$V@?$_Compressed_pair@V?$allocator@D@std@@V?$_String_val@U?$_Simple_types@D@std@@@2@$00@std@@QAE@U_Zero_then_variadic_args_t@1@@Z 10040e00 f i Sound.obj
 0001:0003fe60       ??$?0$$V@?$_Compressed_pair@V?$allocator@U?$_List_node@PAUSNDPLAYDATA@SOUND@NMBASE@@PAX@std@@@std@@V?$_List_val@U?$_List_simple_types@PAUSNDPLAYDATA@SOUND@NMBASE@@@std@@@2@$00@std@@QAE@U_Zero_then_variadic_args_t@1@@Z 10040e60 f i Sound.obj
 0001:0003fec0       ??$?0$$V@?$_Compressed_pair@V?$allocator@U?$_Tree_node@U?$pair@$$CBV?$basic_string@DU?$char_traits@D@std@@V?$allocator@D@2@@std@@PAVCSndObj@SOUND@NMBASE@@@std@@PAX@std@@@std@@V?$_Tree_val@U?$_Tree_simple_types@U?$pair@$$CBV?$basic_string@DU?$char_traits@D@std@@V?$allocator@D@2@@std@@PAVCSndObj@SOUND@NMBASE@@@std@@@std@@@2@$00@std@@QAE@U_Zero_then_variadic_args_t@1@@Z 10040ec0 f i Sound.obj
 0001:0003ff20       ??$?0$$V@?$_Compressed_pair@V?$allocator@U?$_Tree_node@V?$basic_string@DU?$char_traits@D@std@@V?$allocator@D@2@@std@@PAX@std@@@std@@V?$_Tree_val@U?$_Tree_simple_types@V?$basic_string@DU?$char_traits@D@std@@V?$allocator@D@2@@std@@@std@@@2@$00@std@@QAE@U_Zero_then_variadic_args_t@1@@Z 10040f20 f i Sound.obj
 0001:0003ff80       ??$?0AAV?$_Tree_const_iterator@V?$_Tree_val@U?$_Tree_simple_types@V?$basic_string@DU?$char_traits@D@std@@V?$allocator@D@2@@std@@@std@@@std@@@std@@_N$0A@@?$pair@V?$_Tree_const_iterator@V?$_Tree_val@U?$_Tree_simple_types@V?$basic_string@DU?$char_traits@D@std@@V?$allocator@D@2@@std@@@std@@@std@@@std@@_N@std@@QAE@AAV?$_Tree_const_iterator@V?$_Tree_val@U?$_Tree_simple_types@V?$basic_string@DU?$char_traits@D@std@@V?$allocator@D@2@@std@@@std@@@std@@@1@$$QA_N@Z 10040f80 f i Sound.obj
 0001:00040000       ??$?0AAV?$_Tree_iterator@V?$_Tree_val@U?$_Tree_simple_types@U?$pair@$$CBV?$basic_string@DU?$char_traits@D@std@@V?$allocator@D@2@@std@@PAVCSndObj@SOUND@NMBASE@@@std@@@std@@@std@@@std@@_N$0A@@?$pair@V?$_Tree_iterator@V?$_Tree_val@U?$_Tree_simple_types@U?$pair@$$CBV?$basic_string@DU?$char_traits@D@std@@V?$allocator@D@2@@std@@PAVCSndObj@SOUND@NMBASE@@@std@@@std@@@std@@@std@@_N@std@@QAE@AAV?$_Tree_iterator@V?$_Tree_val@U?$_Tree_simple_types@U?$pair@$$CBV?$basic_string@DU?$char_traits@D@std@@V?$allocator@D@2@@std@@PAVCSndObj@SOUND@NMBASE@@@std@@@std@@@std@@@1@$$QA_N@Z 10041000 f i Sound.obj
 0001:00040080       ??$?0ABU?$less@V?$basic_string@DU?$char_traits@D@std@@V?$allocator@D@2@@std@@@std@@U_One_then_variadic_args_t@1@V?$allocator@U?$_Tree_node@U?$pair@$$CBV?$basic_string@DU?$char_traits@D@std@@V?$allocator@D@2@@std@@PAVCSndObj@SOUND@NMBASE@@@std@@PAX@std@@@1@@?$_Compressed_pair@U?$less@V?$basic_string@DU?$char_traits@D@std@@V?$allocator@D@2@@std@@@std@@V?$_Compressed_pair@V?$allocator@U?$_Tree_node@U?$pair@$$CBV?$basic_string@DU?$char_traits@D@std@@V?$allocator@D@2@@std@@PAVCSndObj@SOUND@NMBASE@@@std@@PAX@std@@@std@@V?$_Tree_val@U?$_Tree_simple_types@U?$pair@$$CBV?$basic_string@DU?$char_traits@D@std@@V?$allocator@D@2@@std@@PAVCSndObj@SOUND@NMBASE@@@std@@@std@@@2@$00@2@$00@std@@QAE@U_One_then_variadic_args_t@1@ABU?$less@V?$basic_string@DU?$char_traits@D@std@@V?$allocator@D@2@@std@@@1@$$QAU21@$$QAV?$allocator@U?$_Tree_node@U?$pair@$$CBV?$basic_string@DU?$char_traits@D@std@@V?$allocator@D@2@@std@@PAVCSndObj@SOUND@NMBASE@@@std@@PAX@std@@@1@@Z 10041080 f i Sound.obj
 0001:00040110       ??$?0ABU?$less@V?$basic_string@DU?$char_traits@D@std@@V?$allocator@D@2@@std@@@std@@U_One_then_variadic_args_t@1@V?$allocator@U?$_Tree_node@V?$basic_string@DU?$char_traits@D@std@@V?$allocator@D@2@@std@@PAX@std@@@1@@?$_Compressed_pair@U?$less@V?$basic_string@DU?$char_traits@D@std@@V?$allocator@D@2@@std@@@std@@V?$_Compressed_pair@V?$allocator@U?$_Tree_node@V?$basic_string@DU?$char_traits@D@std@@V?$allocator@D@2@@std@@PAX@std@@@std@@V?$_Tree_val@U?$_Tree_simple_types@V?$basic_string@DU?$char_traits@D@std@@V?$allocator@D@2@@std@@@std@@@2@$00@2@$00@std@@QAE@U_One_then_variadic_args_t@1@ABU?$less@V?$basic_string@DU?$char_traits@D@std@@V?$allocator@D@2@@std@@@1@$$QAU21@$$QAV?$allocator@U?$_Tree_node@V?$basic_string@DU?$char_traits@D@std@@V?$allocator@D@2@@std@@PAX@std@@@1@@Z 10041110 f i Sound.obj
 0001:000401a0       ??$?0ABU?$less@V?$basic_string@DU?$char_traits@D@std@@V?$allocator@D@2@@std@@@std@@U_Zero_then_variadic_args_t@1@@?$_Compressed_pair@U?$less@V?$basic_string@DU?$char_traits@D@std@@V?$allocator@D@2@@std@@@std@@V?$_Compressed_pair@V?$allocator@U?$_Tree_node@U?$pair@$$CBV?$basic_string@DU?$char_traits@D@std@@V?$allocator@D@2@@std@@PAVCSndObj@SOUND@NMBASE@@@std@@PAX@std@@@std@@V?$_Tree_val@U?$_Tree_simple_types@U?$pair@$$CBV?$basic_string@DU?$char_traits@D@std@@V?$allocator@D@2@@std@@PAVCSndObj@SOUND@NMBASE@@@std@@@std@@@2@$00@2@$00@std@@QAE@U_One_then_variadic_args_t@1@ABU?$less@V?$basic_string@DU?$char_traits@D@std@@V?$allocator@D@2@@std@@@1@$$QAU_Zero_then_variadic_args_t@1@@Z 100411a0 f i Sound.obj
 0001:00040220       ??$?0ABU?$less@V?$basic_string@DU?$char_traits@D@std@@V?$allocator@D@2@@std@@@std@@U_Zero_then_variadic_args_t@1@@?$_Compressed_pair@U?$less@V?$basic_string@DU?$char_traits@D@std@@V?$allocator@D@2@@std@@@std@@V?$_Compressed_pair@V?$allocator@U?$_Tree_node@V?$basic_string@DU?$char_traits@D@std@@V?$allocator@D@2@@std@@PAX@std@@@std@@V?$_Tree_val@U?$_Tree_simple_types@V?$basic_string@DU?$char_traits@D@std@@V?$allocator@D@2@@std@@@std@@@2@$00@2@$00@std@@QAE@U_One_then_variadic_args_t@1@ABU?$less@V?$basic_string@DU?$char_traits@D@std@@V?$allocator@D@2@@std@@@1@$$QAU_Zero_then_variadic_args_t@1@@Z 10041220 f i Sound.obj
 0001:000402a0       ??$?0D@?$allocator@U_Container_proxy@std@@@std@@QAE@ABV?$allocator@D@1@@Z 100412a0 f i Sound.obj
 0001:000402e0       ??$?0U?$_List_node@PAUSNDPLAYDATA@SOUND@NMBASE@@PAX@std@@@?$allocator@U_Container_proxy@std@@@std@@QAE@ABV?$allocator@U?$_List_node@PAUSNDPLAYDATA@SOUND@NMBASE@@PAX@std@@@1@@Z 100412e0 f i Sound.obj
 0001:00040320       ??$?0U?$_Tree_node@U?$pair@$$CBV?$basic_string@DU?$char_traits@D@std@@V?$allocator@D@2@@std@@PAVCSndObj@SOUND@NMBASE@@@std@@PAX@std@@@?$allocator@U_Container_proxy@std@@@std@@QAE@ABV?$allocator@U?$_Tree_node@U?$pair@$$CBV?$basic_string@DU?$char_traits@D@std@@V?$allocator@D@2@@std@@PAVCSndObj@SOUND@NMBASE@@@std@@PAX@std@@@1@@Z 10041320 f i Sound.obj
 0001:00040360       ??$?0U?$_Tree_node@V?$basic_string@DU?$char_traits@D@std@@V?$allocator@D@2@@std@@PAX@std@@@?$allocator@U_Container_proxy@std@@@std@@QAE@ABV?$allocator@U?$_Tree_node@V?$basic_string@DU?$char_traits@D@std@@V?$allocator@D@2@@std@@PAX@std@@@1@@Z 10041360 f i Sound.obj
 0001:000403a0       ??$?0U_Exact_args_t@std@@$0A@@?$tuple@$$V@std@@QAE@U_Exact_args_t@1@@Z 100413a0 f i Sound.obj
 0001:000403e0       ??$?0U_Exact_args_t@std@@V?$basic_string@DU?$char_traits@D@std@@V?$allocator@D@2@@1@$$V$0A@@?$tuple@$$QAV?$basic_string@DU?$char_traits@D@std@@V?$allocator@D@2@@std@@@std@@QAE@U_Exact_args_t@1@$$QAV?$basic_string@DU?$char_traits@D@std@@V?$allocator@D@2@@1@@Z 100413e0 f i Sound.obj
 0001:00040470       ??$?0V?$_Tree_const_iterator@V?$_Tree_val@U?$_Tree_simple_types@V?$basic_string@DU?$char_traits@D@std@@V?$allocator@D@2@@std@@@std@@@std@@@std@@_N$0A@@?$pair@V?$_Tree_const_iterator@V?$_Tree_val@U?$_Tree_simple_types@V?$basic_string@DU?$char_traits@D@std@@V?$allocator@D@2@@std@@@std@@@std@@@std@@_N@std@@QAE@$$QAV?$_Tree_const_iterator@V?$_Tree_val@U?$_Tree_simple_types@V?$basic_string@DU?$char_traits@D@std@@V?$allocator@D@2@@std@@@std@@@std@@@1@$$QA_N@Z 10041470 f i Sound.obj
 0001:000404f0       ??$?0V?$_Tree_iterator@V?$_Tree_val@U?$_Tree_simple_types@U?$pair@$$CBV?$basic_string@DU?$char_traits@D@std@@V?$allocator@D@2@@std@@PAVCSndObj@SOUND@NMBASE@@@std@@@std@@@std@@@std@@_N$0A@@?$pair@V?$_Tree_iterator@V?$_Tree_val@U?$_Tree_simple_types@U?$pair@$$CBV?$basic_string@DU?$char_traits@D@std@@V?$allocator@D@2@@std@@PAVCSndObj@SOUND@NMBASE@@@std@@@std@@@std@@@std@@_N@std@@QAE@$$QAV?$_Tree_iterator@V?$_Tree_val@U?$_Tree_simple_types@U?$pair@$$CBV?$basic_string@DU?$char_traits@D@std@@V?$allocator@D@2@@std@@PAVCSndObj@SOUND@NMBASE@@@std@@@std@@@std@@@1@$$QA_N@Z 100414f0 f i Sound.obj
 0001:00040570       ??$?0V?$allocator@D@std@@$$V@?$_Compressed_pair@V?$allocator@D@std@@V?$_String_val@U?$_Simple_types@D@std@@@2@$00@std@@QAE@U_One_then_variadic_args_t@1@$$QAV?$allocator@D@1@@Z 10041570 f i Sound.obj
 0001:000405e0       ??$?0V?$allocator@D@std@@X@?$_String_alloc@U?$_String_base_types@DV?$allocator@D@std@@@std@@@std@@QAE@$$QAV?$allocator@D@1@@Z 100415e0 f i Sound.obj
 0001:000406a0       ??$?0V?$allocator@U?$_List_node@PAUSNDPLAYDATA@SOUND@NMBASE@@PAX@std@@@std@@$$V@?$_Compressed_pair@V?$allocator@U?$_List_node@PAUSNDPLAYDATA@SOUND@NMBASE@@PAX@std@@@std@@V?$_List_val@U?$_List_simple_types@PAUSNDPLAYDATA@SOUND@NMBASE@@@std@@@2@$00@std@@QAE@U_One_then_variadic_args_t@1@$$QAV?$allocator@U?$_List_node@PAUSNDPLAYDATA@SOUND@NMBASE@@PAX@std@@@1@@Z 100416a0 f i Sound.obj
 0001:00040710       ??$?0V?$allocator@U?$_List_node@PAUSNDPLAYDATA@SOUND@NMBASE@@PAX@std@@@std@@X@?$_List_alloc@U?$_List_base_types@PAUSNDPLAYDATA@SOUND@NMBASE@@V?$allocator@PAUSNDPLAYDATA@SOUND@NMBASE@@@std@@@std@@@std@@QAE@$$QAV?$allocator@U?$_List_node@PAUSNDPLAYDATA@SOUND@NMBASE@@PAX@std@@@1@@Z 10041710 f i Sound.obj
 0001:00040830       ??$?0V?$allocator@U?$_List_node@PAUSNDPLAYDATA@SOUND@NMBASE@@PAX@std@@@std@@X@?$_List_buy@PAUSNDPLAYDATA@SOUND@NMBASE@@V?$allocator@PAUSNDPLAYDATA@SOUND@NMBASE@@@std@@@std@@QAE@$$QAV?$allocator@U?$_List_node@PAUSNDPLAYDATA@SOUND@NMBASE@@PAX@std@@@1@@Z 10041830 f i Sound.obj
 0001:000408a0       ??$?0V?$allocator@U?$_Tree_node@U?$pair@$$CBV?$basic_string@DU?$char_traits@D@std@@V?$allocator@D@2@@std@@PAVCSndObj@SOUND@NMBASE@@@std@@PAX@std@@@std@@$$V@?$_Compressed_pair@V?$allocator@U?$_Tree_node@U?$pair@$$CBV?$basic_string@DU?$char_traits@D@std@@V?$allocator@D@2@@std@@PAVCSndObj@SOUND@NMBASE@@@std@@PAX@std@@@std@@V?$_Tree_val@U?$_Tree_simple_types@U?$pair@$$CBV?$basic_string@DU?$char_traits@D@std@@V?$allocator@D@2@@std@@PAVCSndObj@SOUND@NMBASE@@@std@@@std@@@2@$00@std@@QAE@U_One_then_variadic_args_t@1@$$QAV?$allocator@U?$_Tree_node@U?$pair@$$CBV?$basic_string@DU?$char_traits@D@std@@V?$allocator@D@2@@std@@PAVCSndObj@SOUND@NMBASE@@@std@@PAX@std@@@1@@Z 100418a0 f i Sound.obj
 0001:00040910       ??$?0V?$allocator@U?$_Tree_node@U?$pair@$$CBV?$basic_string@DU?$char_traits@D@std@@V?$allocator@D@2@@std@@PAVCSndObj@SOUND@NMBASE@@@std@@PAX@std@@@std@@@?$_Tree@V?$_Tmap_traits@V?$basic_string@DU?$char_traits@D@std@@V?$allocator@D@2@@std@@PAVCSndObj@SOUND@NMBASE@@U?$less@V?$basic_string@DU?$char_traits@D@std@@V?$allocator@D@2@@std@@@2@V?$allocator@U?$pair@$$CBV?$basic_string@DU?$char_traits@D@std@@V?$allocator@D@2@@std@@PAVCSndObj@SOUND@NMBASE@@@std@@@2@$0A@@std@@@std@@QAE@ABV01@$$QAV?$allocator@U?$_Tree_node@U?$pair@$$CBV?$basic_string@DU?$char_traits@D@std@@V?$allocator@D@2@@std@@PAVCSndObj@SOUND@NMBASE@@@std@@PAX@std@@@1@@Z 10041910 f i Sound.obj
 0001:00040a30       ??$?0V?$allocator@U?$_Tree_node@U?$pair@$$CBV?$basic_string@DU?$char_traits@D@std@@V?$allocator@D@2@@std@@PAVCSndObj@SOUND@NMBASE@@@std@@PAX@std@@@std@@X@?$_Tree_comp_alloc@V?$_Tmap_traits@V?$basic_string@DU?$char_traits@D@std@@V?$allocator@D@2@@std@@PAVCSndObj@SOUND@NMBASE@@U?$less@V?$basic_string@DU?$char_traits@D@std@@V?$allocator@D@2@@std@@@2@V?$allocator@U?$pair@$$CBV?$basic_string@DU?$char_traits@D@std@@V?$allocator@D@2@@std@@PAVCSndObj@SOUND@NMBASE@@@std@@@2@$0A@@std@@@std@@QAE@ABU?$less@V?$basic_string@DU?$char_traits@D@std@@V?$allocator@D@2@@std@@@1@$$QAV?$allocator@U?$_Tree_node@U?$pair@$$CBV?$basic_string@DU?$char_traits@D@std@@V?$allocator@D@2@@std@@PAVCSndObj@SOUND@NMBASE@@@std@@PAX@std@@@1@@Z 10041a30 f i Sound.obj
 0001:00040ac0       ??$?0V?$allocator@U?$_Tree_node@V?$basic_string@DU?$char_traits@D@std@@V?$allocator@D@2@@std@@PAX@std@@@std@@$$V@?$_Compressed_pair@V?$allocator@U?$_Tree_node@V?$basic_string@DU?$char_traits@D@std@@V?$allocator@D@2@@std@@PAX@std@@@std@@V?$_Tree_val@U?$_Tree_simple_types@V?$basic_string@DU?$char_traits@D@std@@V?$allocator@D@2@@std@@@std@@@2@$00@std@@QAE@U_One_then_variadic_args_t@1@$$QAV?$allocator@U?$_Tree_node@V?$basic_string@DU?$char_traits@D@std@@V?$allocator@D@2@@std@@PAX@std@@@1@@Z 10041ac0 f i Sound.obj
 0001:00040b30       ??$?0V?$allocator@U?$_Tree_node@V?$basic_string@DU?$char_traits@D@std@@V?$allocator@D@2@@std@@PAX@std@@@std@@@?$_Tree@V?$_Tset_traits@V?$basic_string@DU?$char_traits@D@std@@V?$allocator@D@2@@std@@U?$less@V?$basic_string@DU?$char_traits@D@std@@V?$allocator@D@2@@std@@@2@V?$allocator@V?$basic_string@DU?$char_traits@D@std@@V?$allocator@D@2@@std@@@2@$0A@@std@@@std@@QAE@ABV01@$$QAV?$allocator@U?$_Tree_node@V?$basic_string@DU?$char_traits@D@std@@V?$allocator@D@2@@std@@PAX@std@@@1@@Z 10041b30 f i Sound.obj
 0001:00040c50       ??$?0V?$allocator@U?$_Tree_node@V?$basic_string@DU?$char_traits@D@std@@V?$allocator@D@2@@std@@PAX@std@@@std@@X@?$_Tree_comp_alloc@V?$_Tset_traits@V?$basic_string@DU?$char_traits@D@std@@V?$allocator@D@2@@std@@U?$less@V?$basic_string@DU?$char_traits@D@std@@V?$allocator@D@2@@std@@@2@V?$allocator@V?$basic_string@DU?$char_traits@D@std@@V?$allocator@D@2@@std@@@2@$0A@@std@@@std@@QAE@ABU?$less@V?$basic_string@DU?$char_traits@D@std@@V?$allocator@D@2@@std@@@1@$$QAV?$allocator@U?$_Tree_node@V?$basic_string@DU?$char_traits@D@std@@V?$allocator@D@2@@std@@PAX@std@@@1@@Z 10041c50 f i Sound.obj
 0001:00040ce0       ??$?0V?$basic_string@DU?$char_traits@D@std@@V?$allocator@D@2@@std@@$$V$0A@@?$tuple@$$QAV?$basic_string@DU?$char_traits@D@std@@V?$allocator@D@2@@std@@@std@@QAE@$$QAV?$basic_string@DU?$char_traits@D@std@@V?$allocator@D@2@@1@@Z 10041ce0 f i Sound.obj
 0001:00040d90       ??$?0V?$basic_string@DU?$char_traits@D@std@@V?$allocator@D@2@@std@@@?$_Tuple_val@$$QAV?$basic_string@DU?$char_traits@D@std@@V?$allocator@D@2@@std@@@std@@QAE@$$QAV?$basic_string@DU?$char_traits@D@std@@V?$allocator@D@2@@1@@Z 10041d90 f i Sound.obj
 0001:00040df0       ??$?0V?$tuple@$$QAV?$basic_string@DU?$char_traits@D@std@@V?$allocator@D@2@@std@@@std@@V?$tuple@$$V@1@$0A@$$Z$S@?$pair@$$CBV?$basic_string@DU?$char_traits@D@std@@V?$allocator@D@2@@std@@PAVCSndObj@SOUND@NMBASE@@@std@@QAE@AAV?$tuple@$$QAV?$basic_string@DU?$char_traits@D@std@@V?$allocator@D@2@@std@@@1@AAV?$tuple@$$V@1@U?$integer_sequence@I$0A@@1@U?$integer_sequence@I$S@1@@Z 10041df0 f i Sound.obj
 0001:00040e70       ??$?8DU?$char_traits@D@std@@V?$allocator@D@1@@std@@YA_NABV?$basic_string@DU?$char_traits@D@std@@V?$allocator@D@2@@0@0@Z 10041e70 f i Sound.obj
 0001:00040ec0       ??$?MDU?$char_traits@D@std@@V?$allocator@D@1@@std@@YA_NABV?$basic_string@DU?$char_traits@D@std@@V?$allocator@D@2@@0@0@Z 10041ec0 f i Sound.obj
 0001:00040f40       ??$_Adl_verify_range1@V?$_List_const_iterator@V?$_List_val@U?$_List_simple_types@PAUSNDPLAYDATA@SOUND@NMBASE@@@std@@@std@@@std@@V12@@std@@YAXABV?$_List_const_iterator@V?$_List_val@U?$_List_simple_types@PAUSNDPLAYDATA@SOUND@NMBASE@@@std@@@std@@@0@0U?$integral_constant@_N$00@0@@Z 10041f40 f i Sound.obj
 0001:00040fa0       ??$_Adl_verify_range@V?$_List_const_iterator@V?$_List_val@U?$_List_simple_types@PAUSNDPLAYDATA@SOUND@NMBASE@@@std@@@std@@@std@@V12@@std@@YAXABV?$_List_const_iterator@V?$_List_val@U?$_List_simple_types@PAUSNDPLAYDATA@SOUND@NMBASE@@@std@@@std@@@0@0@Z 10041fa0 f i Sound.obj
 0001:00041010       ??$_Allocate@$07U_Default_allocate_traits@std@@$0A@@std@@YAPAXI@Z 10042010 f i Sound.obj
 0001:00041090       ??$_Allocate_manually_vector_aligned@U_Default_allocate_traits@std@@@std@@YAPAXI@Z 10042090 f i Sound.obj
 0001:000411c0       ??$_Buy_if_not_node@AAU?$pair@$$CBV?$basic_string@DU?$char_traits@D@std@@V?$allocator@D@2@@std@@PAVCSndObj@SOUND@NMBASE@@@std@@@?$_Tree@V?$_Tmap_traits@V?$basic_string@DU?$char_traits@D@std@@V?$allocator@D@2@@std@@PAVCSndObj@SOUND@NMBASE@@U?$less@V?$basic_string@DU?$char_traits@D@std@@V?$allocator@D@2@@std@@@2@V?$allocator@U?$pair@$$CBV?$basic_string@DU?$char_traits@D@std@@V?$allocator@D@2@@std@@PAVCSndObj@SOUND@NMBASE@@@std@@@2@$0A@@std@@@std@@IAEPAU?$_Tree_node@U?$pair@$$CBV?$basic_string@DU?$char_traits@D@std@@V?$allocator@D@2@@std@@PAVCSndObj@SOUND@NMBASE@@@std@@PAX@1@PAU21@AAU?$pair@$$CBV?$basic_string@DU?$char_traits@D@std@@V?$allocator@D@2@@std@@PAVCSndObj@SOUND@NMBASE@@@1@@Z 100421c0 f i Sound.obj
 0001:00041200       ??$_Buy_if_not_node@V?$basic_string@DU?$char_traits@D@std@@V?$allocator@D@2@@std@@@?$_Tree@V?$_Tset_traits@V?$basic_string@DU?$char_traits@D@std@@V?$allocator@D@2@@std@@U?$less@V?$basic_string@DU?$char_traits@D@std@@V?$allocator@D@2@@std@@@2@V?$allocator@V?$basic_string@DU?$char_traits@D@std@@V?$allocator@D@2@@std@@@2@$0A@@std@@@std@@IAEPAU?$_Tree_node@V?$basic_string@DU?$char_traits@D@std@@V?$allocator@D@2@@std@@PAX@1@U_Not_a_node_tag@1@$$QAV?$basic_string@DU?$char_traits@D@std@@V?$allocator@D@2@@1@@Z 10042200 f i Sound.obj
 0001:00041270       ??$_Buynode@AAU?$pair@$$CBV?$basic_string@DU?$char_traits@D@std@@V?$allocator@D@2@@std@@PAVCSndObj@SOUND@NMBASE@@@std@@@?$_Tree_comp_alloc@V?$_Tmap_traits@V?$basic_string@DU?$char_traits@D@std@@V?$allocator@D@2@@std@@PAVCSndObj@SOUND@NMBASE@@U?$less@V?$basic_string@DU?$char_traits@D@std@@V?$allocator@D@2@@std@@@2@V?$allocator@U?$pair@$$CBV?$basic_string@DU?$char_traits@D@std@@V?$allocator@D@2@@std@@PAVCSndObj@SOUND@NMBASE@@@std@@@2@$0A@@std@@@std@@QAEPAU?$_Tree_node@U?$pair@$$CBV?$basic_string@DU?$char_traits@D@std@@V?$allocator@D@2@@std@@PAVCSndObj@SOUND@NMBASE@@@std@@PAX@1@AAU?$pair@$$CBV?$basic_string@DU?$char_traits@D@std@@V?$allocator@D@2@@std@@PAVCSndObj@SOUND@NMBASE@@@1@@Z 10042270 f i Sound.obj
 0001:00041390       ??$_Buynode@AAV?$basic_string@DU?$char_traits@D@std@@V?$allocator@D@2@@std@@@?$_Tree_comp_alloc@V?$_Tset_traits@V?$basic_string@DU?$char_traits@D@std@@V?$allocator@D@2@@std@@U?$less@V?$basic_string@DU?$char_traits@D@std@@V?$allocator@D@2@@std@@@2@V?$allocator@V?$basic_string@DU?$char_traits@D@std@@V?$allocator@D@2@@std@@@2@$0A@@std@@@std@@QAEPAU?$_Tree_node@V?$basic_string@DU?$char_traits@D@std@@V?$allocator@D@2@@std@@PAX@1@AAV?$basic_string@DU?$char_traits@D@std@@V?$allocator@D@2@@1@@Z 10042390 f i Sound.obj
 0001:000414b0       ??$_Buynode@ABQAUSNDPLAYDATA@SOUND@NMBASE@@@?$_List_buy@PAUSNDPLAYDATA@SOUND@NMBASE@@V?$allocator@PAUSNDPLAYDATA@SOUND@NMBASE@@@std@@@std@@QAEPAU?$_List_node@PAUSNDPLAYDATA@SOUND@NMBASE@@PAX@1@PAU21@0ABQAUSNDPLAYDATA@SOUND@NMBASE@@@Z 100424b0 f i Sound.obj
 0001:000415d0       ??$_Buynode@ABUpiecewise_construct_t@std@@V?$tuple@$$QAV?$basic_string@DU?$char_traits@D@std@@V?$allocator@D@2@@std@@@2@V?$tuple@$$V@2@@?$_Tree_comp_alloc@V?$_Tmap_traits@V?$basic_string@DU?$char_traits@D@std@@V?$allocator@D@2@@std@@PAVCSndObj@SOUND@NMBASE@@U?$less@V?$basic_string@DU?$char_traits@D@std@@V?$allocator@D@2@@std@@@2@V?$allocator@U?$pair@$$CBV?$basic_string@DU?$char_traits@D@std@@V?$allocator@D@2@@std@@PAVCSndObj@SOUND@NMBASE@@@std@@@2@$0A@@std@@@std@@QAEPAU?$_Tree_node@U?$pair@$$CBV?$basic_string@DU?$char_traits@D@std@@V?$allocator@D@2@@std@@PAVCSndObj@SOUND@NMBASE@@@std@@PAX@1@ABUpiecewise_construct_t@1@$$QAV?$tuple@$$QAV?$basic_string@DU?$char_traits@D@std@@V?$allocator@D@2@@std@@@1@$$QAV?$tuple@$$V@1@@Z 100425d0 f i Sound.obj
 0001:00041710       ??$_Buynode@V?$basic_string@DU?$char_traits@D@std@@V?$allocator@D@2@@std@@@?$_Tree_comp_alloc@V?$_Tset_traits@V?$basic_string@DU?$char_traits@D@std@@V?$allocator@D@2@@std@@U?$less@V?$basic_string@DU?$char_traits@D@std@@V?$allocator@D@2@@std@@@2@V?$allocator@V?$basic_string@DU?$char_traits@D@std@@V?$allocator@D@2@@std@@@2@$0A@@std@@@std@@QAEPAU?$_Tree_node@V?$basic_string@DU?$char_traits@D@std@@V?$allocator@D@2@@std@@PAX@1@$$QAV?$basic_string@DU?$char_traits@D@std@@V?$allocator@D@2@@1@@Z 10042710 f i Sound.obj
 0001:00041830       ??$_Convert_size@I@std@@YAII@Z 10042830 f i Sound.obj
 0001:00041870       ??$_Copy@U_Copy_tag@?$_Tree@V?$_Tmap_traits@V?$basic_string@DU?$char_traits@D@std@@V?$allocator@D@2@@std@@PAVCSndObj@SOUND@NMBASE@@U?$less@V?$basic_string@DU?$char_traits@D@std@@V?$allocator@D@2@@std@@@2@V?$allocator@U?$pair@$$CBV?$basic_string@DU?$char_traits@D@std@@V?$allocator@D@2@@std@@PAVCSndObj@SOUND@NMBASE@@@std@@@2@$0A@@std@@@std@@@?$_Tree@V?$_Tmap_traits@V?$basic_string@DU?$char_traits@D@std@@V?$allocator@D@2@@std@@PAVCSndObj@SOUND@NMBASE@@U?$less@V?$basic_string@DU?$char_traits@D@std@@V?$allocator@D@2@@std@@@2@V?$allocator@U?$pair@$$CBV?$basic_string@DU?$char_traits@D@std@@V?$allocator@D@2@@std@@PAVCSndObj@SOUND@NMBASE@@@std@@@2@$0A@@std@@@std@@IAEXABV01@U_Copy_tag@01@@Z 10042870 f i Sound.obj
 0001:000419b0       ??$_Copy@U_Copy_tag@?$_Tree@V?$_Tset_traits@V?$basic_string@DU?$char_traits@D@std@@V?$allocator@D@2@@std@@U?$less@V?$basic_string@DU?$char_traits@D@std@@V?$allocator@D@2@@std@@@2@V?$allocator@V?$basic_string@DU?$char_traits@D@std@@V?$allocator@D@2@@std@@@2@$0A@@std@@@std@@@?$_Tree@V?$_Tset_traits@V?$basic_string@DU?$char_traits@D@std@@V?$allocator@D@2@@std@@U?$less@V?$basic_string@DU?$char_traits@D@std@@V?$allocator@D@2@@std@@@2@V?$allocator@V?$basic_string@DU?$char_traits@D@std@@V?$allocator@D@2@@std@@@2@$0A@@std@@@std@@IAEXABV01@U_Copy_tag@01@@Z 100429b0 f i Sound.obj
 0001:00041af0       ??$_Copy_nodes@U_Copy_tag@?$_Tree@V?$_Tmap_traits@V?$basic_string@DU?$char_traits@D@std@@V?$allocator@D@2@@std@@PAVCSndObj@SOUND@NMBASE@@U?$less@V?$basic_string@DU?$char_traits@D@std@@V?$allocator@D@2@@std@@@2@V?$allocator@U?$pair@$$CBV?$basic_string@DU?$char_traits@D@std@@V?$allocator@D@2@@std@@PAVCSndObj@SOUND@NMBASE@@@std@@@2@$0A@@std@@@std@@@?$_Tree@V?$_Tmap_traits@V?$basic_string@DU?$char_traits@D@std@@V?$allocator@D@2@@std@@PAVCSndObj@SOUND@NMBASE@@U?$less@V?$basic_string@DU?$char_traits@D@std@@V?$allocator@D@2@@std@@@2@V?$allocator@U?$pair@$$CBV?$basic_string@DU?$char_traits@D@std@@V?$allocator@D@2@@std@@PAVCSndObj@SOUND@NMBASE@@@std@@@2@$0A@@std@@@std@@IAEPAU?$_Tree_node@U?$pair@$$CBV?$basic_string@DU?$char_traits@D@std@@V?$allocator@D@2@@std@@PAVCSndObj@SOUND@NMBASE@@@std@@PAX@1@PAU21@0U_Copy_tag@01@@Z 10042af0 f i Sound.obj
 0001:00041cd0       ??$_Copy_nodes@U_Copy_tag@?$_Tree@V?$_Tset_traits@V?$basic_string@DU?$char_traits@D@std@@V?$allocator@D@2@@std@@U?$less@V?$basic_string@DU?$char_traits@D@std@@V?$allocator@D@2@@std@@@2@V?$allocator@V?$basic_string@DU?$char_traits@D@std@@V?$allocator@D@2@@std@@@2@$0A@@std@@@std@@@?$_Tree@V?$_Tset_traits@V?$basic_string@DU?$char_traits@D@std@@V?$allocator@D@2@@std@@U?$less@V?$basic_string@DU?$char_traits@D@std@@V?$allocator@D@2@@std@@@2@V?$allocator@V?$basic_string@DU?$char_traits@D@std@@V?$allocator@D@2@@std@@@2@$0A@@std@@@std@@IAEPAU?$_Tree_node@V?$basic_string@DU?$char_traits@D@std@@V?$allocator@D@2@@std@@PAX@1@PAU21@0U_Copy_tag@01@@Z 10042cd0 f i Sound.obj
 0001:00041eb0       ??$_Copy_or_move@U?$pair@$$CBV?$basic_string@DU?$char_traits@D@std@@V?$allocator@D@2@@std@@PAVCSndObj@SOUND@NMBASE@@@std@@U?$integral_constant@_N$0A@@2@@?$_Tree@V?$_Tmap_traits@V?$basic_string@DU?$char_traits@D@std@@V?$allocator@D@2@@std@@PAVCSndObj@SOUND@NMBASE@@U?$less@V?$basic_string@DU?$char_traits@D@std@@V?$allocator@D@2@@std@@@2@V?$allocator@U?$pair@$$CBV?$basic_string@DU?$char_traits@D@std@@V?$allocator@D@2@@std@@PAVCSndObj@SOUND@NMBASE@@@std@@@2@$0A@@std@@@std@@IAEPAU?$_Tree_node@U?$pair@$$CBV?$basic_string@DU?$char_traits@D@std@@V?$allocator@D@2@@std@@PAVCSndObj@SOUND@NMBASE@@@std@@PAX@1@AAU?$pair@$$CBV?$basic_string@DU?$char_traits@D@std@@V?$allocator@D@2@@std@@PAVCSndObj@SOUND@NMBASE@@@1@U_Copy_tag@01@U?$integral_constant@_N$0A@@1@@Z 10042eb0 f i Sound.obj
 0001:00041f10       ??$_Copy_or_move@V?$basic_string@DU?$char_traits@D@std@@V?$allocator@D@2@@std@@U?$integral_constant@_N$00@2@@?$_Tree@V?$_Tset_traits@V?$basic_string@DU?$char_traits@D@std@@V?$allocator@D@2@@std@@U?$less@V?$basic_string@DU?$char_traits@D@std@@V?$allocator@D@2@@std@@@2@V?$allocator@V?$basic_string@DU?$char_traits@D@std@@V?$allocator@D@2@@std@@@2@$0A@@std@@@std@@IAEPAU?$_Tree_node@V?$basic_string@DU?$char_traits@D@std@@V?$allocator@D@2@@std@@PAX@1@AAV?$basic_string@DU?$char_traits@D@std@@V?$allocator@D@2@@1@U_Copy_tag@01@U?$integral_constant@_N$00@1@@Z 10042f10 f i Sound.obj
 0001:00041f70       ??$_Deallocate@$07$0A@@std@@YAXPAXI@Z 10042f70 f i Sound.obj
 0001:00041ff0       ??$_Deallocate_plain@V?$allocator@U_Container_proxy@std@@@std@@$0A@@std@@YAXAAV?$allocator@U_Container_proxy@std@@@0@QAU_Container_proxy@0@@Z 10042ff0 f i Sound.obj
 0001:00042050       ??$_Debug_lt_pred@AAU?$less@V?$basic_string@DU?$char_traits@D@std@@V?$allocator@D@2@@std@@@std@@AAV?$basic_string@DU?$char_traits@D@std@@V?$allocator@D@2@@2@ABV32@@std@@YA_NAAU?$less@V?$basic_string@DU?$char_traits@D@std@@V?$allocator@D@2@@std@@@0@AAV?$basic_string@DU?$char_traits@D@std@@V?$allocator@D@2@@0@ABV20@@Z 10043050 f i Sound.obj
 0001:00042150       ??$_Debug_lt_pred@AAU?$less@V?$basic_string@DU?$char_traits@D@std@@V?$allocator@D@2@@std@@@std@@ABV?$basic_string@DU?$char_traits@D@std@@V?$allocator@D@2@@2@ABV32@@std@@YA_NAAU?$less@V?$basic_string@DU?$char_traits@D@std@@V?$allocator@D@2@@std@@@0@ABV?$basic_string@DU?$char_traits@D@std@@V?$allocator@D@2@@0@1@Z 10043150 f i Sound.obj
 0001:00042250       ??$_Debug_lt_pred@ABU?$less@V?$basic_string@DU?$char_traits@D@std@@V?$allocator@D@2@@std@@@std@@ABV?$basic_string@DU?$char_traits@D@std@@V?$allocator@D@2@@2@ABV32@@std@@YA_NABU?$less@V?$basic_string@DU?$char_traits@D@std@@V?$allocator@D@2@@std@@@0@ABV?$basic_string@DU?$char_traits@D@std@@V?$allocator@D@2@@0@1@Z 10043250 f i Sound.obj
 0001:00042350       ??$_Freenode0@V?$allocator@U?$_List_node@PAUSNDPLAYDATA@SOUND@NMBASE@@PAX@std@@@std@@@?$_List_node@PAUSNDPLAYDATA@SOUND@NMBASE@@PAX@std@@SAXAAV?$allocator@U?$_List_node@PAUSNDPLAYDATA@SOUND@NMBASE@@PAX@std@@@1@PAU01@@Z 10043350 f i Sound.obj
 0001:00042460       ??$_Freenode0@V?$allocator@U?$_Tree_node@U?$pair@$$CBV?$basic_string@DU?$char_traits@D@std@@V?$allocator@D@2@@std@@PAVCSndObj@SOUND@NMBASE@@@std@@PAX@std@@@std@@@?$_Tree_node@U?$pair@$$CBV?$basic_string@DU?$char_traits@D@std@@V?$allocator@D@2@@std@@PAVCSndObj@SOUND@NMBASE@@@std@@PAX@std@@SAXAAV?$allocator@U?$_Tree_node@U?$pair@$$CBV?$basic_string@DU?$char_traits@D@std@@V?$allocator@D@2@@std@@PAVCSndObj@SOUND@NMBASE@@@std@@PAX@std@@@1@PAU01@@Z 10043460 f i Sound.obj
 0001:00042590       ??$_Freenode0@V?$allocator@U?$_Tree_node@V?$basic_string@DU?$char_traits@D@std@@V?$allocator@D@2@@std@@PAX@std@@@std@@@?$_Tree_node@V?$basic_string@DU?$char_traits@D@std@@V?$allocator@D@2@@std@@PAX@std@@SAXAAV?$allocator@U?$_Tree_node@V?$basic_string@DU?$char_traits@D@std@@V?$allocator@D@2@@std@@PAX@std@@@1@PAU01@@Z 10043590 f i Sound.obj
 0001:000426c0       ??$_Get_size_of_n@$00@std@@YAII@Z 100436c0 f i Sound.obj
 0001:00042700       ??$_Get_size_of_n@$07@std@@YAII@Z 10043700 f i Sound.obj
 0001:00042760       ??$_Get_size_of_n@$0CM@@std@@YAII@Z 10043760 f i Sound.obj
 0001:000427c0       ??$_Get_size_of_n@$0DA@@std@@YAII@Z 100437c0 f i Sound.obj
 0001:00042820       ??$_Get_size_of_n@$0M@@std@@YAII@Z 10043820 f i Sound.obj
 0001:00042880       ??$_Get_unwrapped@V?$_List_const_iterator@V?$_List_val@U?$_List_simple_types@PAUSNDPLAYDATA@SOUND@NMBASE@@@std@@@std@@@std@@$0A@@std@@YA@ABV?$_List_const_iterator@V?$_List_val@U?$_List_simple_types@PAUSNDPLAYDATA@SOUND@NMBASE@@@std@@@std@@@0@@Z 10043880 f i Sound.obj
 0001:000428e0       ??$_Insert@ABQAUSNDPLAYDATA@SOUND@NMBASE@@@?$list@PAUSNDPLAYDATA@SOUND@NMBASE@@V?$allocator@PAUSNDPLAYDATA@SOUND@NMBASE@@@std@@@std@@QAEXV?$_List_unchecked_const_iterator@V?$_List_val@U?$_List_simple_types@PAUSNDPLAYDATA@SOUND@NMBASE@@@std@@@std@@U_Iterator_base0@2@@1@ABQAUSNDPLAYDATA@SOUND@NMBASE@@@Z 100438e0 f i Sound.obj
 0001:00042990       ??$_Insert_at@AAU?$pair@$$CBV?$basic_string@DU?$char_traits@D@std@@V?$allocator@D@2@@std@@PAVCSndObj@SOUND@NMBASE@@@std@@PAU?$_Tree_node@U?$pair@$$CBV?$basic_string@DU?$char_traits@D@std@@V?$allocator@D@2@@std@@PAVCSndObj@SOUND@NMBASE@@@std@@PAX@2@@?$_Tree@V?$_Tmap_traits@V?$basic_string@DU?$char_traits@D@std@@V?$allocator@D@2@@std@@PAVCSndObj@SOUND@NMBASE@@U?$less@V?$basic_string@DU?$char_traits@D@std@@V?$allocator@D@2@@std@@@2@V?$allocator@U?$pair@$$CBV?$basic_string@DU?$char_traits@D@std@@V?$allocator@D@2@@std@@PAVCSndObj@SOUND@NMBASE@@@std@@@2@$0A@@std@@@std@@IAE?AV?$_Tree_iterator@V?$_Tree_val@U?$_Tree_simple_types@U?$pair@$$CBV?$basic_string@DU?$char_traits@D@std@@V?$allocator@D@2@@std@@PAVCSndObj@SOUND@NMBASE@@@std@@@std@@@std@@@1@_NPAU?$_Tree_node@U?$pair@$$CBV?$basic_string@DU?$char_traits@D@std@@V?$allocator@D@2@@std@@PAVCSndObj@SOUND@NMBASE@@@std@@PAX@1@AAU?$pair@$$CBV?$basic_string@DU?$char_traits@D@std@@V?$allocator@D@2@@std@@PAVCSndObj@SOUND@NMBASE@@@1@1@Z 10043990 f i Sound.obj
 0001:00042d10       ??$_Insert_at@V?$basic_string@DU?$char_traits@D@std@@V?$allocator@D@2@@std@@U_Not_a_node_tag@2@@?$_Tree@V?$_Tset_traits@V?$basic_string@DU?$char_traits@D@std@@V?$allocator@D@2@@std@@U?$less@V?$basic_string@DU?$char_traits@D@std@@V?$allocator@D@2@@std@@@2@V?$allocator@V?$basic_string@DU?$char_traits@D@std@@V?$allocator@D@2@@std@@@2@$0A@@std@@@std@@IAE?AV?$_Tree_const_iterator@V?$_Tree_val@U?$_Tree_simple_types@V?$basic_string@DU?$char_traits@D@std@@V?$allocator@D@2@@std@@@std@@@std@@@1@_NPAU?$_Tree_node@V?$basic_string@DU?$char_traits@D@std@@V?$allocator@D@2@@std@@PAX@1@$$QAV?$basic_string@DU?$char_traits@D@std@@V?$allocator@D@2@@1@U_Not_a_node_tag@1@@Z 10043d10 f i Sound.obj
 0001:00043090       ??$_Insert_hint@AAU?$pair@$$CBV?$basic_string@DU?$char_traits@D@std@@V?$allocator@D@2@@std@@PAVCSndObj@SOUND@NMBASE@@@std@@PAU?$_Tree_node@U?$pair@$$CBV?$basic_string@DU?$char_traits@D@std@@V?$allocator@D@2@@std@@PAVCSndObj@SOUND@NMBASE@@@std@@PAX@2@@?$_Tree@V?$_Tmap_traits@V?$basic_string@DU?$char_traits@D@std@@V?$allocator@D@2@@std@@PAVCSndObj@SOUND@NMBASE@@U?$less@V?$basic_string@DU?$char_traits@D@std@@V?$allocator@D@2@@std@@@2@V?$allocator@U?$pair@$$CBV?$basic_string@DU?$char_traits@D@std@@V?$allocator@D@2@@std@@PAVCSndObj@SOUND@NMBASE@@@std@@@2@$0A@@std@@@std@@IAE?AV?$_Tree_iterator@V?$_Tree_val@U?$_Tree_simple_types@U?$pair@$$CBV?$basic_string@DU?$char_traits@D@std@@V?$allocator@D@2@@std@@PAVCSndObj@SOUND@NMBASE@@@std@@@std@@@std@@@1@V?$_Tree_const_iterator@V?$_Tree_val@U?$_Tree_simple_types@U?$pair@$$CBV?$basic_string@DU?$char_traits@D@std@@V?$allocator@D@2@@std@@PAVCSndObj@SOUND@NMBASE@@@std@@@std@@@std@@@1@AAU?$pair@$$CBV?$basic_string@DU?$char_traits@D@std@@V?$allocator@D@2@@std@@PAVCSndObj@SOUND@NMBASE@@@1@PAU?$_Tree_node@U?$pair@$$CBV?$basic_string@DU?$char_traits@D@std@@V?$allocator@D@2@@std@@PAVCSndObj@SOUND@NMBASE@@@std@@PAX@1@@Z 10044090 f i Sound.obj
 0001:00044290       ??$_Insert_nohint@AAU?$pair@$$CBV?$basic_string@DU?$char_traits@D@std@@V?$allocator@D@2@@std@@PAVCSndObj@SOUND@NMBASE@@@std@@PAU?$_Tree_node@U?$pair@$$CBV?$basic_string@DU?$char_traits@D@std@@V?$allocator@D@2@@std@@PAVCSndObj@SOUND@NMBASE@@@std@@PAX@2@@?$_Tree@V?$_Tmap_traits@V?$basic_string@DU?$char_traits@D@std@@V?$allocator@D@2@@std@@PAVCSndObj@SOUND@NMBASE@@U?$less@V?$basic_string@DU?$char_traits@D@std@@V?$allocator@D@2@@std@@@2@V?$allocator@U?$pair@$$CBV?$basic_string@DU?$char_traits@D@std@@V?$allocator@D@2@@std@@PAVCSndObj@SOUND@NMBASE@@@std@@@2@$0A@@std@@@std@@IAE?AU?$pair@V?$_Tree_iterator@V?$_Tree_val@U?$_Tree_simple_types@U?$pair@$$CBV?$basic_string@DU?$char_traits@D@std@@V?$allocator@D@2@@std@@PAVCSndObj@SOUND@NMBASE@@@std@@@std@@@std@@@std@@_N@1@_NAAU?$pair@$$CBV?$basic_string@DU?$char_traits@D@std@@V?$allocator@D@2@@std@@PAVCSndObj@SOUND@NMBASE@@@1@PAU?$_Tree_node@U?$pair@$$CBV?$basic_string@DU?$char_traits@D@std@@V?$allocator@D@2@@std@@PAVCSndObj@SOUND@NMBASE@@@std@@PAX@1@@Z 10045290 f i Sound.obj
 0001:00044870       ??$_Insert_nohint@V?$basic_string@DU?$char_traits@D@std@@V?$allocator@D@2@@std@@U_Not_a_node_tag@2@@?$_Tree@V?$_Tset_traits@V?$basic_string@DU?$char_traits@D@std@@V?$allocator@D@2@@std@@U?$less@V?$basic_string@DU?$char_traits@D@std@@V?$allocator@D@2@@std@@@2@V?$allocator@V?$basic_string@DU?$char_traits@D@std@@V?$allocator@D@2@@std@@@2@$0A@@std@@@std@@IAE?AU?$pair@V?$_Tree_const_iterator@V?$_Tree_val@U?$_Tree_simple_types@V?$basic_string@DU?$char_traits@D@std@@V?$allocator@D@2@@std@@@std@@@std@@@std@@_N@1@_N$$QAV?$basic_string@DU?$char_traits@D@std@@V?$allocator@D@2@@1@U_Not_a_node_tag@1@@Z 10045870 f i Sound.obj
 0001:00044e60       ??$_Insert_range@V?$_List_const_iterator@V?$_List_val@U?$_List_simple_types@PAUSNDPLAYDATA@SOUND@NMBASE@@@std@@@std@@@std@@@?$list@PAUSNDPLAYDATA@SOUND@NMBASE@@V?$allocator@PAUSNDPLAYDATA@SOUND@NMBASE@@@std@@@std@@QAEXV?$_List_unchecked_const_iterator@V?$_List_val@U?$_List_simple_types@PAUSNDPLAYDATA@SOUND@NMBASE@@@std@@@std@@U_Iterator_base0@2@@1@V?$_List_const_iterator@V?$_List_val@U?$_List_simple_types@PAUSNDPLAYDATA@SOUND@NMBASE@@@std@@@std@@@1@1Uforward_iterator_tag@1@@Z 10045e60 f i Sound.obj
 0001:000450b0       ??$_Kfn@$$CBV?$basic_string@DU?$char_traits@D@std@@V?$allocator@D@2@@std@@PAVCSndObj@SOUND@NMBASE@@@?$_Tmap_traits@V?$basic_string@DU?$char_traits@D@std@@V?$allocator@D@2@@std@@PAVCSndObj@SOUND@NMBASE@@U?$less@V?$basic_string@DU?$char_traits@D@std@@V?$allocator@D@2@@std@@@2@V?$allocator@U?$pair@$$CBV?$basic_string@DU?$char_traits@D@std@@V?$allocator@D@2@@std@@PAVCSndObj@SOUND@NMBASE@@@std@@@2@$0A@@std@@SAABV?$basic_string@DU?$char_traits@D@std@@V?$allocator@D@2@@1@ABU?$pair@$$CBV?$basic_string@DU?$char_traits@D@std@@V?$allocator@D@2@@std@@PAVCSndObj@SOUND@NMBASE@@@1@@Z 100460b0 f i Sound.obj
 0001:000450f0       ??$_Lbound@V?$basic_string@DU?$char_traits@D@std@@V?$allocator@D@2@@std@@@?$_Tree@V?$_Tmap_traits@V?$basic_string@DU?$char_traits@D@std@@V?$allocator@D@2@@std@@PAVCSndObj@SOUND@NMBASE@@U?$less@V?$basic_string@DU?$char_traits@D@std@@V?$allocator@D@2@@std@@@2@V?$allocator@U?$pair@$$CBV?$basic_string@DU?$char_traits@D@std@@V?$allocator@D@2@@std@@PAVCSndObj@SOUND@NMBASE@@@std@@@2@$0A@@std@@@std@@IBEPAU?$_Tree_node@U?$pair@$$CBV?$basic_string@DU?$char_traits@D@std@@V?$allocator@D@2@@std@@PAVCSndObj@SOUND@NMBASE@@@std@@PAX@1@ABV?$basic_string@DU?$char_traits@D@std@@V?$allocator@D@2@@1@@Z 100460f0 f i Sound.obj
 0001:000451b0       ??$_Max_value@I@std@@YAABIABI0@Z 100461b0 f i Sound.obj
 0001:00045220       ??$_Min_value@I@std@@YAABIABI0@Z 10046220 f i Sound.obj
 0001:00045290       ??$_Pocca@V?$allocator@U?$_List_node@PAUSNDPLAYDATA@SOUND@NMBASE@@PAX@std@@@std@@@std@@YAXAAV?$allocator@U?$_List_node@PAUSNDPLAYDATA@SOUND@NMBASE@@PAX@std@@@0@ABV10@@Z 10046290 f i Sound.obj
 0001:00045320       ??$_Pocca@V?$allocator@U?$_List_node@PAUSNDPLAYDATA@SOUND@NMBASE@@PAX@std@@@std@@@std@@YAXAAV?$allocator@U?$_List_node@PAUSNDPLAYDATA@SOUND@NMBASE@@PAX@std@@@0@ABV10@U?$integral_constant@_N$0A@@0@@Z 10046320 f i Sound.obj
 0001:00045350       ??$_Pocca@V?$allocator@U?$_Tree_node@U?$pair@$$CBV?$basic_string@DU?$char_traits@D@std@@V?$allocator@D@2@@std@@PAVCSndObj@SOUND@NMBASE@@@std@@PAX@std@@@std@@@std@@YAXAAV?$allocator@U?$_Tree_node@U?$pair@$$CBV?$basic_string@DU?$char_traits@D@std@@V?$allocator@D@2@@std@@PAVCSndObj@SOUND@NMBASE@@@std@@PAX@std@@@0@ABV10@@Z 10046350 f i Sound.obj
 0001:000453e0       ??$_Pocca@V?$allocator@U?$_Tree_node@U?$pair@$$CBV?$basic_string@DU?$char_traits@D@std@@V?$allocator@D@2@@std@@PAVCSndObj@SOUND@NMBASE@@@std@@PAX@std@@@std@@@std@@YAXAAV?$allocator@U?$_Tree_node@U?$pair@$$CBV?$basic_string@DU?$char_traits@D@std@@V?$allocator@D@2@@std@@PAVCSndObj@SOUND@NMBASE@@@std@@PAX@std@@@0@ABV10@U?$integral_constant@_N$0A@@0@@Z 100463e0 f i Sound.obj
 0001:00045410       ??$_Pocca@V?$allocator@U?$_Tree_node@V?$basic_string@DU?$char_traits@D@std@@V?$allocator@D@2@@std@@PAX@std@@@std@@@std@@YAXAAV?$allocator@U?$_Tree_node@V?$basic_string@DU?$char_traits@D@std@@V?$allocator@D@2@@std@@PAX@std@@@0@ABV10@@Z 10046410 f i Sound.obj
 0001:000454a0       ??$_Pocca@V?$allocator@U?$_Tree_node@V?$basic_string@DU?$char_traits@D@std@@V?$allocator@D@2@@std@@PAX@std@@@std@@@std@@YAXAAV?$allocator@U?$_Tree_node@V?$basic_string@DU?$char_traits@D@std@@V?$allocator@D@2@@std@@PAX@std@@@0@ABV10@U?$integral_constant@_N$0A@@0@@Z 100464a0 f i Sound.obj
 0001:000454d0       ??$_Reallocate_for@V<lambda_9366063389c5f42a00a5088cf24e69de>@@PBD@?$basic_string@DU?$char_traits@D@std@@V?$allocator@D@2@@std@@QAEAAV01@IV<lambda_9366063389c5f42a00a5088cf24e69de>@@PBD@Z 100464d0 f i Sound.obj
 0001:00045660       ??$_Reallocate_grow_by@V<lambda_ab246b20b9526e2ef7792587e4298a77>@@PBDI@?$basic_string@DU?$char_traits@D@std@@V?$allocator@D@2@@std@@QAEAAV01@IV<lambda_ab246b20b9526e2ef7792587e4298a77>@@PBDI@Z 10046660 f i Sound.obj
 0001:00045850       ??$_Reusenode@ABQAUSNDPLAYDATA@SOUND@NMBASE@@@?$list@PAUSNDPLAYDATA@SOUND@NMBASE@@V?$allocator@PAUSNDPLAYDATA@SOUND@NMBASE@@@std@@@std@@QAEXV?$_List_iterator@V?$_List_val@U?$_List_simple_types@PAUSNDPLAYDATA@SOUND@NMBASE@@@std@@@std@@@1@ABQAUSNDPLAYDATA@SOUND@NMBASE@@@Z 10046850 f i Sound.obj
 0001:000459c0       ??$_Traits_compare@U?$char_traits@D@std@@@std@@YAHQBDI0I@Z 100469c0 f i Sound.obj
 0001:00045a70       ??$_Traits_equal@U?$char_traits@D@std@@@std@@YA_NQBDI0I@Z 10046a70 f i Sound.obj
 0001:00045b00       ??$_Try_emplace@V?$basic_string@DU?$char_traits@D@std@@V?$allocator@D@2@@std@@$$V@?$map@V?$basic_string@DU?$char_traits@D@std@@V?$allocator@D@2@@std@@PAVCSndObj@SOUND@NMBASE@@U?$less@V?$basic_string@DU?$char_traits@D@std@@V?$allocator@D@2@@std@@@2@V?$allocator@U?$pair@$$CBV?$basic_string@DU?$char_traits@D@std@@V?$allocator@D@2@@std@@PAVCSndObj@SOUND@NMBASE@@@std@@@2@@std@@QAE?AU?$pair@V?$_Tree_iterator@V?$_Tree_val@U?$_Tree_simple_types@U?$pair@$$CBV?$basic_string@DU?$char_traits@D@std@@V?$allocator@D@2@@std@@PAVCSndObj@SOUND@NMBASE@@@std@@@std@@@std@@@std@@_N@1@$$QAV?$basic_string@DU?$char_traits@D@std@@V?$allocator@D@2@@1@@Z 10046b00 f i Sound.obj
 0001:00045e20       ??$_Unfancy@D@std@@YAPADPAD@Z 10046e20 f i Sound.obj
 0001:00045e60       ??$_Unfancy@U_Container_proxy@std@@@std@@YAPAU_Container_proxy@0@PAU10@@Z 10046e60 f i Sound.obj
 0001:00045ea0       ??$addressof@$$CBV?$_List_val@U?$_List_simple_types@PAUSNDPLAYDATA@SOUND@NMBASE@@@std@@@std@@@std@@YAPBV?$_List_val@U?$_List_simple_types@PAUSNDPLAYDATA@SOUND@NMBASE@@@std@@@0@ABV10@@Z 10046ea0 f i Sound.obj
 0001:00045ee0       ??$addressof@$$CBV?$_Tree@V?$_Tmap_traits@V?$basic_string@DU?$char_traits@D@std@@V?$allocator@D@2@@std@@PAVCSndObj@SOUND@NMBASE@@U?$less@V?$basic_string@DU?$char_traits@D@std@@V?$allocator@D@2@@std@@@2@V?$allocator@U?$pair@$$CBV?$basic_string@DU?$char_traits@D@std@@V?$allocator@D@2@@std@@PAVCSndObj@SOUND@NMBASE@@@std@@@2@$0A@@std@@@std@@@std@@YAPBV?$_Tree@V?$_Tmap_traits@V?$basic_string@DU?$char_traits@D@std@@V?$allocator@D@2@@std@@PAVCSndObj@SOUND@NMBASE@@U?$less@V?$basic_string@DU?$char_traits@D@std@@V?$allocator@D@2@@std@@@2@V?$allocator@U?$pair@$$CBV?$basic_string@DU?$char_traits@D@std@@V?$allocator@D@2@@std@@PAVCSndObj@SOUND@NMBASE@@@std@@@2@$0A@@std@@@0@ABV10@@Z 10046ee0 f i Sound.obj
 0001:00045f20       ??$addressof@$$CBV?$_Tree@V?$_Tset_traits@V?$basic_string@DU?$char_traits@D@std@@V?$allocator@D@2@@std@@U?$less@V?$basic_string@DU?$char_traits@D@std@@V?$allocator@D@2@@std@@@2@V?$allocator@V?$basic_string@DU?$char_traits@D@std@@V?$allocator@D@2@@std@@@2@$0A@@std@@@std@@@std@@YAPBV?$_Tree@V?$_Tset_traits@V?$basic_string@DU?$char_traits@D@std@@V?$allocator@D@2@@std@@U?$less@V?$basic_string@DU?$char_traits@D@std@@V?$allocator@D@2@@std@@@2@V?$allocator@V?$basic_string@DU?$char_traits@D@std@@V?$allocator@D@2@@std@@@2@$0A@@std@@@0@ABV10@@Z 10046f20 f i Sound.obj
 0001:00045f60       ??$addressof@$$CBV?$list@PAUSNDPLAYDATA@SOUND@NMBASE@@V?$allocator@PAUSNDPLAYDATA@SOUND@NMBASE@@@std@@@std@@@std@@YAPBV?$list@PAUSNDPLAYDATA@SOUND@NMBASE@@V?$allocator@PAUSNDPLAYDATA@SOUND@NMBASE@@@std@@@0@ABV10@@Z 10046f60 f i Sound.obj
 0001:00045fa0       ??$addressof@PAD@std@@YAPAPADAAPAD@Z 10046fa0 f i Sound.obj
 0001:00045fe0       ??$addressof@PAU?$_List_node@PAUSNDPLAYDATA@SOUND@NMBASE@@PAX@std@@@std@@YAPAPAU?$_List_node@PAUSNDPLAYDATA@SOUND@NMBASE@@PAX@0@AAPAU10@@Z 10046fe0 f i Sound.obj
 0001:00046020       ??$addressof@PAU?$_Tree_node@U?$pair@$$CBV?$basic_string@DU?$char_traits@D@std@@V?$allocator@D@2@@std@@PAVCSndObj@SOUND@NMBASE@@@std@@PAX@std@@@std@@YAPAPAU?$_Tree_node@U?$pair@$$CBV?$basic_string@DU?$char_traits@D@std@@V?$allocator@D@2@@std@@PAVCSndObj@SOUND@NMBASE@@@std@@PAX@0@AAPAU10@@Z 10047020 f i Sound.obj
 0001:00046060       ??$addressof@PAU?$_Tree_node@V?$basic_string@DU?$char_traits@D@std@@V?$allocator@D@2@@std@@PAX@std@@@std@@YAPAPAU?$_Tree_node@V?$basic_string@DU?$char_traits@D@std@@V?$allocator@D@2@@std@@PAX@0@AAPAU10@@Z 10047060 f i Sound.obj
 0001:000460a0       ??$addressof@PAUSNDPLAYDATA@SOUND@NMBASE@@@std@@YAPAPAUSNDPLAYDATA@SOUND@NMBASE@@AAPAU123@@Z 100470a0 f i Sound.obj
 0001:000460e0       ??$addressof@U?$pair@$$CBV?$basic_string@DU?$char_traits@D@std@@V?$allocator@D@2@@std@@PAVCSndObj@SOUND@NMBASE@@@std@@@std@@YAPAU?$pair@$$CBV?$basic_string@DU?$char_traits@D@std@@V?$allocator@D@2@@std@@PAVCSndObj@SOUND@NMBASE@@@0@AAU10@@Z 100470e0 f i Sound.obj
 0001:00046120       ??$addressof@V?$_List_val@U?$_List_simple_types@PAUSNDPLAYDATA@SOUND@NMBASE@@@std@@@std@@@std@@YAPAV?$_List_val@U?$_List_simple_types@PAUSNDPLAYDATA@SOUND@NMBASE@@@std@@@0@AAV10@@Z 10047120 f i Sound.obj
 0001:00046160       ??$addressof@V?$_String_val@U?$_Simple_types@D@std@@@std@@@std@@YAPAV?$_String_val@U?$_Simple_types@D@std@@@0@AAV10@@Z 10047160 f i Sound.obj
 0001:000461a0       ??$addressof@V?$_Tree_val@U?$_Tree_simple_types@U?$pair@$$CBV?$basic_string@DU?$char_traits@D@std@@V?$allocator@D@2@@std@@PAVCSndObj@SOUND@NMBASE@@@std@@@std@@@std@@@std@@YAPAV?$_Tree_val@U?$_Tree_simple_types@U?$pair@$$CBV?$basic_string@DU?$char_traits@D@std@@V?$allocator@D@2@@std@@PAVCSndObj@SOUND@NMBASE@@@std@@@std@@@0@AAV10@@Z 100471a0 f i Sound.obj
 0001:000461e0       ??$addressof@V?$_Tree_val@U?$_Tree_simple_types@V?$basic_string@DU?$char_traits@D@std@@V?$allocator@D@2@@std@@@std@@@std@@@std@@YAPAV?$_Tree_val@U?$_Tree_simple_types@V?$basic_string@DU?$char_traits@D@std@@V?$allocator@D@2@@std@@@std@@@0@AAV10@@Z 100471e0 f i Sound.obj
 0001:00046220       ??$addressof@V?$basic_string@DU?$char_traits@D@std@@V?$allocator@D@2@@std@@@std@@YAPAV?$basic_string@DU?$char_traits@D@std@@V?$allocator@D@2@@0@AAV10@@Z 10047220 f i Sound.obj
 0001:00046260       ??$assign@V?$_List_const_iterator@V?$_List_val@U?$_List_simple_types@PAUSNDPLAYDATA@SOUND@NMBASE@@@std@@@std@@@std@@X@?$list@PAUSNDPLAYDATA@SOUND@NMBASE@@V?$allocator@PAUSNDPLAYDATA@SOUND@NMBASE@@@std@@@std@@QAEXV?$_List_const_iterator@V?$_List_val@U?$_List_simple_types@PAUSNDPLAYDATA@SOUND@NMBASE@@@std@@@std@@@1@0@Z 10047260 f i Sound.obj
 0001:00046630       ??$construct@PADABQAD@?$_Default_allocator_traits@V?$allocator@D@std@@@std@@SAXAAV?$allocator@D@1@QAPADABQAD@Z 10047630 f i Sound.obj
 0001:000466b0       ??$construct@PAU?$_List_node@PAUSNDPLAYDATA@SOUND@NMBASE@@PAX@std@@AAPAU12@@?$_Default_allocator_traits@V?$allocator@U?$_List_node@PAUSNDPLAYDATA@SOUND@NMBASE@@PAX@std@@@std@@@std@@SAXAAV?$allocator@U?$_List_node@PAUSNDPLAYDATA@SOUND@NMBASE@@PAX@std@@@1@QAPAU?$_List_node@PAUSNDPLAYDATA@SOUND@NMBASE@@PAX@1@AAPAU31@@Z 100476b0 f i Sound.obj
 0001:00046730       ??$construct@PAU?$_Tree_node@U?$pair@$$CBV?$basic_string@DU?$char_traits@D@std@@V?$allocator@D@2@@std@@PAVCSndObj@SOUND@NMBASE@@@std@@PAX@std@@AAPAU12@@?$_Default_allocator_traits@V?$allocator@U?$_Tree_node@U?$pair@$$CBV?$basic_string@DU?$char_traits@D@std@@V?$allocator@D@2@@std@@PAVCSndObj@SOUND@NMBASE@@@std@@PAX@std@@@std@@@std@@SAXAAV?$allocator@U?$_Tree_node@U?$pair@$$CBV?$basic_string@DU?$char_traits@D@std@@V?$allocator@D@2@@std@@PAVCSndObj@SOUND@NMBASE@@@std@@PAX@std@@@1@QAPAU?$_Tree_node@U?$pair@$$CBV?$basic_string@DU?$char_traits@D@std@@V?$allocator@D@2@@std@@PAVCSndObj@SOUND@NMBASE@@@std@@PAX@1@AAPAU31@@Z 10047730 f i Sound.obj
 0001:000467b0       ??$construct@PAU?$_Tree_node@V?$basic_string@DU?$char_traits@D@std@@V?$allocator@D@2@@std@@PAX@std@@AAPAU12@@?$_Default_allocator_traits@V?$allocator@U?$_Tree_node@V?$basic_string@DU?$char_traits@D@std@@V?$allocator@D@2@@std@@PAX@std@@@std@@@std@@SAXAAV?$allocator@U?$_Tree_node@V?$basic_string@DU?$char_traits@D@std@@V?$allocator@D@2@@std@@PAX@std@@@1@QAPAU?$_Tree_node@V?$basic_string@DU?$char_traits@D@std@@V?$allocator@D@2@@std@@PAX@1@AAPAU31@@Z 100477b0 f i Sound.obj
 0001:00046830       ??$construct@PAUSNDPLAYDATA@SOUND@NMBASE@@ABQAU123@@?$_Default_allocator_traits@V?$allocator@U?$_List_node@PAUSNDPLAYDATA@SOUND@NMBASE@@PAX@std@@@std@@@std@@SAXAAV?$allocator@U?$_List_node@PAUSNDPLAYDATA@SOUND@NMBASE@@PAX@std@@@1@QAPAUSNDPLAYDATA@SOUND@NMBASE@@ABQAU345@@Z 10047830 f i Sound.obj
 0001:000468b0       ??$construct@U?$pair@$$CBV?$basic_string@DU?$char_traits@D@std@@V?$allocator@D@2@@std@@PAVCSndObj@SOUND@NMBASE@@@std@@AAU12@@?$_Default_allocator_traits@V?$allocator@U?$_Tree_node@U?$pair@$$CBV?$basic_string@DU?$char_traits@D@std@@V?$allocator@D@2@@std@@PAVCSndObj@SOUND@NMBASE@@@std@@PAX@std@@@std@@@std@@SAXAAV?$allocator@U?$_Tree_node@U?$pair@$$CBV?$basic_string@DU?$char_traits@D@std@@V?$allocator@D@2@@std@@PAVCSndObj@SOUND@NMBASE@@@std@@PAX@std@@@1@QAU?$pair@$$CBV?$basic_string@DU?$char_traits@D@std@@V?$allocator@D@2@@std@@PAVCSndObj@SOUND@NMBASE@@@1@AAU31@@Z 100478b0 f i Sound.obj
 0001:00046930       ??$construct@U?$pair@$$CBV?$basic_string@DU?$char_traits@D@std@@V?$allocator@D@2@@std@@PAVCSndObj@SOUND@NMBASE@@@std@@ABUpiecewise_construct_t@2@V?$tuple@$$QAV?$basic_string@DU?$char_traits@D@std@@V?$allocator@D@2@@std@@@2@V?$tuple@$$V@2@@?$_Default_allocator_traits@V?$allocator@U?$_Tree_node@U?$pair@$$CBV?$basic_string@DU?$char_traits@D@std@@V?$allocator@D@2@@std@@PAVCSndObj@SOUND@NMBASE@@@std@@PAX@std@@@std@@@std@@SAXAAV?$allocator@U?$_Tree_node@U?$pair@$$CBV?$basic_string@DU?$char_traits@D@std@@V?$allocator@D@2@@std@@PAVCSndObj@SOUND@NMBASE@@@std@@PAX@std@@@1@QAU?$pair@$$CBV?$basic_string@DU?$char_traits@D@std@@V?$allocator@D@2@@std@@PAVCSndObj@SOUND@NMBASE@@@1@ABUpiecewise_construct_t@1@$$QAV?$tuple@$$QAV?$basic_string@DU?$char_traits@D@std@@V?$allocator@D@2@@std@@@1@$$QAV?$tuple@$$V@1@@Z 10047930 f i Sound.obj
 0001:000469f0       ??$construct@U_Container_proxy@std@@U12@@?$_Default_allocator_traits@V?$allocator@U_Container_proxy@std@@@std@@@std@@SAXAAV?$allocator@U_Container_proxy@std@@@1@QAU_Container_proxy@1@$$QAU31@@Z 100479f0 f i Sound.obj
 0001:00046a70       ??$construct@V?$basic_string@DU?$char_traits@D@std@@V?$allocator@D@2@@std@@AAV12@@?$_Default_allocator_traits@V?$allocator@U?$_Tree_node@V?$basic_string@DU?$char_traits@D@std@@V?$allocator@D@2@@std@@PAX@std@@@std@@@std@@SAXAAV?$allocator@U?$_Tree_node@V?$basic_string@DU?$char_traits@D@std@@V?$allocator@D@2@@std@@PAX@std@@@1@QAV?$basic_string@DU?$char_traits@D@std@@V?$allocator@D@2@@1@AAV31@@Z 10047a70 f i Sound.obj
 0001:00046af0       ??$construct@V?$basic_string@DU?$char_traits@D@std@@V?$allocator@D@2@@std@@V12@@?$_Default_allocator_traits@V?$allocator@U?$_Tree_node@V?$basic_string@DU?$char_traits@D@std@@V?$allocator@D@2@@std@@PAX@std@@@std@@@std@@SAXAAV?$allocator@U?$_Tree_node@V?$basic_string@DU?$char_traits@D@std@@V?$allocator@D@2@@std@@PAX@std@@@1@QAV?$basic_string@DU?$char_traits@D@std@@V?$allocator@D@2@@1@$$QAV31@@Z 10047af0 f i Sound.obj
 0001:00046b70       ??$destroy@PAD@?$_Default_allocator_traits@V?$allocator@D@std@@@std@@SAXAAV?$allocator@D@1@QAPAD@Z 10047b70 f i Sound.obj
 0001:00046ba0       ??$destroy@PAU?$_List_node@PAUSNDPLAYDATA@SOUND@NMBASE@@PAX@std@@@?$_Default_allocator_traits@V?$allocator@U?$_List_node@PAUSNDPLAYDATA@SOUND@NMBASE@@PAX@std@@@std@@@std@@SAXAAV?$allocator@U?$_List_node@PAUSNDPLAYDATA@SOUND@NMBASE@@PAX@std@@@1@QAPAU?$_List_node@PAUSNDPLAYDATA@SOUND@NMBASE@@PAX@1@@Z 10047ba0 f i Sound.obj
 0001:00046bd0       ??$destroy@PAU?$_Tree_node@U?$pair@$$CBV?$basic_string@DU?$char_traits@D@std@@V?$allocator@D@2@@std@@PAVCSndObj@SOUND@NMBASE@@@std@@PAX@std@@@?$_Default_allocator_traits@V?$allocator@U?$_Tree_node@U?$pair@$$CBV?$basic_string@DU?$char_traits@D@std@@V?$allocator@D@2@@std@@PAVCSndObj@SOUND@NMBASE@@@std@@PAX@std@@@std@@@std@@SAXAAV?$allocator@U?$_Tree_node@U?$pair@$$CBV?$basic_string@DU?$char_traits@D@std@@V?$allocator@D@2@@std@@PAVCSndObj@SOUND@NMBASE@@@std@@PAX@std@@@1@QAPAU?$_Tree_node@U?$pair@$$CBV?$basic_string@DU?$char_traits@D@std@@V?$allocator@D@2@@std@@PAVCSndObj@SOUND@NMBASE@@@std@@PAX@1@@Z 10047bd0 f i Sound.obj
 0001:00046c00       ??$destroy@PAU?$_Tree_node@V?$basic_string@DU?$char_traits@D@std@@V?$allocator@D@2@@std@@PAX@std@@@?$_Default_allocator_traits@V?$allocator@U?$_Tree_node@V?$basic_string@DU?$char_traits@D@std@@V?$allocator@D@2@@std@@PAX@std@@@std@@@std@@SAXAAV?$allocator@U?$_Tree_node@V?$basic_string@DU?$char_traits@D@std@@V?$allocator@D@2@@std@@PAX@std@@@1@QAPAU?$_Tree_node@V?$basic_string@DU?$char_traits@D@std@@V?$allocator@D@2@@std@@PAX@1@@Z 10047c00 f i Sound.obj
 0001:00046c30       ??$destroy@PAUSNDPLAYDATA@SOUND@NMBASE@@@?$_Default_allocator_traits@V?$allocator@U?$_List_node@PAUSNDPLAYDATA@SOUND@NMBASE@@PAX@std@@@std@@@std@@SAXAAV?$allocator@U?$_List_node@PAUSNDPLAYDATA@SOUND@NMBASE@@PAX@std@@@1@QAPAUSNDPLAYDATA@SOUND@NMBASE@@@Z 10047c30 f i Sound.obj
 0001:00046c60       ??$destroy@U?$pair@$$CBV?$basic_string@DU?$char_traits@D@std@@V?$allocator@D@2@@std@@PAVCSndObj@SOUND@NMBASE@@@std@@@?$_Default_allocator_traits@V?$allocator@U?$_Tree_node@U?$pair@$$CBV?$basic_string@DU?$char_traits@D@std@@V?$allocator@D@2@@std@@PAVCSndObj@SOUND@NMBASE@@@std@@PAX@std@@@std@@@std@@SAXAAV?$allocator@U?$_Tree_node@U?$pair@$$CBV?$basic_string@DU?$char_traits@D@std@@V?$allocator@D@2@@std@@PAVCSndObj@SOUND@NMBASE@@@std@@PAX@std@@@1@QAU?$pair@$$CBV?$basic_string@DU?$char_traits@D@std@@V?$allocator@D@2@@std@@PAVCSndObj@SOUND@NMBASE@@@1@@Z 10047c60 f i Sound.obj
 0001:00046cb0       ??$destroy@U_Container_proxy@std@@@?$_Default_allocator_traits@V?$allocator@U_Container_proxy@std@@@std@@@std@@SAXAAV?$allocator@U_Container_proxy@std@@@1@QAU_Container_proxy@1@@Z 10047cb0 f i Sound.obj
 0001:00046ce0       ??$destroy@V?$basic_string@DU?$char_traits@D@std@@V?$allocator@D@2@@std@@@?$_Default_allocator_traits@V?$allocator@U?$_Tree_node@V?$basic_string@DU?$char_traits@D@std@@V?$allocator@D@2@@std@@PAX@std@@@std@@@std@@SAXAAV?$allocator@U?$_Tree_node@V?$basic_string@DU?$char_traits@D@std@@V?$allocator@D@2@@std@@PAX@std@@@1@QAV?$basic_string@DU?$char_traits@D@std@@V?$allocator@D@2@@1@@Z 10047ce0 f i Sound.obj
 0001:00046d30       ??$emplace_hint@ABUpiecewise_construct_t@std@@V?$tuple@$$QAV?$basic_string@DU?$char_traits@D@std@@V?$allocator@D@2@@std@@@2@V?$tuple@$$V@2@@?$_Tree@V?$_Tmap_traits@V?$basic_string@DU?$char_traits@D@std@@V?$allocator@D@2@@std@@PAVCSndObj@SOUND@NMBASE@@U?$less@V?$basic_string@DU?$char_traits@D@std@@V?$allocator@D@2@@std@@@2@V?$allocator@U?$pair@$$CBV?$basic_string@DU?$char_traits@D@std@@V?$allocator@D@2@@std@@PAVCSndObj@SOUND@NMBASE@@@std@@@2@$0A@@std@@@std@@QAE?AV?$_Tree_iterator@V?$_Tree_val@U?$_Tree_simple_types@U?$pair@$$CBV?$basic_string@DU?$char_traits@D@std@@V?$allocator@D@2@@std@@PAVCSndObj@SOUND@NMBASE@@@std@@@std@@@std@@@1@V?$_Tree_const_iterator@V?$_Tree_val@U?$_Tree_simple_types@U?$pair@$$CBV?$basic_string@DU?$char_traits@D@std@@V?$allocator@D@2@@std@@PAVCSndObj@SOUND@NMBASE@@@std@@@std@@@std@@@1@ABUpiecewise_construct_t@1@$$QAV?$tuple@$$QAV?$basic_string@DU?$char_traits@D@std@@V?$allocator@D@2@@std@@@1@$$QAV?$tuple@$$V@1@@Z 10047d30 f i Sound.obj
 0001:00046e70       ??$erase@V?$_Tree_iterator@V?$_Tree_val@U?$_Tree_simple_types@U?$pair@$$CBV?$basic_string@DU?$char_traits@D@std@@V?$allocator@D@2@@std@@PAVCSndObj@SOUND@NMBASE@@@std@@@std@@@std@@@std@@X@?$_Tree@V?$_Tmap_traits@V?$basic_string@DU?$char_traits@D@std@@V?$allocator@D@2@@std@@PAVCSndObj@SOUND@NMBASE@@U?$less@V?$basic_string@DU?$char_traits@D@std@@V?$allocator@D@2@@std@@@2@V?$allocator@U?$pair@$$CBV?$basic_string@DU?$char_traits@D@std@@V?$allocator@D@2@@std@@PAVCSndObj@SOUND@NMBASE@@@std@@@2@$0A@@std@@@std@@QAE?AV?$_Tree_iterator@V?$_Tree_val@U?$_Tree_simple_types@U?$pair@$$CBV?$basic_string@DU?$char_traits@D@std@@V?$allocator@D@2@@std@@PAVCSndObj@SOUND@NMBASE@@@std@@@std@@@std@@@1@V21@@Z 10047e70 f i Sound.obj
 0001:00046f60       ??$forward@$$QAV?$basic_string@DU?$char_traits@D@std@@V?$allocator@D@2@@std@@@std@@YA$$QAV?$basic_string@DU?$char_traits@D@std@@V?$allocator@D@2@@0@AAV10@@Z 10047f60 f i Sound.obj
 0001:00046fa0       ??$forward@AAPAU?$_List_node@PAUSNDPLAYDATA@SOUND@NMBASE@@PAX@std@@@std@@YAAAPAU?$_List_node@PAUSNDPLAYDATA@SOUND@NMBASE@@PAX@0@AAPAU10@@Z 10047fa0 f i Sound.obj
 0001:00046fe0       ??$forward@AAPAU?$_Tree_node@U?$pair@$$CBV?$basic_string@DU?$char_traits@D@std@@V?$allocator@D@2@@std@@PAVCSndObj@SOUND@NMBASE@@@std@@PAX@std@@@std@@YAAAPAU?$_Tree_node@U?$pair@$$CBV?$basic_string@DU?$char_traits@D@std@@V?$allocator@D@2@@std@@PAVCSndObj@SOUND@NMBASE@@@std@@PAX@0@AAPAU10@@Z 10047fe0 f i Sound.obj
 0001:00047020       ??$forward@AAPAU?$_Tree_node@V?$basic_string@DU?$char_traits@D@std@@V?$allocator@D@2@@std@@PAX@std@@@std@@YAAAPAU?$_Tree_node@V?$basic_string@DU?$char_traits@D@std@@V?$allocator@D@2@@std@@PAX@0@AAPAU10@@Z 10048020 f i Sound.obj
 0001:00047060       ??$forward@AAU?$pair@$$CBV?$basic_string@DU?$char_traits@D@std@@V?$allocator@D@2@@std@@PAVCSndObj@SOUND@NMBASE@@@std@@@std@@YAAAU?$pair@$$CBV?$basic_string@DU?$char_traits@D@std@@V?$allocator@D@2@@std@@PAVCSndObj@SOUND@NMBASE@@@0@AAU10@@Z 10048060 f i Sound.obj
 0001:000470a0       ??$forward@AAV?$_Tree_const_iterator@V?$_Tree_val@U?$_Tree_simple_types@V?$basic_string@DU?$char_traits@D@std@@V?$allocator@D@2@@std@@@std@@@std@@@std@@@std@@YAAAV?$_Tree_const_iterator@V?$_Tree_val@U?$_Tree_simple_types@V?$basic_string@DU?$char_traits@D@std@@V?$allocator@D@2@@std@@@std@@@std@@@0@AAV10@@Z 100480a0 f i Sound.obj
 0001:000470e0       ??$forward@AAV?$_Tree_iterator@V?$_Tree_val@U?$_Tree_simple_types@U?$pair@$$CBV?$basic_string@DU?$char_traits@D@std@@V?$allocator@D@2@@std@@PAVCSndObj@SOUND@NMBASE@@@std@@@std@@@std@@@std@@@std@@YAAAV?$_Tree_iterator@V?$_Tree_val@U?$_Tree_simple_types@U?$pair@$$CBV?$basic_string@DU?$char_traits@D@std@@V?$allocator@D@2@@std@@PAVCSndObj@SOUND@NMBASE@@@std@@@std@@@std@@@0@AAV10@@Z 100480e0 f i Sound.obj
 0001:00047120       ??$forward@AAV?$basic_string@DU?$char_traits@D@std@@V?$allocator@D@2@@std@@@std@@YAAAV?$basic_string@DU?$char_traits@D@std@@V?$allocator@D@2@@0@AAV10@@Z 10048120 f i Sound.obj
 0001:00047160       ??$forward@ABQAD@std@@YAABQADABQAD@Z 10048160 f i Sound.obj
 0001:000471a0       ??$forward@ABQAUSNDPLAYDATA@SOUND@NMBASE@@@std@@YAABQAUSNDPLAYDATA@SOUND@NMBASE@@ABQAU123@@Z 100481a0 f i Sound.obj
 0001:000471e0       ??$forward@ABU?$less@V?$basic_string@DU?$char_traits@D@std@@V?$allocator@D@2@@std@@@std@@@std@@YAABU?$less@V?$basic_string@DU?$char_traits@D@std@@V?$allocator@D@2@@std@@@0@ABU10@@Z 100481e0 f i Sound.obj
 0001:00047220       ??$forward@ABUpiecewise_construct_t@std@@@std@@YAABUpiecewise_construct_t@0@ABU10@@Z 10048220 f i Sound.obj
 0001:00047260       ??$forward@U_Container_proxy@std@@@std@@YA$$QAU_Container_proxy@0@AAU10@@Z 10048260 f i Sound.obj
 0001:000472a0       ??$forward@U_One_then_variadic_args_t@std@@@std@@YA$$QAU_One_then_variadic_args_t@0@AAU10@@Z 100482a0 f i Sound.obj
 0001:000472e0       ??$forward@U_Zero_then_variadic_args_t@std@@@std@@YA$$QAU_Zero_then_variadic_args_t@0@AAU10@@Z 100482e0 f i Sound.obj
 0001:00047320       ??$forward@V?$_Tree_const_iterator@V?$_Tree_val@U?$_Tree_simple_types@V?$basic_string@DU?$char_traits@D@std@@V?$allocator@D@2@@std@@@std@@@std@@@std@@@std@@YA$$QAV?$_Tree_const_iterator@V?$_Tree_val@U?$_Tree_simple_types@V?$basic_string@DU?$char_traits@D@std@@V?$allocator@D@2@@std@@@std@@@std@@@0@AAV10@@Z 10048320 f i Sound.obj
 0001:00047360       ??$forward@V?$_Tree_iterator@V?$_Tree_val@U?$_Tree_simple_types@U?$pair@$$CBV?$basic_string@DU?$char_traits@D@std@@V?$allocator@D@2@@std@@PAVCSndObj@SOUND@NMBASE@@@std@@@std@@@std@@@std@@@std@@YA$$QAV?$_Tree_iterator@V?$_Tree_val@U?$_Tree_simple_types@U?$pair@$$CBV?$basic_string@DU?$char_traits@D@std@@V?$allocator@D@2@@std@@PAVCSndObj@SOUND@NMBASE@@@std@@@std@@@std@@@0@AAV10@@Z 10048360 f i Sound.obj
 0001:000473a0       ??$forward@V?$allocator@D@std@@@std@@YA$$QAV?$allocator@D@0@AAV10@@Z 100483a0 f i Sound.obj
 0001:000473e0       ??$forward@V?$allocator@U?$_List_node@PAUSNDPLAYDATA@SOUND@NMBASE@@PAX@std@@@std@@@std@@YA$$QAV?$allocator@U?$_List_node@PAUSNDPLAYDATA@SOUND@NMBASE@@PAX@std@@@0@AAV10@@Z 100483e0 f i Sound.obj
 0001:00047420       ??$forward@V?$allocator@U?$_Tree_node@U?$pair@$$CBV?$basic_string@DU?$char_traits@D@std@@V?$allocator@D@2@@std@@PAVCSndObj@SOUND@NMBASE@@@std@@PAX@std@@@std@@@std@@YA$$QAV?$allocator@U?$_Tree_node@U?$pair@$$CBV?$basic_string@DU?$char_traits@D@std@@V?$allocator@D@2@@std@@PAVCSndObj@SOUND@NMBASE@@@std@@PAX@std@@@0@AAV10@@Z 10048420 f i Sound.obj
 0001:00047460       ??$forward@V?$allocator@U?$_Tree_node@V?$basic_string@DU?$char_traits@D@std@@V?$allocator@D@2@@std@@PAX@std@@@std@@@std@@YA$$QAV?$allocator@U?$_Tree_node@V?$basic_string@DU?$char_traits@D@std@@V?$allocator@D@2@@std@@PAX@std@@@0@AAV10@@Z 10048460 f i Sound.obj
 0001:000474a0       ??$forward@V?$basic_string@DU?$char_traits@D@std@@V?$allocator@D@2@@std@@@std@@YA$$QAV?$basic_string@DU?$char_traits@D@std@@V?$allocator@D@2@@0@AAV10@@Z 100484a0 f i Sound.obj
 0001:000474e0       ??$forward@V?$tuple@$$QAV?$basic_string@DU?$char_traits@D@std@@V?$allocator@D@2@@std@@@std@@@std@@YA$$QAV?$tuple@$$QAV?$basic_string@DU?$char_traits@D@std@@V?$allocator@D@2@@std@@@0@AAV10@@Z 100484e0 f i Sound.obj
 0001:00047520       ??$forward@V?$tuple@$$V@std@@@std@@YA$$QAV?$tuple@$$V@0@AAV10@@Z 10048520 f i Sound.obj
 0001:00047560       ??$forward@_N@std@@YA$$QA_NAA_N@Z 10048560 f i Sound.obj
 0001:000475a0       ??$forward_as_tuple@$$V@std@@YA?AV?$tuple@$$V@0@XZ 100485a0 f i Sound.obj
 0001:000475f0       ??$forward_as_tuple@V?$basic_string@DU?$char_traits@D@std@@V?$allocator@D@2@@std@@@std@@YA?AV?$tuple@$$QAV?$basic_string@DU?$char_traits@D@std@@V?$allocator@D@2@@std@@@0@$$QAV?$basic_string@DU?$char_traits@D@std@@V?$allocator@D@2@@0@@Z 100485f0 f i Sound.obj
 0001:00047650       ??$get@$0A@$$QAV?$basic_string@DU?$char_traits@D@std@@V?$allocator@D@2@@std@@@std@@YA$$QAV?$basic_string@DU?$char_traits@D@std@@V?$allocator@D@2@@0@$$QAV?$tuple@$$QAV?$basic_string@DU?$char_traits@D@std@@V?$allocator@D@2@@std@@@0@@Z 10048650 f i Sound.obj
 0001:000476a0       ??$insert@$0A@$0A@@?$_Tree@V?$_Tset_traits@V?$basic_string@DU?$char_traits@D@std@@V?$allocator@D@2@@std@@U?$less@V?$basic_string@DU?$char_traits@D@std@@V?$allocator@D@2@@std@@@2@V?$allocator@V?$basic_string@DU?$char_traits@D@std@@V?$allocator@D@2@@std@@@2@$0A@@std@@@std@@QAE?AU?$pair@V?$_Tree_const_iterator@V?$_Tree_val@U?$_Tree_simple_types@V?$basic_string@DU?$char_traits@D@std@@V?$allocator@D@2@@std@@@std@@@std@@@std@@_N@1@$$QAV?$basic_string@DU?$char_traits@D@std@@V?$allocator@D@2@@1@@Z 100486a0 f i Sound.obj
 0001:00047740       ??$insert@V?$_List_const_iterator@V?$_List_val@U?$_List_simple_types@PAUSNDPLAYDATA@SOUND@NMBASE@@@std@@@std@@@std@@X@?$list@PAUSNDPLAYDATA@SOUND@NMBASE@@V?$allocator@PAUSNDPLAYDATA@SOUND@NMBASE@@@std@@@std@@QAE?AV?$_List_iterator@V?$_List_val@U?$_List_simple_types@PAUSNDPLAYDATA@SOUND@NMBASE@@@std@@@std@@@1@V?$_List_const_iterator@V?$_List_val@U?$_List_simple_types@PAUSNDPLAYDATA@SOUND@NMBASE@@@std@@@std@@@1@00@Z 10048740 f i Sound.obj
 0001:00047b70       ??$move@AAD@std@@YA$$QADAAD@Z 10048b70 f i Sound.obj
 0001:00047bb0       ??$move@AAV?$allocator@D@std@@@std@@YA$$QAV?$allocator@D@0@AAV10@@Z 10048bb0 f i Sound.obj
 0001:00047bf0       ??$move@AAV?$basic_string@DU?$char_traits@D@std@@V?$allocator@D@2@@std@@@std@@YA$$QAV?$basic_string@DU?$char_traits@D@std@@V?$allocator@D@2@@0@AAV10@@Z 10048bf0 f i Sound.obj
 0001:00047c30       ??$move@AAV?$tuple@$$QAV?$basic_string@DU?$char_traits@D@std@@V?$allocator@D@2@@std@@@std@@@std@@YA$$QAV?$tuple@$$QAV?$basic_string@DU?$char_traits@D@std@@V?$allocator@D@2@@std@@@0@AAV10@@Z 10048c30 f i Sound.obj
 0001:00047c70       ??$swap@DX@std@@YAXAAD0@Z  10048c70 f i Sound.obj
 0001:00047d30       ??$try_emplace@$$V@?$map@V?$basic_string@DU?$char_traits@D@std@@V?$allocator@D@2@@std@@PAVCSndObj@SOUND@NMBASE@@U?$less@V?$basic_string@DU?$char_traits@D@std@@V?$allocator@D@2@@std@@@2@V?$allocator@U?$pair@$$CBV?$basic_string@DU?$char_traits@D@std@@V?$allocator@D@2@@std@@PAVCSndObj@SOUND@NMBASE@@@std@@@2@@std@@QAE?AU?$pair@V?$_Tree_iterator@V?$_Tree_val@U?$_Tree_simple_types@U?$pair@$$CBV?$basic_string@DU?$char_traits@D@std@@V?$allocator@D@2@@std@@PAVCSndObj@SOUND@NMBASE@@@std@@@std@@@std@@@std@@_N@1@$$QAV?$basic_string@DU?$char_traits@D@std@@V?$allocator@D@2@@1@@Z 10048d30 f i Sound.obj
 0001:00047dc0       ??0?$_List_alloc@U?$_List_base_types@PAUSNDPLAYDATA@SOUND@NMBASE@@V?$allocator@PAUSNDPLAYDATA@SOUND@NMBASE@@@std@@@std@@@std@@QAE@XZ 10048dc0 f i Sound.obj
 0001:00047ed0       ??0?$_List_buy@PAUSNDPLAYDATA@SOUND@NMBASE@@V?$allocator@PAUSNDPLAYDATA@SOUND@NMBASE@@@std@@@std@@QAE@XZ 10048ed0 f i Sound.obj
 0001:00047f30       ??0?$_List_const_iterator@V?$_List_val@U?$_List_simple_types@PAUSNDPLAYDATA@SOUND@NMBASE@@@std@@@std@@@std@@QAE@$$QAV01@@Z 10048f30 f i Sound.obj
 0001:00047f90       ??0?$_List_const_iterator@V?$_List_val@U?$_List_simple_types@PAUSNDPLAYDATA@SOUND@NMBASE@@@std@@@std@@@std@@QAE@ABV01@@Z 10048f90 f i Sound.obj
 0001:00047ff0       ??0?$_List_const_iterator@V?$_List_val@U?$_List_simple_types@PAUSNDPLAYDATA@SOUND@NMBASE@@@std@@@std@@@std@@QAE@PAU?$_List_node@PAUSNDPLAYDATA@SOUND@NMBASE@@PAX@1@PBV?$_List_val@U?$_List_simple_types@PAUSNDPLAYDATA@SOUND@NMBASE@@@std@@@1@@Z 10048ff0 f i Sound.obj
 0001:00048050       ??0?$_List_iterator@V?$_List_val@U?$_List_simple_types@PAUSNDPLAYDATA@SOUND@NMBASE@@@std@@@std@@@std@@QAE@$$QAV01@@Z 10049050 f i Sound.obj
 0001:000480b0       ??0?$_List_iterator@V?$_List_val@U?$_List_simple_types@PAUSNDPLAYDATA@SOUND@NMBASE@@@std@@@std@@@std@@QAE@ABV01@@Z 100490b0 f i Sound.obj
 0001:00048110       ??0?$_List_iterator@V?$_List_val@U?$_List_simple_types@PAUSNDPLAYDATA@SOUND@NMBASE@@@std@@@std@@@std@@QAE@PAU?$_List_node@PAUSNDPLAYDATA@SOUND@NMBASE@@PAX@1@PBV?$_List_val@U?$_List_simple_types@PAUSNDPLAYDATA@SOUND@NMBASE@@@std@@@1@@Z 10049110 f i Sound.obj
 0001:00048170       ??0?$_List_unchecked_const_iterator@V?$_List_val@U?$_List_simple_types@PAUSNDPLAYDATA@SOUND@NMBASE@@@std@@@std@@U_Iterator_base0@2@@std@@QAE@PAU?$_List_node@PAUSNDPLAYDATA@SOUND@NMBASE@@PAX@1@PBV?$_List_val@U?$_List_simple_types@PAUSNDPLAYDATA@SOUND@NMBASE@@@std@@@1@@Z 10049170 f i Sound.obj
 0001:000481e0       ??0?$_List_unchecked_const_iterator@V?$_List_val@U?$_List_simple_types@PAUSNDPLAYDATA@SOUND@NMBASE@@@std@@@std@@U_Iterator_base12@2@@std@@QAE@$$QAV01@@Z 100491e0 f i Sound.obj
 0001:00048250       ??0?$_List_unchecked_const_iterator@V?$_List_val@U?$_List_simple_types@PAUSNDPLAYDATA@SOUND@NMBASE@@@std@@@std@@U_Iterator_base12@2@@std@@QAE@ABV01@@Z 10049250 f i Sound.obj
 0001:000482c0       ??0?$_List_unchecked_const_iterator@V?$_List_val@U?$_List_simple_types@PAUSNDPLAYDATA@SOUND@NMBASE@@@std@@@std@@U_Iterator_base12@2@@std@@QAE@PAU?$_List_node@PAUSNDPLAYDATA@SOUND@NMBASE@@PAX@1@PBV?$_List_val@U?$_List_simple_types@PAUSNDPLAYDATA@SOUND@NMBASE@@@std@@@1@@Z 100492c0 f i Sound.obj
 0001:00048330       ??0?$_List_unchecked_iterator@V?$_List_val@U?$_List_simple_types@PAUSNDPLAYDATA@SOUND@NMBASE@@@std@@@std@@@std@@QAE@PAU?$_List_node@PAUSNDPLAYDATA@SOUND@NMBASE@@PAX@1@PBV?$_List_val@U?$_List_simple_types@PAUSNDPLAYDATA@SOUND@NMBASE@@@std@@@1@@Z 10049330 f i Sound.obj
 0001:00048390       ??0?$_List_val@U?$_List_simple_types@PAUSNDPLAYDATA@SOUND@NMBASE@@@std@@@std@@QAE@XZ 10049390 f i Sound.obj
 0001:00048400       ??0?$_String_alloc@U?$_String_base_types@DV?$allocator@D@std@@@std@@@std@@QAE@XZ 10049400 f i Sound.obj
 0001:000484b0       ??0?$_String_val@U?$_Simple_types@D@std@@@std@@QAE@XZ 100494b0 f i Sound.obj
 0001:00048530       ??0?$_Tree@V?$_Tmap_traits@V?$basic_string@DU?$char_traits@D@std@@V?$allocator@D@2@@std@@PAVCSndObj@SOUND@NMBASE@@U?$less@V?$basic_string@DU?$char_traits@D@std@@V?$allocator@D@2@@std@@@2@V?$allocator@U?$pair@$$CBV?$basic_string@DU?$char_traits@D@std@@V?$allocator@D@2@@std@@PAVCSndObj@SOUND@NMBASE@@@std@@@2@$0A@@std@@@std@@QAE@ABU?$less@V?$basic_string@DU?$char_traits@D@std@@V?$allocator@D@2@@std@@@1@@Z 10049530 f i Sound.obj
 0001:00048590       ??0?$_Tree@V?$_Tset_traits@V?$basic_string@DU?$char_traits@D@std@@V?$allocator@D@2@@std@@U?$less@V?$basic_string@DU?$char_traits@D@std@@V?$allocator@D@2@@std@@@2@V?$allocator@V?$basic_string@DU?$char_traits@D@std@@V?$allocator@D@2@@std@@@2@$0A@@std@@@std@@QAE@ABU?$less@V?$basic_string@DU?$char_traits@D@std@@V?$allocator@D@2@@std@@@1@@Z 10049590 f i Sound.obj
 0001:000485f0       ??0?$_Tree_comp_alloc@V?$_Tmap_traits@V?$basic_string@DU?$char_traits@D@std@@V?$allocator@D@2@@std@@PAVCSndObj@SOUND@NMBASE@@U?$less@V?$basic_string@DU?$char_traits@D@std@@V?$allocator@D@2@@std@@@2@V?$allocator@U?$pair@$$CBV?$basic_string@DU?$char_traits@D@std@@V?$allocator@D@2@@std@@PAVCSndObj@SOUND@NMBASE@@@std@@@2@$0A@@std@@@std@@QAE@ABU?$less@V?$basic_string@DU?$char_traits@D@std@@V?$allocator@D@2@@std@@@1@@Z 100495f0 f i Sound.obj
 0001:00048670       ??0?$_Tree_comp_alloc@V?$_Tset_traits@V?$basic_string@DU?$char_traits@D@std@@V?$allocator@D@2@@std@@U?$less@V?$basic_string@DU?$char_traits@D@std@@V?$allocator@D@2@@std@@@2@V?$allocator@V?$basic_string@DU?$char_traits@D@std@@V?$allocator@D@2@@std@@@2@$0A@@std@@@std@@QAE@ABU?$less@V?$basic_string@DU?$char_traits@D@std@@V?$allocator@D@2@@std@@@1@@Z 10049670 f i Sound.obj
 0001:000486f0       ??0?$_Tree_const_iterator@V?$_Tree_val@U?$_Tree_simple_types@U?$pair@$$CBV?$basic_string@DU?$char_traits@D@std@@V?$allocator@D@2@@std@@PAVCSndObj@SOUND@NMBASE@@@std@@@std@@@std@@@std@@QAE@$$QAV01@@Z 100496f0 f i Sound.obj
 0001:00048750       ??0?$_Tree_const_iterator@V?$_Tree_val@U?$_Tree_simple_types@U?$pair@$$CBV?$basic_string@DU?$char_traits@D@std@@V?$allocator@D@2@@std@@PAVCSndObj@SOUND@NMBASE@@@std@@@std@@@std@@@std@@QAE@ABV01@@Z 10049750 f i Sound.obj
 0001:000487b0       ??0?$_Tree_const_iterator@V?$_Tree_val@U?$_Tree_simple_types@U?$pair@$$CBV?$basic_string@DU?$char_traits@D@std@@V?$allocator@D@2@@std@@PAVCSndObj@SOUND@NMBASE@@@std@@@std@@@std@@@std@@QAE@PAU?$_Tree_node@U?$pair@$$CBV?$basic_string@DU?$char_traits@D@std@@V?$allocator@D@2@@std@@PAVCSndObj@SOUND@NMBASE@@@std@@PAX@1@PBV?$_Tree_val@U?$_Tree_simple_types@U?$pair@$$CBV?$basic_string@DU?$char_traits@D@std@@V?$allocator@D@2@@std@@PAVCSndObj@SOUND@NMBASE@@@std@@@std@@@1@@Z 100497b0 f i Sound.obj
 0001:00048810       ??0?$_Tree_const_iterator@V?$_Tree_val@U?$_Tree_simple_types@U?$pair@$$CBV?$basic_string@DU?$char_traits@D@std@@V?$allocator@D@2@@std@@PAVCSndObj@SOUND@NMBASE@@@std@@@std@@@std@@@std@@QAE@XZ 10049810 f i Sound.obj
 0001:00048870       ??0?$_Tree_const_iterator@V?$_Tree_val@U?$_Tree_simple_types@V?$basic_string@DU?$char_traits@D@std@@V?$allocator@D@2@@std@@@std@@@std@@@std@@QAE@$$QAV01@@Z 10049870 f i Sound.obj
 0001:000488d0       ??0?$_Tree_const_iterator@V?$_Tree_val@U?$_Tree_simple_types@V?$basic_string@DU?$char_traits@D@std@@V?$allocator@D@2@@std@@@std@@@std@@@std@@QAE@ABV01@@Z 100498d0 f i Sound.obj
 0001:00048930       ??0?$_Tree_const_iterator@V?$_Tree_val@U?$_Tree_simple_types@V?$basic_string@DU?$char_traits@D@std@@V?$allocator@D@2@@std@@@std@@@std@@@std@@QAE@PAU?$_Tree_node@V?$basic_string@DU?$char_traits@D@std@@V?$allocator@D@2@@std@@PAX@1@PBV?$_Tree_val@U?$_Tree_simple_types@V?$basic_string@DU?$char_traits@D@std@@V?$allocator@D@2@@std@@@std@@@1@@Z 10049930 f i Sound.obj
 0001:00048990       ??0?$_Tree_iterator@V?$_Tree_val@U?$_Tree_simple_types@U?$pair@$$CBV?$basic_string@DU?$char_traits@D@std@@V?$allocator@D@2@@std@@PAVCSndObj@SOUND@NMBASE@@@std@@@std@@@std@@@std@@QAE@$$QAV01@@Z 10049990 f i Sound.obj
 0001:000489f0       ??0?$_Tree_iterator@V?$_Tree_val@U?$_Tree_simple_types@U?$pair@$$CBV?$basic_string@DU?$char_traits@D@std@@V?$allocator@D@2@@std@@PAVCSndObj@SOUND@NMBASE@@@std@@@std@@@std@@@std@@QAE@ABV01@@Z 100499f0 f i Sound.obj
 0001:00048a50       ??0?$_Tree_iterator@V?$_Tree_val@U?$_Tree_simple_types@U?$pair@$$CBV?$basic_string@DU?$char_traits@D@std@@V?$allocator@D@2@@std@@PAVCSndObj@SOUND@NMBASE@@@std@@@std@@@std@@@std@@QAE@PAU?$_Tree_node@U?$pair@$$CBV?$basic_string@DU?$char_traits@D@std@@V?$allocator@D@2@@std@@PAVCSndObj@SOUND@NMBASE@@@std@@PAX@1@PBV?$_Tree_val@U?$_Tree_simple_types@U?$pair@$$CBV?$basic_string@DU?$char_traits@D@std@@V?$allocator@D@2@@std@@PAVCSndObj@SOUND@NMBASE@@@std@@@std@@@1@@Z 10049a50 f i Sound.obj
 0001:00048ab0       ??0?$_Tree_iterator@V?$_Tree_val@U?$_Tree_simple_types@U?$pair@$$CBV?$basic_string@DU?$char_traits@D@std@@V?$allocator@D@2@@std@@PAVCSndObj@SOUND@NMBASE@@@std@@@std@@@std@@@std@@QAE@XZ 10049ab0 f i Sound.obj
 0001:00048b10       ??0?$_Tree_unchecked_const_iterator@V?$_Tree_val@U?$_Tree_simple_types@U?$pair@$$CBV?$basic_string@DU?$char_traits@D@std@@V?$allocator@D@2@@std@@PAVCSndObj@SOUND@NMBASE@@@std@@@std@@@std@@U_Iterator_base12@2@@std@@QAE@$$QAV01@@Z 10049b10 f i Sound.obj
 0001:00048b80       ??0?$_Tree_unchecked_const_iterator@V?$_Tree_val@U?$_Tree_simple_types@U?$pair@$$CBV?$basic_string@DU?$char_traits@D@std@@V?$allocator@D@2@@std@@PAVCSndObj@SOUND@NMBASE@@@std@@@std@@@std@@U_Iterator_base12@2@@std@@QAE@ABV01@@Z 10049b80 f i Sound.obj
 0001:00048bf0       ??0?$_Tree_unchecked_const_iterator@V?$_Tree_val@U?$_Tree_simple_types@U?$pair@$$CBV?$basic_string@DU?$char_traits@D@std@@V?$allocator@D@2@@std@@PAVCSndObj@SOUND@NMBASE@@@std@@@std@@@std@@U_Iterator_base12@2@@std@@QAE@PAU?$_Tree_node@U?$pair@$$CBV?$basic_string@DU?$char_traits@D@std@@V?$allocator@D@2@@std@@PAVCSndObj@SOUND@NMBASE@@@std@@PAX@1@PBV?$_Tree_val@U?$_Tree_simple_types@U?$pair@$$CBV?$basic_string@DU?$char_traits@D@std@@V?$allocator@D@2@@std@@PAVCSndObj@SOUND@NMBASE@@@std@@@std@@@1@@Z 10049bf0 f i Sound.obj
 0001:00048c60       ??0?$_Tree_unchecked_const_iterator@V?$_Tree_val@U?$_Tree_simple_types@U?$pair@$$CBV?$basic_string@DU?$char_traits@D@std@@V?$allocator@D@2@@std@@PAVCSndObj@SOUND@NMBASE@@@std@@@std@@@std@@U_Iterator_base12@2@@std@@QAE@XZ 10049c60 f i Sound.obj
 0001:00048cc0       ??0?$_Tree_unchecked_const_iterator@V?$_Tree_val@U?$_Tree_simple_types@V?$basic_string@DU?$char_traits@D@std@@V?$allocator@D@2@@std@@@std@@@std@@U_Iterator_base12@2@@std@@QAE@$$QAV01@@Z 10049cc0 f i Sound.obj
 0001:00048d30       ??0?$_Tree_unchecked_const_iterator@V?$_Tree_val@U?$_Tree_simple_types@V?$basic_string@DU?$char_traits@D@std@@V?$allocator@D@2@@std@@@std@@@std@@U_Iterator_base12@2@@std@@QAE@ABV01@@Z 10049d30 f i Sound.obj
 0001:00048da0       ??0?$_Tree_unchecked_const_iterator@V?$_Tree_val@U?$_Tree_simple_types@V?$basic_string@DU?$char_traits@D@std@@V?$allocator@D@2@@std@@@std@@@std@@U_Iterator_base12@2@@std@@QAE@PAU?$_Tree_node@V?$basic_string@DU?$char_traits@D@std@@V?$allocator@D@2@@std@@PAX@1@PBV?$_Tree_val@U?$_Tree_simple_types@V?$basic_string@DU?$char_traits@D@std@@V?$allocator@D@2@@std@@@std@@@1@@Z 10049da0 f i Sound.obj
 0001:00048e10       ??0?$_Tree_val@U?$_Tree_simple_types@U?$pair@$$CBV?$basic_string@DU?$char_traits@D@std@@V?$allocator@D@2@@std@@PAVCSndObj@SOUND@NMBASE@@@std@@@std@@@std@@QAE@XZ 10049e10 f i Sound.obj
 0001:00048e80       ??0?$_Tree_val@U?$_Tree_simple_types@V?$basic_string@DU?$char_traits@D@std@@V?$allocator@D@2@@std@@@std@@@std@@QAE@XZ 10049e80 f i Sound.obj
 0001:00048ef0       ??0?$allocator@D@std@@QAE@XZ 10049ef0 f i Sound.obj
 0001:00048f30       ??0?$allocator@U?$_List_node@PAUSNDPLAYDATA@SOUND@NMBASE@@PAX@std@@@std@@QAE@XZ 10049f30 f i Sound.obj
 0001:00048f70       ??0?$allocator@U?$_Tree_node@U?$pair@$$CBV?$basic_string@DU?$char_traits@D@std@@V?$allocator@D@2@@std@@PAVCSndObj@SOUND@NMBASE@@@std@@PAX@std@@@std@@QAE@XZ 10049f70 f i Sound.obj
 0001:00048fb0       ??0?$allocator@U?$_Tree_node@V?$basic_string@DU?$char_traits@D@std@@V?$allocator@D@2@@std@@PAX@std@@@std@@QAE@XZ 10049fb0 f i Sound.obj
 0001:00048ff0       ??0?$basic_string@DU?$char_traits@D@std@@V?$allocator@D@2@@std@@QAE@$$QAV01@@Z 10049ff0 f i Sound.obj
 0001:000490c0       ??0?$basic_string@DU?$char_traits@D@std@@V?$allocator@D@2@@std@@QAE@ABV01@@Z 1004a0c0 f i Sound.obj
 0001:00049190       ??0?$basic_string@DU?$char_traits@D@std@@V?$allocator@D@2@@std@@QAE@QBD@Z 1004a190 f i Sound.obj
 0001:00049250       ??0?$basic_string@DU?$char_traits@D@std@@V?$allocator@D@2@@std@@QAE@XZ 1004a250 f i Sound.obj
 0001:000492f0       ??0?$list@PAUSNDPLAYDATA@SOUND@NMBASE@@V?$allocator@PAUSNDPLAYDATA@SOUND@NMBASE@@@std@@@std@@QAE@ABV01@@Z 1004a2f0 f i Sound.obj
 0001:000494a0       ??0?$list@PAUSNDPLAYDATA@SOUND@NMBASE@@V?$allocator@PAUSNDPLAYDATA@SOUND@NMBASE@@@std@@@std@@QAE@XZ 1004a4a0 f i Sound.obj
 0001:00049500       ??0?$map@V?$basic_string@DU?$char_traits@D@std@@V?$allocator@D@2@@std@@PAVCSndObj@SOUND@NMBASE@@U?$less@V?$basic_string@DU?$char_traits@D@std@@V?$allocator@D@2@@std@@@2@V?$allocator@U?$pair@$$CBV?$basic_string@DU?$char_traits@D@std@@V?$allocator@D@2@@std@@PAVCSndObj@SOUND@NMBASE@@@std@@@2@@std@@QAE@ABV01@@Z 1004a500 f i Sound.obj
 0001:00049580       ??0?$map@V?$basic_string@DU?$char_traits@D@std@@V?$allocator@D@2@@std@@PAVCSndObj@SOUND@NMBASE@@U?$less@V?$basic_string@DU?$char_traits@D@std@@V?$allocator@D@2@@std@@@2@V?$allocator@U?$pair@$$CBV?$basic_string@DU?$char_traits@D@std@@V?$allocator@D@2@@std@@PAVCSndObj@SOUND@NMBASE@@@std@@@2@@std@@QAE@XZ 1004a580 f i Sound.obj
 0001:000495e0       ??0?$pair@$$CBV?$basic_string@DU?$char_traits@D@std@@V?$allocator@D@2@@std@@PAVCSndObj@SOUND@NMBASE@@@std@@QAE@ABU01@@Z 1004a5e0 f i Sound.obj
 0001:00049650       ??0?$set@V?$basic_string@DU?$char_traits@D@std@@V?$allocator@D@2@@std@@U?$less@V?$basic_string@DU?$char_traits@D@std@@V?$allocator@D@2@@std@@@2@V?$allocator@V?$basic_string@DU?$char_traits@D@std@@V?$allocator@D@2@@std@@@2@@std@@QAE@ABV01@@Z 1004a650 f i Sound.obj
 0001:000496d0       ??0?$set@V?$basic_string@DU?$char_traits@D@std@@V?$allocator@D@2@@std@@U?$less@V?$basic_string@DU?$char_traits@D@std@@V?$allocator@D@2@@std@@@2@V?$allocator@V?$basic_string@DU?$char_traits@D@std@@V?$allocator@D@2@@std@@@2@@std@@QAE@XZ 1004a6d0 f i Sound.obj
 0001:00049730       ??0?$tuple@$$QAV?$basic_string@DU?$char_traits@D@std@@V?$allocator@D@2@@std@@@std@@QAE@$$QAV01@@Z 1004a730 f i Sound.obj
 0001:000497a0       ??0?$tuple@$$V@std@@QAE@ABV01@@Z 1004a7a0 f i Sound.obj
 0001:000497e0       ??0?$tuple@$$V@std@@QAE@XZ 1004a7e0 f i Sound.obj
 0001:00049820       ??0CSndObj@SOUND@NMBASE@@QAE@XZ 1004a820 f   Sound.obj
 0001:000498d0       ??0CSound@SOUND@NMBASE@@QAE@ABV012@@Z 1004a8d0 f i Sound.obj
 0001:00049ac0       ??0CSound@SOUND@NMBASE@@QAE@XZ 1004aac0 f   Sound.obj
 0001:00049c70       ??0SNDPLAYDATA@SOUND@NMBASE@@QAE@XZ 1004ac70 f i Sound.obj
 0001:00049cd0       ??0_Bxty@?$_String_val@U?$_Simple_types@D@std@@@std@@QAE@XZ 1004acd0 f i Sound.obj
 0001:00049d10       ??0_Container_base12@std@@QAE@XZ 1004ad10 f i Sound.obj
 0001:00049d60       ??0_Container_proxy@std@@QAE@XZ 1004ad60 f i Sound.obj
 0001:00049db0       ??0_Iterator_base12@std@@QAE@ABU01@@Z 1004adb0 f i Sound.obj
 0001:00049e30       ??0_Iterator_base12@std@@QAE@XZ 1004ae30 f i Sound.obj
 0001:00049e80       ??1?$_Compressed_pair@V?$allocator@D@std@@V?$_String_val@U?$_Simple_types@D@std@@@2@$00@std@@QAE@XZ 1004ae80 f i Sound.obj
 0001:00049ed0       ??1?$_List_alloc@U?$_List_base_types@PAUSNDPLAYDATA@SOUND@NMBASE@@V?$allocator@PAUSNDPLAYDATA@SOUND@NMBASE@@@std@@@std@@@std@@QAE@XZ 1004aed0 f i Sound.obj
 0001:00049f70       ??1?$_List_buy@PAUSNDPLAYDATA@SOUND@NMBASE@@V?$allocator@PAUSNDPLAYDATA@SOUND@NMBASE@@@std@@@std@@QAE@XZ 1004af70 f i Sound.obj
 0001:00049fc0       ??1?$_List_const_iterator@V?$_List_val@U?$_List_simple_types@PAUSNDPLAYDATA@SOUND@NMBASE@@@std@@@std@@@std@@QAE@XZ 1004afc0 f i Sound.obj
 0001:0004a010       ??1?$_List_iterator@V?$_List_val@U?$_List_simple_types@PAUSNDPLAYDATA@SOUND@NMBASE@@@std@@@std@@@std@@QAE@XZ 1004b010 f i Sound.obj
 0001:0004a060       ??1?$_List_unchecked_const_iterator@V?$_List_val@U?$_List_simple_types@PAUSNDPLAYDATA@SOUND@NMBASE@@@std@@@std@@U_Iterator_base12@2@@std@@QAE@XZ 1004b060 f i Sound.obj
 0001:0004a0b0       ??1?$_String_alloc@U?$_String_base_types@DV?$allocator@D@std@@@std@@@std@@QAE@XZ 1004b0b0 f i Sound.obj
 0001:0004a140       ??1?$_String_val@U?$_Simple_types@D@std@@@std@@QAE@XZ 1004b140 f i Sound.obj
 0001:0004a1a0       ??1?$_Tree@V?$_Tmap_traits@V?$basic_string@DU?$char_traits@D@std@@V?$allocator@D@2@@std@@PAVCSndObj@SOUND@NMBASE@@U?$less@V?$basic_string@DU?$char_traits@D@std@@V?$allocator@D@2@@std@@@2@V?$allocator@U?$pair@$$CBV?$basic_string@DU?$char_traits@D@std@@V?$allocator@D@2@@std@@PAVCSndObj@SOUND@NMBASE@@@std@@@2@$0A@@std@@@std@@QAE@XZ 1004b1a0 f i Sound.obj
 0001:0004a230       ??1?$_Tree@V?$_Tset_traits@V?$basic_string@DU?$char_traits@D@std@@V?$allocator@D@2@@std@@U?$less@V?$basic_string@DU?$char_traits@D@std@@V?$allocator@D@2@@std@@@2@V?$allocator@V?$basic_string@DU?$char_traits@D@std@@V?$allocator@D@2@@std@@@2@$0A@@std@@@std@@QAE@XZ 1004b230 f i Sound.obj
 0001:0004a2c0       ??1?$_Tree_comp_alloc@V?$_Tmap_traits@V?$basic_string@DU?$char_traits@D@std@@V?$allocator@D@2@@std@@PAVCSndObj@SOUND@NMBASE@@U?$less@V?$basic_string@DU?$char_traits@D@std@@V?$allocator@D@2@@std@@@2@V?$allocator@U?$pair@$$CBV?$basic_string@DU?$char_traits@D@std@@V?$allocator@D@2@@std@@PAVCSndObj@SOUND@NMBASE@@@std@@@2@$0A@@std@@@std@@QAE@XZ 1004b2c0 f i Sound.obj
 0001:0004a360       ??1?$_Tree_comp_alloc@V?$_Tset_traits@V?$basic_string@DU?$char_traits@D@std@@V?$allocator@D@2@@std@@U?$less@V?$basic_string@DU?$char_traits@D@std@@V?$allocator@D@2@@std@@@2@V?$allocator@V?$basic_string@DU?$char_traits@D@std@@V?$allocator@D@2@@std@@@2@$0A@@std@@@std@@QAE@XZ 1004b360 f i Sound.obj
 0001:0004a400       ??1?$_Tree_const_iterator@V?$_Tree_val@U?$_Tree_simple_types@U?$pair@$$CBV?$basic_string@DU?$char_traits@D@std@@V?$allocator@D@2@@std@@PAVCSndObj@SOUND@NMBASE@@@std@@@std@@@std@@@std@@QAE@XZ 1004b400 f i Sound.obj
 0001:0004a450       ??1?$_Tree_const_iterator@V?$_Tree_val@U?$_Tree_simple_types@V?$basic_string@DU?$char_traits@D@std@@V?$allocator@D@2@@std@@@std@@@std@@@std@@QAE@XZ 1004b450 f i Sound.obj
 0001:0004a4a0       ??1?$_Tree_iterator@V?$_Tree_val@U?$_Tree_simple_types@U?$pair@$$CBV?$basic_string@DU?$char_traits@D@std@@V?$allocator@D@2@@std@@PAVCSndObj@SOUND@NMBASE@@@std@@@std@@@std@@@std@@QAE@XZ 1004b4a0 f i Sound.obj
 0001:0004a4f0       ??1?$_Tree_unchecked_const_iterator@V?$_Tree_val@U?$_Tree_simple_types@U?$pair@$$CBV?$basic_string@DU?$char_traits@D@std@@V?$allocator@D@2@@std@@PAVCSndObj@SOUND@NMBASE@@@std@@@std@@@std@@U_Iterator_base12@2@@std@@QAE@XZ 1004b4f0 f i Sound.obj
 0001:0004a540       ??1?$_Tree_unchecked_const_iterator@V?$_Tree_val@U?$_Tree_simple_types@V?$basic_string@DU?$char_traits@D@std@@V?$allocator@D@2@@std@@@std@@@std@@U_Iterator_base12@2@@std@@QAE@XZ 1004b540 f i Sound.obj
 0001:0004a590       ??1?$basic_string@DU?$char_traits@D@std@@V?$allocator@D@2@@std@@QAE@XZ 1004b590 f i Sound.obj
 0001:0004a620       ??1?$list@PAUSNDPLAYDATA@SOUND@NMBASE@@V?$allocator@PAUSNDPLAYDATA@SOUND@NMBASE@@@std@@@std@@QAE@XZ 1004b620 f i Sound.obj
 0001:0004a6b0       ??1?$map@V?$basic_string@DU?$char_traits@D@std@@V?$allocator@D@2@@std@@PAVCSndObj@SOUND@NMBASE@@U?$less@V?$basic_string@DU?$char_traits@D@std@@V?$allocator@D@2@@std@@@2@V?$allocator@U?$pair@$$CBV?$basic_string@DU?$char_traits@D@std@@V?$allocator@D@2@@std@@PAVCSndObj@SOUND@NMBASE@@@std@@@2@@std@@QAE@XZ 1004b6b0 f i Sound.obj
 0001:0004a700       ??1?$pair@$$CBV?$basic_string@DU?$char_traits@D@std@@V?$allocator@D@2@@std@@PAVCSndObj@SOUND@NMBASE@@@std@@QAE@XZ 1004b700 f i Sound.obj
 0001:0004a750       ??1?$pair@V?$_Tree_const_iterator@V?$_Tree_val@U?$_Tree_simple_types@V?$basic_string@DU?$char_traits@D@std@@V?$allocator@D@2@@std@@@std@@@std@@@std@@_N@std@@QAE@XZ 1004b750 f i Sound.obj
 0001:0004a7a0       ??1?$pair@V?$_Tree_iterator@V?$_Tree_val@U?$_Tree_simple_types@U?$pair@$$CBV?$basic_string@DU?$char_traits@D@std@@V?$allocator@D@2@@std@@PAVCSndObj@SOUND@NMBASE@@@std@@@std@@@std@@@std@@_N@std@@QAE@XZ 1004b7a0 f i Sound.obj
 0001:0004a7f0       ??1?$set@V?$basic_string@DU?$char_traits@D@std@@V?$allocator@D@2@@std@@U?$less@V?$basic_string@DU?$char_traits@D@std@@V?$allocator@D@2@@std@@@2@V?$allocator@V?$basic_string@DU?$char_traits@D@std@@V?$allocator@D@2@@std@@@2@@std@@QAE@XZ 1004b7f0 f i Sound.obj
 0001:0004a840       ??1CSndObj@SOUND@NMBASE@@QAE@XZ 1004b840 f   Sound.obj
 0001:0004a8e0       ??1CSound@SOUND@NMBASE@@UAE@XZ 1004b8e0 f   Sound.obj
 0001:0004a9b0       ??1SNDPLAYDATA@SOUND@NMBASE@@QAE@XZ 1004b9b0 f i Sound.obj
 0001:0004aa10       ??1_Bxty@?$_String_val@U?$_Simple_types@D@std@@@std@@QAE@XZ 1004ba10 f i Sound.obj
 0001:0004aa50       ??1_Iterator_base12@std@@QAE@XZ 1004ba50 f i Sound.obj
 0001:0004ab40       ??2@YAPAXIPAX@Z            1004bb40 f i Sound.obj
 0001:0004ab80       ??4?$_List_const_iterator@V?$_List_val@U?$_List_simple_types@PAUSNDPLAYDATA@SOUND@NMBASE@@@std@@@std@@@std@@QAEAAV01@$$QAV01@@Z 1004bb80 f i Sound.obj
 0001:0004abe0       ??4?$_List_unchecked_const_iterator@V?$_List_val@U?$_List_simple_types@PAUSNDPLAYDATA@SOUND@NMBASE@@@std@@@std@@U_Iterator_base12@2@@std@@QAEAAV01@$$QAV01@@Z 1004bbe0 f i Sound.obj
 0001:0004ac50       ??4?$_Tree@V?$_Tmap_traits@V?$basic_string@DU?$char_traits@D@std@@V?$allocator@D@2@@std@@PAVCSndObj@SOUND@NMBASE@@U?$less@V?$basic_string@DU?$char_traits@D@std@@V?$allocator@D@2@@std@@@2@V?$allocator@U?$pair@$$CBV?$basic_string@DU?$char_traits@D@std@@V?$allocator@D@2@@std@@PAVCSndObj@SOUND@NMBASE@@@std@@@2@$0A@@std@@@std@@QAEAAV01@ABV01@@Z 1004bc50 f i Sound.obj
 0001:0004ad00       ??4?$_Tree@V?$_Tset_traits@V?$basic_string@DU?$char_traits@D@std@@V?$allocator@D@2@@std@@U?$less@V?$basic_string@DU?$char_traits@D@std@@V?$allocator@D@2@@std@@@2@V?$allocator@V?$basic_string@DU?$char_traits@D@std@@V?$allocator@D@2@@std@@@2@$0A@@std@@@std@@QAEAAV01@ABV01@@Z 1004bd00 f i Sound.obj
 0001:0004adb0       ??4?$_Tree_const_iterator@V?$_Tree_val@U?$_Tree_simple_types@U?$pair@$$CBV?$basic_string@DU?$char_traits@D@std@@V?$allocator@D@2@@std@@PAVCSndObj@SOUND@NMBASE@@@std@@@std@@@std@@@std@@QAEAAV01@$$QAV01@@Z 1004bdb0 f i Sound.obj
 0001:0004ae10       ??4?$_Tree_const_iterator@V?$_Tree_val@U?$_Tree_simple_types@U?$pair@$$CBV?$basic_string@DU?$char_traits@D@std@@V?$allocator@D@2@@std@@PAVCSndObj@SOUND@NMBASE@@@std@@@std@@@std@@@std@@QAEAAV01@ABV01@@Z 1004be10 f i Sound.obj
 0001:0004ae70       ??4?$_Tree_iterator@V?$_Tree_val@U?$_Tree_simple_types@U?$pair@$$CBV?$basic_string@DU?$char_traits@D@std@@V?$allocator@D@2@@std@@PAVCSndObj@SOUND@NMBASE@@@std@@@std@@@std@@@std@@QAEAAV01@$$QAV01@@Z 1004be70 f i Sound.obj
 0001:0004aed0       ??4?$_Tree_unchecked_const_iterator@V?$_Tree_val@U?$_Tree_simple_types@U?$pair@$$CBV?$basic_string@DU?$char_traits@D@std@@V?$allocator@D@2@@std@@PAVCSndObj@SOUND@NMBASE@@@std@@@std@@@std@@U_Iterator_base12@2@@std@@QAEAAV01@$$QAV01@@Z 1004bed0 f i Sound.obj
 0001:0004af40       ??4?$_Tree_unchecked_const_iterator@V?$_Tree_val@U?$_Tree_simple_types@U?$pair@$$CBV?$basic_string@DU?$char_traits@D@std@@V?$allocator@D@2@@std@@PAVCSndObj@SOUND@NMBASE@@@std@@@std@@@std@@U_Iterator_base12@2@@std@@QAEAAV01@ABV01@@Z 1004bf40 f i Sound.obj
 0001:0004afb0       ??4?$basic_string@DU?$char_traits@D@std@@V?$allocator@D@2@@std@@QAEAAV01@QBD@Z 1004bfb0 f i Sound.obj
 0001:0004b010       ??4?$list@PAUSNDPLAYDATA@SOUND@NMBASE@@V?$allocator@PAUSNDPLAYDATA@SOUND@NMBASE@@@std@@@std@@QAEAAV01@ABV01@@Z 1004c010 f i Sound.obj
 0001:0004b0d0       ??4?$map@V?$basic_string@DU?$char_traits@D@std@@V?$allocator@D@2@@std@@PAVCSndObj@SOUND@NMBASE@@U?$less@V?$basic_string@DU?$char_traits@D@std@@V?$allocator@D@2@@std@@@2@V?$allocator@U?$pair@$$CBV?$basic_string@DU?$char_traits@D@std@@V?$allocator@D@2@@std@@PAVCSndObj@SOUND@NMBASE@@@std@@@2@@std@@QAEAAV01@ABV01@@Z 1004c0d0 f i Sound.obj
 0001:0004b130       ??4?$set@V?$basic_string@DU?$char_traits@D@std@@V?$allocator@D@2@@std@@U?$less@V?$basic_string@DU?$char_traits@D@std@@V?$allocator@D@2@@std@@@2@V?$allocator@V?$basic_string@DU?$char_traits@D@std@@V?$allocator@D@2@@std@@@2@@std@@QAEAAV01@ABV01@@Z 1004c130 f i Sound.obj
 0001:0004b190       ??4CSound@SOUND@NMBASE@@QAEAAV012@ABV012@@Z 1004c190 f i Sound.obj
 0001:0004b350       ??4_Iterator_base12@std@@QAEAAU01@ABU01@@Z 1004c350 f i Sound.obj
 0001:0004b470       ??8?$_List_const_iterator@V?$_List_val@U?$_List_simple_types@PAUSNDPLAYDATA@SOUND@NMBASE@@@std@@@std@@@std@@QBE_NABV01@@Z 1004c470 f i Sound.obj
 0001:0004b590       ??8?$_List_unchecked_const_iterator@V?$_List_val@U?$_List_simple_types@PAUSNDPLAYDATA@SOUND@NMBASE@@@std@@@std@@U_Iterator_base0@2@@std@@QBE_NABV01@@Z 1004c590 f i Sound.obj
 0001:0004b600       ??8?$_Tree_const_iterator@V?$_Tree_val@U?$_Tree_simple_types@U?$pair@$$CBV?$basic_string@DU?$char_traits@D@std@@V?$allocator@D@2@@std@@PAVCSndObj@SOUND@NMBASE@@@std@@@std@@@std@@@std@@QBE_NABV01@@Z 1004c600 f i Sound.obj
 0001:0004b720       ??8?$_Tree_const_iterator@V?$_Tree_val@U?$_Tree_simple_types@V?$basic_string@DU?$char_traits@D@std@@V?$allocator@D@2@@std@@@std@@@std@@@std@@QBE_NABV01@@Z 1004c720 f i Sound.obj
 0001:0004b840       ??9?$_List_const_iterator@V?$_List_val@U?$_List_simple_types@PAUSNDPLAYDATA@SOUND@NMBASE@@@std@@@std@@@std@@QBE_NABV01@@Z 1004c840 f i Sound.obj
 0001:0004b8d0       ??9?$_List_unchecked_const_iterator@V?$_List_val@U?$_List_simple_types@PAUSNDPLAYDATA@SOUND@NMBASE@@@std@@@std@@U_Iterator_base0@2@@std@@QBE_NABV01@@Z 1004c8d0 f i Sound.obj
 0001:0004b960       ??9?$_Tree_const_iterator@V?$_Tree_val@U?$_Tree_simple_types@U?$pair@$$CBV?$basic_string@DU?$char_traits@D@std@@V?$allocator@D@2@@std@@PAVCSndObj@SOUND@NMBASE@@@std@@@std@@@std@@@std@@QBE_NABV01@@Z 1004c960 f i Sound.obj
 0001:0004b9f0       ??9?$_Tree_const_iterator@V?$_Tree_val@U?$_Tree_simple_types@V?$basic_string@DU?$char_traits@D@std@@V?$allocator@D@2@@std@@@std@@@std@@@std@@QBE_NABV01@@Z 1004c9f0 f i Sound.obj
 0001:0004ba80       ??A?$map@V?$basic_string@DU?$char_traits@D@std@@V?$allocator@D@2@@std@@PAVCSndObj@SOUND@NMBASE@@U?$less@V?$basic_string@DU?$char_traits@D@std@@V?$allocator@D@2@@std@@@2@V?$allocator@U?$pair@$$CBV?$basic_string@DU?$char_traits@D@std@@V?$allocator@D@2@@std@@PAVCSndObj@SOUND@NMBASE@@@std@@@2@@std@@QAEAAPAVCSndObj@SOUND@NMBASE@@$$QAV?$basic_string@DU?$char_traits@D@std@@V?$allocator@D@2@@1@@Z 1004ca80 f i Sound.obj
 0001:0004bb80       ??C?$_Tree_iterator@V?$_Tree_val@U?$_Tree_simple_types@U?$pair@$$CBV?$basic_string@DU?$char_traits@D@std@@V?$allocator@D@2@@std@@PAVCSndObj@SOUND@NMBASE@@@std@@@std@@@std@@@std@@QBEPAU?$pair@$$CBV?$basic_string@DU?$char_traits@D@std@@V?$allocator@D@2@@std@@PAVCSndObj@SOUND@NMBASE@@@1@XZ 1004cb80 f i Sound.obj
 0001:0004bbe0       ??D?$_List_const_iterator@V?$_List_val@U?$_List_simple_types@PAUSNDPLAYDATA@SOUND@NMBASE@@@std@@@std@@@std@@QBEABQAUSNDPLAYDATA@SOUND@NMBASE@@XZ 1004cbe0 f i Sound.obj
 0001:0004bd50       ??D?$_List_iterator@V?$_List_val@U?$_List_simple_types@PAUSNDPLAYDATA@SOUND@NMBASE@@@std@@@std@@@std@@QBEAAPAUSNDPLAYDATA@SOUND@NMBASE@@XZ 1004cd50 f i Sound.obj
 0001:0004bda0       ??D?$_List_unchecked_const_iterator@V?$_List_val@U?$_List_simple_types@PAUSNDPLAYDATA@SOUND@NMBASE@@@std@@@std@@U_Iterator_base0@2@@std@@QBEABQAUSNDPLAYDATA@SOUND@NMBASE@@XZ 1004cda0 f i Sound.obj
 0001:0004bde0       ??D?$_Tree_const_iterator@V?$_Tree_val@U?$_Tree_simple_types@U?$pair@$$CBV?$basic_string@DU?$char_traits@D@std@@V?$allocator@D@2@@std@@PAVCSndObj@SOUND@NMBASE@@@std@@@std@@@std@@@std@@QBEABU?$pair@$$CBV?$basic_string@DU?$char_traits@D@std@@V?$allocator@D@2@@std@@PAVCSndObj@SOUND@NMBASE@@@1@XZ 1004cde0 f i Sound.obj
 0001:0004bf50       ??D?$_Tree_const_iterator@V?$_Tree_val@U?$_Tree_simple_types@V?$basic_string@DU?$char_traits@D@std@@V?$allocator@D@2@@std@@@std@@@std@@@std@@QBEABV?$basic_string@DU?$char_traits@D@std@@V?$allocator@D@2@@1@XZ 1004cf50 f i Sound.obj
 0001:0004c0c0       ??D?$_Tree_iterator@V?$_Tree_val@U?$_Tree_simple_types@U?$pair@$$CBV?$basic_string@DU?$char_traits@D@std@@V?$allocator@D@2@@std@@PAVCSndObj@SOUND@NMBASE@@@std@@@std@@@std@@@std@@QBEAAU?$pair@$$CBV?$basic_string@DU?$char_traits@D@std@@V?$allocator@D@2@@std@@PAVCSndObj@SOUND@NMBASE@@@1@XZ 1004d0c0 f i Sound.obj
 0001:0004c110       ??E?$_List_const_iterator@V?$_List_val@U?$_List_simple_types@PAUSNDPLAYDATA@SOUND@NMBASE@@@std@@@std@@@std@@QAE?AV01@H@Z 1004d110 f i Sound.obj
 0001:0004c230       ??E?$_List_const_iterator@V?$_List_val@U?$_List_simple_types@PAUSNDPLAYDATA@SOUND@NMBASE@@@std@@@std@@@std@@QAEAAV01@XZ 1004d230 f i Sound.obj
 0001:0004c3b0       ??E?$_List_iterator@V?$_List_val@U?$_List_simple_types@PAUSNDPLAYDATA@SOUND@NMBASE@@@std@@@std@@@std@@QAE?AV01@H@Z 1004d3b0 f i Sound.obj
 0001:0004c4d0       ??E?$_List_iterator@V?$_List_val@U?$_List_simple_types@PAUSNDPLAYDATA@SOUND@NMBASE@@@std@@@std@@@std@@QAEAAV01@XZ 1004d4d0 f i Sound.obj
 0001:0004c530       ??E?$_List_unchecked_const_iterator@V?$_List_val@U?$_List_simple_types@PAUSNDPLAYDATA@SOUND@NMBASE@@@std@@@std@@U_Iterator_base0@2@@std@@QAEAAV01@XZ 1004d530 f i Sound.obj
 0001:0004c580       ??E?$_Tree_const_iterator@V?$_Tree_val@U?$_Tree_simple_types@U?$pair@$$CBV?$basic_string@DU?$char_traits@D@std@@V?$allocator@D@2@@std@@PAVCSndObj@SOUND@NMBASE@@@std@@@std@@@std@@@std@@QAE?AV01@H@Z 1004d580 f i Sound.obj
 0001:0004c6a0       ??E?$_Tree_const_iterator@V?$_Tree_val@U?$_Tree_simple_types@U?$pair@$$CBV?$basic_string@DU?$char_traits@D@std@@V?$allocator@D@2@@std@@PAVCSndObj@SOUND@NMBASE@@@std@@@std@@@std@@@std@@QAEAAV01@XZ 1004d6a0 f i Sound.obj
 0001:0004c810       ??E?$_Tree_const_iterator@V?$_Tree_val@U?$_Tree_simple_types@V?$basic_string@DU?$char_traits@D@std@@V?$allocator@D@2@@std@@@std@@@std@@@std@@QAE?AV01@H@Z 1004d810 f i Sound.obj
 0001:0004c930       ??E?$_Tree_const_iterator@V?$_Tree_val@U?$_Tree_simple_types@V?$basic_string@DU?$char_traits@D@std@@V?$allocator@D@2@@std@@@std@@@std@@@std@@QAEAAV01@XZ 1004d930 f i Sound.obj
 0001:0004caa0       ??E?$_Tree_iterator@V?$_Tree_val@U?$_Tree_simple_types@U?$pair@$$CBV?$basic_string@DU?$char_traits@D@std@@V?$allocator@D@2@@std@@PAVCSndObj@SOUND@NMBASE@@@std@@@std@@@std@@@std@@QAE?AV01@H@Z 1004daa0 f i Sound.obj
 0001:0004cbc0       ??E?$_Tree_iterator@V?$_Tree_val@U?$_Tree_simple_types@U?$pair@$$CBV?$basic_string@DU?$char_traits@D@std@@V?$allocator@D@2@@std@@PAVCSndObj@SOUND@NMBASE@@@std@@@std@@@std@@@std@@QAEAAV01@XZ 1004dbc0 f i Sound.obj
 0001:0004cc20       ??E?$_Tree_unchecked_const_iterator@V?$_Tree_val@U?$_Tree_simple_types@U?$pair@$$CBV?$basic_string@DU?$char_traits@D@std@@V?$allocator@D@2@@std@@PAVCSndObj@SOUND@NMBASE@@@std@@@std@@@std@@U_Iterator_base12@2@@std@@QAEAAV01@XZ 1004dc20 f i Sound.obj
 0001:0004ccf0       ??E?$_Tree_unchecked_const_iterator@V?$_Tree_val@U?$_Tree_simple_types@V?$basic_string@DU?$char_traits@D@std@@V?$allocator@D@2@@std@@@std@@@std@@U_Iterator_base12@2@@std@@QAEAAV01@XZ 1004dcf0 f i Sound.obj
 0001:0004cdc0       ??F?$_List_const_iterator@V?$_List_val@U?$_List_simple_types@PAUSNDPLAYDATA@SOUND@NMBASE@@@std@@@std@@@std@@QAEAAV01@XZ 1004ddc0 f i Sound.obj
 0001:0004cf40       ??F?$_List_iterator@V?$_List_val@U?$_List_simple_types@PAUSNDPLAYDATA@SOUND@NMBASE@@@std@@@std@@@std@@QAEAAV01@XZ 1004df40 f i Sound.obj
 0001:0004cfa0       ??F?$_List_unchecked_const_iterator@V?$_List_val@U?$_List_simple_types@PAUSNDPLAYDATA@SOUND@NMBASE@@@std@@@std@@U_Iterator_base0@2@@std@@QAEAAV01@XZ 1004dfa0 f i Sound.obj
 0001:0004cff0       ??F?$_Tree_const_iterator@V?$_Tree_val@U?$_Tree_simple_types@U?$pair@$$CBV?$basic_string@DU?$char_traits@D@std@@V?$allocator@D@2@@std@@PAVCSndObj@SOUND@NMBASE@@@std@@@std@@@std@@@std@@QAEAAV01@XZ 1004dff0 f i Sound.obj
 0001:0004d160       ??F?$_Tree_const_iterator@V?$_Tree_val@U?$_Tree_simple_types@V?$basic_string@DU?$char_traits@D@std@@V?$allocator@D@2@@std@@@std@@@std@@@std@@QAEAAV01@XZ 1004e160 f i Sound.obj
 0001:0004d2d0       ??F?$_Tree_iterator@V?$_Tree_val@U?$_Tree_simple_types@U?$pair@$$CBV?$basic_string@DU?$char_traits@D@std@@V?$allocator@D@2@@std@@PAVCSndObj@SOUND@NMBASE@@@std@@@std@@@std@@@std@@QAEAAV01@XZ 1004e2d0 f i Sound.obj
 0001:0004d330       ??F?$_Tree_unchecked_const_iterator@V?$_Tree_val@U?$_Tree_simple_types@U?$pair@$$CBV?$basic_string@DU?$char_traits@D@std@@V?$allocator@D@2@@std@@PAVCSndObj@SOUND@NMBASE@@@std@@@std@@@std@@U_Iterator_base12@2@@std@@QAEAAV01@XZ 1004e330 f i Sound.obj
 0001:0004d430       ??F?$_Tree_unchecked_const_iterator@V?$_Tree_val@U?$_Tree_simple_types@V?$basic_string@DU?$char_traits@D@std@@V?$allocator@D@2@@std@@@std@@@std@@U_Iterator_base12@2@@std@@QAEAAV01@XZ 1004e430 f i Sound.obj
 0001:0004d530       ??R<lambda_9366063389c5f42a00a5088cf24e69de>@@QBEXQADIQBD@Z 1004e530 f i Sound.obj
 0001:0004d5c0       ??R<lambda_ab246b20b9526e2ef7792587e4298a77>@@QBEXQADQBDI1I@Z 1004e5c0 f i Sound.obj
 0001:0004d670       ??R?$less@V?$basic_string@DU?$char_traits@D@std@@V?$allocator@D@2@@std@@@std@@QBE_NABV?$basic_string@DU?$char_traits@D@std@@V?$allocator@D@2@@1@0@Z 1004e670 f i Sound.obj
 0001:0004d6d0       ??Y?$basic_string@DU?$char_traits@D@std@@V?$allocator@D@2@@std@@QAEAAV01@QBD@Z 1004e6d0 f i Sound.obj
 0001:0004d730       ??_ECSound@SOUND@NMBASE@@UAEPAXI@Z 1004e730 f i Sound.obj
 0001:0004d840       ??_G?$basic_string@DU?$char_traits@D@std@@V?$allocator@D@2@@std@@QAEPAXI@Z 1004e840 f i Sound.obj
 0001:0004d8b0       ??_G?$pair@$$CBV?$basic_string@DU?$char_traits@D@std@@V?$allocator@D@2@@std@@PAVCSndObj@SOUND@NMBASE@@@std@@QAEPAXI@Z 1004e8b0 f i Sound.obj
 0001:0004d920       ??_GCSndObj@SOUND@NMBASE@@QAEPAXI@Z 1004e920 f i Sound.obj
 0001:0004d990       ??_GCSound@SOUND@NMBASE@@UAEPAXI@Z 1004e990 f i Sound.obj
 0001:0004da10       ??_GSNDPLAYDATA@SOUND@NMBASE@@QAEPAXI@Z 1004ea10 f i Sound.obj
 0001:0004da80       ??_GxOggStream@SOUND@NMBASE@@QAEPAXI@Z 1004ea80 f i Sound.obj
 0001:0004db00       ??_GxSoundBuffer@SOUND@NMBASE@@QAEPAXI@Z 1004eb00 f i Sound.obj
 0001:0004db70       ?AddToPlayList@CSound@SOUND@NMBASE@@QAEHKPBDHHH@Z 1004eb70 f   Sound.obj
 0001:0004dca0       ?AutoOptimizeRes@CSound@SOUND@NMBASE@@IAEXXZ 1004eca0 f   Sound.obj
 0001:0004dd30       ?ClearAllPlayList@CSound@SOUND@NMBASE@@QAEXXZ 1004ed30 f   Sound.obj
 0001:0004df60       ?ClearAllSound@CSound@SOUND@NMBASE@@QAEXXZ 1004ef60 f   Sound.obj
 0001:0004e210       ?ClearGameLoadList@CSound@SOUND@NMBASE@@QAEXXZ 1004f210 f   Sound.obj
 0001:0004e270       ?ClearMember@CSndObj@SOUND@NMBASE@@QAEXXZ 1004f270 f   Sound.obj
 0001:0004e380       ?ConsoleLog@CSound@SOUND@NMBASE@@IAAXPBDZZ 1004f380 f   Sound.obj
 0001:0004e4b0       ?CreateRes@CSndObj@SOUND@NMBASE@@QAEHXZ 1004f4b0 f   Sound.obj
 0001:0004e980       ?Destroy@CSndObj@SOUND@NMBASE@@QAEXXZ 1004f980 f   Sound.obj
 0001:0004e9e0       ?Destroy@CSound@SOUND@NMBASE@@QAEXXZ 1004f9e0 f   Sound.obj
 0001:0004ea60       ?EnableConsoleLog@CSound@SOUND@NMBASE@@QAEXH@Z 1004fa60 f   Sound.obj
 0001:0004eab0       ?GetSndObj@CSound@SOUND@NMBASE@@QAEPAVCSndObj@23@PBD@Z 1004fab0 f   Sound.obj
 0001:0004ec90       ?Init@CSound@SOUND@NMBASE@@QAEHPAUHWND__@@@Z 1004fc90 f   Sound.obj
 0001:0004ed20       ?IsBGM@xOggStream@SOUND@NMBASE@@QAEHXZ 1004fd20 f i Sound.obj
 0001:0004ed60       ?IsInited@CSound@SOUND@NMBASE@@QAEHXZ 1004fd60 f i Sound.obj
 0001:0004eda0       ?IsRegistered@CSound@SOUND@NMBASE@@QAEHPBD@Z 1004fda0 f   Sound.obj
 0001:0004ef80       ?MakeFilePath@CSound@SOUND@NMBASE@@IAEHPBDPAD@Z 1004ff80 f   Sound.obj
 0001:0004f260       ?OnSoundCreate@CSound@SOUND@NMBASE@@IAEXW4SNDTYPE_ENUM@23@PBD@Z 10050260 f   Sound.obj
 0001:0004f390       ?OnSoundRelease@CSound@SOUND@NMBASE@@IAEXW4SNDTYPE_ENUM@23@PBD@Z 10050390 f   Sound.obj
 0001:0004f4a0       ?OptimizeRes@CSound@SOUND@NMBASE@@QAEXXZ 100504a0 f   Sound.obj
 0001:0004fa90       ?PlayMciMedia@CSound@SOUND@NMBASE@@QAEHPBDHH@Z 10050a90 f   Sound.obj
 0001:0004fe60       ?PlayOggStream@CSound@SOUND@NMBASE@@QAEHPBDHHH_N@Z 10050e60 f   Sound.obj
 0001:00050270       ?PlayOggStream_BGM@CSound@SOUND@NMBASE@@QAEHPBDHHH_N@Z 10051270 f   Sound.obj
 0001:00050670       ?PlayWav@CSound@SOUND@NMBASE@@QAEHPBDHHH@Z 10051670 f   Sound.obj
 0001:00050ae0       ?ProcessFade@CSound@SOUND@NMBASE@@IAEXXZ 10051ae0 f   Sound.obj
 0001:00050e10       ?ProcessPlayList@CSound@SOUND@NMBASE@@IAEXXZ 10051e10 f   Sound.obj
 0001:00051210       ?RegistMciMedia@CSound@SOUND@NMBASE@@QAEHPBDW4SNDPRIORITY_ENUM@23@H@Z 10052210 f   Sound.obj
 0001:00051620       ?RegistOggStream@CSound@SOUND@NMBASE@@QAEHPBDW4SNDPRIORITY_ENUM@23@H@Z 10052620 f   Sound.obj
 0001:00051a30       ?RegistWav@CSound@SOUND@NMBASE@@QAEHPBDW4SNDPRIORITY_ENUM@23@HH@Z 10052a30 f   Sound.obj
 0001:00051e40       ?RegularCall@CSound@SOUND@NMBASE@@QAEXXZ 10052e40 f   Sound.obj
 0001:00051eb0       ?ReleaseGameLoadList@CSound@SOUND@NMBASE@@QAEXXZ 10052eb0 f   Sound.obj
 0001:00052380       ?ReleaseRes@CSndObj@SOUND@NMBASE@@QAEHXZ 10053380 f   Sound.obj
 0001:00052590       ?Set@CSndObj@SOUND@NMBASE@@QAEHW4SNDTYPE_ENUM@23@PBDW4SNDPRIORITY_ENUM@23@H@Z 10053590 f   Sound.obj
 0001:00052620       ?SetBaseFolder@CSound@SOUND@NMBASE@@QAEXPBD@Z 10053620 f   Sound.obj
 0001:00052790       ?SetFade@CSound@SOUND@NMBASE@@QAEHPBDHK@Z 10053790 f   Sound.obj
 0001:00052890       ?SetMusic@CSound@SOUND@NMBASE@@QAEXH@Z 10053890 f   Sound.obj
 0001:00052910       ?SetSndFx@CSound@SOUND@NMBASE@@QAEXH@Z 10053910 f   Sound.obj
 0001:00052970       ?SetSndVolume@CSound@SOUND@NMBASE@@QAEXH@Z 10053970 f   Sound.obj
 0001:000529d0       ?SetVolume@CSndObj@SOUND@NMBASE@@QAEHHH@Z 100539d0 f   Sound.obj
 0001:00052b80       ?SetVolume@CSound@SOUND@NMBASE@@QAEHPBDHH@Z 10053b80 f   Sound.obj
 0001:00052c00       ?SetVolumeAllMusic@CSound@SOUND@NMBASE@@QAEXHH@Z 10053c00 f   Sound.obj
 0001:00052dd0       ?Stop@CSound@SOUND@NMBASE@@QAEHPBDH@Z 10053dd0 f   Sound.obj
 0001:00052fc0       ?StopAllBGM@CSound@SOUND@NMBASE@@QAEXXZ 10053fc0 f   Sound.obj
 0001:000531b0       ?StopAllMusic@CSound@SOUND@NMBASE@@QAEXXZ 100541b0 f   Sound.obj
 0001:00053380       ?StopAllWav@CSound@SOUND@NMBASE@@QAEXXZ 10054380 f   Sound.obj
 0001:00053540       ?StopSndObj@CSound@SOUND@NMBASE@@IAEHPAVCSndObj@23@H@Z 10054540 f   Sound.obj
 0001:00053680       ?_Adjust_manually_vector_aligned@std@@YAXAAPAXAAI@Z 10054680 f i Sound.obj
 0001:00053840       ?_Adopt@_Iterator_base0@std@@QAEXPBX@Z 10054840 f i Sound.obj
 0001:00053880       ?_Adopt@_Iterator_base12@std@@QAEXPBU_Container_base12@2@@Z 10054880 f i Sound.obj
 0001:00053a10       ?_Alloc_proxy@?$_List_alloc@U?$_List_base_types@PAUSNDPLAYDATA@SOUND@NMBASE@@V?$allocator@PAUSNDPLAYDATA@SOUND@NMBASE@@@std@@@std@@@std@@QAEXXZ 10054a10 f i Sound.obj
 0001:00053b30       ?_Alloc_proxy@?$_String_alloc@U?$_String_base_types@DV?$allocator@D@std@@@std@@@std@@QAEXXZ 10054b30 f i Sound.obj
 0001:00053c50       ?_Alloc_proxy@?$_Tree_comp_alloc@V?$_Tmap_traits@V?$basic_string@DU?$char_traits@D@std@@V?$allocator@D@2@@std@@PAVCSndObj@SOUND@NMBASE@@U?$less@V?$basic_string@DU?$char_traits@D@std@@V?$allocator@D@2@@std@@@2@V?$allocator@U?$pair@$$CBV?$basic_string@DU?$char_traits@D@std@@V?$allocator@D@2@@std@@PAVCSndObj@SOUND@NMBASE@@@std@@@2@$0A@@std@@@std@@QAEXXZ 10054c50 f i Sound.obj
 0001:00053d70       ?_Alloc_proxy@?$_Tree_comp_alloc@V?$_Tset_traits@V?$basic_string@DU?$char_traits@D@std@@V?$allocator@D@2@@std@@U?$less@V?$basic_string@DU?$char_traits@D@std@@V?$allocator@D@2@@std@@@2@V?$allocator@V?$basic_string@DU?$char_traits@D@std@@V?$allocator@D@2@@std@@@2@$0A@@std@@@std@@QAEXXZ 10054d70 f i Sound.obj
 0001:00053e90       ?_Allocate@_Default_allocate_traits@std@@SAPAXI@Z 10054e90 f i Sound.obj
 0001:00053ee0       ?_Assign_rv_contents_with_alloc_always_equal@?$basic_string@DU?$char_traits@D@std@@V?$allocator@D@2@@std@@QAEX$$QAV12@U?$integral_constant@_N$00@2@@Z 10054ee0 f i Sound.obj
 0001:00053ff0       ?_Buyheadnode@?$_List_alloc@U?$_List_base_types@PAUSNDPLAYDATA@SOUND@NMBASE@@V?$allocator@PAUSNDPLAYDATA@SOUND@NMBASE@@@std@@@std@@@std@@QAEPAU?$_List_node@PAUSNDPLAYDATA@SOUND@NMBASE@@PAX@2@XZ 10054ff0 f i Sound.obj
 0001:00054050       ?_Buyheadnode@?$_Tree_comp_alloc@V?$_Tmap_traits@V?$basic_string@DU?$char_traits@D@std@@V?$allocator@D@2@@std@@PAVCSndObj@SOUND@NMBASE@@U?$less@V?$basic_string@DU?$char_traits@D@std@@V?$allocator@D@2@@std@@@2@V?$allocator@U?$pair@$$CBV?$basic_string@DU?$char_traits@D@std@@V?$allocator@D@2@@std@@PAVCSndObj@SOUND@NMBASE@@@std@@@2@$0A@@std@@@std@@QAEPAU?$_Tree_node@U?$pair@$$CBV?$basic_string@DU?$char_traits@D@std@@V?$allocator@D@2@@std@@PAVCSndObj@SOUND@NMBASE@@@std@@PAX@2@XZ 10055050 f i Sound.obj
 0001:00054200       ?_Buyheadnode@?$_Tree_comp_alloc@V?$_Tset_traits@V?$basic_string@DU?$char_traits@D@std@@V?$allocator@D@2@@std@@U?$less@V?$basic_string@DU?$char_traits@D@std@@V?$allocator@D@2@@std@@@2@V?$allocator@V?$basic_string@DU?$char_traits@D@std@@V?$allocator@D@2@@std@@@2@$0A@@std@@@std@@QAEPAU?$_Tree_node@V?$basic_string@DU?$char_traits@D@std@@V?$allocator@D@2@@std@@PAX@2@XZ 10055200 f i Sound.obj
 0001:000543b0       ?_Buynode0@?$_List_alloc@U?$_List_base_types@PAUSNDPLAYDATA@SOUND@NMBASE@@V?$allocator@PAUSNDPLAYDATA@SOUND@NMBASE@@@std@@@std@@@std@@QAEPAU?$_List_node@PAUSNDPLAYDATA@SOUND@NMBASE@@PAX@2@PAU32@0@Z 100553b0 f i Sound.obj
 0001:00054510       ?_Buynode0@?$_Tree_comp_alloc@V?$_Tmap_traits@V?$basic_string@DU?$char_traits@D@std@@V?$allocator@D@2@@std@@PAVCSndObj@SOUND@NMBASE@@U?$less@V?$basic_string@DU?$char_traits@D@std@@V?$allocator@D@2@@std@@@2@V?$allocator@U?$pair@$$CBV?$basic_string@DU?$char_traits@D@std@@V?$allocator@D@2@@std@@PAVCSndObj@SOUND@NMBASE@@@std@@@2@$0A@@std@@@std@@QAEPAU?$_Tree_node@U?$pair@$$CBV?$basic_string@DU?$char_traits@D@std@@V?$allocator@D@2@@std@@PAVCSndObj@SOUND@NMBASE@@@std@@PAX@2@XZ 10055510 f i Sound.obj
 0001:00054680       ?_Buynode0@?$_Tree_comp_alloc@V?$_Tset_traits@V?$basic_string@DU?$char_traits@D@std@@V?$allocator@D@2@@std@@U?$less@V?$basic_string@DU?$char_traits@D@std@@V?$allocator@D@2@@std@@@2@V?$allocator@V?$basic_string@DU?$char_traits@D@std@@V?$allocator@D@2@@std@@@2@$0A@@std@@@std@@QAEPAU?$_Tree_node@V?$basic_string@DU?$char_traits@D@std@@V?$allocator@D@2@@std@@PAX@2@XZ 10055680 f i Sound.obj
 0001:000547f0       ?_Calculate_growth@?$basic_string@DU?$char_traits@D@std@@V?$allocator@D@2@@std@@QBEII@Z 100557f0 f i Sound.obj
 0001:00054900       ?_Check_offset_exclusive@?$_String_val@U?$_Simple_types@D@std@@@std@@QBEXI@Z 10055900 f i Sound.obj
 0001:00054960       ?_Clrcont@_Iterator_base12@std@@QAEXXZ 10055960 f i Sound.obj
 0001:000549a0       ?_Compare@?$_Tree@V?$_Tmap_traits@V?$basic_string@DU?$char_traits@D@std@@V?$allocator@D@2@@std@@PAVCSndObj@SOUND@NMBASE@@U?$less@V?$basic_string@DU?$char_traits@D@std@@V?$allocator@D@2@@std@@@2@V?$allocator@U?$pair@$$CBV?$basic_string@DU?$char_traits@D@std@@V?$allocator@D@2@@std@@PAVCSndObj@SOUND@NMBASE@@@std@@@2@$0A@@std@@@std@@IBE_NABV?$basic_string@DU?$char_traits@D@std@@V?$allocator@D@2@@2@0@Z 100559a0 f i Sound.obj
 0001:00054a10       ?_Construct@?$_Tree_comp_alloc@V?$_Tmap_traits@V?$basic_string@DU?$char_traits@D@std@@V?$allocator@D@2@@std@@PAVCSndObj@SOUND@NMBASE@@U?$less@V?$basic_string@DU?$char_traits@D@std@@V?$allocator@D@2@@std@@@2@V?$allocator@U?$pair@$$CBV?$basic_string@DU?$char_traits@D@std@@V?$allocator@D@2@@std@@PAVCSndObj@SOUND@NMBASE@@@std@@@2@$0A@@std@@@std@@QAEXXZ 10055a10 f i Sound.obj
 0001:00054b00       ?_Construct@?$_Tree_comp_alloc@V?$_Tset_traits@V?$basic_string@DU?$char_traits@D@std@@V?$allocator@D@2@@std@@U?$less@V?$basic_string@DU?$char_traits@D@std@@V?$allocator@D@2@@std@@@2@V?$allocator@V?$basic_string@DU?$char_traits@D@std@@V?$allocator@D@2@@std@@@2@$0A@@std@@@std@@QAEXXZ 10055b00 f i Sound.obj
 0001:00054bf0       ?_Construct_lv_contents@?$basic_string@DU?$char_traits@D@std@@V?$allocator@D@2@@std@@QAEXABV12@@Z 10055bf0 f i Sound.obj
 0001:00054dc0       ?_Copy_alloc@?$_List_alloc@U?$_List_base_types@PAUSNDPLAYDATA@SOUND@NMBASE@@V?$allocator@PAUSNDPLAYDATA@SOUND@NMBASE@@@std@@@std@@@std@@QAEXABV?$allocator@U?$_List_node@PAUSNDPLAYDATA@SOUND@NMBASE@@PAX@std@@@2@@Z 10055dc0 f i Sound.obj
 0001:00054e80       ?_Copy_alloc@?$_Tree_comp_alloc@V?$_Tmap_traits@V?$basic_string@DU?$char_traits@D@std@@V?$allocator@D@2@@std@@PAVCSndObj@SOUND@NMBASE@@U?$less@V?$basic_string@DU?$char_traits@D@std@@V?$allocator@D@2@@std@@@2@V?$allocator@U?$pair@$$CBV?$basic_string@DU?$char_traits@D@std@@V?$allocator@D@2@@std@@PAVCSndObj@SOUND@NMBASE@@@std@@@2@$0A@@std@@@std@@QAEXABV?$allocator@U?$_Tree_node@U?$pair@$$CBV?$basic_string@DU?$char_traits@D@std@@V?$allocator@D@2@@std@@PAVCSndObj@SOUND@NMBASE@@@std@@PAX@std@@@2@@Z 10055e80 f i Sound.obj
 0001:00054f40       ?_Copy_alloc@?$_Tree_comp_alloc@V?$_Tset_traits@V?$basic_string@DU?$char_traits@D@std@@V?$allocator@D@2@@std@@U?$less@V?$basic_string@DU?$char_traits@D@std@@V?$allocator@D@2@@std@@@2@V?$allocator@V?$basic_string@DU?$char_traits@D@std@@V?$allocator@D@2@@std@@@2@$0A@@std@@@std@@QAEXABV?$allocator@U?$_Tree_node@V?$basic_string@DU?$char_traits@D@std@@V?$allocator@D@2@@std@@PAX@std@@@2@@Z 10055f40 f i Sound.obj
 0001:00055000       ?_Destroy_if_node@?$_Tree@V?$_Tmap_traits@V?$basic_string@DU?$char_traits@D@std@@V?$allocator@D@2@@std@@PAVCSndObj@SOUND@NMBASE@@U?$less@V?$basic_string@DU?$char_traits@D@std@@V?$allocator@D@2@@std@@@2@V?$allocator@U?$pair@$$CBV?$basic_string@DU?$char_traits@D@std@@V?$allocator@D@2@@std@@PAVCSndObj@SOUND@NMBASE@@@std@@@2@$0A@@std@@@std@@IAEXPAU?$_Tree_node@U?$pair@$$CBV?$basic_string@DU?$char_traits@D@std@@V?$allocator@D@2@@std@@PAVCSndObj@SOUND@NMBASE@@@std@@PAX@2@@Z 10056000 f i Sound.obj
 0001:00055090       ?_Destroy_if_node@?$_Tree@V?$_Tset_traits@V?$basic_string@DU?$char_traits@D@std@@V?$allocator@D@2@@std@@U?$less@V?$basic_string@DU?$char_traits@D@std@@V?$allocator@D@2@@std@@@2@V?$allocator@V?$basic_string@DU?$char_traits@D@std@@V?$allocator@D@2@@std@@@2@$0A@@std@@@std@@IAEXU_Not_a_node_tag@2@@Z 10056090 f i Sound.obj
 0001:000550d0       ?_Equal@?$basic_string@DU?$char_traits@D@std@@V?$allocator@D@2@@std@@QBE_NABV12@@Z 100560d0 f i Sound.obj
 0001:000551a0       ?_Erase@?$_Tree@V?$_Tmap_traits@V?$basic_string@DU?$char_traits@D@std@@V?$allocator@D@2@@std@@PAVCSndObj@SOUND@NMBASE@@U?$less@V?$basic_string@DU?$char_traits@D@std@@V?$allocator@D@2@@std@@@2@V?$allocator@U?$pair@$$CBV?$basic_string@DU?$char_traits@D@std@@V?$allocator@D@2@@std@@PAVCSndObj@SOUND@NMBASE@@@std@@@2@$0A@@std@@@std@@IAEXPAU?$_Tree_node@U?$pair@$$CBV?$basic_string@DU?$char_traits@D@std@@V?$allocator@D@2@@std@@PAVCSndObj@SOUND@NMBASE@@@std@@PAX@2@@Z 100561a0 f i Sound.obj
 0001:00055270       ?_Erase@?$_Tree@V?$_Tset_traits@V?$basic_string@DU?$char_traits@D@std@@V?$allocator@D@2@@std@@U?$less@V?$basic_string@DU?$char_traits@D@std@@V?$allocator@D@2@@std@@@2@V?$allocator@V?$basic_string@DU?$char_traits@D@std@@V?$allocator@D@2@@std@@@2@$0A@@std@@@std@@IAEXPAU?$_Tree_node@V?$basic_string@DU?$char_traits@D@std@@V?$allocator@D@2@@std@@PAX@2@@Z 10056270 f i Sound.obj
 0001:00055340       ?_Extract@?$_Tree_val@U?$_Tree_simple_types@U?$pair@$$CBV?$basic_string@DU?$char_traits@D@std@@V?$allocator@D@2@@std@@PAVCSndObj@SOUND@NMBASE@@@std@@@std@@@std@@QAEPAU?$_Tree_node@U?$pair@$$CBV?$basic_string@DU?$char_traits@D@std@@V?$allocator@D@2@@std@@PAVCSndObj@SOUND@NMBASE@@@std@@PAX@2@V?$_Tree_const_iterator@V?$_Tree_val@U?$_Tree_simple_types@U?$pair@$$CBV?$basic_string@DU?$char_traits@D@std@@V?$allocator@D@2@@std@@PAVCSndObj@SOUND@NMBASE@@@std@@@std@@@std@@@2@@Z 10056340 f i Sound.obj
 0001:000559d0       ?_Extract@?$_Tree_val@U?$_Tree_simple_types@V?$basic_string@DU?$char_traits@D@std@@V?$allocator@D@2@@std@@@std@@@std@@QAEPAU?$_Tree_node@V?$basic_string@DU?$char_traits@D@std@@V?$allocator@D@2@@std@@PAX@2@V?$_Tree_const_iterator@V?$_Tree_val@U?$_Tree_simple_types@V?$basic_string@DU?$char_traits@D@std@@V?$allocator@D@2@@std@@@std@@@std@@@2@@Z 100569d0 f i Sound.obj
 0001:00056060       ?_Free_proxy@?$_List_alloc@U?$_List_base_types@PAUSNDPLAYDATA@SOUND@NMBASE@@V?$allocator@PAUSNDPLAYDATA@SOUND@NMBASE@@@std@@@std@@@std@@QAEXXZ 10057060 f i Sound.obj
 0001:00056160       ?_Free_proxy@?$_String_alloc@U?$_String_base_types@DV?$allocator@D@std@@@std@@@std@@QAEXXZ 10057160 f i Sound.obj
 0001:00056260       ?_Free_proxy@?$_Tree_comp_alloc@V?$_Tmap_traits@V?$basic_string@DU?$char_traits@D@std@@V?$allocator@D@2@@std@@PAVCSndObj@SOUND@NMBASE@@U?$less@V?$basic_string@DU?$char_traits@D@std@@V?$allocator@D@2@@std@@@2@V?$allocator@U?$pair@$$CBV?$basic_string@DU?$char_traits@D@std@@V?$allocator@D@2@@std@@PAVCSndObj@SOUND@NMBASE@@@std@@@2@$0A@@std@@@std@@QAEXXZ 10057260 f i Sound.obj
 0001:00056360       ?_Free_proxy@?$_Tree_comp_alloc@V?$_Tset_traits@V?$basic_string@DU?$char_traits@D@std@@V?$allocator@D@2@@std@@U?$less@V?$basic_string@DU?$char_traits@D@std@@V?$allocator@D@2@@std@@@2@V?$allocator@V?$basic_string@DU?$char_traits@D@std@@V?$allocator@D@2@@std@@@2@$0A@@std@@@std@@QAEXXZ 10057360 f i Sound.obj
 0001:00056460       ?_Freeheadnode@?$_List_alloc@U?$_List_base_types@PAUSNDPLAYDATA@SOUND@NMBASE@@V?$allocator@PAUSNDPLAYDATA@SOUND@NMBASE@@@std@@@std@@@std@@QAEXPAU?$_List_node@PAUSNDPLAYDATA@SOUND@NMBASE@@PAX@2@@Z 10057460 f i Sound.obj
 0001:000564d0       ?_Freeheadnode@?$_Tree_comp_alloc@V?$_Tmap_traits@V?$basic_string@DU?$char_traits@D@std@@V?$allocator@D@2@@std@@PAVCSndObj@SOUND@NMBASE@@U?$less@V?$basic_string@DU?$char_traits@D@std@@V?$allocator@D@2@@std@@@2@V?$allocator@U?$pair@$$CBV?$basic_string@DU?$char_traits@D@std@@V?$allocator@D@2@@std@@PAVCSndObj@SOUND@NMBASE@@@std@@@2@$0A@@std@@@std@@QAEXPAU?$_Tree_node@U?$pair@$$CBV?$basic_string@DU?$char_traits@D@std@@V?$allocator@D@2@@std@@PAVCSndObj@SOUND@NMBASE@@@std@@PAX@2@@Z 100574d0 f i Sound.obj
 0001:00056540       ?_Freeheadnode@?$_Tree_comp_alloc@V?$_Tset_traits@V?$basic_string@DU?$char_traits@D@std@@V?$allocator@D@2@@std@@U?$less@V?$basic_string@DU?$char_traits@D@std@@V?$allocator@D@2@@std@@@2@V?$allocator@V?$basic_string@DU?$char_traits@D@std@@V?$allocator@D@2@@std@@@2@$0A@@std@@@std@@QAEXPAU?$_Tree_node@V?$basic_string@DU?$char_traits@D@std@@V?$allocator@D@2@@std@@PAX@2@@Z 10057540 f i Sound.obj
 0001:000565b0       ?_Freenode0@?$_Tree_comp_alloc@V?$_Tmap_traits@V?$basic_string@DU?$char_traits@D@std@@V?$allocator@D@2@@std@@PAVCSndObj@SOUND@NMBASE@@U?$less@V?$basic_string@DU?$char_traits@D@std@@V?$allocator@D@2@@std@@@2@V?$allocator@U?$pair@$$CBV?$basic_string@DU?$char_traits@D@std@@V?$allocator@D@2@@std@@PAVCSndObj@SOUND@NMBASE@@@std@@@2@$0A@@std@@@std@@QAEXPAU?$_Tree_node@U?$pair@$$CBV?$basic_string@DU?$char_traits@D@std@@V?$allocator@D@2@@std@@PAVCSndObj@SOUND@NMBASE@@@std@@PAX@2@@Z 100575b0 f i Sound.obj
 0001:00056620       ?_Freenode0@?$_Tree_comp_alloc@V?$_Tset_traits@V?$basic_string@DU?$char_traits@D@std@@V?$allocator@D@2@@std@@U?$less@V?$basic_string@DU?$char_traits@D@std@@V?$allocator@D@2@@std@@@2@V?$allocator@V?$basic_string@DU?$char_traits@D@std@@V?$allocator@D@2@@std@@@2@$0A@@std@@@std@@QAEXPAU?$_Tree_node@V?$basic_string@DU?$char_traits@D@std@@V?$allocator@D@2@@std@@PAX@2@@Z 10057620 f i Sound.obj
 0001:00056690       ?_Freenode@?$_List_buy@PAUSNDPLAYDATA@SOUND@NMBASE@@V?$allocator@PAUSNDPLAYDATA@SOUND@NMBASE@@@std@@@std@@QAEXPAU?$_List_node@PAUSNDPLAYDATA@SOUND@NMBASE@@PAX@2@@Z 10057690 f i Sound.obj
 0001:00056720       ?_Get_data@?$_List_alloc@U?$_List_base_types@PAUSNDPLAYDATA@SOUND@NMBASE@@V?$allocator@PAUSNDPLAYDATA@SOUND@NMBASE@@@std@@@std@@@std@@QAEAAV?$_List_val@U?$_List_simple_types@PAUSNDPLAYDATA@SOUND@NMBASE@@@std@@@2@XZ 10057720 f i Sound.obj
 0001:00056770       ?_Get_data@?$_List_alloc@U?$_List_base_types@PAUSNDPLAYDATA@SOUND@NMBASE@@V?$allocator@PAUSNDPLAYDATA@SOUND@NMBASE@@@std@@@std@@@std@@QBEABV?$_List_val@U?$_List_simple_types@PAUSNDPLAYDATA@SOUND@NMBASE@@@std@@@2@XZ 10057770 f i Sound.obj
 0001:000567c0       ?_Get_data@?$_String_alloc@U?$_String_base_types@DV?$allocator@D@std@@@std@@@std@@QAEAAV?$_String_val@U?$_Simple_types@D@std@@@2@XZ 100577c0 f i Sound.obj
 0001:00056810       ?_Get_data@?$_String_alloc@U?$_String_base_types@DV?$allocator@D@std@@@std@@@std@@QBEABV?$_String_val@U?$_Simple_types@D@std@@@2@XZ 10057810 f i Sound.obj
 0001:00056860       ?_Get_data@?$_Tree_comp_alloc@V?$_Tmap_traits@V?$basic_string@DU?$char_traits@D@std@@V?$allocator@D@2@@std@@PAVCSndObj@SOUND@NMBASE@@U?$less@V?$basic_string@DU?$char_traits@D@std@@V?$allocator@D@2@@std@@@2@V?$allocator@U?$pair@$$CBV?$basic_string@DU?$char_traits@D@std@@V?$allocator@D@2@@std@@PAVCSndObj@SOUND@NMBASE@@@std@@@2@$0A@@std@@@std@@QAEAAV?$_Tree_val@U?$_Tree_simple_types@U?$pair@$$CBV?$basic_string@DU?$char_traits@D@std@@V?$allocator@D@2@@std@@PAVCSndObj@SOUND@NMBASE@@@std@@@std@@@2@XZ 10057860 f i Sound.obj
 0001:000568c0       ?_Get_data@?$_Tree_comp_alloc@V?$_Tmap_traits@V?$basic_string@DU?$char_traits@D@std@@V?$allocator@D@2@@std@@PAVCSndObj@SOUND@NMBASE@@U?$less@V?$basic_string@DU?$char_traits@D@std@@V?$allocator@D@2@@std@@@2@V?$allocator@U?$pair@$$CBV?$basic_string@DU?$char_traits@D@std@@V?$allocator@D@2@@std@@PAVCSndObj@SOUND@NMBASE@@@std@@@2@$0A@@std@@@std@@QBEABV?$_Tree_val@U?$_Tree_simple_types@U?$pair@$$CBV?$basic_string@DU?$char_traits@D@std@@V?$allocator@D@2@@std@@PAVCSndObj@SOUND@NMBASE@@@std@@@std@@@2@XZ 100578c0 f i Sound.obj
 0001:00056920       ?_Get_data@?$_Tree_comp_alloc@V?$_Tset_traits@V?$basic_string@DU?$char_traits@D@std@@V?$allocator@D@2@@std@@U?$less@V?$basic_string@DU?$char_traits@D@std@@V?$allocator@D@2@@std@@@2@V?$allocator@V?$basic_string@DU?$char_traits@D@std@@V?$allocator@D@2@@std@@@2@$0A@@std@@@std@@QAEAAV?$_Tree_val@U?$_Tree_simple_types@V?$basic_string@DU?$char_traits@D@std@@V?$allocator@D@2@@std@@@std@@@2@XZ 10057920 f i Sound.obj
 0001:00056980       ?_Get_data@?$_Tree_comp_alloc@V?$_Tset_traits@V?$basic_string@DU?$char_traits@D@std@@V?$allocator@D@2@@std@@U?$less@V?$basic_string@DU?$char_traits@D@std@@V?$allocator@D@2@@std@@@2@V?$allocator@V?$basic_string@DU?$char_traits@D@std@@V?$allocator@D@2@@std@@@2@$0A@@std@@@std@@QBEABV?$_Tree_val@U?$_Tree_simple_types@V?$basic_string@DU?$char_traits@D@std@@V?$allocator@D@2@@std@@@std@@@2@XZ 10057980 f i Sound.obj
 0001:000569e0       ?_Get_first@?$_Compressed_pair@U?$less@V?$basic_string@DU?$char_traits@D@std@@V?$allocator@D@2@@std@@@std@@V?$_Compressed_pair@V?$allocator@U?$_Tree_node@U?$pair@$$CBV?$basic_string@DU?$char_traits@D@std@@V?$allocator@D@2@@std@@PAVCSndObj@SOUND@NMBASE@@@std@@PAX@std@@@std@@V?$_Tree_val@U?$_Tree_simple_types@U?$pair@$$CBV?$basic_string@DU?$char_traits@D@std@@V?$allocator@D@2@@std@@PAVCSndObj@SOUND@NMBASE@@@std@@@std@@@2@$00@2@$00@std@@QAEAAU?$less@V?$basic_string@DU?$char_traits@D@std@@V?$allocator@D@2@@std@@@2@XZ 100579e0 f i Sound.obj
 0001:00056a20       ?_Get_first@?$_Compressed_pair@U?$less@V?$basic_string@DU?$char_traits@D@std@@V?$allocator@D@2@@std@@@std@@V?$_Compressed_pair@V?$allocator@U?$_Tree_node@U?$pair@$$CBV?$basic_string@DU?$char_traits@D@std@@V?$allocator@D@2@@std@@PAVCSndObj@SOUND@NMBASE@@@std@@PAX@std@@@std@@V?$_Tree_val@U?$_Tree_simple_types@U?$pair@$$CBV?$basic_string@DU?$char_traits@D@std@@V?$allocator@D@2@@std@@PAVCSndObj@SOUND@NMBASE@@@std@@@std@@@2@$00@2@$00@std@@QBEABU?$less@V?$basic_string@DU?$char_traits@D@std@@V?$allocator@D@2@@std@@@2@XZ 10057a20 f i Sound.obj
 0001:00056a60       ?_Get_first@?$_Compressed_pair@U?$less@V?$basic_string@DU?$char_traits@D@std@@V?$allocator@D@2@@std@@@std@@V?$_Compressed_pair@V?$allocator@U?$_Tree_node@V?$basic_string@DU?$char_traits@D@std@@V?$allocator@D@2@@std@@PAX@std@@@std@@V?$_Tree_val@U?$_Tree_simple_types@V?$basic_string@DU?$char_traits@D@std@@V?$allocator@D@2@@std@@@std@@@2@$00@2@$00@std@@QAEAAU?$less@V?$basic_string@DU?$char_traits@D@std@@V?$allocator@D@2@@std@@@2@XZ 10057a60 f i Sound.obj
 0001:00056aa0       ?_Get_first@?$_Compressed_pair@U?$less@V?$basic_string@DU?$char_traits@D@std@@V?$allocator@D@2@@std@@@std@@V?$_Compressed_pair@V?$allocator@U?$_Tree_node@V?$basic_string@DU?$char_traits@D@std@@V?$allocator@D@2@@std@@PAX@std@@@std@@V?$_Tree_val@U?$_Tree_simple_types@V?$basic_string@DU?$char_traits@D@std@@V?$allocator@D@2@@std@@@std@@@2@$00@2@$00@std@@QBEABU?$less@V?$basic_string@DU?$char_traits@D@std@@V?$allocator@D@2@@std@@@2@XZ 10057aa0 f i Sound.obj
 0001:00056ae0       ?_Get_first@?$_Compressed_pair@V?$allocator@D@std@@V?$_String_val@U?$_Simple_types@D@std@@@2@$00@std@@QAEAAV?$allocator@D@2@XZ 10057ae0 f i Sound.obj
 0001:00056b20       ?_Get_first@?$_Compressed_pair@V?$allocator@D@std@@V?$_String_val@U?$_Simple_types@D@std@@@2@$00@std@@QBEABV?$allocator@D@2@XZ 10057b20 f i Sound.obj
 0001:00056b60       ?_Get_first@?$_Compressed_pair@V?$allocator@U?$_List_node@PAUSNDPLAYDATA@SOUND@NMBASE@@PAX@std@@@std@@V?$_List_val@U?$_List_simple_types@PAUSNDPLAYDATA@SOUND@NMBASE@@@std@@@2@$00@std@@QAEAAV?$allocator@U?$_List_node@PAUSNDPLAYDATA@SOUND@NMBASE@@PAX@std@@@2@XZ 10057b60 f i Sound.obj
 0001:00056ba0       ?_Get_first@?$_Compressed_pair@V?$allocator@U?$_List_node@PAUSNDPLAYDATA@SOUND@NMBASE@@PAX@std@@@std@@V?$_List_val@U?$_List_simple_types@PAUSNDPLAYDATA@SOUND@NMBASE@@@std@@@2@$00@std@@QBEABV?$allocator@U?$_List_node@PAUSNDPLAYDATA@SOUND@NMBASE@@PAX@std@@@2@XZ 10057ba0 f i Sound.obj
 0001:00056be0       ?_Get_first@?$_Compressed_pair@V?$allocator@U?$_Tree_node@U?$pair@$$CBV?$basic_string@DU?$char_traits@D@std@@V?$allocator@D@2@@std@@PAVCSndObj@SOUND@NMBASE@@@std@@PAX@std@@@std@@V?$_Tree_val@U?$_Tree_simple_types@U?$pair@$$CBV?$basic_string@DU?$char_traits@D@std@@V?$allocator@D@2@@std@@PAVCSndObj@SOUND@NMBASE@@@std@@@std@@@2@$00@std@@QAEAAV?$allocator@U?$_Tree_node@U?$pair@$$CBV?$basic_string@DU?$char_traits@D@std@@V?$allocator@D@2@@std@@PAVCSndObj@SOUND@NMBASE@@@std@@PAX@std@@@2@XZ 10057be0 f i Sound.obj
 0001:00056c20       ?_Get_first@?$_Compressed_pair@V?$allocator@U?$_Tree_node@U?$pair@$$CBV?$basic_string@DU?$char_traits@D@std@@V?$allocator@D@2@@std@@PAVCSndObj@SOUND@NMBASE@@@std@@PAX@std@@@std@@V?$_Tree_val@U?$_Tree_simple_types@U?$pair@$$CBV?$basic_string@DU?$char_traits@D@std@@V?$allocator@D@2@@std@@PAVCSndObj@SOUND@NMBASE@@@std@@@std@@@2@$00@std@@QBEABV?$allocator@U?$_Tree_node@U?$pair@$$CBV?$basic_string@DU?$char_traits@D@std@@V?$allocator@D@2@@std@@PAVCSndObj@SOUND@NMBASE@@@std@@PAX@std@@@2@XZ 10057c20 f i Sound.obj
 0001:00056c60       ?_Get_first@?$_Compressed_pair@V?$allocator@U?$_Tree_node@V?$basic_string@DU?$char_traits@D@std@@V?$allocator@D@2@@std@@PAX@std@@@std@@V?$_Tree_val@U?$_Tree_simple_types@V?$basic_string@DU?$char_traits@D@std@@V?$allocator@D@2@@std@@@std@@@2@$00@std@@QAEAAV?$allocator@U?$_Tree_node@V?$basic_string@DU?$char_traits@D@std@@V?$allocator@D@2@@std@@PAX@std@@@2@XZ 10057c60 f i Sound.obj
 0001:00056ca0       ?_Get_first@?$_Compressed_pair@V?$allocator@U?$_Tree_node@V?$basic_string@DU?$char_traits@D@std@@V?$allocator@D@2@@std@@PAX@std@@@std@@V?$_Tree_val@U?$_Tree_simple_types@V?$basic_string@DU?$char_traits@D@std@@V?$allocator@D@2@@std@@@std@@@2@$00@std@@QBEABV?$allocator@U?$_Tree_node@V?$basic_string@DU?$char_traits@D@std@@V?$allocator@D@2@@std@@PAX@std@@@2@XZ 10057ca0 f i Sound.obj
 0001:00056ce0       ?_Get_second@?$_Compressed_pair@U?$less@V?$basic_string@DU?$char_traits@D@std@@V?$allocator@D@2@@std@@@std@@V?$_Compressed_pair@V?$allocator@U?$_Tree_node@U?$pair@$$CBV?$basic_string@DU?$char_traits@D@std@@V?$allocator@D@2@@std@@PAVCSndObj@SOUND@NMBASE@@@std@@PAX@std@@@std@@V?$_Tree_val@U?$_Tree_simple_types@U?$pair@$$CBV?$basic_string@DU?$char_traits@D@std@@V?$allocator@D@2@@std@@PAVCSndObj@SOUND@NMBASE@@@std@@@std@@@2@$00@2@$00@std@@QAEAAV?$_Compressed_pair@V?$allocator@U?$_Tree_node@U?$pair@$$CBV?$basic_string@DU?$char_traits@D@std@@V?$allocator@D@2@@std@@PAVCSndObj@SOUND@NMBASE@@@std@@PAX@std@@@std@@V?$_Tree_val@U?$_Tree_simple_types@U?$pair@$$CBV?$basic_string@DU?$char_traits@D@std@@V?$allocator@D@2@@std@@PAVCSndObj@SOUND@NMBASE@@@std@@@std@@@2@$00@2@XZ 10057ce0 f i Sound.obj
 0001:00056d20       ?_Get_second@?$_Compressed_pair@U?$less@V?$basic_string@DU?$char_traits@D@std@@V?$allocator@D@2@@std@@@std@@V?$_Compressed_pair@V?$allocator@U?$_Tree_node@U?$pair@$$CBV?$basic_string@DU?$char_traits@D@std@@V?$allocator@D@2@@std@@PAVCSndObj@SOUND@NMBASE@@@std@@PAX@std@@@std@@V?$_Tree_val@U?$_Tree_simple_types@U?$pair@$$CBV?$basic_string@DU?$char_traits@D@std@@V?$allocator@D@2@@std@@PAVCSndObj@SOUND@NMBASE@@@std@@@std@@@2@$00@2@$00@std@@QBEABV?$_Compressed_pair@V?$allocator@U?$_Tree_node@U?$pair@$$CBV?$basic_string@DU?$char_traits@D@std@@V?$allocator@D@2@@std@@PAVCSndObj@SOUND@NMBASE@@@std@@PAX@std@@@std@@V?$_Tree_val@U?$_Tree_simple_types@U?$pair@$$CBV?$basic_string@DU?$char_traits@D@std@@V?$allocator@D@2@@std@@PAVCSndObj@SOUND@NMBASE@@@std@@@std@@@2@$00@2@XZ 10057d20 f i Sound.obj
 0001:00056d60       ?_Get_second@?$_Compressed_pair@U?$less@V?$basic_string@DU?$char_traits@D@std@@V?$allocator@D@2@@std@@@std@@V?$_Compressed_pair@V?$allocator@U?$_Tree_node@V?$basic_string@DU?$char_traits@D@std@@V?$allocator@D@2@@std@@PAX@std@@@std@@V?$_Tree_val@U?$_Tree_simple_types@V?$basic_string@DU?$char_traits@D@std@@V?$allocator@D@2@@std@@@std@@@2@$00@2@$00@std@@QAEAAV?$_Compressed_pair@V?$allocator@U?$_Tree_node@V?$basic_string@DU?$char_traits@D@std@@V?$allocator@D@2@@std@@PAX@std@@@std@@V?$_Tree_val@U?$_Tree_simple_types@V?$basic_string@DU?$char_traits@D@std@@V?$allocator@D@2@@std@@@std@@@2@$00@2@XZ 10057d60 f i Sound.obj
 0001:00056da0       ?_Get_second@?$_Compressed_pair@U?$less@V?$basic_string@DU?$char_traits@D@std@@V?$allocator@D@2@@std@@@std@@V?$_Compressed_pair@V?$allocator@U?$_Tree_node@V?$basic_string@DU?$char_traits@D@std@@V?$allocator@D@2@@std@@PAX@std@@@std@@V?$_Tree_val@U?$_Tree_simple_types@V?$basic_string@DU?$char_traits@D@std@@V?$allocator@D@2@@std@@@std@@@2@$00@2@$00@std@@QBEABV?$_Compressed_pair@V?$allocator@U?$_Tree_node@V?$basic_string@DU?$char_traits@D@std@@V?$allocator@D@2@@std@@PAX@std@@@std@@V?$_Tree_val@U?$_Tree_simple_types@V?$basic_string@DU?$char_traits@D@std@@V?$allocator@D@2@@std@@@std@@@2@$00@2@XZ 10057da0 f i Sound.obj
 0001:00056de0       ?_Get_second@?$_Compressed_pair@V?$allocator@D@std@@V?$_String_val@U?$_Simple_types@D@std@@@2@$00@std@@QAEAAV?$_String_val@U?$_Simple_types@D@std@@@2@XZ 10057de0 f i Sound.obj
 0001:00056e20       ?_Get_second@?$_Compressed_pair@V?$allocator@D@std@@V?$_String_val@U?$_Simple_types@D@std@@@2@$00@std@@QBEABV?$_String_val@U?$_Simple_types@D@std@@@2@XZ 10057e20 f i Sound.obj
 0001:00056e60       ?_Get_second@?$_Compressed_pair@V?$allocator@U?$_List_node@PAUSNDPLAYDATA@SOUND@NMBASE@@PAX@std@@@std@@V?$_List_val@U?$_List_simple_types@PAUSNDPLAYDATA@SOUND@NMBASE@@@std@@@2@$00@std@@QAEAAV?$_List_val@U?$_List_simple_types@PAUSNDPLAYDATA@SOUND@NMBASE@@@std@@@2@XZ 10057e60 f i Sound.obj
 0001:00056ea0       ?_Get_second@?$_Compressed_pair@V?$allocator@U?$_List_node@PAUSNDPLAYDATA@SOUND@NMBASE@@PAX@std@@@std@@V?$_List_val@U?$_List_simple_types@PAUSNDPLAYDATA@SOUND@NMBASE@@@std@@@2@$00@std@@QBEABV?$_List_val@U?$_List_simple_types@PAUSNDPLAYDATA@SOUND@NMBASE@@@std@@@2@XZ 10057ea0 f i Sound.obj
 0001:00056ee0       ?_Get_second@?$_Compressed_pair@V?$allocator@U?$_Tree_node@U?$pair@$$CBV?$basic_string@DU?$char_traits@D@std@@V?$allocator@D@2@@std@@PAVCSndObj@SOUND@NMBASE@@@std@@PAX@std@@@std@@V?$_Tree_val@U?$_Tree_simple_types@U?$pair@$$CBV?$basic_string@DU?$char_traits@D@std@@V?$allocator@D@2@@std@@PAVCSndObj@SOUND@NMBASE@@@std@@@std@@@2@$00@std@@QAEAAV?$_Tree_val@U?$_Tree_simple_types@U?$pair@$$CBV?$basic_string@DU?$char_traits@D@std@@V?$allocator@D@2@@std@@PAVCSndObj@SOUND@NMBASE@@@std@@@std@@@2@XZ 10057ee0 f i Sound.obj
 0001:00056f20       ?_Get_second@?$_Compressed_pair@V?$allocator@U?$_Tree_node@U?$pair@$$CBV?$basic_string@DU?$char_traits@D@std@@V?$allocator@D@2@@std@@PAVCSndObj@SOUND@NMBASE@@@std@@PAX@std@@@std@@V?$_Tree_val@U?$_Tree_simple_types@U?$pair@$$CBV?$basic_string@DU?$char_traits@D@std@@V?$allocator@D@2@@std@@PAVCSndObj@SOUND@NMBASE@@@std@@@std@@@2@$00@std@@QBEABV?$_Tree_val@U?$_Tree_simple_types@U?$pair@$$CBV?$basic_string@DU?$char_traits@D@std@@V?$allocator@D@2@@std@@PAVCSndObj@SOUND@NMBASE@@@std@@@std@@@2@XZ 10057f20 f i Sound.obj
 0001:00056f60       ?_Get_second@?$_Compressed_pair@V?$allocator@U?$_Tree_node@V?$basic_string@DU?$char_traits@D@std@@V?$allocator@D@2@@std@@PAX@std@@@std@@V?$_Tree_val@U?$_Tree_simple_types@V?$basic_string@DU?$char_traits@D@std@@V?$allocator@D@2@@std@@@std@@@2@$00@std@@QAEAAV?$_Tree_val@U?$_Tree_simple_types@V?$basic_string@DU?$char_traits@D@std@@V?$allocator@D@2@@std@@@std@@@2@XZ 10057f60 f i Sound.obj
 0001:00056fa0       ?_Get_second@?$_Compressed_pair@V?$allocator@U?$_Tree_node@V?$basic_string@DU?$char_traits@D@std@@V?$allocator@D@2@@std@@PAX@std@@@std@@V?$_Tree_val@U?$_Tree_simple_types@V?$basic_string@DU?$char_traits@D@std@@V?$allocator@D@2@@std@@@std@@@2@$00@std@@QBEABV?$_Tree_val@U?$_Tree_simple_types@V?$basic_string@DU?$char_traits@D@std@@V?$allocator@D@2@@std@@@std@@@2@XZ 10057fa0 f i Sound.obj
 0001:00056fe0       ?_Getal@?$_List_alloc@U?$_List_base_types@PAUSNDPLAYDATA@SOUND@NMBASE@@V?$allocator@PAUSNDPLAYDATA@SOUND@NMBASE@@@std@@@std@@@std@@QAEAAV?$allocator@U?$_List_node@PAUSNDPLAYDATA@SOUND@NMBASE@@PAX@std@@@2@XZ 10057fe0 f i Sound.obj
 0001:00057030       ?_Getal@?$_List_alloc@U?$_List_base_types@PAUSNDPLAYDATA@SOUND@NMBASE@@V?$allocator@PAUSNDPLAYDATA@SOUND@NMBASE@@@std@@@std@@@std@@QBEABV?$allocator@U?$_List_node@PAUSNDPLAYDATA@SOUND@NMBASE@@PAX@std@@@2@XZ 10058030 f i Sound.obj
 0001:00057080       ?_Getal@?$_String_alloc@U?$_String_base_types@DV?$allocator@D@std@@@std@@@std@@QAEAAV?$allocator@D@2@XZ 10058080 f i Sound.obj
 0001:000570d0       ?_Getal@?$_String_alloc@U?$_String_base_types@DV?$allocator@D@std@@@std@@@std@@QBEABV?$allocator@D@2@XZ 100580d0 f i Sound.obj
 0001:00057120       ?_Getal@?$_Tree_comp_alloc@V?$_Tmap_traits@V?$basic_string@DU?$char_traits@D@std@@V?$allocator@D@2@@std@@PAVCSndObj@SOUND@NMBASE@@U?$less@V?$basic_string@DU?$char_traits@D@std@@V?$allocator@D@2@@std@@@2@V?$allocator@U?$pair@$$CBV?$basic_string@DU?$char_traits@D@std@@V?$allocator@D@2@@std@@PAVCSndObj@SOUND@NMBASE@@@std@@@2@$0A@@std@@@std@@QAEAAV?$allocator@U?$_Tree_node@U?$pair@$$CBV?$basic_string@DU?$char_traits@D@std@@V?$allocator@D@2@@std@@PAVCSndObj@SOUND@NMBASE@@@std@@PAX@std@@@2@XZ 10058120 f i Sound.obj
 0001:00057180       ?_Getal@?$_Tree_comp_alloc@V?$_Tmap_traits@V?$basic_string@DU?$char_traits@D@std@@V?$allocator@D@2@@std@@PAVCSndObj@SOUND@NMBASE@@U?$less@V?$basic_string@DU?$char_traits@D@std@@V?$allocator@D@2@@std@@@2@V?$allocator@U?$pair@$$CBV?$basic_string@DU?$char_traits@D@std@@V?$allocator@D@2@@std@@PAVCSndObj@SOUND@NMBASE@@@std@@@2@$0A@@std@@@std@@QBEABV?$allocator@U?$_Tree_node@U?$pair@$$CBV?$basic_string@DU?$char_traits@D@std@@V?$allocator@D@2@@std@@PAVCSndObj@SOUND@NMBASE@@@std@@PAX@std@@@2@XZ 10058180 f i Sound.obj
 0001:000571e0       ?_Getal@?$_Tree_comp_alloc@V?$_Tset_traits@V?$basic_string@DU?$char_traits@D@std@@V?$allocator@D@2@@std@@U?$less@V?$basic_string@DU?$char_traits@D@std@@V?$allocator@D@2@@std@@@2@V?$allocator@V?$basic_string@DU?$char_traits@D@std@@V?$allocator@D@2@@std@@@2@$0A@@std@@@std@@QAEAAV?$allocator@U?$_Tree_node@V?$basic_string@DU?$char_traits@D@std@@V?$allocator@D@2@@std@@PAX@std@@@2@XZ 100581e0 f i Sound.obj
 0001:00057240       ?_Getal@?$_Tree_comp_alloc@V?$_Tset_traits@V?$basic_string@DU?$char_traits@D@std@@V?$allocator@D@2@@std@@U?$less@V?$basic_string@DU?$char_traits@D@std@@V?$allocator@D@2@@std@@@2@V?$allocator@V?$basic_string@DU?$char_traits@D@std@@V?$allocator@D@2@@std@@@2@$0A@@std@@@std@@QBEABV?$allocator@U?$_Tree_node@V?$basic_string@DU?$char_traits@D@std@@V?$allocator@D@2@@std@@PAX@std@@@2@XZ 10058240 f i Sound.obj
 0001:000572a0       ?_Getcomp@?$_Tree_comp_alloc@V?$_Tmap_traits@V?$basic_string@DU?$char_traits@D@std@@V?$allocator@D@2@@std@@PAVCSndObj@SOUND@NMBASE@@U?$less@V?$basic_string@DU?$char_traits@D@std@@V?$allocator@D@2@@std@@@2@V?$allocator@U?$pair@$$CBV?$basic_string@DU?$char_traits@D@std@@V?$allocator@D@2@@std@@PAVCSndObj@SOUND@NMBASE@@@std@@@2@$0A@@std@@@std@@QAEAAU?$less@V?$basic_string@DU?$char_traits@D@std@@V?$allocator@D@2@@std@@@2@XZ 100582a0 f i Sound.obj
 0001:000572f0       ?_Getcomp@?$_Tree_comp_alloc@V?$_Tmap_traits@V?$basic_string@DU?$char_traits@D@std@@V?$allocator@D@2@@std@@PAVCSndObj@SOUND@NMBASE@@U?$less@V?$basic_string@DU?$char_traits@D@std@@V?$allocator@D@2@@std@@@2@V?$allocator@U?$pair@$$CBV?$basic_string@DU?$char_traits@D@std@@V?$allocator@D@2@@std@@PAVCSndObj@SOUND@NMBASE@@@std@@@2@$0A@@std@@@std@@QBEABU?$less@V?$basic_string@DU?$char_traits@D@std@@V?$allocator@D@2@@std@@@2@XZ 100582f0 f i Sound.obj
 0001:00057340       ?_Getcomp@?$_Tree_comp_alloc@V?$_Tset_traits@V?$basic_string@DU?$char_traits@D@std@@V?$allocator@D@2@@std@@U?$less@V?$basic_string@DU?$char_traits@D@std@@V?$allocator@D@2@@std@@@2@V?$allocator@V?$basic_string@DU?$char_traits@D@std@@V?$allocator@D@2@@std@@@2@$0A@@std@@@std@@QAEAAU?$less@V?$basic_string@DU?$char_traits@D@std@@V?$allocator@D@2@@std@@@2@XZ 10058340 f i Sound.obj
 0001:00057390       ?_Getcomp@?$_Tree_comp_alloc@V?$_Tset_traits@V?$basic_string@DU?$char_traits@D@std@@V?$allocator@D@2@@std@@U?$less@V?$basic_string@DU?$char_traits@D@std@@V?$allocator@D@2@@std@@@2@V?$allocator@V?$basic_string@DU?$char_traits@D@std@@V?$allocator@D@2@@std@@@2@$0A@@std@@@std@@QBEABU?$less@V?$basic_string@DU?$char_traits@D@std@@V?$allocator@D@2@@std@@@2@XZ 10058390 f i Sound.obj
 0001:000573e0       ?_Getcont@_Iterator_base12@std@@QBEPBU_Container_base12@2@XZ 100583e0 f i Sound.obj
 0001:00057450       ?_Getpfirst@?$_List_alloc@U?$_List_base_types@PAUSNDPLAYDATA@SOUND@NMBASE@@V?$allocator@PAUSNDPLAYDATA@SOUND@NMBASE@@@std@@@std@@@std@@QBEPAPAU_Iterator_base12@2@XZ 10058450 f i Sound.obj
 0001:000574b0       ?_Getpfirst@?$_Tree_comp_alloc@V?$_Tmap_traits@V?$basic_string@DU?$char_traits@D@std@@V?$allocator@D@2@@std@@PAVCSndObj@SOUND@NMBASE@@U?$less@V?$basic_string@DU?$char_traits@D@std@@V?$allocator@D@2@@std@@@2@V?$allocator@U?$pair@$$CBV?$basic_string@DU?$char_traits@D@std@@V?$allocator@D@2@@std@@PAVCSndObj@SOUND@NMBASE@@@std@@@2@$0A@@std@@@std@@QBEPAPAU_Iterator_base12@2@XZ 100584b0 f i Sound.obj
 0001:00057510       ?_Getpfirst@?$_Tree_comp_alloc@V?$_Tset_traits@V?$basic_string@DU?$char_traits@D@std@@V?$allocator@D@2@@std@@U?$less@V?$basic_string@DU?$char_traits@D@std@@V?$allocator@D@2@@std@@@2@V?$allocator@V?$basic_string@DU?$char_traits@D@std@@V?$allocator@D@2@@std@@@2@$0A@@std@@@std@@QBEPAPAU_Iterator_base12@2@XZ 10058510 f i Sound.obj
 0001:00057570       ?_Getpfirst@_Container_base12@std@@QBEPAPAU_Iterator_base12@2@XZ 10058570 f i Sound.obj
 0001:000575e0       ?_Getpnext@_Iterator_base12@std@@QAEPAPAU12@XZ 100585e0 f i Sound.obj
 0001:00057620       ?_Incsize@?$list@PAUSNDPLAYDATA@SOUND@NMBASE@@V?$allocator@PAUSNDPLAYDATA@SOUND@NMBASE@@@std@@@std@@QAEXI@Z 10058620 f i Sound.obj
 0001:000576c0       ?_Key@?$_Tree@V?$_Tmap_traits@V?$basic_string@DU?$char_traits@D@std@@V?$allocator@D@2@@std@@PAVCSndObj@SOUND@NMBASE@@U?$less@V?$basic_string@DU?$char_traits@D@std@@V?$allocator@D@2@@std@@@2@V?$allocator@U?$pair@$$CBV?$basic_string@DU?$char_traits@D@std@@V?$allocator@D@2@@std@@PAVCSndObj@SOUND@NMBASE@@@std@@@2@$0A@@std@@@std@@IBEABV?$basic_string@DU?$char_traits@D@std@@V?$allocator@D@2@@2@PAU?$_Tree_node@U?$pair@$$CBV?$basic_string@DU?$char_traits@D@std@@V?$allocator@D@2@@std@@PAVCSndObj@SOUND@NMBASE@@@std@@PAX@2@@Z 100586c0 f i Sound.obj
 0001:00057720       ?_Key@?$_Tree@V?$_Tset_traits@V?$basic_string@DU?$char_traits@D@std@@V?$allocator@D@2@@std@@U?$less@V?$basic_string@DU?$char_traits@D@std@@V?$allocator@D@2@@std@@@2@V?$allocator@V?$basic_string@DU?$char_traits@D@std@@V?$allocator@D@2@@std@@@2@$0A@@std@@@std@@IBEABV?$basic_string@DU?$char_traits@D@std@@V?$allocator@D@2@@2@PAU?$_Tree_node@V?$basic_string@DU?$char_traits@D@std@@V?$allocator@D@2@@std@@PAX@2@@Z 10058720 f i Sound.obj
 0001:00057780       ?_Kfn@?$_Tree@V?$_Tmap_traits@V?$basic_string@DU?$char_traits@D@std@@V?$allocator@D@2@@std@@PAVCSndObj@SOUND@NMBASE@@U?$less@V?$basic_string@DU?$char_traits@D@std@@V?$allocator@D@2@@std@@@2@V?$allocator@U?$pair@$$CBV?$basic_string@DU?$char_traits@D@std@@V?$allocator@D@2@@std@@PAVCSndObj@SOUND@NMBASE@@@std@@@2@$0A@@std@@@std@@IBEABV?$basic_string@DU?$char_traits@D@std@@V?$allocator@D@2@@2@ABU?$pair@$$CBV?$basic_string@DU?$char_traits@D@std@@V?$allocator@D@2@@std@@PAVCSndObj@SOUND@NMBASE@@@2@@Z 10058780 f i Sound.obj
 0001:000577e0       ?_Kfn@?$_Tree@V?$_Tset_traits@V?$basic_string@DU?$char_traits@D@std@@V?$allocator@D@2@@std@@U?$less@V?$basic_string@DU?$char_traits@D@std@@V?$allocator@D@2@@std@@@2@V?$allocator@V?$basic_string@DU?$char_traits@D@std@@V?$allocator@D@2@@std@@@2@$0A@@std@@@std@@IBEABV?$basic_string@DU?$char_traits@D@std@@V?$allocator@D@2@@2@ABV32@@Z 100587e0 f i Sound.obj
 0001:00057840       ?_Kfn@?$_Tset_traits@V?$basic_string@DU?$char_traits@D@std@@V?$allocator@D@2@@std@@U?$less@V?$basic_string@DU?$char_traits@D@std@@V?$allocator@D@2@@std@@@2@V?$allocator@V?$basic_string@DU?$char_traits@D@std@@V?$allocator@D@2@@std@@@2@$0A@@std@@SAABV?$basic_string@DU?$char_traits@D@std@@V?$allocator@D@2@@2@ABV32@@Z 10058840 f i Sound.obj
 0001:00057880       ?_Large_string_engaged@?$_String_val@U?$_Simple_types@D@std@@@std@@QBE_NXZ 10058880 f i Sound.obj
 0001:000578f0       ?_Lmost@?$_Tree_val@U?$_Tree_simple_types@U?$pair@$$CBV?$basic_string@DU?$char_traits@D@std@@V?$allocator@D@2@@std@@PAVCSndObj@SOUND@NMBASE@@@std@@@std@@@std@@QBEAAPAU?$_Tree_node@U?$pair@$$CBV?$basic_string@DU?$char_traits@D@std@@V?$allocator@D@2@@std@@PAVCSndObj@SOUND@NMBASE@@@std@@PAX@2@XZ 100588f0 f i Sound.obj
 0001:00057930       ?_Lmost@?$_Tree_val@U?$_Tree_simple_types@V?$basic_string@DU?$char_traits@D@std@@V?$allocator@D@2@@std@@@std@@@std@@QBEAAPAU?$_Tree_node@V?$basic_string@DU?$char_traits@D@std@@V?$allocator@D@2@@std@@PAX@2@XZ 10058930 f i Sound.obj
 0001:00057970       ?_Lrotate@?$_Tree_val@U?$_Tree_simple_types@U?$pair@$$CBV?$basic_string@DU?$char_traits@D@std@@V?$allocator@D@2@@std@@PAVCSndObj@SOUND@NMBASE@@@std@@@std@@@std@@QAEXPAU?$_Tree_node@U?$pair@$$CBV?$basic_string@DU?$char_traits@D@std@@V?$allocator@D@2@@std@@PAVCSndObj@SOUND@NMBASE@@@std@@PAX@2@@Z 10058970 f i Sound.obj
 0001:00057a60       ?_Lrotate@?$_Tree_val@U?$_Tree_simple_types@V?$basic_string@DU?$char_traits@D@std@@V?$allocator@D@2@@std@@@std@@@std@@QAEXPAU?$_Tree_node@V?$basic_string@DU?$char_traits@D@std@@V?$allocator@D@2@@std@@PAX@2@@Z 10058a60 f i Sound.obj
 0001:00057b50       ?_Make_iter@?$list@PAUSNDPLAYDATA@SOUND@NMBASE@@V?$allocator@PAUSNDPLAYDATA@SOUND@NMBASE@@@std@@@std@@QBE?AV?$_List_iterator@V?$_List_val@U?$_List_simple_types@PAUSNDPLAYDATA@SOUND@NMBASE@@@std@@@std@@@2@V?$_List_const_iterator@V?$_List_val@U?$_List_simple_types@PAUSNDPLAYDATA@SOUND@NMBASE@@@std@@@std@@@2@@Z 10058b50 f i Sound.obj
 0001:00057c00       ?_Max@?$_Tree_val@U?$_Tree_simple_types@U?$pair@$$CBV?$basic_string@DU?$char_traits@D@std@@V?$allocator@D@2@@std@@PAVCSndObj@SOUND@NMBASE@@@std@@@std@@@std@@SAPAU?$_Tree_node@U?$pair@$$CBV?$basic_string@DU?$char_traits@D@std@@V?$allocator@D@2@@std@@PAVCSndObj@SOUND@NMBASE@@@std@@PAX@2@PAU32@@Z 10058c00 f i Sound.obj
 0001:00057c60       ?_Max@?$_Tree_val@U?$_Tree_simple_types@V?$basic_string@DU?$char_traits@D@std@@V?$allocator@D@2@@std@@@std@@@std@@SAPAU?$_Tree_node@V?$basic_string@DU?$char_traits@D@std@@V?$allocator@D@2@@std@@PAX@2@PAU32@@Z 10058c60 f i Sound.obj
 0001:00057cc0       ?_Min@?$_Tree_val@U?$_Tree_simple_types@U?$pair@$$CBV?$basic_string@DU?$char_traits@D@std@@V?$allocator@D@2@@std@@PAVCSndObj@SOUND@NMBASE@@@std@@@std@@@std@@SAPAU?$_Tree_node@U?$pair@$$CBV?$basic_string@DU?$char_traits@D@std@@V?$allocator@D@2@@std@@PAVCSndObj@SOUND@NMBASE@@@std@@PAX@2@PAU32@@Z 10058cc0 f i Sound.obj
 0001:00057d10       ?_Min@?$_Tree_val@U?$_Tree_simple_types@V?$basic_string@DU?$char_traits@D@std@@V?$allocator@D@2@@std@@@std@@@std@@SAPAU?$_Tree_node@V?$basic_string@DU?$char_traits@D@std@@V?$allocator@D@2@@std@@PAX@2@PAU32@@Z 10058d10 f i Sound.obj
 0001:00057d60       ?_Myhead@?$_List_alloc@U?$_List_base_types@PAUSNDPLAYDATA@SOUND@NMBASE@@V?$allocator@PAUSNDPLAYDATA@SOUND@NMBASE@@@std@@@std@@@std@@QAEAAPAU?$_List_node@PAUSNDPLAYDATA@SOUND@NMBASE@@PAX@2@XZ 10058d60 f i Sound.obj
 0001:00057dc0       ?_Myhead@?$_List_alloc@U?$_List_base_types@PAUSNDPLAYDATA@SOUND@NMBASE@@V?$allocator@PAUSNDPLAYDATA@SOUND@NMBASE@@@std@@@std@@@std@@QBEABQAU?$_List_node@PAUSNDPLAYDATA@SOUND@NMBASE@@PAX@2@XZ 10058dc0 f i Sound.obj
 0001:00057e20       ?_Myproxy@?$_List_alloc@U?$_List_base_types@PAUSNDPLAYDATA@SOUND@NMBASE@@V?$allocator@PAUSNDPLAYDATA@SOUND@NMBASE@@@std@@@std@@@std@@QAEAAPAU_Container_proxy@2@XZ 10058e20 f i Sound.obj
 0001:00057e70       ?_Myproxy@?$_String_alloc@U?$_String_base_types@DV?$allocator@D@std@@@std@@@std@@QAEAAPAU_Container_proxy@2@XZ 10058e70 f i Sound.obj
 0001:00057ec0       ?_Myproxy@?$_Tree_comp_alloc@V?$_Tmap_traits@V?$basic_string@DU?$char_traits@D@std@@V?$allocator@D@2@@std@@PAVCSndObj@SOUND@NMBASE@@U?$less@V?$basic_string@DU?$char_traits@D@std@@V?$allocator@D@2@@std@@@2@V?$allocator@U?$pair@$$CBV?$basic_string@DU?$char_traits@D@std@@V?$allocator@D@2@@std@@PAVCSndObj@SOUND@NMBASE@@@std@@@2@$0A@@std@@@std@@QAEAAPAU_Container_proxy@2@XZ 10058ec0 f i Sound.obj
 0001:00057f10       ?_Myproxy@?$_Tree_comp_alloc@V?$_Tset_traits@V?$basic_string@DU?$char_traits@D@std@@V?$allocator@D@2@@std@@U?$less@V?$basic_string@DU?$char_traits@D@std@@V?$allocator@D@2@@std@@@2@V?$allocator@V?$basic_string@DU?$char_traits@D@std@@V?$allocator@D@2@@std@@@2@$0A@@std@@@std@@QAEAAPAU_Container_proxy@2@XZ 10058f10 f i Sound.obj
 0001:00057f60       ?_Myptr@?$_String_val@U?$_Simple_types@D@std@@@std@@QAEPADXZ 10058f60 f i Sound.obj
 0001:00057fe0       ?_Myptr@?$_String_val@U?$_Simple_types@D@std@@@std@@QBEPBDXZ 10058fe0 f i Sound.obj
 0001:00058060       ?_Mysize@?$_List_alloc@U?$_List_base_types@PAUSNDPLAYDATA@SOUND@NMBASE@@V?$allocator@PAUSNDPLAYDATA@SOUND@NMBASE@@@std@@@std@@@std@@QAEAAIXZ 10059060 f i Sound.obj
 0001:000580c0       ?_Orphan_all@?$_List_alloc@U?$_List_base_types@PAUSNDPLAYDATA@SOUND@NMBASE@@V?$allocator@PAUSNDPLAYDATA@SOUND@NMBASE@@@std@@@std@@@std@@QAEXXZ 100590c0 f i Sound.obj
 0001:00058120       ?_Orphan_all@?$_String_alloc@U?$_String_base_types@DV?$allocator@D@std@@@std@@@std@@QAEXXZ 10059120 f i Sound.obj
 0001:00058180       ?_Orphan_all@?$_Tree_comp_alloc@V?$_Tmap_traits@V?$basic_string@DU?$char_traits@D@std@@V?$allocator@D@2@@std@@PAVCSndObj@SOUND@NMBASE@@U?$less@V?$basic_string@DU?$char_traits@D@std@@V?$allocator@D@2@@std@@@2@V?$allocator@U?$pair@$$CBV?$basic_string@DU?$char_traits@D@std@@V?$allocator@D@2@@std@@PAVCSndObj@SOUND@NMBASE@@@std@@@2@$0A@@std@@@std@@QAEXXZ 10059180 f i Sound.obj
 0001:000581e0       ?_Orphan_all@?$_Tree_comp_alloc@V?$_Tset_traits@V?$basic_string@DU?$char_traits@D@std@@V?$allocator@D@2@@std@@U?$less@V?$basic_string@DU?$char_traits@D@std@@V?$allocator@D@2@@std@@@2@V?$allocator@V?$basic_string@DU?$char_traits@D@std@@V?$allocator@D@2@@std@@@2@$0A@@std@@@std@@QAEXXZ 100591e0 f i Sound.obj
 0001:00058240       ?_Orphan_all@_Container_base12@std@@QAEXXZ 10059240 f i Sound.obj
 0001:00058380       ?_Orphan_me@_Iterator_base12@std@@QAEXXZ 10059380 f i Sound.obj
 0001:000584b0       ?_Orphan_ptr@?$_Tree@V?$_Tmap_traits@V?$basic_string@DU?$char_traits@D@std@@V?$allocator@D@2@@std@@PAVCSndObj@SOUND@NMBASE@@U?$less@V?$basic_string@DU?$char_traits@D@std@@V?$allocator@D@2@@std@@@2@V?$allocator@U?$pair@$$CBV?$basic_string@DU?$char_traits@D@std@@V?$allocator@D@2@@std@@PAVCSndObj@SOUND@NMBASE@@@std@@@2@$0A@@std@@@std@@IAEXPAU?$_Tree_node@U?$pair@$$CBV?$basic_string@DU?$char_traits@D@std@@V?$allocator@D@2@@std@@PAVCSndObj@SOUND@NMBASE@@@std@@PAX@2@@Z 100594b0 f i Sound.obj
 0001:00058630       ?_Orphan_ptr@?$_Tree@V?$_Tset_traits@V?$basic_string@DU?$char_traits@D@std@@V?$allocator@D@2@@std@@U?$less@V?$basic_string@DU?$char_traits@D@std@@V?$allocator@D@2@@std@@@2@V?$allocator@V?$basic_string@DU?$char_traits@D@std@@V?$allocator@D@2@@std@@@2@$0A@@std@@@std@@IAEXPAU?$_Tree_node@V?$basic_string@DU?$char_traits@D@std@@V?$allocator@D@2@@std@@PAX@2@@Z 10059630 f i Sound.obj
 0001:000587b0       ?_Orphan_ptr@?$list@PAUSNDPLAYDATA@SOUND@NMBASE@@V?$allocator@PAUSNDPLAYDATA@SOUND@NMBASE@@@std@@@std@@QAEXPAU?$_List_node@PAUSNDPLAYDATA@SOUND@NMBASE@@PAX@2@@Z 100597b0 f i Sound.obj
 0001:00058930       ?_Rmost@?$_Tree_val@U?$_Tree_simple_types@U?$pair@$$CBV?$basic_string@DU?$char_traits@D@std@@V?$allocator@D@2@@std@@PAVCSndObj@SOUND@NMBASE@@@std@@@std@@@std@@QBEAAPAU?$_Tree_node@U?$pair@$$CBV?$basic_string@DU?$char_traits@D@std@@V?$allocator@D@2@@std@@PAVCSndObj@SOUND@NMBASE@@@std@@PAX@2@XZ 10059930 f i Sound.obj
 0001:00058970       ?_Rmost@?$_Tree_val@U?$_Tree_simple_types@V?$basic_string@DU?$char_traits@D@std@@V?$allocator@D@2@@std@@@std@@@std@@QBEAAPAU?$_Tree_node@V?$basic_string@DU?$char_traits@D@std@@V?$allocator@D@2@@std@@PAX@2@XZ 10059970 f i Sound.obj
 0001:000589b0       ?_Root@?$_Tree_val@U?$_Tree_simple_types@U?$pair@$$CBV?$basic_string@DU?$char_traits@D@std@@V?$allocator@D@2@@std@@PAVCSndObj@SOUND@NMBASE@@@std@@@std@@@std@@QBEAAPAU?$_Tree_node@U?$pair@$$CBV?$basic_string@DU?$char_traits@D@std@@V?$allocator@D@2@@std@@PAVCSndObj@SOUND@NMBASE@@@std@@PAX@2@XZ 100599b0 f i Sound.obj
 0001:000589f0       ?_Root@?$_Tree_val@U?$_Tree_simple_types@V?$basic_string@DU?$char_traits@D@std@@V?$allocator@D@2@@std@@@std@@@std@@QBEAAPAU?$_Tree_node@V?$basic_string@DU?$char_traits@D@std@@V?$allocator@D@2@@std@@PAX@2@XZ 100599f0 f i Sound.obj
 0001:00058a30       ?_Rrotate@?$_Tree_val@U?$_Tree_simple_types@U?$pair@$$CBV?$basic_string@DU?$char_traits@D@std@@V?$allocator@D@2@@std@@PAVCSndObj@SOUND@NMBASE@@@std@@@std@@@std@@QAEXPAU?$_Tree_node@U?$pair@$$CBV?$basic_string@DU?$char_traits@D@std@@V?$allocator@D@2@@std@@PAVCSndObj@SOUND@NMBASE@@@std@@PAX@2@@Z 10059a30 f i Sound.obj
 0001:00058b20       ?_Rrotate@?$_Tree_val@U?$_Tree_simple_types@V?$basic_string@DU?$char_traits@D@std@@V?$allocator@D@2@@std@@@std@@@std@@QAEXPAU?$_Tree_node@V?$basic_string@DU?$char_traits@D@std@@V?$allocator@D@2@@std@@PAX@2@@Z 10059b20 f i Sound.obj
 0001:00058c10       ?_Swap_all@?$_String_alloc@U?$_String_base_types@DV?$allocator@D@std@@@std@@@std@@QAEXAAV12@@Z 10059c10 f i Sound.obj
 0001:00058c80       ?_Swap_all@_Container_base12@std@@QAEXAAU12@@Z 10059c80 f i Sound.obj
 0001:00058db0       ?_Tidy@?$_Tree@V?$_Tmap_traits@V?$basic_string@DU?$char_traits@D@std@@V?$allocator@D@2@@std@@PAVCSndObj@SOUND@NMBASE@@U?$less@V?$basic_string@DU?$char_traits@D@std@@V?$allocator@D@2@@std@@@2@V?$allocator@U?$pair@$$CBV?$basic_string@DU?$char_traits@D@std@@V?$allocator@D@2@@std@@PAVCSndObj@SOUND@NMBASE@@@std@@@2@$0A@@std@@@std@@IAEXXZ 10059db0 f i Sound.obj
 0001:00058f20       ?_Tidy@?$_Tree@V?$_Tset_traits@V?$basic_string@DU?$char_traits@D@std@@V?$allocator@D@2@@std@@U?$less@V?$basic_string@DU?$char_traits@D@std@@V?$allocator@D@2@@std@@@2@V?$allocator@V?$basic_string@DU?$char_traits@D@std@@V?$allocator@D@2@@std@@@2@$0A@@std@@@std@@IAEXXZ 10059f20 f i Sound.obj
 0001:00058fc0       ?_Tidy@?$list@PAUSNDPLAYDATA@SOUND@NMBASE@@V?$allocator@PAUSNDPLAYDATA@SOUND@NMBASE@@@std@@@std@@QAEXXZ 10059fc0 f i Sound.obj
 0001:00059010       ?_Tidy_deallocate@?$basic_string@DU?$char_traits@D@std@@V?$allocator@D@2@@std@@QAEXXZ 1005a010 f i Sound.obj
 0001:00059120       ?_Tidy_init@?$basic_string@DU?$char_traits@D@std@@V?$allocator@D@2@@std@@QAEXXZ 1005a120 f i Sound.obj
 0001:000591c0       ?_Unchecked_end@?$list@PAUSNDPLAYDATA@SOUND@NMBASE@@V?$allocator@PAUSNDPLAYDATA@SOUND@NMBASE@@@std@@@std@@QAE?AV?$_List_unchecked_iterator@V?$_List_val@U?$_List_simple_types@PAUSNDPLAYDATA@SOUND@NMBASE@@@std@@@std@@@2@XZ 1005a1c0 f i Sound.obj
 0001:00059230       ?_Unchecked_erase@?$list@PAUSNDPLAYDATA@SOUND@NMBASE@@V?$allocator@PAUSNDPLAYDATA@SOUND@NMBASE@@@std@@@std@@QAEXV?$_List_unchecked_const_iterator@V?$_List_val@U?$_List_simple_types@PAUSNDPLAYDATA@SOUND@NMBASE@@@std@@@std@@U_Iterator_base0@2@@2@@Z 1005a230 f i Sound.obj
 0001:000592e0       ?_Unlinknode@?$list@PAUSNDPLAYDATA@SOUND@NMBASE@@V?$allocator@PAUSNDPLAYDATA@SOUND@NMBASE@@@std@@@std@@QAEPAU?$_List_node@PAUSNDPLAYDATA@SOUND@NMBASE@@PAX@2@V?$_List_const_iterator@V?$_List_val@U?$_List_simple_types@PAUSNDPLAYDATA@SOUND@NMBASE@@@std@@@std@@@2@@Z 1005a2e0 f i Sound.obj
 0001:000594a0       ?_Unwrapped@?$_List_const_iterator@V?$_List_val@U?$_List_simple_types@PAUSNDPLAYDATA@SOUND@NMBASE@@@std@@@std@@@std@@QBE?AV?$_List_unchecked_const_iterator@V?$_List_val@U?$_List_simple_types@PAUSNDPLAYDATA@SOUND@NMBASE@@@std@@@std@@U_Iterator_base0@2@@2@XZ 1005a4a0 f i Sound.obj
 0001:00059510       ?_Verify_range@std@@YAXABV?$_List_const_iterator@V?$_List_val@U?$_List_simple_types@PAUSNDPLAYDATA@SOUND@NMBASE@@@std@@@std@@@1@0@Z 1005a510 f i Sound.obj
 0001:000595f0       ?_Xlen@?$basic_string@DU?$char_traits@D@std@@V?$allocator@D@2@@std@@SAXXZ 1005a5f0 f i Sound.obj
 0001:00059640       ?_Xran@?$_String_val@U?$_Simple_types@D@std@@@std@@SAXXZ 1005a640 f i Sound.obj
 0001:00059690       ?allocate@?$allocator@D@std@@QAEPADI@Z 1005a690 f i Sound.obj
 0001:00059700       ?allocate@?$allocator@U?$_List_node@PAUSNDPLAYDATA@SOUND@NMBASE@@PAX@std@@@std@@QAEPAU?$_List_node@PAUSNDPLAYDATA@SOUND@NMBASE@@PAX@2@I@Z 1005a700 f i Sound.obj
 0001:00059770       ?allocate@?$allocator@U?$_Tree_node@U?$pair@$$CBV?$basic_string@DU?$char_traits@D@std@@V?$allocator@D@2@@std@@PAVCSndObj@SOUND@NMBASE@@@std@@PAX@std@@@std@@QAEPAU?$_Tree_node@U?$pair@$$CBV?$basic_string@DU?$char_traits@D@std@@V?$allocator@D@2@@std@@PAVCSndObj@SOUND@NMBASE@@@std@@PAX@2@I@Z 1005a770 f i Sound.obj
 0001:000597e0       ?allocate@?$allocator@U?$_Tree_node@V?$basic_string@DU?$char_traits@D@std@@V?$allocator@D@2@@std@@PAX@std@@@std@@QAEPAU?$_Tree_node@V?$basic_string@DU?$char_traits@D@std@@V?$allocator@D@2@@std@@PAX@2@I@Z 1005a7e0 f i Sound.obj
 0001:00059850       ?allocate@?$allocator@U_Container_proxy@std@@@std@@QAEPAU_Container_proxy@2@I@Z 1005a850 f i Sound.obj
 0001:000598c0       ?append@?$basic_string@DU?$char_traits@D@std@@V?$allocator@D@2@@std@@QAEAAV12@QBD@Z 1005a8c0 f i Sound.obj
 0001:00059940       ?append@?$basic_string@DU?$char_traits@D@std@@V?$allocator@D@2@@std@@QAEAAV12@QBDI@Z 1005a940 f i Sound.obj
 0001:00059a50       ?assign@?$basic_string@DU?$char_traits@D@std@@V?$allocator@D@2@@std@@QAEAAV12@QBD@Z 1005aa50 f i Sound.obj
 0001:00059ad0       ?assign@?$basic_string@DU?$char_traits@D@std@@V?$allocator@D@2@@std@@QAEAAV12@QBDI@Z 1005aad0 f i Sound.obj
 0001:00059bc0       ?assign@?$char_traits@D@std@@SAXAADABD@Z 1005abc0 f i Sound.obj
 0001:00059c00       ?at@?$basic_string@DU?$char_traits@D@std@@V?$allocator@D@2@@std@@QAEAADI@Z 1005ac00 f i Sound.obj
 0001:00059c80       ?begin@?$_Tree@V?$_Tmap_traits@V?$basic_string@DU?$char_traits@D@std@@V?$allocator@D@2@@std@@PAVCSndObj@SOUND@NMBASE@@U?$less@V?$basic_string@DU?$char_traits@D@std@@V?$allocator@D@2@@std@@@2@V?$allocator@U?$pair@$$CBV?$basic_string@DU?$char_traits@D@std@@V?$allocator@D@2@@std@@PAVCSndObj@SOUND@NMBASE@@@std@@@2@$0A@@std@@@std@@QAE?AV?$_Tree_iterator@V?$_Tree_val@U?$_Tree_simple_types@U?$pair@$$CBV?$basic_string@DU?$char_traits@D@std@@V?$allocator@D@2@@std@@PAVCSndObj@SOUND@NMBASE@@@std@@@std@@@std@@@2@XZ 1005ac80 f i Sound.obj
 0001:00059d40       ?begin@?$_Tree@V?$_Tset_traits@V?$basic_string@DU?$char_traits@D@std@@V?$allocator@D@2@@std@@U?$less@V?$basic_string@DU?$char_traits@D@std@@V?$allocator@D@2@@std@@@2@V?$allocator@V?$basic_string@DU?$char_traits@D@std@@V?$allocator@D@2@@std@@@2@$0A@@std@@@std@@QAE?AV?$_Tree_const_iterator@V?$_Tree_val@U?$_Tree_simple_types@V?$basic_string@DU?$char_traits@D@std@@V?$allocator@D@2@@std@@@std@@@std@@@2@XZ 1005ad40 f i Sound.obj
 0001:00059e00       ?begin@?$list@PAUSNDPLAYDATA@SOUND@NMBASE@@V?$allocator@PAUSNDPLAYDATA@SOUND@NMBASE@@@std@@@std@@QAE?AV?$_List_iterator@V?$_List_val@U?$_List_simple_types@PAUSNDPLAYDATA@SOUND@NMBASE@@@std@@@std@@@2@XZ 1005ae00 f i Sound.obj
 0001:00059eb0       ?begin@?$list@PAUSNDPLAYDATA@SOUND@NMBASE@@V?$allocator@PAUSNDPLAYDATA@SOUND@NMBASE@@@std@@@std@@QBE?AV?$_List_const_iterator@V?$_List_val@U?$_List_simple_types@PAUSNDPLAYDATA@SOUND@NMBASE@@@std@@@std@@@2@XZ 1005aeb0 f i Sound.obj
 0001:00059f60       ?c_str@?$basic_string@DU?$char_traits@D@std@@V?$allocator@D@2@@std@@QBEPBDXZ 1005af60 f i Sound.obj
 0001:00059ff0       ?clear@?$_Tree@V?$_Tmap_traits@V?$basic_string@DU?$char_traits@D@std@@V?$allocator@D@2@@std@@PAVCSndObj@SOUND@NMBASE@@U?$less@V?$basic_string@DU?$char_traits@D@std@@V?$allocator@D@2@@std@@@2@V?$allocator@U?$pair@$$CBV?$basic_string@DU?$char_traits@D@std@@V?$allocator@D@2@@std@@PAVCSndObj@SOUND@NMBASE@@@std@@@2@$0A@@std@@@std@@QAEXXZ 1005aff0 f i Sound.obj
 0001:0005a0f0       ?clear@?$_Tree@V?$_Tset_traits@V?$basic_string@DU?$char_traits@D@std@@V?$allocator@D@2@@std@@U?$less@V?$basic_string@DU?$char_traits@D@std@@V?$allocator@D@2@@std@@@2@V?$allocator@V?$basic_string@DU?$char_traits@D@std@@V?$allocator@D@2@@std@@@2@$0A@@std@@@std@@QAEXXZ 1005b0f0 f i Sound.obj
 0001:0005a1f0       ?clear@?$list@PAUSNDPLAYDATA@SOUND@NMBASE@@V?$allocator@PAUSNDPLAYDATA@SOUND@NMBASE@@@std@@@std@@QAEXXZ 1005b1f0 f i Sound.obj
 0001:0005a310       ?compare@?$basic_string@DU?$char_traits@D@std@@V?$allocator@D@2@@std@@QBEHABV12@@Z 1005b310 f i Sound.obj
 0001:0005a3e0       ?compare@?$char_traits@D@std@@SAHQBD0I@Z 1005b3e0 f i Sound.obj
 0001:0005a440       ?copy@?$char_traits@D@std@@SAPADQADQBDI@Z 1005b440 f i Sound.obj
 0001:0005a4a0       ?deallocate@?$_Default_allocator_traits@V?$allocator@U?$_List_node@PAUSNDPLAYDATA@SOUND@NMBASE@@PAX@std@@@std@@@std@@SAXAAV?$allocator@U?$_List_node@PAUSNDPLAYDATA@SOUND@NMBASE@@PAX@std@@@2@QAU?$_List_node@PAUSNDPLAYDATA@SOUND@NMBASE@@PAX@2@I@Z 1005b4a0 f i Sound.obj
 0001:0005a500       ?deallocate@?$_Default_allocator_traits@V?$allocator@U?$_Tree_node@U?$pair@$$CBV?$basic_string@DU?$char_traits@D@std@@V?$allocator@D@2@@std@@PAVCSndObj@SOUND@NMBASE@@@std@@PAX@std@@@std@@@std@@SAXAAV?$allocator@U?$_Tree_node@U?$pair@$$CBV?$basic_string@DU?$char_traits@D@std@@V?$allocator@D@2@@std@@PAVCSndObj@SOUND@NMBASE@@@std@@PAX@std@@@2@QAU?$_Tree_node@U?$pair@$$CBV?$basic_string@DU?$char_traits@D@std@@V?$allocator@D@2@@std@@PAVCSndObj@SOUND@NMBASE@@@std@@PAX@2@I@Z 1005b500 f i Sound.obj
 0001:0005a560       ?deallocate@?$_Default_allocator_traits@V?$allocator@U?$_Tree_node@V?$basic_string@DU?$char_traits@D@std@@V?$allocator@D@2@@std@@PAX@std@@@std@@@std@@SAXAAV?$allocator@U?$_Tree_node@V?$basic_string@DU?$char_traits@D@std@@V?$allocator@D@2@@std@@PAX@std@@@2@QAU?$_Tree_node@V?$basic_string@DU?$char_traits@D@std@@V?$allocator@D@2@@std@@PAX@2@I@Z 1005b560 f i Sound.obj
 0001:0005a5c0       ?deallocate@?$_Default_allocator_traits@V?$allocator@U_Container_proxy@std@@@std@@@std@@SAXAAV?$allocator@U_Container_proxy@std@@@2@QAU_Container_proxy@2@I@Z 1005b5c0 f i Sound.obj
 0001:0005a620       ?deallocate@?$allocator@D@std@@QAEXQADI@Z 1005b620 f i Sound.obj
 0001:0005a680       ?deallocate@?$allocator@U?$_List_node@PAUSNDPLAYDATA@SOUND@NMBASE@@PAX@std@@@std@@QAEXQAU?$_List_node@PAUSNDPLAYDATA@SOUND@NMBASE@@PAX@2@I@Z 1005b680 f i Sound.obj
 0001:0005a6e0       ?deallocate@?$allocator@U?$_Tree_node@U?$pair@$$CBV?$basic_string@DU?$char_traits@D@std@@V?$allocator@D@2@@std@@PAVCSndObj@SOUND@NMBASE@@@std@@PAX@std@@@std@@QAEXQAU?$_Tree_node@U?$pair@$$CBV?$basic_string@DU?$char_traits@D@std@@V?$allocator@D@2@@std@@PAVCSndObj@SOUND@NMBASE@@@std@@PAX@2@I@Z 1005b6e0 f i Sound.obj
 0001:0005a740       ?deallocate@?$allocator@U?$_Tree_node@V?$basic_string@DU?$char_traits@D@std@@V?$allocator@D@2@@std@@PAX@std@@@std@@QAEXQAU?$_Tree_node@V?$basic_string@DU?$char_traits@D@std@@V?$allocator@D@2@@std@@PAX@2@I@Z 1005b740 f i Sound.obj
 0001:0005a7a0       ?end@?$_Tree@V?$_Tmap_traits@V?$basic_string@DU?$char_traits@D@std@@V?$allocator@D@2@@std@@PAVCSndObj@SOUND@NMBASE@@U?$less@V?$basic_string@DU?$char_traits@D@std@@V?$allocator@D@2@@std@@@2@V?$allocator@U?$pair@$$CBV?$basic_string@DU?$char_traits@D@std@@V?$allocator@D@2@@std@@PAVCSndObj@SOUND@NMBASE@@@std@@@2@$0A@@std@@@std@@QAE?AV?$_Tree_iterator@V?$_Tree_val@U?$_Tree_simple_types@U?$pair@$$CBV?$basic_string@DU?$char_traits@D@std@@V?$allocator@D@2@@std@@PAVCSndObj@SOUND@NMBASE@@@std@@@std@@@std@@@2@XZ 1005b7a0 f i Sound.obj
 0001:0005a850       ?end@?$_Tree@V?$_Tset_traits@V?$basic_string@DU?$char_traits@D@std@@V?$allocator@D@2@@std@@U?$less@V?$basic_string@DU?$char_traits@D@std@@V?$allocator@D@2@@std@@@2@V?$allocator@V?$basic_string@DU?$char_traits@D@std@@V?$allocator@D@2@@std@@@2@$0A@@std@@@std@@QAE?AV?$_Tree_const_iterator@V?$_Tree_val@U?$_Tree_simple_types@V?$basic_string@DU?$char_traits@D@std@@V?$allocator@D@2@@std@@@std@@@std@@@2@XZ 1005b850 f i Sound.obj
 0001:0005a900       ?end@?$list@PAUSNDPLAYDATA@SOUND@NMBASE@@V?$allocator@PAUSNDPLAYDATA@SOUND@NMBASE@@@std@@@std@@QAE?AV?$_List_iterator@V?$_List_val@U?$_List_simple_types@PAUSNDPLAYDATA@SOUND@NMBASE@@@std@@@std@@@2@XZ 1005b900 f i Sound.obj
 0001:0005a9b0       ?end@?$list@PAUSNDPLAYDATA@SOUND@NMBASE@@V?$allocator@PAUSNDPLAYDATA@SOUND@NMBASE@@@std@@@std@@QBE?AV?$_List_const_iterator@V?$_List_val@U?$_List_simple_types@PAUSNDPLAYDATA@SOUND@NMBASE@@@std@@@std@@@2@XZ 1005b9b0 f i Sound.obj
 0001:0005aa60       ?erase@?$_Tree@V?$_Tmap_traits@V?$basic_string@DU?$char_traits@D@std@@V?$allocator@D@2@@std@@PAVCSndObj@SOUND@NMBASE@@U?$less@V?$basic_string@DU?$char_traits@D@std@@V?$allocator@D@2@@std@@@2@V?$allocator@U?$pair@$$CBV?$basic_string@DU?$char_traits@D@std@@V?$allocator@D@2@@std@@PAVCSndObj@SOUND@NMBASE@@@std@@@2@$0A@@std@@@std@@QAE?AV?$_Tree_iterator@V?$_Tree_val@U?$_Tree_simple_types@U?$pair@$$CBV?$basic_string@DU?$char_traits@D@std@@V?$allocator@D@2@@std@@PAVCSndObj@SOUND@NMBASE@@@std@@@std@@@std@@@2@V?$_Tree_const_iterator@V?$_Tree_val@U?$_Tree_simple_types@U?$pair@$$CBV?$basic_string@DU?$char_traits@D@std@@V?$allocator@D@2@@std@@PAVCSndObj@SOUND@NMBASE@@@std@@@std@@@std@@@2@0@Z 1005ba60 f i Sound.obj
 0001:0005ad80       ?erase@?$_Tree@V?$_Tmap_traits@V?$basic_string@DU?$char_traits@D@std@@V?$allocator@D@2@@std@@PAVCSndObj@SOUND@NMBASE@@U?$less@V?$basic_string@DU?$char_traits@D@std@@V?$allocator@D@2@@std@@@2@V?$allocator@U?$pair@$$CBV?$basic_string@DU?$char_traits@D@std@@V?$allocator@D@2@@std@@PAVCSndObj@SOUND@NMBASE@@@std@@@2@$0A@@std@@@std@@QAE?AV?$_Tree_iterator@V?$_Tree_val@U?$_Tree_simple_types@U?$pair@$$CBV?$basic_string@DU?$char_traits@D@std@@V?$allocator@D@2@@std@@PAVCSndObj@SOUND@NMBASE@@@std@@@std@@@std@@@2@V?$_Tree_const_iterator@V?$_Tree_val@U?$_Tree_simple_types@U?$pair@$$CBV?$basic_string@DU?$char_traits@D@std@@V?$allocator@D@2@@std@@PAVCSndObj@SOUND@NMBASE@@@std@@@std@@@std@@@2@@Z 1005bd80 f i Sound.obj
 0001:0005b010       ?erase@?$_Tree@V?$_Tset_traits@V?$basic_string@DU?$char_traits@D@std@@V?$allocator@D@2@@std@@U?$less@V?$basic_string@DU?$char_traits@D@std@@V?$allocator@D@2@@std@@@2@V?$allocator@V?$basic_string@DU?$char_traits@D@std@@V?$allocator@D@2@@std@@@2@$0A@@std@@@std@@QAE?AV?$_Tree_const_iterator@V?$_Tree_val@U?$_Tree_simple_types@V?$basic_string@DU?$char_traits@D@std@@V?$allocator@D@2@@std@@@std@@@std@@@2@V32@0@Z 1005c010 f i Sound.obj
 0001:0005b330       ?erase@?$_Tree@V?$_Tset_traits@V?$basic_string@DU?$char_traits@D@std@@V?$allocator@D@2@@std@@U?$less@V?$basic_string@DU?$char_traits@D@std@@V?$allocator@D@2@@std@@@2@V?$allocator@V?$basic_string@DU?$char_traits@D@std@@V?$allocator@D@2@@std@@@2@$0A@@std@@@std@@QAE?AV?$_Tree_const_iterator@V?$_Tree_val@U?$_Tree_simple_types@V?$basic_string@DU?$char_traits@D@std@@V?$allocator@D@2@@std@@@std@@@std@@@2@V32@@Z 1005c330 f i Sound.obj
 0001:0005b5c0       ?erase@?$list@PAUSNDPLAYDATA@SOUND@NMBASE@@V?$allocator@PAUSNDPLAYDATA@SOUND@NMBASE@@@std@@@std@@QAE?AV?$_List_iterator@V?$_List_val@U?$_List_simple_types@PAUSNDPLAYDATA@SOUND@NMBASE@@@std@@@std@@@2@V?$_List_const_iterator@V?$_List_val@U?$_List_simple_types@PAUSNDPLAYDATA@SOUND@NMBASE@@@std@@@std@@@2@0@Z 1005c5c0 f i Sound.obj
 0001:0005b910       ?erase@?$list@PAUSNDPLAYDATA@SOUND@NMBASE@@V?$allocator@PAUSNDPLAYDATA@SOUND@NMBASE@@@std@@@std@@QAE?AV?$_List_iterator@V?$_List_val@U?$_List_simple_types@PAUSNDPLAYDATA@SOUND@NMBASE@@@std@@@std@@@2@V?$_List_const_iterator@V?$_List_val@U?$_List_simple_types@PAUSNDPLAYDATA@SOUND@NMBASE@@@std@@@std@@@2@@Z 1005c910 f i Sound.obj
 0001:0005ba50       ?find@?$_Tree@V?$_Tmap_traits@V?$basic_string@DU?$char_traits@D@std@@V?$allocator@D@2@@std@@PAVCSndObj@SOUND@NMBASE@@U?$less@V?$basic_string@DU?$char_traits@D@std@@V?$allocator@D@2@@std@@@2@V?$allocator@U?$pair@$$CBV?$basic_string@DU?$char_traits@D@std@@V?$allocator@D@2@@std@@PAVCSndObj@SOUND@NMBASE@@@std@@@2@$0A@@std@@@std@@QAE?AV?$_Tree_iterator@V?$_Tree_val@U?$_Tree_simple_types@U?$pair@$$CBV?$basic_string@DU?$char_traits@D@std@@V?$allocator@D@2@@std@@PAVCSndObj@SOUND@NMBASE@@@std@@@std@@@std@@@2@ABV?$basic_string@DU?$char_traits@D@std@@V?$allocator@D@2@@2@@Z 1005ca50 f i Sound.obj
 0001:0005bd00       ?key_comp@?$_Tree@V?$_Tmap_traits@V?$basic_string@DU?$char_traits@D@std@@V?$allocator@D@2@@std@@PAVCSndObj@SOUND@NMBASE@@U?$less@V?$basic_string@DU?$char_traits@D@std@@V?$allocator@D@2@@std@@@2@V?$allocator@U?$pair@$$CBV?$basic_string@DU?$char_traits@D@std@@V?$allocator@D@2@@std@@PAVCSndObj@SOUND@NMBASE@@@std@@@2@$0A@@std@@@std@@QBE?AU?$less@V?$basic_string@DU?$char_traits@D@std@@V?$allocator@D@2@@std@@@2@XZ 1005cd00 f i Sound.obj
 0001:0005bd60       ?key_comp@?$_Tree@V?$_Tset_traits@V?$basic_string@DU?$char_traits@D@std@@V?$allocator@D@2@@std@@U?$less@V?$basic_string@DU?$char_traits@D@std@@V?$allocator@D@2@@std@@@2@V?$allocator@V?$basic_string@DU?$char_traits@D@std@@V?$allocator@D@2@@std@@@2@$0A@@std@@@std@@QBE?AU?$less@V?$basic_string@DU?$char_traits@D@std@@V?$allocator@D@2@@std@@@2@XZ 1005cd60 f i Sound.obj
 0001:0005bdc0       ?length@?$basic_string@DU?$char_traits@D@std@@V?$allocator@D@2@@std@@QBEIXZ 1005cdc0 f i Sound.obj
 0001:0005be20       ?length@?$char_traits@D@std@@SAIQBD@Z 1005ce20 f i Sound.obj
 0001:0005be70       ?lower_bound@?$_Tree@V?$_Tmap_traits@V?$basic_string@DU?$char_traits@D@std@@V?$allocator@D@2@@std@@PAVCSndObj@SOUND@NMBASE@@U?$less@V?$basic_string@DU?$char_traits@D@std@@V?$allocator@D@2@@std@@@2@V?$allocator@U?$pair@$$CBV?$basic_string@DU?$char_traits@D@std@@V?$allocator@D@2@@std@@PAVCSndObj@SOUND@NMBASE@@@std@@@2@$0A@@std@@@std@@QAE?AV?$_Tree_iterator@V?$_Tree_val@U?$_Tree_simple_types@U?$pair@$$CBV?$basic_string@DU?$char_traits@D@std@@V?$allocator@D@2@@std@@PAVCSndObj@SOUND@NMBASE@@@std@@@std@@@std@@@2@ABV?$basic_string@DU?$char_traits@D@std@@V?$allocator@D@2@@2@@Z 1005ce70 f i Sound.obj
 0001:0005bf10       ?max@?$numeric_limits@H@std@@SAHXZ 1005cf10 f i Sound.obj
 0001:0005bf50       ?max_size@?$_Default_allocator_traits@V?$allocator@D@std@@@std@@SAIABV?$allocator@D@2@@Z 1005cf50 f i Sound.obj
 0001:0005bf90       ?max_size@?$_Default_allocator_traits@V?$allocator@U?$_List_node@PAUSNDPLAYDATA@SOUND@NMBASE@@PAX@std@@@std@@@std@@SAIABV?$allocator@U?$_List_node@PAUSNDPLAYDATA@SOUND@NMBASE@@PAX@std@@@2@@Z 1005cf90 f i Sound.obj
 0001:0005bfd0       ?max_size@?$_Default_allocator_traits@V?$allocator@U?$_Tree_node@U?$pair@$$CBV?$basic_string@DU?$char_traits@D@std@@V?$allocator@D@2@@std@@PAVCSndObj@SOUND@NMBASE@@@std@@PAX@std@@@std@@@std@@SAIABV?$allocator@U?$_Tree_node@U?$pair@$$CBV?$basic_string@DU?$char_traits@D@std@@V?$allocator@D@2@@std@@PAVCSndObj@SOUND@NMBASE@@@std@@PAX@std@@@2@@Z 1005cfd0 f i Sound.obj
 0001:0005c010       ?max_size@?$_Default_allocator_traits@V?$allocator@U?$_Tree_node@V?$basic_string@DU?$char_traits@D@std@@V?$allocator@D@2@@std@@PAX@std@@@std@@@std@@SAIABV?$allocator@U?$_Tree_node@V?$basic_string@DU?$char_traits@D@std@@V?$allocator@D@2@@std@@PAX@std@@@2@@Z 1005d010 f i Sound.obj
 0001:0005c050       ?max_size@?$_Tree@V?$_Tmap_traits@V?$basic_string@DU?$char_traits@D@std@@V?$allocator@D@2@@std@@PAVCSndObj@SOUND@NMBASE@@U?$less@V?$basic_string@DU?$char_traits@D@std@@V?$allocator@D@2@@std@@@2@V?$allocator@U?$pair@$$CBV?$basic_string@DU?$char_traits@D@std@@V?$allocator@D@2@@std@@PAVCSndObj@SOUND@NMBASE@@@std@@@2@$0A@@std@@@std@@QBEIXZ 1005d050 f i Sound.obj
 0001:0005c0b0       ?max_size@?$_Tree@V?$_Tset_traits@V?$basic_string@DU?$char_traits@D@std@@V?$allocator@D@2@@std@@U?$less@V?$basic_string@DU?$char_traits@D@std@@V?$allocator@D@2@@std@@@2@V?$allocator@V?$basic_string@DU?$char_traits@D@std@@V?$allocator@D@2@@std@@@2@$0A@@std@@@std@@QBEIXZ 1005d0b0 f i Sound.obj
 0001:0005c110       ?max_size@?$basic_string@DU?$char_traits@D@std@@V?$allocator@D@2@@std@@QBEIXZ 1005d110 f i Sound.obj
 0001:0005c220       ?max_size@?$list@PAUSNDPLAYDATA@SOUND@NMBASE@@V?$allocator@PAUSNDPLAYDATA@SOUND@NMBASE@@@std@@@std@@QBEIXZ 1005d220 f i Sound.obj
 0001:0005c280       ?move@?$char_traits@D@std@@SAPADQADQBDI@Z 1005d280 f i Sound.obj
 0001:0005c2e0       ?pointer_to@?$pointer_traits@PAU?$pair@$$CBV?$basic_string@DU?$char_traits@D@std@@V?$allocator@D@2@@std@@PAVCSndObj@SOUND@NMBASE@@@std@@@std@@SAPAU?$pair@$$CBV?$basic_string@DU?$char_traits@D@std@@V?$allocator@D@2@@std@@PAVCSndObj@SOUND@NMBASE@@@2@AAU32@@Z 1005d2e0 f i Sound.obj
 0001:0005c330       ?push_back@?$list@PAUSNDPLAYDATA@SOUND@NMBASE@@V?$allocator@PAUSNDPLAYDATA@SOUND@NMBASE@@@std@@@std@@QAEXABQAUSNDPLAYDATA@SOUND@NMBASE@@@Z 1005d330 f i Sound.obj
 0001:0005c3b0       ?select_on_container_copy_construction@?$_Default_allocator_traits@V?$allocator@D@std@@@std@@SA?AV?$allocator@D@2@ABV32@@Z 1005d3b0 f i Sound.obj
 0001:0005c3f0       ?select_on_container_copy_construction@?$_Default_allocator_traits@V?$allocator@U?$_List_node@PAUSNDPLAYDATA@SOUND@NMBASE@@PAX@std@@@std@@@std@@SA?AV?$allocator@U?$_List_node@PAUSNDPLAYDATA@SOUND@NMBASE@@PAX@std@@@2@ABV32@@Z 1005d3f0 f i Sound.obj
 0001:0005c430       ?select_on_container_copy_construction@?$_Default_allocator_traits@V?$allocator@U?$_Tree_node@U?$pair@$$CBV?$basic_string@DU?$char_traits@D@std@@V?$allocator@D@2@@std@@PAVCSndObj@SOUND@NMBASE@@@std@@PAX@std@@@std@@@std@@SA?AV?$allocator@U?$_Tree_node@U?$pair@$$CBV?$basic_string@DU?$char_traits@D@std@@V?$allocator@D@2@@std@@PAVCSndObj@SOUND@NMBASE@@@std@@PAX@std@@@2@ABV32@@Z 1005d430 f i Sound.obj
 0001:0005c470       ?select_on_container_copy_construction@?$_Default_allocator_traits@V?$allocator@U?$_Tree_node@V?$basic_string@DU?$char_traits@D@std@@V?$allocator@D@2@@std@@PAX@std@@@std@@@std@@SA?AV?$allocator@U?$_Tree_node@V?$basic_string@DU?$char_traits@D@std@@V?$allocator@D@2@@std@@PAX@std@@@2@ABV32@@Z 1005d470 f i Sound.obj
 0001:0005c4b0       ?size@?$_Tree@V?$_Tmap_traits@V?$basic_string@DU?$char_traits@D@std@@V?$allocator@D@2@@std@@PAVCSndObj@SOUND@NMBASE@@U?$less@V?$basic_string@DU?$char_traits@D@std@@V?$allocator@D@2@@std@@@2@V?$allocator@U?$pair@$$CBV?$basic_string@DU?$char_traits@D@std@@V?$allocator@D@2@@std@@PAVCSndObj@SOUND@NMBASE@@@std@@@2@$0A@@std@@@std@@QBEIXZ 1005d4b0 f i Sound.obj
 0001:0005c510       ?size@?$_Tree@V?$_Tset_traits@V?$basic_string@DU?$char_traits@D@std@@V?$allocator@D@2@@std@@U?$less@V?$basic_string@DU?$char_traits@D@std@@V?$allocator@D@2@@std@@@2@V?$allocator@V?$basic_string@DU?$char_traits@D@std@@V?$allocator@D@2@@std@@@2@$0A@@std@@@std@@QBEIXZ 1005d510 f i Sound.obj
 0001:0005c5f0       __vsnprintf_l              1005d5f0 f i Sound.obj
 0001:0005c6a0       _vsprintf                  1005d6a0 f i Sound.obj
 0001:0005c700       ??$?0$$V@?$_Compressed_pair@V?$allocator@U?$_List_node@UtagPLAY_DATA@CSoundMananger@SOUND@NMBASE@@PAX@std@@@std@@V?$_List_val@U?$_List_simple_types@UtagPLAY_DATA@CSoundMananger@SOUND@NMBASE@@@std@@@2@$00@std@@QAE@U_Zero_then_variadic_args_t@1@@Z 1005d700 f i SoundManager.obj
 0001:0005c760       ??$?0$$V@?$_Compressed_pair@V?$allocator@U?$_Tree_node@U?$pair@$$CBV?$basic_string@DU?$char_traits@D@std@@V?$allocator@D@2@@std@@V12@@std@@PAX@std@@@std@@V?$_Tree_val@U?$_Tree_simple_types@U?$pair@$$CBV?$basic_string@DU?$char_traits@D@std@@V?$allocator@D@2@@std@@V12@@std@@@std@@@2@$00@std@@QAE@U_Zero_then_variadic_args_t@1@@Z 1005d760 f i SoundManager.obj
 0001:0005c7c0       ??$?0AAV?$_Tree_const_iterator@V?$_Tree_val@U?$_Tree_simple_types@U?$pair@$$CBV?$basic_string@DU?$char_traits@D@std@@V?$allocator@D@2@@std@@V12@@std@@@std@@@std@@@std@@AAV01@$0A@@?$pair@V?$_Tree_const_iterator@V?$_Tree_val@U?$_Tree_simple_types@U?$pair@$$CBV?$basic_string@DU?$char_traits@D@std@@V?$allocator@D@2@@std@@V12@@std@@@std@@@std@@@std@@V12@@std@@QAE@AAV?$_Tree_const_iterator@V?$_Tree_val@U?$_Tree_simple_types@U?$pair@$$CBV?$basic_string@DU?$char_traits@D@std@@V?$allocator@D@2@@std@@V12@@std@@@std@@@std@@@1@0@Z 1005d7c0 f i SoundManager.obj
 0001:0005c850       ??$?0AAV?$_Tree_iterator@V?$_Tree_val@U?$_Tree_simple_types@U?$pair@$$CBV?$basic_string@DU?$char_traits@D@std@@V?$allocator@D@2@@std@@V12@@std@@@std@@@std@@@std@@_N$0A@@?$pair@V?$_Tree_iterator@V?$_Tree_val@U?$_Tree_simple_types@U?$pair@$$CBV?$basic_string@DU?$char_traits@D@std@@V?$allocator@D@2@@std@@V12@@std@@@std@@@std@@@std@@_N@std@@QAE@AAV?$_Tree_iterator@V?$_Tree_val@U?$_Tree_simple_types@U?$pair@$$CBV?$basic_string@DU?$char_traits@D@std@@V?$allocator@D@2@@std@@V12@@std@@@std@@@std@@@1@$$QA_N@Z 1005d850 f i SoundManager.obj
 0001:0005c8d0       ??$?0AAV?$basic_string@DU?$char_traits@D@std@@V?$allocator@D@2@@std@@AAV01@$0A@@?$pair@$$CBV?$basic_string@DU?$char_traits@D@std@@V?$allocator@D@2@@std@@V12@@std@@QAE@AAV?$basic_string@DU?$char_traits@D@std@@V?$allocator@D@2@@1@0@Z 1005d8d0 f i SoundManager.obj
 0001:0005c9a0       ??$?0ABU?$less@V?$basic_string@DU?$char_traits@D@std@@V?$allocator@D@2@@std@@@std@@U_One_then_variadic_args_t@1@V?$allocator@U?$_Tree_node@U?$pair@$$CBV?$basic_string@DU?$char_traits@D@std@@V?$allocator@D@2@@std@@V12@@std@@PAX@std@@@1@@?$_Compressed_pair@U?$less@V?$basic_string@DU?$char_traits@D@std@@V?$allocator@D@2@@std@@@std@@V?$_Compressed_pair@V?$allocator@U?$_Tree_node@U?$pair@$$CBV?$basic_string@DU?$char_traits@D@std@@V?$allocator@D@2@@std@@V12@@std@@PAX@std@@@std@@V?$_Tree_val@U?$_Tree_simple_types@U?$pair@$$CBV?$basic_string@DU?$char_traits@D@std@@V?$allocator@D@2@@std@@V12@@std@@@std@@@2@$00@2@$00@std@@QAE@U_One_then_variadic_args_t@1@ABU?$less@V?$basic_string@DU?$char_traits@D@std@@V?$allocator@D@2@@std@@@1@$$QAU21@$$QAV?$allocator@U?$_Tree_node@U?$pair@$$CBV?$basic_string@DU?$char_traits@D@std@@V?$allocator@D@2@@std@@V12@@std@@PAX@std@@@1@@Z 1005d9a0 f i SoundManager.obj
 0001:0005ca30       ??$?0ABU?$less@V?$basic_string@DU?$char_traits@D@std@@V?$allocator@D@2@@std@@@std@@U_Zero_then_variadic_args_t@1@@?$_Compressed_pair@U?$less@V?$basic_string@DU?$char_traits@D@std@@V?$allocator@D@2@@std@@@std@@V?$_Compressed_pair@V?$allocator@U?$_Tree_node@U?$pair@$$CBV?$basic_string@DU?$char_traits@D@std@@V?$allocator@D@2@@std@@V12@@std@@PAX@std@@@std@@V?$_Tree_val@U?$_Tree_simple_types@U?$pair@$$CBV?$basic_string@DU?$char_traits@D@std@@V?$allocator@D@2@@std@@V12@@std@@@std@@@2@$00@2@$00@std@@QAE@U_One_then_variadic_args_t@1@ABU?$less@V?$basic_string@DU?$char_traits@D@std@@V?$allocator@D@2@@std@@@1@$$QAU_Zero_then_variadic_args_t@1@@Z 1005da30 f i SoundManager.obj
 0001:0005cab0       ??$?0ABV?$allocator@D@std@@$$V@?$_Compressed_pair@V?$allocator@D@std@@V?$_String_val@U?$_Simple_types@D@std@@@2@$00@std@@QAE@U_One_then_variadic_args_t@1@ABV?$allocator@D@1@@Z 1005dab0 f i SoundManager.obj
 0001:0005cb20       ??$?0ABV?$allocator@D@std@@X@?$_String_alloc@U?$_String_base_types@DV?$allocator@D@std@@@std@@@std@@QAE@ABV?$allocator@D@1@@Z 1005db20 f i SoundManager.obj
 0001:0005cbe0       ??$?0U?$_List_node@UtagPLAY_DATA@CSoundMananger@SOUND@NMBASE@@PAX@std@@@?$allocator@U_Container_proxy@std@@@std@@QAE@ABV?$allocator@U?$_List_node@UtagPLAY_DATA@CSoundMananger@SOUND@NMBASE@@PAX@std@@@1@@Z 1005dbe0 f i SoundManager.obj
 0001:0005cc20       ??$?0U?$_Tree_node@U?$pair@$$CBV?$basic_string@DU?$char_traits@D@std@@V?$allocator@D@2@@std@@V12@@std@@PAX@std@@@?$allocator@U_Container_proxy@std@@@std@@QAE@ABV?$allocator@U?$_Tree_node@U?$pair@$$CBV?$basic_string@DU?$char_traits@D@std@@V?$allocator@D@2@@std@@V12@@std@@PAX@std@@@1@@Z 1005dc20 f i SoundManager.obj
 0001:0005cc60       ??$?0V?$_String_iterator@V?$_String_val@U?$_Simple_types@D@std@@@std@@@std@@X@?$basic_string@DU?$char_traits@D@std@@V?$allocator@D@2@@std@@QAE@V?$_String_iterator@V?$_String_val@U?$_Simple_types@D@std@@@std@@@1@0ABV?$allocator@D@1@@Z 1005dc60 f i SoundManager.obj
 0001:0005cd70       ??$?0V?$_Tree_iterator@V?$_Tree_val@U?$_Tree_simple_types@U?$pair@$$CBV?$basic_string@DU?$char_traits@D@std@@V?$allocator@D@2@@std@@V12@@std@@@std@@@std@@@std@@_N$0A@@?$pair@V?$_Tree_iterator@V?$_Tree_val@U?$_Tree_simple_types@U?$pair@$$CBV?$basic_string@DU?$char_traits@D@std@@V?$allocator@D@2@@std@@V12@@std@@@std@@@std@@@std@@_N@std@@QAE@$$QAV?$_Tree_iterator@V?$_Tree_val@U?$_Tree_simple_types@U?$pair@$$CBV?$basic_string@DU?$char_traits@D@std@@V?$allocator@D@2@@std@@V12@@std@@@std@@@std@@@1@$$QA_N@Z 1005dd70 f i SoundManager.obj
 0001:0005cdf0       ??$?0V?$allocator@U?$_List_node@UtagPLAY_DATA@CSoundMananger@SOUND@NMBASE@@PAX@std@@@std@@$$V@?$_Compressed_pair@V?$allocator@U?$_List_node@UtagPLAY_DATA@CSoundMananger@SOUND@NMBASE@@PAX@std@@@std@@V?$_List_val@U?$_List_simple_types@UtagPLAY_DATA@CSoundMananger@SOUND@NMBASE@@@std@@@2@$00@std@@QAE@U_One_then_variadic_args_t@1@$$QAV?$allocator@U?$_List_node@UtagPLAY_DATA@CSoundMananger@SOUND@NMBASE@@PAX@std@@@1@@Z 1005ddf0 f i SoundManager.obj
 0001:0005ce60       ??$?0V?$allocator@U?$_List_node@UtagPLAY_DATA@CSoundMananger@SOUND@NMBASE@@PAX@std@@@std@@X@?$_List_alloc@U?$_List_base_types@UtagPLAY_DATA@CSoundMananger@SOUND@NMBASE@@V?$allocator@UtagPLAY_DATA@CSoundMananger@SOUND@NMBASE@@@std@@@std@@@std@@QAE@$$QAV?$allocator@U?$_List_node@UtagPLAY_DATA@CSoundMananger@SOUND@NMBASE@@PAX@std@@@1@@Z 1005de60 f i SoundManager.obj
 0001:0005cf80       ??$?0V?$allocator@U?$_List_node@UtagPLAY_DATA@CSoundMananger@SOUND@NMBASE@@PAX@std@@@std@@X@?$_List_buy@UtagPLAY_DATA@CSoundMananger@SOUND@NMBASE@@V?$allocator@UtagPLAY_DATA@CSoundMananger@SOUND@NMBASE@@@std@@@std@@QAE@$$QAV?$allocator@U?$_List_node@UtagPLAY_DATA@CSoundMananger@SOUND@NMBASE@@PAX@std@@@1@@Z 1005df80 f i SoundManager.obj
 0001:0005cff0       ??$?0V?$allocator@U?$_Tree_node@U?$pair@$$CBV?$basic_string@DU?$char_traits@D@std@@V?$allocator@D@2@@std@@V12@@std@@PAX@std@@@std@@$$V@?$_Compressed_pair@V?$allocator@U?$_Tree_node@U?$pair@$$CBV?$basic_string@DU?$char_traits@D@std@@V?$allocator@D@2@@std@@V12@@std@@PAX@std@@@std@@V?$_Tree_val@U?$_Tree_simple_types@U?$pair@$$CBV?$basic_string@DU?$char_traits@D@std@@V?$allocator@D@2@@std@@V12@@std@@@std@@@2@$00@std@@QAE@U_One_then_variadic_args_t@1@$$QAV?$allocator@U?$_Tree_node@U?$pair@$$CBV?$basic_string@DU?$char_traits@D@std@@V?$allocator@D@2@@std@@V12@@std@@PAX@std@@@1@@Z 1005dff0 f i SoundManager.obj
 0001:0005d060       ??$?0V?$allocator@U?$_Tree_node@U?$pair@$$CBV?$basic_string@DU?$char_traits@D@std@@V?$allocator@D@2@@std@@V12@@std@@PAX@std@@@std@@@?$_Tree@V?$_Tmap_traits@V?$basic_string@DU?$char_traits@D@std@@V?$allocator@D@2@@std@@V12@U?$less@V?$basic_string@DU?$char_traits@D@std@@V?$allocator@D@2@@std@@@2@V?$allocator@U?$pair@$$CBV?$basic_string@DU?$char_traits@D@std@@V?$allocator@D@2@@std@@V12@@std@@@2@$00@std@@@std@@QAE@ABV01@$$QAV?$allocator@U?$_Tree_node@U?$pair@$$CBV?$basic_string@DU?$char_traits@D@std@@V?$allocator@D@2@@std@@V12@@std@@PAX@std@@@1@@Z 1005e060 f i SoundManager.obj
 0001:0005d180       ??$?0V?$allocator@U?$_Tree_node@U?$pair@$$CBV?$basic_string@DU?$char_traits@D@std@@V?$allocator@D@2@@std@@V12@@std@@PAX@std@@@std@@X@?$_Tree_comp_alloc@V?$_Tmap_traits@V?$basic_string@DU?$char_traits@D@std@@V?$allocator@D@2@@std@@V12@U?$less@V?$basic_string@DU?$char_traits@D@std@@V?$allocator@D@2@@std@@@2@V?$allocator@U?$pair@$$CBV?$basic_string@DU?$char_traits@D@std@@V?$allocator@D@2@@std@@V12@@std@@@2@$00@std@@@std@@QAE@ABU?$less@V?$basic_string@DU?$char_traits@D@std@@V?$allocator@D@2@@std@@@1@$$QAV?$allocator@U?$_Tree_node@U?$pair@$$CBV?$basic_string@DU?$char_traits@D@std@@V?$allocator@D@2@@std@@V12@@std@@PAX@std@@@1@@Z 1005e180 f i SoundManager.obj
 0001:0005d210       ??$?9DD@std@@YA_NABV?$allocator@D@0@0@Z 1005e210 f i SoundManager.obj
 0001:0005d240       ??$?HDU?$char_traits@D@std@@V?$allocator@D@1@@std@@YA?AV?$basic_string@DU?$char_traits@D@std@@V?$allocator@D@2@@0@$$QAV10@ABV10@@Z 1005e240 f i SoundManager.obj
 0001:0005d2d0       ??$?HDU?$char_traits@D@std@@V?$allocator@D@1@@std@@YA?AV?$basic_string@DU?$char_traits@D@std@@V?$allocator@D@2@@0@ABV10@QBD@Z 1005e2d0 f i SoundManager.obj
 0001:0005d440       ??$_Adl_verify_range1@V?$_List_const_iterator@V?$_List_val@U?$_List_simple_types@UtagPLAY_DATA@CSoundMananger@SOUND@NMBASE@@@std@@@std@@@std@@V12@@std@@YAXABV?$_List_const_iterator@V?$_List_val@U?$_List_simple_types@UtagPLAY_DATA@CSoundMananger@SOUND@NMBASE@@@std@@@std@@@0@0U?$integral_constant@_N$00@0@@Z 1005e440 f i SoundManager.obj
 0001:0005d4a0       ??$_Adl_verify_range1@V?$_String_iterator@V?$_String_val@U?$_Simple_types@D@std@@@std@@@std@@V12@@std@@YAXABV?$_String_iterator@V?$_String_val@U?$_Simple_types@D@std@@@std@@@0@0U?$integral_constant@_N$00@0@@Z 1005e4a0 f i SoundManager.obj
 0001:0005d500       ??$_Adl_verify_range@V?$_List_const_iterator@V?$_List_val@U?$_List_simple_types@UtagPLAY_DATA@CSoundMananger@SOUND@NMBASE@@@std@@@std@@@std@@V12@@std@@YAXABV?$_List_const_iterator@V?$_List_val@U?$_List_simple_types@UtagPLAY_DATA@CSoundMananger@SOUND@NMBASE@@@std@@@std@@@0@0@Z 1005e500 f i SoundManager.obj
 0001:0005d570       ??$_Adl_verify_range@V?$_String_iterator@V?$_String_val@U?$_Simple_types@D@std@@@std@@@std@@V12@@std@@YAXABV?$_String_iterator@V?$_String_val@U?$_Simple_types@D@std@@@std@@@0@0@Z 1005e570 f i SoundManager.obj
 0001:0005d5e0       ??$_Buy_if_not_node@U?$pair@$$CBV?$basic_string@DU?$char_traits@D@std@@V?$allocator@D@2@@std@@V12@@std@@@?$_Tree@V?$_Tmap_traits@V?$basic_string@DU?$char_traits@D@std@@V?$allocator@D@2@@std@@V12@U?$less@V?$basic_string@DU?$char_traits@D@std@@V?$allocator@D@2@@std@@@2@V?$allocator@U?$pair@$$CBV?$basic_string@DU?$char_traits@D@std@@V?$allocator@D@2@@std@@V12@@std@@@2@$00@std@@@std@@IAEPAU?$_Tree_node@U?$pair@$$CBV?$basic_string@DU?$char_traits@D@std@@V?$allocator@D@2@@std@@V12@@std@@PAX@1@U_Not_a_node_tag@1@$$QAU?$pair@$$CBV?$basic_string@DU?$char_traits@D@std@@V?$allocator@D@2@@std@@V12@@1@@Z 1005e5e0 f i SoundManager.obj
 0001:0005d650       ??$_Buynode@AAU?$pair@$$CBV?$basic_string@DU?$char_traits@D@std@@V?$allocator@D@2@@std@@V12@@std@@@?$_Tree_comp_alloc@V?$_Tmap_traits@V?$basic_string@DU?$char_traits@D@std@@V?$allocator@D@2@@std@@V12@U?$less@V?$basic_string@DU?$char_traits@D@std@@V?$allocator@D@2@@std@@@2@V?$allocator@U?$pair@$$CBV?$basic_string@DU?$char_traits@D@std@@V?$allocator@D@2@@std@@V12@@std@@@2@$00@std@@@std@@QAEPAU?$_Tree_node@U?$pair@$$CBV?$basic_string@DU?$char_traits@D@std@@V?$allocator@D@2@@std@@V12@@std@@PAX@1@AAU?$pair@$$CBV?$basic_string@DU?$char_traits@D@std@@V?$allocator@D@2@@std@@V12@@1@@Z 1005e650 f i SoundManager.obj
 0001:0005d770       ??$_Buynode@ABUtagPLAY_DATA@CSoundMananger@SOUND@NMBASE@@@?$_List_buy@UtagPLAY_DATA@CSoundMananger@SOUND@NMBASE@@V?$allocator@UtagPLAY_DATA@CSoundMananger@SOUND@NMBASE@@@std@@@std@@QAEPAU?$_List_node@UtagPLAY_DATA@CSoundMananger@SOUND@NMBASE@@PAX@1@PAU21@0ABUtagPLAY_DATA@CSoundMananger@SOUND@NMBASE@@@Z 1005e770 f i SoundManager.obj
 0001:0005d890       ??$_Buynode@U?$pair@$$CBV?$basic_string@DU?$char_traits@D@std@@V?$allocator@D@2@@std@@V12@@std@@@?$_Tree_comp_alloc@V?$_Tmap_traits@V?$basic_string@DU?$char_traits@D@std@@V?$allocator@D@2@@std@@V12@U?$less@V?$basic_string@DU?$char_traits@D@std@@V?$allocator@D@2@@std@@@2@V?$allocator@U?$pair@$$CBV?$basic_string@DU?$char_traits@D@std@@V?$allocator@D@2@@std@@V12@@std@@@2@$00@std@@@std@@QAEPAU?$_Tree_node@U?$pair@$$CBV?$basic_string@DU?$char_traits@D@std@@V?$allocator@D@2@@std@@V12@@std@@PAX@1@$$QAU?$pair@$$CBV?$basic_string@DU?$char_traits@D@std@@V?$allocator@D@2@@std@@V12@@1@@Z 1005e890 f i SoundManager.obj
 0001:0005d9b0       ??$_Const_cast@$$CBD@std@@YA@PBD@Z 1005e9b0 f i SoundManager.obj
 0001:0005d9f0       ??$_Copy@U_Copy_tag@?$_Tree@V?$_Tmap_traits@V?$basic_string@DU?$char_traits@D@std@@V?$allocator@D@2@@std@@V12@U?$less@V?$basic_string@DU?$char_traits@D@std@@V?$allocator@D@2@@std@@@2@V?$allocator@U?$pair@$$CBV?$basic_string@DU?$char_traits@D@std@@V?$allocator@D@2@@std@@V12@@std@@@2@$00@std@@@std@@@?$_Tree@V?$_Tmap_traits@V?$basic_string@DU?$char_traits@D@std@@V?$allocator@D@2@@std@@V12@U?$less@V?$basic_string@DU?$char_traits@D@std@@V?$allocator@D@2@@std@@@2@V?$allocator@U?$pair@$$CBV?$basic_string@DU?$char_traits@D@std@@V?$allocator@D@2@@std@@V12@@std@@@2@$00@std@@@std@@IAEXABV01@U_Copy_tag@01@@Z 1005e9f0 f i SoundManager.obj
 0001:0005db30       ??$_Copy_nodes@U_Copy_tag@?$_Tree@V?$_Tmap_traits@V?$basic_string@DU?$char_traits@D@std@@V?$allocator@D@2@@std@@V12@U?$less@V?$basic_string@DU?$char_traits@D@std@@V?$allocator@D@2@@std@@@2@V?$allocator@U?$pair@$$CBV?$basic_string@DU?$char_traits@D@std@@V?$allocator@D@2@@std@@V12@@std@@@2@$00@std@@@std@@@?$_Tree@V?$_Tmap_traits@V?$basic_string@DU?$char_traits@D@std@@V?$allocator@D@2@@std@@V12@U?$less@V?$basic_string@DU?$char_traits@D@std@@V?$allocator@D@2@@std@@@2@V?$allocator@U?$pair@$$CBV?$basic_string@DU?$char_traits@D@std@@V?$allocator@D@2@@std@@V12@@std@@@2@$00@std@@@std@@IAEPAU?$_Tree_node@U?$pair@$$CBV?$basic_string@DU?$char_traits@D@std@@V?$allocator@D@2@@std@@V12@@std@@PAX@1@PAU21@0U_Copy_tag@01@@Z 1005eb30 f i SoundManager.obj
 0001:0005dd10       ??$_Copy_or_move@U?$pair@$$CBV?$basic_string@DU?$char_traits@D@std@@V?$allocator@D@2@@std@@V12@@std@@U?$integral_constant@_N$0A@@2@@?$_Tree@V?$_Tmap_traits@V?$basic_string@DU?$char_traits@D@std@@V?$allocator@D@2@@std@@V12@U?$less@V?$basic_string@DU?$char_traits@D@std@@V?$allocator@D@2@@std@@@2@V?$allocator@U?$pair@$$CBV?$basic_string@DU?$char_traits@D@std@@V?$allocator@D@2@@std@@V12@@std@@@2@$00@std@@@std@@IAEPAU?$_Tree_node@U?$pair@$$CBV?$basic_string@DU?$char_traits@D@std@@V?$allocator@D@2@@std@@V12@@std@@PAX@1@AAU?$pair@$$CBV?$basic_string@DU?$char_traits@D@std@@V?$allocator@D@2@@std@@V12@@1@U_Copy_tag@01@U?$integral_constant@_N$0A@@1@@Z 1005ed10 f i SoundManager.obj
 0001:0005dd70       ??$_Distance1@V?$_Tree_const_iterator@V?$_Tree_val@U?$_Tree_simple_types@U?$pair@$$CBV?$basic_string@DU?$char_traits@D@std@@V?$allocator@D@2@@std@@V12@@std@@@std@@@std@@@std@@@std@@YAHV?$_Tree_const_iterator@V?$_Tree_val@U?$_Tree_simple_types@U?$pair@$$CBV?$basic_string@DU?$char_traits@D@std@@V?$allocator@D@2@@std@@V12@@std@@@std@@@std@@@0@0Uinput_iterator_tag@0@@Z 1005ed70 f i SoundManager.obj
 0001:0005de60       ??$_Eqrange@V?$basic_string@DU?$char_traits@D@std@@V?$allocator@D@2@@std@@@?$_Tree@V?$_Tmap_traits@V?$basic_string@DU?$char_traits@D@std@@V?$allocator@D@2@@std@@V12@U?$less@V?$basic_string@DU?$char_traits@D@std@@V?$allocator@D@2@@std@@@2@V?$allocator@U?$pair@$$CBV?$basic_string@DU?$char_traits@D@std@@V?$allocator@D@2@@std@@V12@@std@@@2@$00@std@@@std@@IBE?AU?$pair@V?$_Tree_const_iterator@V?$_Tree_val@U?$_Tree_simple_types@U?$pair@$$CBV?$basic_string@DU?$char_traits@D@std@@V?$allocator@D@2@@std@@V12@@std@@@std@@@std@@@std@@V12@@1@ABV?$basic_string@DU?$char_traits@D@std@@V?$allocator@D@2@@1@@Z 1005ee60 f i SoundManager.obj
 0001:0005e150       ??$_Freenode0@V?$allocator@U?$_List_node@UtagPLAY_DATA@CSoundMananger@SOUND@NMBASE@@PAX@std@@@std@@@?$_List_node@UtagPLAY_DATA@CSoundMananger@SOUND@NMBASE@@PAX@std@@SAXAAV?$allocator@U?$_List_node@UtagPLAY_DATA@CSoundMananger@SOUND@NMBASE@@PAX@std@@@1@PAU01@@Z 1005f150 f i SoundManager.obj
 0001:0005e260       ??$_Freenode0@V?$allocator@U?$_Tree_node@U?$pair@$$CBV?$basic_string@DU?$char_traits@D@std@@V?$allocator@D@2@@std@@V12@@std@@PAX@std@@@std@@@?$_Tree_node@U?$pair@$$CBV?$basic_string@DU?$char_traits@D@std@@V?$allocator@D@2@@std@@V12@@std@@PAX@std@@SAXAAV?$allocator@U?$_Tree_node@U?$pair@$$CBV?$basic_string@DU?$char_traits@D@std@@V?$allocator@D@2@@std@@V12@@std@@PAX@std@@@1@PAU01@@Z 1005f260 f i SoundManager.obj
 0001:0005e390       ??$_Get_size_of_n@$0CI@@std@@YAII@Z 1005f390 f i SoundManager.obj
 0001:0005e3f0       ??$_Get_size_of_n@$0EI@@std@@YAII@Z 1005f3f0 f i SoundManager.obj
 0001:0005e450       ??$_Get_unwrapped@V?$_List_const_iterator@V?$_List_val@U?$_List_simple_types@UtagPLAY_DATA@CSoundMananger@SOUND@NMBASE@@@std@@@std@@@std@@$0A@@std@@YA@ABV?$_List_const_iterator@V?$_List_val@U?$_List_simple_types@UtagPLAY_DATA@CSoundMananger@SOUND@NMBASE@@@std@@@std@@@0@@Z 1005f450 f i SoundManager.obj
 0001:0005e4b0       ??$_Get_unwrapped@V?$_String_iterator@V?$_String_val@U?$_Simple_types@D@std@@@std@@@std@@$0A@@std@@YA@ABV?$_String_iterator@V?$_String_val@U?$_Simple_types@D@std@@@std@@@0@@Z 1005f4b0 f i SoundManager.obj
 0001:0005e500       ??$_Insert@ABUtagPLAY_DATA@CSoundMananger@SOUND@NMBASE@@@?$list@UtagPLAY_DATA@CSoundMananger@SOUND@NMBASE@@V?$allocator@UtagPLAY_DATA@CSoundMananger@SOUND@NMBASE@@@std@@@std@@QAEXV?$_List_unchecked_const_iterator@V?$_List_val@U?$_List_simple_types@UtagPLAY_DATA@CSoundMananger@SOUND@NMBASE@@@std@@@std@@U_Iterator_base0@2@@1@ABUtagPLAY_DATA@CSoundMananger@SOUND@NMBASE@@@Z 1005f500 f i SoundManager.obj
 0001:0005e5b0       ??$_Insert_at@U?$pair@$$CBV?$basic_string@DU?$char_traits@D@std@@V?$allocator@D@2@@std@@V12@@std@@U_Not_a_node_tag@2@@?$_Tree@V?$_Tmap_traits@V?$basic_string@DU?$char_traits@D@std@@V?$allocator@D@2@@std@@V12@U?$less@V?$basic_string@DU?$char_traits@D@std@@V?$allocator@D@2@@std@@@2@V?$allocator@U?$pair@$$CBV?$basic_string@DU?$char_traits@D@std@@V?$allocator@D@2@@std@@V12@@std@@@2@$00@std@@@std@@IAE?AV?$_Tree_iterator@V?$_Tree_val@U?$_Tree_simple_types@U?$pair@$$CBV?$basic_string@DU?$char_traits@D@std@@V?$allocator@D@2@@std@@V12@@std@@@std@@@std@@@1@_NPAU?$_Tree_node@U?$pair@$$CBV?$basic_string@DU?$char_traits@D@std@@V?$allocator@D@2@@std@@V12@@std@@PAX@1@$$QAU?$pair@$$CBV?$basic_string@DU?$char_traits@D@std@@V?$allocator@D@2@@std@@V12@@1@U_Not_a_node_tag@1@@Z 1005f5b0 f i SoundManager.obj
 0001:0005e930       ??$_Insert_nohint@U?$pair@$$CBV?$basic_string@DU?$char_traits@D@std@@V?$allocator@D@2@@std@@V12@@std@@U_Not_a_node_tag@2@@?$_Tree@V?$_Tmap_traits@V?$basic_string@DU?$char_traits@D@std@@V?$allocator@D@2@@std@@V12@U?$less@V?$basic_string@DU?$char_traits@D@std@@V?$allocator@D@2@@std@@@2@V?$allocator@U?$pair@$$CBV?$basic_string@DU?$char_traits@D@std@@V?$allocator@D@2@@std@@V12@@std@@@2@$00@std@@@std@@IAE?AU?$pair@V?$_Tree_iterator@V?$_Tree_val@U?$_Tree_simple_types@U?$pair@$$CBV?$basic_string@DU?$char_traits@D@std@@V?$allocator@D@2@@std@@V12@@std@@@std@@@std@@@std@@_N@1@_N$$QAU?$pair@$$CBV?$basic_string@DU?$char_traits@D@std@@V?$allocator@D@2@@std@@V12@@1@U_Not_a_node_tag@1@@Z 1005f930 f i SoundManager.obj
 0001:0005ef20       ??$_Insert_range@V?$_List_const_iterator@V?$_List_val@U?$_List_simple_types@UtagPLAY_DATA@CSoundMananger@SOUND@NMBASE@@@std@@@std@@@std@@@?$list@UtagPLAY_DATA@CSoundMananger@SOUND@NMBASE@@V?$allocator@UtagPLAY_DATA@CSoundMananger@SOUND@NMBASE@@@std@@@std@@QAEXV?$_List_unchecked_const_iterator@V?$_List_val@U?$_List_simple_types@UtagPLAY_DATA@CSoundMananger@SOUND@NMBASE@@@std@@@std@@U_Iterator_base0@2@@1@V?$_List_const_iterator@V?$_List_val@U?$_List_simple_types@UtagPLAY_DATA@CSoundMananger@SOUND@NMBASE@@@std@@@std@@@1@1Uforward_iterator_tag@1@@Z 1005ff20 f i SoundManager.obj
 0001:0005f170       ??$_Kfn@$$CBV?$basic_string@DU?$char_traits@D@std@@V?$allocator@D@2@@std@@V12@@?$_Tmap_traits@V?$basic_string@DU?$char_traits@D@std@@V?$allocator@D@2@@std@@V12@U?$less@V?$basic_string@DU?$char_traits@D@std@@V?$allocator@D@2@@std@@@2@V?$allocator@U?$pair@$$CBV?$basic_string@DU?$char_traits@D@std@@V?$allocator@D@2@@std@@V12@@std@@@2@$00@std@@SAABV?$basic_string@DU?$char_traits@D@std@@V?$allocator@D@2@@1@ABU?$pair@$$CBV?$basic_string@DU?$char_traits@D@std@@V?$allocator@D@2@@std@@V12@@1@@Z 10060170 f i SoundManager.obj
 0001:0005f1b0       ??$_Lbound@V?$basic_string@DU?$char_traits@D@std@@V?$allocator@D@2@@std@@@?$_Tree@V?$_Tmap_traits@V?$basic_string@DU?$char_traits@D@std@@V?$allocator@D@2@@std@@V12@U?$less@V?$basic_string@DU?$char_traits@D@std@@V?$allocator@D@2@@std@@@2@V?$allocator@U?$pair@$$CBV?$basic_string@DU?$char_traits@D@std@@V?$allocator@D@2@@std@@V12@@std@@@2@$00@std@@@std@@IBEPAU?$_Tree_node@U?$pair@$$CBV?$basic_string@DU?$char_traits@D@std@@V?$allocator@D@2@@std@@V12@@std@@PAX@1@ABV?$basic_string@DU?$char_traits@D@std@@V?$allocator@D@2@@1@@Z 100601b0 f i SoundManager.obj
 0001:0005f270       ??$_Pocca@V?$allocator@D@std@@@std@@YAXAAV?$allocator@D@0@ABV10@@Z 10060270 f i SoundManager.obj
 0001:0005f300       ??$_Pocca@V?$allocator@D@std@@@std@@YAXAAV?$allocator@D@0@ABV10@U?$integral_constant@_N$0A@@0@@Z 10060300 f i SoundManager.obj
 0001:0005f330       ??$_Pocca@V?$allocator@U?$_List_node@UtagPLAY_DATA@CSoundMananger@SOUND@NMBASE@@PAX@std@@@std@@@std@@YAXAAV?$allocator@U?$_List_node@UtagPLAY_DATA@CSoundMananger@SOUND@NMBASE@@PAX@std@@@0@ABV10@@Z 10060330 f i SoundManager.obj
 0001:0005f3c0       ??$_Pocca@V?$allocator@U?$_List_node@UtagPLAY_DATA@CSoundMananger@SOUND@NMBASE@@PAX@std@@@std@@@std@@YAXAAV?$allocator@U?$_List_node@UtagPLAY_DATA@CSoundMananger@SOUND@NMBASE@@PAX@std@@@0@ABV10@U?$integral_constant@_N$0A@@0@@Z 100603c0 f i SoundManager.obj
 0001:0005f3f0       ??$_Pocca@V?$allocator@U?$_Tree_node@U?$pair@$$CBV?$basic_string@DU?$char_traits@D@std@@V?$allocator@D@2@@std@@V12@@std@@PAX@std@@@std@@@std@@YAXAAV?$allocator@U?$_Tree_node@U?$pair@$$CBV?$basic_string@DU?$char_traits@D@std@@V?$allocator@D@2@@std@@V12@@std@@PAX@std@@@0@ABV10@@Z 100603f0 f i SoundManager.obj
 0001:0005f480       ??$_Pocca@V?$allocator@U?$_Tree_node@U?$pair@$$CBV?$basic_string@DU?$char_traits@D@std@@V?$allocator@D@2@@std@@V12@@std@@PAX@std@@@std@@@std@@YAXAAV?$allocator@U?$_Tree_node@U?$pair@$$CBV?$basic_string@DU?$char_traits@D@std@@V?$allocator@D@2@@std@@V12@@std@@PAX@std@@@0@ABV10@U?$integral_constant@_N$0A@@0@@Z 10060480 f i SoundManager.obj
 0001:0005f4b0       ??$_Pocma@V?$allocator@D@std@@@std@@YAXAAV?$allocator@D@0@0@Z 100604b0 f i SoundManager.obj
 0001:0005f540       ??$_Pocma@V?$allocator@D@std@@@std@@YAXAAV?$allocator@D@0@0U?$integral_constant@_N$00@0@@Z 10060540 f i SoundManager.obj
 0001:0005f590       ??$_Reallocate_grow_by@V<lambda_67d87d4aa1269033985980465fd1d824>@@$$V@?$basic_string@DU?$char_traits@D@std@@V?$allocator@D@2@@std@@QAEAAV01@IV<lambda_67d87d4aa1269033985980465fd1d824>@@@Z 10060590 f i SoundManager.obj
 0001:0005f770       ??$_Refancy@PAD$0A@@std@@YAPADPAD@Z 10060770 f i SoundManager.obj
 0001:0005f7b0       ??$_Reusenode@ABUtagPLAY_DATA@CSoundMananger@SOUND@NMBASE@@@?$list@UtagPLAY_DATA@CSoundMananger@SOUND@NMBASE@@V?$allocator@UtagPLAY_DATA@CSoundMananger@SOUND@NMBASE@@@std@@@std@@QAEXV?$_List_iterator@V?$_List_val@U?$_List_simple_types@UtagPLAY_DATA@CSoundMananger@SOUND@NMBASE@@@std@@@std@@@1@ABUtagPLAY_DATA@CSoundMananger@SOUND@NMBASE@@@Z 100607b0 f i SoundManager.obj
 0001:0005f920       ??$_Traits_find_ch@U?$char_traits@D@std@@@std@@YAIQBDIID@Z 10060920 f i SoundManager.obj
 0001:0005f9b0       ??$_Traits_rfind_ch@U?$char_traits@D@std@@@std@@YAIQBDIID@Z 100609b0 f i SoundManager.obj
 0001:0005fa70       ??$_Unfancy@$$CBD@std@@YAPBDPBD@Z 10060a70 f i SoundManager.obj
 0001:0005fab0       ??$addressof@$$CBV?$_List_val@U?$_List_simple_types@UtagPLAY_DATA@CSoundMananger@SOUND@NMBASE@@@std@@@std@@@std@@YAPBV?$_List_val@U?$_List_simple_types@UtagPLAY_DATA@CSoundMananger@SOUND@NMBASE@@@std@@@0@ABV10@@Z 10060ab0 f i SoundManager.obj
 0001:0005faf0       ??$addressof@$$CBV?$_Tree@V?$_Tmap_traits@V?$basic_string@DU?$char_traits@D@std@@V?$allocator@D@2@@std@@V12@U?$less@V?$basic_string@DU?$char_traits@D@std@@V?$allocator@D@2@@std@@@2@V?$allocator@U?$pair@$$CBV?$basic_string@DU?$char_traits@D@std@@V?$allocator@D@2@@std@@V12@@std@@@2@$00@std@@@std@@@std@@YAPBV?$_Tree@V?$_Tmap_traits@V?$basic_string@DU?$char_traits@D@std@@V?$allocator@D@2@@std@@V12@U?$less@V?$basic_string@DU?$char_traits@D@std@@V?$allocator@D@2@@std@@@2@V?$allocator@U?$pair@$$CBV?$basic_string@DU?$char_traits@D@std@@V?$allocator@D@2@@std@@V12@@std@@@2@$00@std@@@0@ABV10@@Z 10060af0 f i SoundManager.obj
 0001:0005fb30       ??$addressof@$$CBV?$_Tree_val@U?$_Tree_simple_types@U?$pair@$$CBV?$basic_string@DU?$char_traits@D@std@@V?$allocator@D@2@@std@@V12@@std@@@std@@@std@@@std@@YAPBV?$_Tree_val@U?$_Tree_simple_types@U?$pair@$$CBV?$basic_string@DU?$char_traits@D@std@@V?$allocator@D@2@@std@@V12@@std@@@std@@@0@ABV10@@Z 10060b30 f i SoundManager.obj
 0001:0005fb70       ??$addressof@$$CBV?$basic_string@DU?$char_traits@D@std@@V?$allocator@D@2@@std@@@std@@YAPBV?$basic_string@DU?$char_traits@D@std@@V?$allocator@D@2@@0@ABV10@@Z 10060b70 f i SoundManager.obj
 0001:0005fbb0       ??$addressof@$$CBV?$list@UtagPLAY_DATA@CSoundMananger@SOUND@NMBASE@@V?$allocator@UtagPLAY_DATA@CSoundMananger@SOUND@NMBASE@@@std@@@std@@@std@@YAPBV?$list@UtagPLAY_DATA@CSoundMananger@SOUND@NMBASE@@V?$allocator@UtagPLAY_DATA@CSoundMananger@SOUND@NMBASE@@@std@@@0@ABV10@@Z 10060bb0 f i SoundManager.obj
 0001:0005fbf0       ??$addressof@PAU?$_List_node@UtagPLAY_DATA@CSoundMananger@SOUND@NMBASE@@PAX@std@@@std@@YAPAPAU?$_List_node@UtagPLAY_DATA@CSoundMananger@SOUND@NMBASE@@PAX@0@AAPAU10@@Z 10060bf0 f i SoundManager.obj
 0001:0005fc30       ??$addressof@PAU?$_Tree_node@U?$pair@$$CBV?$basic_string@DU?$char_traits@D@std@@V?$allocator@D@2@@std@@V12@@std@@PAX@std@@@std@@YAPAPAU?$_Tree_node@U?$pair@$$CBV?$basic_string@DU?$char_traits@D@std@@V?$allocator@D@2@@std@@V12@@std@@PAX@0@AAPAU10@@Z 10060c30 f i SoundManager.obj
 0001:0005fc70       ??$addressof@U?$pair@$$CBV?$basic_string@DU?$char_traits@D@std@@V?$allocator@D@2@@std@@V12@@std@@@std@@YAPAU?$pair@$$CBV?$basic_string@DU?$char_traits@D@std@@V?$allocator@D@2@@std@@V12@@0@AAU10@@Z 10060c70 f i SoundManager.obj
 0001:0005fcb0       ??$addressof@UtagPLAY_DATA@CSoundMananger@SOUND@NMBASE@@@std@@YAPAUtagPLAY_DATA@CSoundMananger@SOUND@NMBASE@@AAU1234@@Z 10060cb0 f i SoundManager.obj
 0001:0005fcf0       ??$addressof@V?$_List_val@U?$_List_simple_types@UtagPLAY_DATA@CSoundMananger@SOUND@NMBASE@@@std@@@std@@@std@@YAPAV?$_List_val@U?$_List_simple_types@UtagPLAY_DATA@CSoundMananger@SOUND@NMBASE@@@std@@@0@AAV10@@Z 10060cf0 f i SoundManager.obj
 0001:0005fd30       ??$addressof@V?$_Tree_val@U?$_Tree_simple_types@U?$pair@$$CBV?$basic_string@DU?$char_traits@D@std@@V?$allocator@D@2@@std@@V12@@std@@@std@@@std@@@std@@YAPAV?$_Tree_val@U?$_Tree_simple_types@U?$pair@$$CBV?$basic_string@DU?$char_traits@D@std@@V?$allocator@D@2@@std@@V12@@std@@@std@@@0@AAV10@@Z 10060d30 f i SoundManager.obj
 0001:0005fd70       ??$assign@V?$_List_const_iterator@V?$_List_val@U?$_List_simple_types@UtagPLAY_DATA@CSoundMananger@SOUND@NMBASE@@@std@@@std@@@std@@X@?$list@UtagPLAY_DATA@CSoundMananger@SOUND@NMBASE@@V?$allocator@UtagPLAY_DATA@CSoundMananger@SOUND@NMBASE@@@std@@@std@@QAEXV?$_List_const_iterator@V?$_List_val@U?$_List_simple_types@UtagPLAY_DATA@CSoundMananger@SOUND@NMBASE@@@std@@@std@@@1@0@Z 10060d70 f i SoundManager.obj
 0001:00060140       ??$construct@PAU?$_List_node@UtagPLAY_DATA@CSoundMananger@SOUND@NMBASE@@PAX@std@@AAPAU12@@?$_Default_allocator_traits@V?$allocator@U?$_List_node@UtagPLAY_DATA@CSoundMananger@SOUND@NMBASE@@PAX@std@@@std@@@std@@SAXAAV?$allocator@U?$_List_node@UtagPLAY_DATA@CSoundMananger@SOUND@NMBASE@@PAX@std@@@1@QAPAU?$_List_node@UtagPLAY_DATA@CSoundMananger@SOUND@NMBASE@@PAX@1@AAPAU31@@Z 10061140 f i SoundManager.obj
 0001:000601c0       ??$construct@PAU?$_Tree_node@U?$pair@$$CBV?$basic_string@DU?$char_traits@D@std@@V?$allocator@D@2@@std@@V12@@std@@PAX@std@@AAPAU12@@?$_Default_allocator_traits@V?$allocator@U?$_Tree_node@U?$pair@$$CBV?$basic_string@DU?$char_traits@D@std@@V?$allocator@D@2@@std@@V12@@std@@PAX@std@@@std@@@std@@SAXAAV?$allocator@U?$_Tree_node@U?$pair@$$CBV?$basic_string@DU?$char_traits@D@std@@V?$allocator@D@2@@std@@V12@@std@@PAX@std@@@1@QAPAU?$_Tree_node@U?$pair@$$CBV?$basic_string@DU?$char_traits@D@std@@V?$allocator@D@2@@std@@V12@@std@@PAX@1@AAPAU31@@Z 100611c0 f i SoundManager.obj
 0001:00060240       ??$construct@U?$pair@$$CBV?$basic_string@DU?$char_traits@D@std@@V?$allocator@D@2@@std@@V12@@std@@AAU12@@?$_Default_allocator_traits@V?$allocator@U?$_Tree_node@U?$pair@$$CBV?$basic_string@DU?$char_traits@D@std@@V?$allocator@D@2@@std@@V12@@std@@PAX@std@@@std@@@std@@SAXAAV?$allocator@U?$_Tree_node@U?$pair@$$CBV?$basic_string@DU?$char_traits@D@std@@V?$allocator@D@2@@std@@V12@@std@@PAX@std@@@1@QAU?$pair@$$CBV?$basic_string@DU?$char_traits@D@std@@V?$allocator@D@2@@std@@V12@@1@AAU31@@Z 10061240 f i SoundManager.obj
 0001:000602c0       ??$construct@U?$pair@$$CBV?$basic_string@DU?$char_traits@D@std@@V?$allocator@D@2@@std@@V12@@std@@U12@@?$_Default_allocator_traits@V?$allocator@U?$_Tree_node@U?$pair@$$CBV?$basic_string@DU?$char_traits@D@std@@V?$allocator@D@2@@std@@V12@@std@@PAX@std@@@std@@@std@@SAXAAV?$allocator@U?$_Tree_node@U?$pair@$$CBV?$basic_string@DU?$char_traits@D@std@@V?$allocator@D@2@@std@@V12@@std@@PAX@std@@@1@QAU?$pair@$$CBV?$basic_string@DU?$char_traits@D@std@@V?$allocator@D@2@@std@@V12@@1@$$QAU31@@Z 100612c0 f i SoundManager.obj
 0001:00060340       ??$construct@UtagPLAY_DATA@CSoundMananger@SOUND@NMBASE@@ABU1234@@?$_Default_allocator_traits@V?$allocator@U?$_List_node@UtagPLAY_DATA@CSoundMananger@SOUND@NMBASE@@PAX@std@@@std@@@std@@SAXAAV?$allocator@U?$_List_node@UtagPLAY_DATA@CSoundMananger@SOUND@NMBASE@@PAX@std@@@1@QAUtagPLAY_DATA@CSoundMananger@SOUND@NMBASE@@ABU3456@@Z 10061340 f i SoundManager.obj
 0001:000603c0       ??$destroy@PAU?$_List_node@UtagPLAY_DATA@CSoundMananger@SOUND@NMBASE@@PAX@std@@@?$_Default_allocator_traits@V?$allocator@U?$_List_node@UtagPLAY_DATA@CSoundMananger@SOUND@NMBASE@@PAX@std@@@std@@@std@@SAXAAV?$allocator@U?$_List_node@UtagPLAY_DATA@CSoundMananger@SOUND@NMBASE@@PAX@std@@@1@QAPAU?$_List_node@UtagPLAY_DATA@CSoundMananger@SOUND@NMBASE@@PAX@1@@Z 100613c0 f i SoundManager.obj
 0001:000603f0       ??$destroy@PAU?$_Tree_node@U?$pair@$$CBV?$basic_string@DU?$char_traits@D@std@@V?$allocator@D@2@@std@@V12@@std@@PAX@std@@@?$_Default_allocator_traits@V?$allocator@U?$_Tree_node@U?$pair@$$CBV?$basic_string@DU?$char_traits@D@std@@V?$allocator@D@2@@std@@V12@@std@@PAX@std@@@std@@@std@@SAXAAV?$allocator@U?$_Tree_node@U?$pair@$$CBV?$basic_string@DU?$char_traits@D@std@@V?$allocator@D@2@@std@@V12@@std@@PAX@std@@@1@QAPAU?$_Tree_node@U?$pair@$$CBV?$basic_string@DU?$char_traits@D@std@@V?$allocator@D@2@@std@@V12@@std@@PAX@1@@Z 100613f0 f i SoundManager.obj
 0001:00060420       ??$destroy@U?$pair@$$CBV?$basic_string@DU?$char_traits@D@std@@V?$allocator@D@2@@std@@V12@@std@@@?$_Default_allocator_traits@V?$allocator@U?$_Tree_node@U?$pair@$$CBV?$basic_string@DU?$char_traits@D@std@@V?$allocator@D@2@@std@@V12@@std@@PAX@std@@@std@@@std@@SAXAAV?$allocator@U?$_Tree_node@U?$pair@$$CBV?$basic_string@DU?$char_traits@D@std@@V?$allocator@D@2@@std@@V12@@std@@PAX@std@@@1@QAU?$pair@$$CBV?$basic_string@DU?$char_traits@D@std@@V?$allocator@D@2@@std@@V12@@1@@Z 10061420 f i SoundManager.obj
 0001:00060470       ??$destroy@UtagPLAY_DATA@CSoundMananger@SOUND@NMBASE@@@?$_Default_allocator_traits@V?$allocator@U?$_List_node@UtagPLAY_DATA@CSoundMananger@SOUND@NMBASE@@PAX@std@@@std@@@std@@SAXAAV?$allocator@U?$_List_node@UtagPLAY_DATA@CSoundMananger@SOUND@NMBASE@@PAX@std@@@1@QAUtagPLAY_DATA@CSoundMananger@SOUND@NMBASE@@@Z 10061470 f i SoundManager.obj
 0001:000604c0       ??$distance@V?$_Tree_const_iterator@V?$_Tree_val@U?$_Tree_simple_types@U?$pair@$$CBV?$basic_string@DU?$char_traits@D@std@@V?$allocator@D@2@@std@@V12@@std@@@std@@@std@@@std@@@std@@YAHV?$_Tree_const_iterator@V?$_Tree_val@U?$_Tree_simple_types@U?$pair@$$CBV?$basic_string@DU?$char_traits@D@std@@V?$allocator@D@2@@std@@V12@@std@@@std@@@std@@@0@0@Z 100614c0 f i SoundManager.obj
 0001:000605d0       ??$forward@AAPAU?$_List_node@UtagPLAY_DATA@CSoundMananger@SOUND@NMBASE@@PAX@std@@@std@@YAAAPAU?$_List_node@UtagPLAY_DATA@CSoundMananger@SOUND@NMBASE@@PAX@0@AAPAU10@@Z 100615d0 f i SoundManager.obj
 0001:00060610       ??$forward@AAPAU?$_Tree_node@U?$pair@$$CBV?$basic_string@DU?$char_traits@D@std@@V?$allocator@D@2@@std@@V12@@std@@PAX@std@@@std@@YAAAPAU?$_Tree_node@U?$pair@$$CBV?$basic_string@DU?$char_traits@D@std@@V?$allocator@D@2@@std@@V12@@std@@PAX@0@AAPAU10@@Z 10061610 f i SoundManager.obj
 0001:00060650       ??$forward@AAU?$pair@$$CBV?$basic_string@DU?$char_traits@D@std@@V?$allocator@D@2@@std@@V12@@std@@@std@@YAAAU?$pair@$$CBV?$basic_string@DU?$char_traits@D@std@@V?$allocator@D@2@@std@@V12@@0@AAU10@@Z 10061650 f i SoundManager.obj
 0001:00060690       ??$forward@AAV?$_Tree_const_iterator@V?$_Tree_val@U?$_Tree_simple_types@U?$pair@$$CBV?$basic_string@DU?$char_traits@D@std@@V?$allocator@D@2@@std@@V12@@std@@@std@@@std@@@std@@@std@@YAAAV?$_Tree_const_iterator@V?$_Tree_val@U?$_Tree_simple_types@U?$pair@$$CBV?$basic_string@DU?$char_traits@D@std@@V?$allocator@D@2@@std@@V12@@std@@@std@@@std@@@0@AAV10@@Z 10061690 f i SoundManager.obj
 0001:000606d0       ??$forward@AAV?$_Tree_iterator@V?$_Tree_val@U?$_Tree_simple_types@U?$pair@$$CBV?$basic_string@DU?$char_traits@D@std@@V?$allocator@D@2@@std@@V12@@std@@@std@@@std@@@std@@@std@@YAAAV?$_Tree_iterator@V?$_Tree_val@U?$_Tree_simple_types@U?$pair@$$CBV?$basic_string@DU?$char_traits@D@std@@V?$allocator@D@2@@std@@V12@@std@@@std@@@std@@@0@AAV10@@Z 100616d0 f i SoundManager.obj
 0001:00060710       ??$forward@ABUtagPLAY_DATA@CSoundMananger@SOUND@NMBASE@@@std@@YAABUtagPLAY_DATA@CSoundMananger@SOUND@NMBASE@@ABU1234@@Z 10061710 f i SoundManager.obj
 0001:00060750       ??$forward@ABV?$allocator@D@std@@@std@@YAABV?$allocator@D@0@ABV10@@Z 10061750 f i SoundManager.obj
 0001:00060790       ??$forward@U?$pair@$$CBV?$basic_string@DU?$char_traits@D@std@@V?$allocator@D@2@@std@@V12@@std@@@std@@YA$$QAU?$pair@$$CBV?$basic_string@DU?$char_traits@D@std@@V?$allocator@D@2@@std@@V12@@0@AAU10@@Z 10061790 f i SoundManager.obj
 0001:000607d0       ??$forward@V?$_Tree_iterator@V?$_Tree_val@U?$_Tree_simple_types@U?$pair@$$CBV?$basic_string@DU?$char_traits@D@std@@V?$allocator@D@2@@std@@V12@@std@@@std@@@std@@@std@@@std@@YA$$QAV?$_Tree_iterator@V?$_Tree_val@U?$_Tree_simple_types@U?$pair@$$CBV?$basic_string@DU?$char_traits@D@std@@V?$allocator@D@2@@std@@V12@@std@@@std@@@std@@@0@AAV10@@Z 100617d0 f i SoundManager.obj
 0001:00060810       ??$forward@V?$allocator@U?$_List_node@UtagPLAY_DATA@CSoundMananger@SOUND@NMBASE@@PAX@std@@@std@@@std@@YA$$QAV?$allocator@U?$_List_node@UtagPLAY_DATA@CSoundMananger@SOUND@NMBASE@@PAX@std@@@0@AAV10@@Z 10061810 f i SoundManager.obj
 0001:00060850       ??$forward@V?$allocator@U?$_Tree_node@U?$pair@$$CBV?$basic_string@DU?$char_traits@D@std@@V?$allocator@D@2@@std@@V12@@std@@PAX@std@@@std@@@std@@YA$$QAV?$allocator@U?$_Tree_node@U?$pair@$$CBV?$basic_string@DU?$char_traits@D@std@@V?$allocator@D@2@@std@@V12@@std@@PAX@std@@@0@AAV10@@Z 10061850 f i SoundManager.obj
 0001:00060890       ??$insert@$00$0A@@?$_Tree@V?$_Tmap_traits@V?$basic_string@DU?$char_traits@D@std@@V?$allocator@D@2@@std@@V12@U?$less@V?$basic_string@DU?$char_traits@D@std@@V?$allocator@D@2@@std@@@2@V?$allocator@U?$pair@$$CBV?$basic_string@DU?$char_traits@D@std@@V?$allocator@D@2@@std@@V12@@std@@@2@$00@std@@@std@@QAE?AV?$_Tree_iterator@V?$_Tree_val@U?$_Tree_simple_types@U?$pair@$$CBV?$basic_string@DU?$char_traits@D@std@@V?$allocator@D@2@@std@@V12@@std@@@std@@@std@@@1@$$QAU?$pair@$$CBV?$basic_string@DU?$char_traits@D@std@@V?$allocator@D@2@@std@@V12@@1@@Z 10061890 f i SoundManager.obj
 0001:00060960       ??$insert@V?$_List_const_iterator@V?$_List_val@U?$_List_simple_types@UtagPLAY_DATA@CSoundMananger@SOUND@NMBASE@@@std@@@std@@@std@@X@?$list@UtagPLAY_DATA@CSoundMananger@SOUND@NMBASE@@V?$allocator@UtagPLAY_DATA@CSoundMananger@SOUND@NMBASE@@@std@@@std@@QAE?AV?$_List_iterator@V?$_List_val@U?$_List_simple_types@UtagPLAY_DATA@CSoundMananger@SOUND@NMBASE@@@std@@@std@@@1@V?$_List_const_iterator@V?$_List_val@U?$_List_simple_types@UtagPLAY_DATA@CSoundMananger@SOUND@NMBASE@@@std@@@std@@@1@00@Z 10061960 f i SoundManager.obj
 0001:00060d90       ??$move@AAU?$pair@$$CBV?$basic_string@DU?$char_traits@D@std@@V?$allocator@D@2@@std@@V12@@std@@@std@@YA$$QAU?$pair@$$CBV?$basic_string@DU?$char_traits@D@std@@V?$allocator@D@2@@std@@V12@@0@AAU10@@Z 10061d90 f i SoundManager.obj
 0001:00060dd0       ??0?$_List_alloc@U?$_List_base_types@UtagPLAY_DATA@CSoundMananger@SOUND@NMBASE@@V?$allocator@UtagPLAY_DATA@CSoundMananger@SOUND@NMBASE@@@std@@@std@@@std@@QAE@XZ 10061dd0 f i SoundManager.obj
 0001:00060ee0       ??0?$_List_buy@UtagPLAY_DATA@CSoundMananger@SOUND@NMBASE@@V?$allocator@UtagPLAY_DATA@CSoundMananger@SOUND@NMBASE@@@std@@@std@@QAE@XZ 10061ee0 f i SoundManager.obj
 0001:00060f40       ??0?$_List_const_iterator@V?$_List_val@U?$_List_simple_types@UtagPLAY_DATA@CSoundMananger@SOUND@NMBASE@@@std@@@std@@@std@@QAE@$$QAV01@@Z 10061f40 f i SoundManager.obj
 0001:00060fa0       ??0?$_List_const_iterator@V?$_List_val@U?$_List_simple_types@UtagPLAY_DATA@CSoundMananger@SOUND@NMBASE@@@std@@@std@@@std@@QAE@ABV01@@Z 10061fa0 f i SoundManager.obj
 0001:00061000       ??0?$_List_const_iterator@V?$_List_val@U?$_List_simple_types@UtagPLAY_DATA@CSoundMananger@SOUND@NMBASE@@@std@@@std@@@std@@QAE@PAU?$_List_node@UtagPLAY_DATA@CSoundMananger@SOUND@NMBASE@@PAX@1@PBV?$_List_val@U?$_List_simple_types@UtagPLAY_DATA@CSoundMananger@SOUND@NMBASE@@@std@@@1@@Z 10062000 f i SoundManager.obj
 0001:00061060       ??0?$_List_iterator@V?$_List_val@U?$_List_simple_types@UtagPLAY_DATA@CSoundMananger@SOUND@NMBASE@@@std@@@std@@@std@@QAE@ABV01@@Z 10062060 f i SoundManager.obj
 0001:000610c0       ??0?$_List_iterator@V?$_List_val@U?$_List_simple_types@UtagPLAY_DATA@CSoundMananger@SOUND@NMBASE@@@std@@@std@@@std@@QAE@PAU?$_List_node@UtagPLAY_DATA@CSoundMananger@SOUND@NMBASE@@PAX@1@PBV?$_List_val@U?$_List_simple_types@UtagPLAY_DATA@CSoundMananger@SOUND@NMBASE@@@std@@@1@@Z 100620c0 f i SoundManager.obj
 0001:00061120       ??0?$_List_unchecked_const_iterator@V?$_List_val@U?$_List_simple_types@UtagPLAY_DATA@CSoundMananger@SOUND@NMBASE@@@std@@@std@@U_Iterator_base0@2@@std@@QAE@PAU?$_List_node@UtagPLAY_DATA@CSoundMananger@SOUND@NMBASE@@PAX@1@PBV?$_List_val@U?$_List_simple_types@UtagPLAY_DATA@CSoundMananger@SOUND@NMBASE@@@std@@@1@@Z 10062120 f i SoundManager.obj
 0001:00061190       ??0?$_List_unchecked_const_iterator@V?$_List_val@U?$_List_simple_types@UtagPLAY_DATA@CSoundMananger@SOUND@NMBASE@@@std@@@std@@U_Iterator_base12@2@@std@@QAE@$$QAV01@@Z 10062190 f i SoundManager.obj
 0001:00061200       ??0?$_List_unchecked_const_iterator@V?$_List_val@U?$_List_simple_types@UtagPLAY_DATA@CSoundMananger@SOUND@NMBASE@@@std@@@std@@U_Iterator_base12@2@@std@@QAE@ABV01@@Z 10062200 f i SoundManager.obj
 0001:00061270       ??0?$_List_unchecked_const_iterator@V?$_List_val@U?$_List_simple_types@UtagPLAY_DATA@CSoundMananger@SOUND@NMBASE@@@std@@@std@@U_Iterator_base12@2@@std@@QAE@PAU?$_List_node@UtagPLAY_DATA@CSoundMananger@SOUND@NMBASE@@PAX@1@PBV?$_List_val@U?$_List_simple_types@UtagPLAY_DATA@CSoundMananger@SOUND@NMBASE@@@std@@@1@@Z 10062270 f i SoundManager.obj
 0001:000612e0       ??0?$_List_unchecked_iterator@V?$_List_val@U?$_List_simple_types@UtagPLAY_DATA@CSoundMananger@SOUND@NMBASE@@@std@@@std@@@std@@QAE@PAU?$_List_node@UtagPLAY_DATA@CSoundMananger@SOUND@NMBASE@@PAX@1@PBV?$_List_val@U?$_List_simple_types@UtagPLAY_DATA@CSoundMananger@SOUND@NMBASE@@@std@@@1@@Z 100622e0 f i SoundManager.obj
 0001:00061340       ??0?$_List_val@U?$_List_simple_types@UtagPLAY_DATA@CSoundMananger@SOUND@NMBASE@@@std@@@std@@QAE@XZ 10062340 f i SoundManager.obj
 0001:000613b0       ??0?$_String_const_iterator@V?$_String_val@U?$_Simple_types@D@std@@@std@@@std@@QAE@ABV01@@Z 100623b0 f i SoundManager.obj
 0001:00061420       ??0?$_String_const_iterator@V?$_String_val@U?$_Simple_types@D@std@@@std@@@std@@QAE@PBDPBU_Container_base12@1@@Z 10062420 f i SoundManager.obj
 0001:00061490       ??0?$_String_iterator@V?$_String_val@U?$_Simple_types@D@std@@@std@@@std@@QAE@ABV01@@Z 10062490 f i SoundManager.obj
 0001:000614f0       ??0?$_String_iterator@V?$_String_val@U?$_Simple_types@D@std@@@std@@@std@@QAE@PADPBU_Container_base12@1@@Z 100624f0 f i SoundManager.obj
 0001:00061550       ??0?$_Tree@V?$_Tmap_traits@V?$basic_string@DU?$char_traits@D@std@@V?$allocator@D@2@@std@@V12@U?$less@V?$basic_string@DU?$char_traits@D@std@@V?$allocator@D@2@@std@@@2@V?$allocator@U?$pair@$$CBV?$basic_string@DU?$char_traits@D@std@@V?$allocator@D@2@@std@@V12@@std@@@2@$00@std@@@std@@QAE@ABU?$less@V?$basic_string@DU?$char_traits@D@std@@V?$allocator@D@2@@std@@@1@@Z 10062550 f i SoundManager.obj
 0001:000615b0       ??0?$_Tree_comp_alloc@V?$_Tmap_traits@V?$basic_string@DU?$char_traits@D@std@@V?$allocator@D@2@@std@@V12@U?$less@V?$basic_string@DU?$char_traits@D@std@@V?$allocator@D@2@@std@@@2@V?$allocator@U?$pair@$$CBV?$basic_string@DU?$char_traits@D@std@@V?$allocator@D@2@@std@@V12@@std@@@2@$00@std@@@std@@QAE@ABU?$less@V?$basic_string@DU?$char_traits@D@std@@V?$allocator@D@2@@std@@@1@@Z 100625b0 f i SoundManager.obj
 0001:00061630       ??0?$_Tree_const_iterator@V?$_Tree_val@U?$_Tree_simple_types@U?$pair@$$CBV?$basic_string@DU?$char_traits@D@std@@V?$allocator@D@2@@std@@V12@@std@@@std@@@std@@@std@@QAE@$$QAV01@@Z 10062630 f i SoundManager.obj
 0001:00061690       ??0?$_Tree_const_iterator@V?$_Tree_val@U?$_Tree_simple_types@U?$pair@$$CBV?$basic_string@DU?$char_traits@D@std@@V?$allocator@D@2@@std@@V12@@std@@@std@@@std@@@std@@QAE@ABV01@@Z 10062690 f i SoundManager.obj
 0001:000616f0       ??0?$_Tree_const_iterator@V?$_Tree_val@U?$_Tree_simple_types@U?$pair@$$CBV?$basic_string@DU?$char_traits@D@std@@V?$allocator@D@2@@std@@V12@@std@@@std@@@std@@@std@@QAE@PAU?$_Tree_node@U?$pair@$$CBV?$basic_string@DU?$char_traits@D@std@@V?$allocator@D@2@@std@@V12@@std@@PAX@1@PBV?$_Tree_val@U?$_Tree_simple_types@U?$pair@$$CBV?$basic_string@DU?$char_traits@D@std@@V?$allocator@D@2@@std@@V12@@std@@@std@@@1@@Z 100626f0 f i SoundManager.obj
 0001:00061750       ??0?$_Tree_iterator@V?$_Tree_val@U?$_Tree_simple_types@U?$pair@$$CBV?$basic_string@DU?$char_traits@D@std@@V?$allocator@D@2@@std@@V12@@std@@@std@@@std@@@std@@QAE@$$QAV01@@Z 10062750 f i SoundManager.obj
 0001:000617b0       ??0?$_Tree_iterator@V?$_Tree_val@U?$_Tree_simple_types@U?$pair@$$CBV?$basic_string@DU?$char_traits@D@std@@V?$allocator@D@2@@std@@V12@@std@@@std@@@std@@@std@@QAE@ABV01@@Z 100627b0 f i SoundManager.obj
 0001:00061810       ??0?$_Tree_iterator@V?$_Tree_val@U?$_Tree_simple_types@U?$pair@$$CBV?$basic_string@DU?$char_traits@D@std@@V?$allocator@D@2@@std@@V12@@std@@@std@@@std@@@std@@QAE@PAU?$_Tree_node@U?$pair@$$CBV?$basic_string@DU?$char_traits@D@std@@V?$allocator@D@2@@std@@V12@@std@@PAX@1@PBV?$_Tree_val@U?$_Tree_simple_types@U?$pair@$$CBV?$basic_string@DU?$char_traits@D@std@@V?$allocator@D@2@@std@@V12@@std@@@std@@@1@@Z 10062810 f i SoundManager.obj
 0001:00061870       ??0?$_Tree_unchecked_const_iterator@V?$_Tree_val@U?$_Tree_simple_types@U?$pair@$$CBV?$basic_string@DU?$char_traits@D@std@@V?$allocator@D@2@@std@@V12@@std@@@std@@@std@@U_Iterator_base12@2@@std@@QAE@$$QAV01@@Z 10062870 f i SoundManager.obj
 0001:000618e0       ??0?$_Tree_unchecked_const_iterator@V?$_Tree_val@U?$_Tree_simple_types@U?$pair@$$CBV?$basic_string@DU?$char_traits@D@std@@V?$allocator@D@2@@std@@V12@@std@@@std@@@std@@U_Iterator_base12@2@@std@@QAE@ABV01@@Z 100628e0 f i SoundManager.obj
 0001:00061950       ??0?$_Tree_unchecked_const_iterator@V?$_Tree_val@U?$_Tree_simple_types@U?$pair@$$CBV?$basic_string@DU?$char_traits@D@std@@V?$allocator@D@2@@std@@V12@@std@@@std@@@std@@U_Iterator_base12@2@@std@@QAE@PAU?$_Tree_node@U?$pair@$$CBV?$basic_string@DU?$char_traits@D@std@@V?$allocator@D@2@@std@@V12@@std@@PAX@1@PBV?$_Tree_val@U?$_Tree_simple_types@U?$pair@$$CBV?$basic_string@DU?$char_traits@D@std@@V?$allocator@D@2@@std@@V12@@std@@@std@@@1@@Z 10062950 f i SoundManager.obj
 0001:000619c0       ??0?$_Tree_val@U?$_Tree_simple_types@U?$pair@$$CBV?$basic_string@DU?$char_traits@D@std@@V?$allocator@D@2@@std@@V12@@std@@@std@@@std@@QAE@XZ 100629c0 f i SoundManager.obj
 0001:00061a30       ??0?$allocator@U?$_List_node@UtagPLAY_DATA@CSoundMananger@SOUND@NMBASE@@PAX@std@@@std@@QAE@XZ 10062a30 f i SoundManager.obj
 0001:00061a70       ??0?$allocator@U?$_Tree_node@U?$pair@$$CBV?$basic_string@DU?$char_traits@D@std@@V?$allocator@D@2@@std@@V12@@std@@PAX@std@@@std@@QAE@XZ 10062a70 f i SoundManager.obj
 0001:00061ab0       ??0?$list@UtagPLAY_DATA@CSoundMananger@SOUND@NMBASE@@V?$allocator@UtagPLAY_DATA@CSoundMananger@SOUND@NMBASE@@@std@@@std@@QAE@ABV01@@Z 10062ab0 f i SoundManager.obj
 0001:00061c60       ??0?$list@UtagPLAY_DATA@CSoundMananger@SOUND@NMBASE@@V?$allocator@UtagPLAY_DATA@CSoundMananger@SOUND@NMBASE@@@std@@@std@@QAE@XZ 10062c60 f i SoundManager.obj
 0001:00061cc0       ??0?$multimap@V?$basic_string@DU?$char_traits@D@std@@V?$allocator@D@2@@std@@V12@U?$less@V?$basic_string@DU?$char_traits@D@std@@V?$allocator@D@2@@std@@@2@V?$allocator@U?$pair@$$CBV?$basic_string@DU?$char_traits@D@std@@V?$allocator@D@2@@std@@V12@@std@@@2@@std@@QAE@ABV01@@Z 10062cc0 f i SoundManager.obj
 0001:00061d40       ??0?$multimap@V?$basic_string@DU?$char_traits@D@std@@V?$allocator@D@2@@std@@V12@U?$less@V?$basic_string@DU?$char_traits@D@std@@V?$allocator@D@2@@std@@@2@V?$allocator@U?$pair@$$CBV?$basic_string@DU?$char_traits@D@std@@V?$allocator@D@2@@std@@V12@@std@@@2@@std@@QAE@XZ 10062d40 f i SoundManager.obj
 0001:00061da0       ??0?$pair@$$CBV?$basic_string@DU?$char_traits@D@std@@V?$allocator@D@2@@std@@V12@@std@@QAE@$$QAU01@@Z 10062da0 f i SoundManager.obj
 0001:00061e10       ??0?$pair@$$CBV?$basic_string@DU?$char_traits@D@std@@V?$allocator@D@2@@std@@V12@@std@@QAE@ABU01@@Z 10062e10 f i SoundManager.obj
 0001:00061ed0       ??0CSoundMananger@SOUND@NMBASE@@QAE@ABV012@@Z 10062ed0 f i SoundManager.obj
 0001:00062010       ??0CSoundMananger@SOUND@NMBASE@@QAE@XZ 10063010 f   SoundManager.obj
 0001:00062120       ??0tagPLAY_DATA@CSoundMananger@SOUND@NMBASE@@QAE@ABU0123@@Z 10063120 f i SoundManager.obj
 0001:00062190       ??0tagPLAY_DATA@CSoundMananger@SOUND@NMBASE@@QAE@XZ 10063190 f i SoundManager.obj
 0001:00062200       ??1?$_List_alloc@U?$_List_base_types@UtagPLAY_DATA@CSoundMananger@SOUND@NMBASE@@V?$allocator@UtagPLAY_DATA@CSoundMananger@SOUND@NMBASE@@@std@@@std@@@std@@QAE@XZ 10063200 f i SoundManager.obj
 0001:000622a0       ??1?$_List_buy@UtagPLAY_DATA@CSoundMananger@SOUND@NMBASE@@V?$allocator@UtagPLAY_DATA@CSoundMananger@SOUND@NMBASE@@@std@@@std@@QAE@XZ 100632a0 f i SoundManager.obj
 0001:000622f0       ??1?$_List_const_iterator@V?$_List_val@U?$_List_simple_types@UtagPLAY_DATA@CSoundMananger@SOUND@NMBASE@@@std@@@std@@@std@@QAE@XZ 100632f0 f i SoundManager.obj
 0001:00062340       ??1?$_List_iterator@V?$_List_val@U?$_List_simple_types@UtagPLAY_DATA@CSoundMananger@SOUND@NMBASE@@@std@@@std@@@std@@QAE@XZ 10063340 f i SoundManager.obj
 0001:00062390       ??1?$_List_unchecked_const_iterator@V?$_List_val@U?$_List_simple_types@UtagPLAY_DATA@CSoundMananger@SOUND@NMBASE@@@std@@@std@@U_Iterator_base12@2@@std@@QAE@XZ 10063390 f i SoundManager.obj
 0001:000623e0       ??1?$_String_const_iterator@V?$_String_val@U?$_Simple_types@D@std@@@std@@@std@@QAE@XZ 100633e0 f i SoundManager.obj
 0001:00062430       ??1?$_String_iterator@V?$_String_val@U?$_Simple_types@D@std@@@std@@@std@@QAE@XZ 10063430 f i SoundManager.obj
 0001:00062480       ??1?$_Tree@V?$_Tmap_traits@V?$basic_string@DU?$char_traits@D@std@@V?$allocator@D@2@@std@@V12@U?$less@V?$basic_string@DU?$char_traits@D@std@@V?$allocator@D@2@@std@@@2@V?$allocator@U?$pair@$$CBV?$basic_string@DU?$char_traits@D@std@@V?$allocator@D@2@@std@@V12@@std@@@2@$00@std@@@std@@QAE@XZ 10063480 f i SoundManager.obj
 0001:00062510       ??1?$_Tree_comp_alloc@V?$_Tmap_traits@V?$basic_string@DU?$char_traits@D@std@@V?$allocator@D@2@@std@@V12@U?$less@V?$basic_string@DU?$char_traits@D@std@@V?$allocator@D@2@@std@@@2@V?$allocator@U?$pair@$$CBV?$basic_string@DU?$char_traits@D@std@@V?$allocator@D@2@@std@@V12@@std@@@2@$00@std@@@std@@QAE@XZ 10063510 f i SoundManager.obj
 0001:000625b0       ??1?$_Tree_const_iterator@V?$_Tree_val@U?$_Tree_simple_types@U?$pair@$$CBV?$basic_string@DU?$char_traits@D@std@@V?$allocator@D@2@@std@@V12@@std@@@std@@@std@@@std@@QAE@XZ 100635b0 f i SoundManager.obj
 0001:00062600       ??1?$_Tree_iterator@V?$_Tree_val@U?$_Tree_simple_types@U?$pair@$$CBV?$basic_string@DU?$char_traits@D@std@@V?$allocator@D@2@@std@@V12@@std@@@std@@@std@@@std@@QAE@XZ 10063600 f i SoundManager.obj
 0001:00062650       ??1?$_Tree_unchecked_const_iterator@V?$_Tree_val@U?$_Tree_simple_types@U?$pair@$$CBV?$basic_string@DU?$char_traits@D@std@@V?$allocator@D@2@@std@@V12@@std@@@std@@@std@@U_Iterator_base12@2@@std@@QAE@XZ 10063650 f i SoundManager.obj
 0001:000626a0       ??1?$list@UtagPLAY_DATA@CSoundMananger@SOUND@NMBASE@@V?$allocator@UtagPLAY_DATA@CSoundMananger@SOUND@NMBASE@@@std@@@std@@QAE@XZ 100636a0 f i SoundManager.obj
 0001:00062730       ??1?$multimap@V?$basic_string@DU?$char_traits@D@std@@V?$allocator@D@2@@std@@V12@U?$less@V?$basic_string@DU?$char_traits@D@std@@V?$allocator@D@2@@std@@@2@V?$allocator@U?$pair@$$CBV?$basic_string@DU?$char_traits@D@std@@V?$allocator@D@2@@std@@V12@@std@@@2@@std@@QAE@XZ 10063730 f i SoundManager.obj
 0001:00062780       ??1?$pair@$$CBV?$basic_string@DU?$char_traits@D@std@@V?$allocator@D@2@@std@@V12@@std@@QAE@XZ 10063780 f i SoundManager.obj
 0001:000627e0       ??1?$pair@V?$_Tree_const_iterator@V?$_Tree_val@U?$_Tree_simple_types@U?$pair@$$CBV?$basic_string@DU?$char_traits@D@std@@V?$allocator@D@2@@std@@V12@@std@@@std@@@std@@@std@@V12@@std@@QAE@XZ 100637e0 f i SoundManager.obj
 0001:00062840       ??1?$pair@V?$_Tree_iterator@V?$_Tree_val@U?$_Tree_simple_types@U?$pair@$$CBV?$basic_string@DU?$char_traits@D@std@@V?$allocator@D@2@@std@@V12@@std@@@std@@@std@@@std@@_N@std@@QAE@XZ 10063840 f i SoundManager.obj
 0001:00062890       ??1CSoundMananger@SOUND@NMBASE@@UAE@XZ 10063890 f   SoundManager.obj
 0001:00062950       ??1tagPLAY_DATA@CSoundMananger@SOUND@NMBASE@@QAE@XZ 10063950 f i SoundManager.obj
 0001:000629a0       ??4?$_List_const_iterator@V?$_List_val@U?$_List_simple_types@UtagPLAY_DATA@CSoundMananger@SOUND@NMBASE@@@std@@@std@@@std@@QAEAAV01@$$QAV01@@Z 100639a0 f i SoundManager.obj
 0001:00062a00       ??4?$_List_unchecked_const_iterator@V?$_List_val@U?$_List_simple_types@UtagPLAY_DATA@CSoundMananger@SOUND@NMBASE@@@std@@@std@@U_Iterator_base12@2@@std@@QAEAAV01@$$QAV01@@Z 10063a00 f i SoundManager.obj
 0001:00062a70       ??4?$_Tree@V?$_Tmap_traits@V?$basic_string@DU?$char_traits@D@std@@V?$allocator@D@2@@std@@V12@U?$less@V?$basic_string@DU?$char_traits@D@std@@V?$allocator@D@2@@std@@@2@V?$allocator@U?$pair@$$CBV?$basic_string@DU?$char_traits@D@std@@V?$allocator@D@2@@std@@V12@@std@@@2@$00@std@@@std@@QAEAAV01@ABV01@@Z 10063a70 f i SoundManager.obj
 0001:00062b20       ??4?$basic_string@DU?$char_traits@D@std@@V?$allocator@D@2@@std@@QAEAAV01@$$QAV01@@Z 10063b20 f i SoundManager.obj
 0001:00062c10       ??4?$basic_string@DU?$char_traits@D@std@@V?$allocator@D@2@@std@@QAEAAV01@ABV01@@Z 10063c10 f i SoundManager.obj
 0001:00062cc0       ??4?$list@UtagPLAY_DATA@CSoundMananger@SOUND@NMBASE@@V?$allocator@UtagPLAY_DATA@CSoundMananger@SOUND@NMBASE@@@std@@@std@@QAEAAV01@ABV01@@Z 10063cc0 f i SoundManager.obj
 0001:00062d80       ??4?$multimap@V?$basic_string@DU?$char_traits@D@std@@V?$allocator@D@2@@std@@V12@U?$less@V?$basic_string@DU?$char_traits@D@std@@V?$allocator@D@2@@std@@@2@V?$allocator@U?$pair@$$CBV?$basic_string@DU?$char_traits@D@std@@V?$allocator@D@2@@std@@V12@@std@@@2@@std@@QAEAAV01@ABV01@@Z 10063d80 f i SoundManager.obj
 0001:00062de0       ??4CSoundMananger@SOUND@NMBASE@@QAEAAV012@ABV012@@Z 10063de0 f i SoundManager.obj
 0001:00062ec0       ??8?$_List_const_iterator@V?$_List_val@U?$_List_simple_types@UtagPLAY_DATA@CSoundMananger@SOUND@NMBASE@@@std@@@std@@@std@@QBE_NABV01@@Z 10063ec0 f i SoundManager.obj
 0001:00062fe0       ??8?$_List_unchecked_const_iterator@V?$_List_val@U?$_List_simple_types@UtagPLAY_DATA@CSoundMananger@SOUND@NMBASE@@@std@@@std@@U_Iterator_base0@2@@std@@QBE_NABV01@@Z 10063fe0 f i SoundManager.obj
 0001:00063050       ??8?$_Tree_const_iterator@V?$_Tree_val@U?$_Tree_simple_types@U?$pair@$$CBV?$basic_string@DU?$char_traits@D@std@@V?$allocator@D@2@@std@@V12@@std@@@std@@@std@@@std@@QBE_NABV01@@Z 10064050 f i SoundManager.obj
 0001:00063170       ??9?$_List_const_iterator@V?$_List_val@U?$_List_simple_types@UtagPLAY_DATA@CSoundMananger@SOUND@NMBASE@@@std@@@std@@@std@@QBE_NABV01@@Z 10064170 f i SoundManager.obj
 0001:00063200       ??9?$_List_unchecked_const_iterator@V?$_List_val@U?$_List_simple_types@UtagPLAY_DATA@CSoundMananger@SOUND@NMBASE@@@std@@@std@@U_Iterator_base0@2@@std@@QBE_NABV01@@Z 10064200 f i SoundManager.obj
 0001:00063290       ??9?$_Tree_const_iterator@V?$_Tree_val@U?$_Tree_simple_types@U?$pair@$$CBV?$basic_string@DU?$char_traits@D@std@@V?$allocator@D@2@@std@@V12@@std@@@std@@@std@@@std@@QBE_NABV01@@Z 10064290 f i SoundManager.obj
 0001:00063320       ??C?$_List_iterator@V?$_List_val@U?$_List_simple_types@UtagPLAY_DATA@CSoundMananger@SOUND@NMBASE@@@std@@@std@@@std@@QBEPAUtagPLAY_DATA@CSoundMananger@SOUND@NMBASE@@XZ 10064320 f i SoundManager.obj
 0001:00063380       ??C?$_Tree_iterator@V?$_Tree_val@U?$_Tree_simple_types@U?$pair@$$CBV?$basic_string@DU?$char_traits@D@std@@V?$allocator@D@2@@std@@V12@@std@@@std@@@std@@@std@@QBEPAU?$pair@$$CBV?$basic_string@DU?$char_traits@D@std@@V?$allocator@D@2@@std@@V12@@1@XZ 10064380 f i SoundManager.obj
 0001:000633e0       ??D?$_List_const_iterator@V?$_List_val@U?$_List_simple_types@UtagPLAY_DATA@CSoundMananger@SOUND@NMBASE@@@std@@@std@@@std@@QBEABUtagPLAY_DATA@CSoundMananger@SOUND@NMBASE@@XZ 100643e0 f i SoundManager.obj
 0001:00063550       ??D?$_List_iterator@V?$_List_val@U?$_List_simple_types@UtagPLAY_DATA@CSoundMananger@SOUND@NMBASE@@@std@@@std@@@std@@QBEAAUtagPLAY_DATA@CSoundMananger@SOUND@NMBASE@@XZ 10064550 f i SoundManager.obj
 0001:000635a0       ??D?$_List_unchecked_const_iterator@V?$_List_val@U?$_List_simple_types@UtagPLAY_DATA@CSoundMananger@SOUND@NMBASE@@@std@@@std@@U_Iterator_base0@2@@std@@QBEABUtagPLAY_DATA@CSoundMananger@SOUND@NMBASE@@XZ 100645a0 f i SoundManager.obj
 0001:000635e0       ??D?$_Tree_const_iterator@V?$_Tree_val@U?$_Tree_simple_types@U?$pair@$$CBV?$basic_string@DU?$char_traits@D@std@@V?$allocator@D@2@@std@@V12@@std@@@std@@@std@@@std@@QBEABU?$pair@$$CBV?$basic_string@DU?$char_traits@D@std@@V?$allocator@D@2@@std@@V12@@1@XZ 100645e0 f i SoundManager.obj
 0001:00063750       ??D?$_Tree_iterator@V?$_Tree_val@U?$_Tree_simple_types@U?$pair@$$CBV?$basic_string@DU?$char_traits@D@std@@V?$allocator@D@2@@std@@V12@@std@@@std@@@std@@@std@@QBEAAU?$pair@$$CBV?$basic_string@DU?$char_traits@D@std@@V?$allocator@D@2@@std@@V12@@1@XZ 10064750 f i SoundManager.obj
 0001:000637a0       ??E?$_List_const_iterator@V?$_List_val@U?$_List_simple_types@UtagPLAY_DATA@CSoundMananger@SOUND@NMBASE@@@std@@@std@@@std@@QAE?AV01@H@Z 100647a0 f i SoundManager.obj
 0001:000638c0       ??E?$_List_const_iterator@V?$_List_val@U?$_List_simple_types@UtagPLAY_DATA@CSoundMananger@SOUND@NMBASE@@@std@@@std@@@std@@QAEAAV01@XZ 100648c0 f i SoundManager.obj
 0001:00063a40       ??E?$_List_iterator@V?$_List_val@U?$_List_simple_types@UtagPLAY_DATA@CSoundMananger@SOUND@NMBASE@@@std@@@std@@@std@@QAEAAV01@XZ 10064a40 f i SoundManager.obj
 0001:00063aa0       ??E?$_List_unchecked_const_iterator@V?$_List_val@U?$_List_simple_types@UtagPLAY_DATA@CSoundMananger@SOUND@NMBASE@@@std@@@std@@U_Iterator_base0@2@@std@@QAEAAV01@XZ 10064aa0 f i SoundManager.obj
 0001:00063af0       ??E?$_Tree_const_iterator@V?$_Tree_val@U?$_Tree_simple_types@U?$pair@$$CBV?$basic_string@DU?$char_traits@D@std@@V?$allocator@D@2@@std@@V12@@std@@@std@@@std@@@std@@QAE?AV01@H@Z 10064af0 f i SoundManager.obj
 0001:00063c10       ??E?$_Tree_const_iterator@V?$_Tree_val@U?$_Tree_simple_types@U?$pair@$$CBV?$basic_string@DU?$char_traits@D@std@@V?$allocator@D@2@@std@@V12@@std@@@std@@@std@@@std@@QAEAAV01@XZ 10064c10 f i SoundManager.obj
 0001:00063d80       ??E?$_Tree_iterator@V?$_Tree_val@U?$_Tree_simple_types@U?$pair@$$CBV?$basic_string@DU?$char_traits@D@std@@V?$allocator@D@2@@std@@V12@@std@@@std@@@std@@@std@@QAE?AV01@H@Z 10064d80 f i SoundManager.obj
 0001:00063ea0       ??E?$_Tree_iterator@V?$_Tree_val@U?$_Tree_simple_types@U?$pair@$$CBV?$basic_string@DU?$char_traits@D@std@@V?$allocator@D@2@@std@@V12@@std@@@std@@@std@@@std@@QAEAAV01@XZ 10064ea0 f i SoundManager.obj
 0001:00063f00       ??E?$_Tree_unchecked_const_iterator@V?$_Tree_val@U?$_Tree_simple_types@U?$pair@$$CBV?$basic_string@DU?$char_traits@D@std@@V?$allocator@D@2@@std@@V12@@std@@@std@@@std@@U_Iterator_base12@2@@std@@QAEAAV01@XZ 10064f00 f i SoundManager.obj
 0001:00063fd0       ??F?$_List_const_iterator@V?$_List_val@U?$_List_simple_types@UtagPLAY_DATA@CSoundMananger@SOUND@NMBASE@@@std@@@std@@@std@@QAEAAV01@XZ 10064fd0 f i SoundManager.obj
 0001:00064150       ??F?$_List_iterator@V?$_List_val@U?$_List_simple_types@UtagPLAY_DATA@CSoundMananger@SOUND@NMBASE@@@std@@@std@@@std@@QAEAAV01@XZ 10065150 f i SoundManager.obj
 0001:000641b0       ??F?$_List_unchecked_const_iterator@V?$_List_val@U?$_List_simple_types@UtagPLAY_DATA@CSoundMananger@SOUND@NMBASE@@@std@@@std@@U_Iterator_base0@2@@std@@QAEAAV01@XZ 100651b0 f i SoundManager.obj
 0001:00064200       ??F?$_Tree_const_iterator@V?$_Tree_val@U?$_Tree_simple_types@U?$pair@$$CBV?$basic_string@DU?$char_traits@D@std@@V?$allocator@D@2@@std@@V12@@std@@@std@@@std@@@std@@QAEAAV01@XZ 10065200 f i SoundManager.obj
 0001:00064370       ??F?$_Tree_iterator@V?$_Tree_val@U?$_Tree_simple_types@U?$pair@$$CBV?$basic_string@DU?$char_traits@D@std@@V?$allocator@D@2@@std@@V12@@std@@@std@@@std@@@std@@QAEAAV01@XZ 10065370 f i SoundManager.obj
 0001:000643d0       ??F?$_Tree_unchecked_const_iterator@V?$_Tree_val@U?$_Tree_simple_types@U?$pair@$$CBV?$basic_string@DU?$char_traits@D@std@@V?$allocator@D@2@@std@@V12@@std@@@std@@@std@@U_Iterator_base12@2@@std@@QAEAAV01@XZ 100653d0 f i SoundManager.obj
 0001:000644d0       ??H?$_String_iterator@V?$_String_val@U?$_Simple_types@D@std@@@std@@@std@@QBE?AV01@H@Z 100654d0 f i SoundManager.obj
 0001:000645f0       ??R<lambda_67d87d4aa1269033985980465fd1d824>@@QBEXQADQBDI@Z 100655f0 f i SoundManager.obj
 0001:00064660       ??Y?$_String_const_iterator@V?$_String_val@U?$_Simple_types@D@std@@@std@@@std@@QAEAAV01@H@Z 10065660 f i SoundManager.obj
 0001:000646d0       ??Y?$_String_iterator@V?$_String_val@U?$_Simple_types@D@std@@@std@@@std@@QAEAAV01@H@Z 100656d0 f i SoundManager.obj
 0001:00064730       ??Y?$basic_string@DU?$char_traits@D@std@@V?$allocator@D@2@@std@@QAEAAV01@ABV01@@Z 10065730 f i SoundManager.obj
 0001:00064790       ??_ECSoundMananger@SOUND@NMBASE@@UAEPAXI@Z 10065790 f i SoundManager.obj
 0001:000648a0       ??_G?$pair@$$CBV?$basic_string@DU?$char_traits@D@std@@V?$allocator@D@2@@std@@V12@@std@@QAEPAXI@Z 100658a0 f i SoundManager.obj
 0001:00064910       ??_GCSoundMananger@SOUND@NMBASE@@UAEPAXI@Z 10065910 f i SoundManager.obj
 0001:00064990       ??_GtagPLAY_DATA@CSoundMananger@SOUND@NMBASE@@QAEPAXI@Z 10065990 f i SoundManager.obj
 0001:00064a00       ?Attach@CSoundMananger@SOUND@NMBASE@@IAE_NPAD00@Z 10065a00 f   SoundManager.obj
 0001:00064e80       ?AttachFolder@CSoundMananger@SOUND@NMBASE@@IAE_NPAD00@Z 10065e80 f   SoundManager.obj
 0001:00065150       ?Clear@CSoundMananger@SOUND@NMBASE@@IAE_NXZ 10066150 f   SoundManager.obj
 0001:000651b0       ?Destroy@CSoundMananger@SOUND@NMBASE@@QAEXXZ 100661b0 f   SoundManager.obj
 0001:00065210       ?GetState@CSoundMananger@SOUND@NMBASE@@QAEHXZ 10066210 f   SoundManager.obj
 0001:00065270       ?Initialize@CSoundMananger@SOUND@NMBASE@@QAEXPAVCWnd@@@Z 10066270 f   SoundManager.obj
 0001:000652f0       ?IsThisSameExt@CSoundMananger@SOUND@NMBASE@@IAE_NV?$basic_string@DU?$char_traits@D@std@@V?$allocator@D@2@@std@@0D@Z 100662f0 f   SoundManager.obj
 0001:00065670       ?MakeKeySet@CSoundMananger@SOUND@NMBASE@@IAE?AV?$basic_string@DU?$char_traits@D@std@@V?$allocator@D@2@@std@@V45@0@Z 10066670 f   SoundManager.obj
 0001:00065860       ?OncePlayWav@CSoundMananger@SOUND@NMBASE@@QAE_NPAD@Z 10066860 f   SoundManager.obj
 0001:000658e0       ?PlayWav@CSoundMananger@SOUND@NMBASE@@QAE_NV?$basic_string@DU?$char_traits@D@std@@V?$allocator@D@2@@std@@0@Z 100668e0 f   SoundManager.obj
 0001:00065a30       ?PlayWav@CSoundMananger@SOUND@NMBASE@@QAE_NV?$basic_string@DU?$char_traits@D@std@@V?$allocator@D@2@@std@@@Z 10066a30 f   SoundManager.obj
 0001:00066130       ?PlayWavForDelay@CSoundMananger@SOUND@NMBASE@@QAE_NV?$basic_string@DU?$char_traits@D@std@@V?$allocator@D@2@@std@@0@Z 10067130 f   SoundManager.obj
 0001:00066280       ?PlayWavForDelay@CSoundMananger@SOUND@NMBASE@@QAE_NV?$basic_string@DU?$char_traits@D@std@@V?$allocator@D@2@@std@@@Z 10067280 f   SoundManager.obj
 0001:00066450       ?ProcessPlayData@CSoundMananger@SOUND@NMBASE@@QAEXXZ 10067450 f   SoundManager.obj
 0001:00066630       ?RegistAudio@CSoundMananger@SOUND@NMBASE@@QAE_NPBDP6AXXZ@Z 10067630 f   SoundManager.obj
 0001:00066680       ?RegularCall@CSoundMananger@SOUND@NMBASE@@QAEXXZ 10067680 f   SoundManager.obj
 0001:000666e0       ?SetMusic@CSoundMananger@SOUND@NMBASE@@QAEXH@Z 100676e0 f   SoundManager.obj
 0001:00066740       ?SetSndFx@CSoundMananger@SOUND@NMBASE@@QAEXH@Z 10067740 f   SoundManager.obj
 0001:000667a0       ?SetVolumn@CSoundMananger@SOUND@NMBASE@@QAEXH@Z 100677a0 f   SoundManager.obj
 0001:00066810       ?StopAllMusic@CSoundMananger@SOUND@NMBASE@@QAEXXZ 10067810 f   SoundManager.obj
 0001:00066870       ?StopAllWav@CSoundMananger@SOUND@NMBASE@@QAEXXZ 10067870 f   SoundManager.obj
 0001:000668d0       ?StopWav@CSoundMananger@SOUND@NMBASE@@QAE_NV?$basic_string@DU?$char_traits@D@std@@V?$allocator@D@2@@std@@0@Z 100678d0 f   SoundManager.obj
 0001:00066a20       ?StopWav@CSoundMananger@SOUND@NMBASE@@QAE_NV?$basic_string@DU?$char_traits@D@std@@V?$allocator@D@2@@std@@@Z 10067a20 f   SoundManager.obj
 0001:00066ca0       ?_Alloc_proxy@?$_List_alloc@U?$_List_base_types@UtagPLAY_DATA@CSoundMananger@SOUND@NMBASE@@V?$allocator@UtagPLAY_DATA@CSoundMananger@SOUND@NMBASE@@@std@@@std@@@std@@QAEXXZ 10067ca0 f i SoundManager.obj
 0001:00066dc0       ?_Alloc_proxy@?$_Tree_comp_alloc@V?$_Tmap_traits@V?$basic_string@DU?$char_traits@D@std@@V?$allocator@D@2@@std@@V12@U?$less@V?$basic_string@DU?$char_traits@D@std@@V?$allocator@D@2@@std@@@2@V?$allocator@U?$pair@$$CBV?$basic_string@DU?$char_traits@D@std@@V?$allocator@D@2@@std@@V12@@std@@@2@$00@std@@@std@@QAEXXZ 10067dc0 f i SoundManager.obj
 0001:00066ee0       ?_Assign_rv_contents@?$basic_string@DU?$char_traits@D@std@@V?$allocator@D@2@@std@@QAEX$$QAV12@U?$integral_constant@_N$00@2@@Z 10067ee0 f i SoundManager.obj
 0001:00066f60       ?_Become_small@?$basic_string@DU?$char_traits@D@std@@V?$allocator@D@2@@std@@QAEXXZ 10067f60 f i SoundManager.obj
 0001:00067050       ?_Buyheadnode@?$_List_alloc@U?$_List_base_types@UtagPLAY_DATA@CSoundMananger@SOUND@NMBASE@@V?$allocator@UtagPLAY_DATA@CSoundMananger@SOUND@NMBASE@@@std@@@std@@@std@@QAEPAU?$_List_node@UtagPLAY_DATA@CSoundMananger@SOUND@NMBASE@@PAX@2@XZ 10068050 f i SoundManager.obj
 0001:000670b0       ?_Buyheadnode@?$_Tree_comp_alloc@V?$_Tmap_traits@V?$basic_string@DU?$char_traits@D@std@@V?$allocator@D@2@@std@@V12@U?$less@V?$basic_string@DU?$char_traits@D@std@@V?$allocator@D@2@@std@@@2@V?$allocator@U?$pair@$$CBV?$basic_string@DU?$char_traits@D@std@@V?$allocator@D@2@@std@@V12@@std@@@2@$00@std@@@std@@QAEPAU?$_Tree_node@U?$pair@$$CBV?$basic_string@DU?$char_traits@D@std@@V?$allocator@D@2@@std@@V12@@std@@PAX@2@XZ 100680b0 f i SoundManager.obj
 0001:00067260       ?_Buynode0@?$_List_alloc@U?$_List_base_types@UtagPLAY_DATA@CSoundMananger@SOUND@NMBASE@@V?$allocator@UtagPLAY_DATA@CSoundMananger@SOUND@NMBASE@@@std@@@std@@@std@@QAEPAU?$_List_node@UtagPLAY_DATA@CSoundMananger@SOUND@NMBASE@@PAX@2@PAU32@0@Z 10068260 f i SoundManager.obj
 0001:000673c0       ?_Buynode0@?$_Tree_comp_alloc@V?$_Tmap_traits@V?$basic_string@DU?$char_traits@D@std@@V?$allocator@D@2@@std@@V12@U?$less@V?$basic_string@DU?$char_traits@D@std@@V?$allocator@D@2@@std@@@2@V?$allocator@U?$pair@$$CBV?$basic_string@DU?$char_traits@D@std@@V?$allocator@D@2@@std@@V12@@std@@@2@$00@std@@@std@@QAEPAU?$_Tree_node@U?$pair@$$CBV?$basic_string@DU?$char_traits@D@std@@V?$allocator@D@2@@std@@V12@@std@@PAX@2@XZ 100683c0 f i SoundManager.obj
 0001:00067530       ?_Compare@?$_Tree@V?$_Tmap_traits@V?$basic_string@DU?$char_traits@D@std@@V?$allocator@D@2@@std@@V12@U?$less@V?$basic_string@DU?$char_traits@D@std@@V?$allocator@D@2@@std@@@2@V?$allocator@U?$pair@$$CBV?$basic_string@DU?$char_traits@D@std@@V?$allocator@D@2@@std@@V12@@std@@@2@$00@std@@@std@@IBE_NABV?$basic_string@DU?$char_traits@D@std@@V?$allocator@D@2@@2@0@Z 10068530 f i SoundManager.obj
 0001:000675a0       ?_Construct@?$_Tree_comp_alloc@V?$_Tmap_traits@V?$basic_string@DU?$char_traits@D@std@@V?$allocator@D@2@@std@@V12@U?$less@V?$basic_string@DU?$char_traits@D@std@@V?$allocator@D@2@@std@@@2@V?$allocator@U?$pair@$$CBV?$basic_string@DU?$char_traits@D@std@@V?$allocator@D@2@@std@@V12@@std@@@2@$00@std@@@std@@QAEXXZ 100685a0 f i SoundManager.obj
 0001:00067690       ?_Construct@?$basic_string@DU?$char_traits@D@std@@V?$allocator@D@2@@std@@QAEXQAD0Urandom_access_iterator_tag@2@@Z 10068690 f i SoundManager.obj
 0001:00067710       ?_Copy_alloc@?$_List_alloc@U?$_List_base_types@UtagPLAY_DATA@CSoundMananger@SOUND@NMBASE@@V?$allocator@UtagPLAY_DATA@CSoundMananger@SOUND@NMBASE@@@std@@@std@@@std@@QAEXABV?$allocator@U?$_List_node@UtagPLAY_DATA@CSoundMananger@SOUND@NMBASE@@PAX@std@@@2@@Z 10068710 f i SoundManager.obj
 0001:000677d0       ?_Copy_alloc@?$_String_alloc@U?$_String_base_types@DV?$allocator@D@std@@@std@@@std@@QAEXABV?$allocator@D@2@@Z 100687d0 f i SoundManager.obj
 0001:00067860       ?_Copy_alloc@?$_Tree_comp_alloc@V?$_Tmap_traits@V?$basic_string@DU?$char_traits@D@std@@V?$allocator@D@2@@std@@V12@U?$less@V?$basic_string@DU?$char_traits@D@std@@V?$allocator@D@2@@std@@@2@V?$allocator@U?$pair@$$CBV?$basic_string@DU?$char_traits@D@std@@V?$allocator@D@2@@std@@V12@@std@@@2@$00@std@@@std@@QAEXABV?$allocator@U?$_Tree_node@U?$pair@$$CBV?$basic_string@DU?$char_traits@D@std@@V?$allocator@D@2@@std@@V12@@std@@PAX@std@@@2@@Z 10068860 f i SoundManager.obj
 0001:00067920       ?_Destroy_if_node@?$_Tree@V?$_Tmap_traits@V?$basic_string@DU?$char_traits@D@std@@V?$allocator@D@2@@std@@V12@U?$less@V?$basic_string@DU?$char_traits@D@std@@V?$allocator@D@2@@std@@@2@V?$allocator@U?$pair@$$CBV?$basic_string@DU?$char_traits@D@std@@V?$allocator@D@2@@std@@V12@@std@@@2@$00@std@@@std@@IAEXU_Not_a_node_tag@2@@Z 10068920 f i SoundManager.obj
 0001:00067960       ?_Erase@?$_Tree@V?$_Tmap_traits@V?$basic_string@DU?$char_traits@D@std@@V?$allocator@D@2@@std@@V12@U?$less@V?$basic_string@DU?$char_traits@D@std@@V?$allocator@D@2@@std@@@2@V?$allocator@U?$pair@$$CBV?$basic_string@DU?$char_traits@D@std@@V?$allocator@D@2@@std@@V12@@std@@@2@$00@std@@@std@@IAEXPAU?$_Tree_node@U?$pair@$$CBV?$basic_string@DU?$char_traits@D@std@@V?$allocator@D@2@@std@@V12@@std@@PAX@2@@Z 10068960 f i SoundManager.obj
 0001:00067a30       ?_Extract@?$_Tree_val@U?$_Tree_simple_types@U?$pair@$$CBV?$basic_string@DU?$char_traits@D@std@@V?$allocator@D@2@@std@@V12@@std@@@std@@@std@@QAEPAU?$_Tree_node@U?$pair@$$CBV?$basic_string@DU?$char_traits@D@std@@V?$allocator@D@2@@std@@V12@@std@@PAX@2@V?$_Tree_const_iterator@V?$_Tree_val@U?$_Tree_simple_types@U?$pair@$$CBV?$basic_string@DU?$char_traits@D@std@@V?$allocator@D@2@@std@@V12@@std@@@std@@@std@@@2@@Z 10068a30 f i SoundManager.obj
 0001:000680c0       ?_Free_proxy@?$_List_alloc@U?$_List_base_types@UtagPLAY_DATA@CSoundMananger@SOUND@NMBASE@@V?$allocator@UtagPLAY_DATA@CSoundMananger@SOUND@NMBASE@@@std@@@std@@@std@@QAEXXZ 100690c0 f i SoundManager.obj
 0001:000681c0       ?_Free_proxy@?$_Tree_comp_alloc@V?$_Tmap_traits@V?$basic_string@DU?$char_traits@D@std@@V?$allocator@D@2@@std@@V12@U?$less@V?$basic_string@DU?$char_traits@D@std@@V?$allocator@D@2@@std@@@2@V?$allocator@U?$pair@$$CBV?$basic_string@DU?$char_traits@D@std@@V?$allocator@D@2@@std@@V12@@std@@@2@$00@std@@@std@@QAEXXZ 100691c0 f i SoundManager.obj
 0001:000682c0       ?_Freeheadnode@?$_List_alloc@U?$_List_base_types@UtagPLAY_DATA@CSoundMananger@SOUND@NMBASE@@V?$allocator@UtagPLAY_DATA@CSoundMananger@SOUND@NMBASE@@@std@@@std@@@std@@QAEXPAU?$_List_node@UtagPLAY_DATA@CSoundMananger@SOUND@NMBASE@@PAX@2@@Z 100692c0 f i SoundManager.obj
 0001:00068330       ?_Freeheadnode@?$_Tree_comp_alloc@V?$_Tmap_traits@V?$basic_string@DU?$char_traits@D@std@@V?$allocator@D@2@@std@@V12@U?$less@V?$basic_string@DU?$char_traits@D@std@@V?$allocator@D@2@@std@@@2@V?$allocator@U?$pair@$$CBV?$basic_string@DU?$char_traits@D@std@@V?$allocator@D@2@@std@@V12@@std@@@2@$00@std@@@std@@QAEXPAU?$_Tree_node@U?$pair@$$CBV?$basic_string@DU?$char_traits@D@std@@V?$allocator@D@2@@std@@V12@@std@@PAX@2@@Z 10069330 f i SoundManager.obj
 0001:000683a0       ?_Freenode0@?$_Tree_comp_alloc@V?$_Tmap_traits@V?$basic_string@DU?$char_traits@D@std@@V?$allocator@D@2@@std@@V12@U?$less@V?$basic_string@DU?$char_traits@D@std@@V?$allocator@D@2@@std@@@2@V?$allocator@U?$pair@$$CBV?$basic_string@DU?$char_traits@D@std@@V?$allocator@D@2@@std@@V12@@std@@@2@$00@std@@@std@@QAEXPAU?$_Tree_node@U?$pair@$$CBV?$basic_string@DU?$char_traits@D@std@@V?$allocator@D@2@@std@@V12@@std@@PAX@2@@Z 100693a0 f i SoundManager.obj
 0001:00068410       ?_Freenode@?$_List_buy@UtagPLAY_DATA@CSoundMananger@SOUND@NMBASE@@V?$allocator@UtagPLAY_DATA@CSoundMananger@SOUND@NMBASE@@@std@@@std@@QAEXPAU?$_List_node@UtagPLAY_DATA@CSoundMananger@SOUND@NMBASE@@PAX@2@@Z 10069410 f i SoundManager.obj
 0001:000684a0       ?_Get_data@?$_List_alloc@U?$_List_base_types@UtagPLAY_DATA@CSoundMananger@SOUND@NMBASE@@V?$allocator@UtagPLAY_DATA@CSoundMananger@SOUND@NMBASE@@@std@@@std@@@std@@QAEAAV?$_List_val@U?$_List_simple_types@UtagPLAY_DATA@CSoundMananger@SOUND@NMBASE@@@std@@@2@XZ 100694a0 f i SoundManager.obj
 0001:000684f0       ?_Get_data@?$_List_alloc@U?$_List_base_types@UtagPLAY_DATA@CSoundMananger@SOUND@NMBASE@@V?$allocator@UtagPLAY_DATA@CSoundMananger@SOUND@NMBASE@@@std@@@std@@@std@@QBEABV?$_List_val@U?$_List_simple_types@UtagPLAY_DATA@CSoundMananger@SOUND@NMBASE@@@std@@@2@XZ 100694f0 f i SoundManager.obj
 0001:00068540       ?_Get_data@?$_Tree_comp_alloc@V?$_Tmap_traits@V?$basic_string@DU?$char_traits@D@std@@V?$allocator@D@2@@std@@V12@U?$less@V?$basic_string@DU?$char_traits@D@std@@V?$allocator@D@2@@std@@@2@V?$allocator@U?$pair@$$CBV?$basic_string@DU?$char_traits@D@std@@V?$allocator@D@2@@std@@V12@@std@@@2@$00@std@@@std@@QAEAAV?$_Tree_val@U?$_Tree_simple_types@U?$pair@$$CBV?$basic_string@DU?$char_traits@D@std@@V?$allocator@D@2@@std@@V12@@std@@@std@@@2@XZ 10069540 f i SoundManager.obj
 0001:000685a0       ?_Get_data@?$_Tree_comp_alloc@V?$_Tmap_traits@V?$basic_string@DU?$char_traits@D@std@@V?$allocator@D@2@@std@@V12@U?$less@V?$basic_string@DU?$char_traits@D@std@@V?$allocator@D@2@@std@@@2@V?$allocator@U?$pair@$$CBV?$basic_string@DU?$char_traits@D@std@@V?$allocator@D@2@@std@@V12@@std@@@2@$00@std@@@std@@QBEABV?$_Tree_val@U?$_Tree_simple_types@U?$pair@$$CBV?$basic_string@DU?$char_traits@D@std@@V?$allocator@D@2@@std@@V12@@std@@@std@@@2@XZ 100695a0 f i SoundManager.obj
 0001:00068600       ?_Get_first@?$_Compressed_pair@U?$less@V?$basic_string@DU?$char_traits@D@std@@V?$allocator@D@2@@std@@@std@@V?$_Compressed_pair@V?$allocator@U?$_Tree_node@U?$pair@$$CBV?$basic_string@DU?$char_traits@D@std@@V?$allocator@D@2@@std@@V12@@std@@PAX@std@@@std@@V?$_Tree_val@U?$_Tree_simple_types@U?$pair@$$CBV?$basic_string@DU?$char_traits@D@std@@V?$allocator@D@2@@std@@V12@@std@@@std@@@2@$00@2@$00@std@@QAEAAU?$less@V?$basic_string@DU?$char_traits@D@std@@V?$allocator@D@2@@std@@@2@XZ 10069600 f i SoundManager.obj
 0001:00068640       ?_Get_first@?$_Compressed_pair@U?$less@V?$basic_string@DU?$char_traits@D@std@@V?$allocator@D@2@@std@@@std@@V?$_Compressed_pair@V?$allocator@U?$_Tree_node@U?$pair@$$CBV?$basic_string@DU?$char_traits@D@std@@V?$allocator@D@2@@std@@V12@@std@@PAX@std@@@std@@V?$_Tree_val@U?$_Tree_simple_types@U?$pair@$$CBV?$basic_string@DU?$char_traits@D@std@@V?$allocator@D@2@@std@@V12@@std@@@std@@@2@$00@2@$00@std@@QBEABU?$less@V?$basic_string@DU?$char_traits@D@std@@V?$allocator@D@2@@std@@@2@XZ 10069640 f i SoundManager.obj
 0001:00068680       ?_Get_first@?$_Compressed_pair@V?$allocator@U?$_List_node@UtagPLAY_DATA@CSoundMananger@SOUND@NMBASE@@PAX@std@@@std@@V?$_List_val@U?$_List_simple_types@UtagPLAY_DATA@CSoundMananger@SOUND@NMBASE@@@std@@@2@$00@std@@QAEAAV?$allocator@U?$_List_node@UtagPLAY_DATA@CSoundMananger@SOUND@NMBASE@@PAX@std@@@2@XZ 10069680 f i SoundManager.obj
 0001:000686c0       ?_Get_first@?$_Compressed_pair@V?$allocator@U?$_List_node@UtagPLAY_DATA@CSoundMananger@SOUND@NMBASE@@PAX@std@@@std@@V?$_List_val@U?$_List_simple_types@UtagPLAY_DATA@CSoundMananger@SOUND@NMBASE@@@std@@@2@$00@std@@QBEABV?$allocator@U?$_List_node@UtagPLAY_DATA@CSoundMananger@SOUND@NMBASE@@PAX@std@@@2@XZ 100696c0 f i SoundManager.obj
 0001:00068700       ?_Get_first@?$_Compressed_pair@V?$allocator@U?$_Tree_node@U?$pair@$$CBV?$basic_string@DU?$char_traits@D@std@@V?$allocator@D@2@@std@@V12@@std@@PAX@std@@@std@@V?$_Tree_val@U?$_Tree_simple_types@U?$pair@$$CBV?$basic_string@DU?$char_traits@D@std@@V?$allocator@D@2@@std@@V12@@std@@@std@@@2@$00@std@@QAEAAV?$allocator@U?$_Tree_node@U?$pair@$$CBV?$basic_string@DU?$char_traits@D@std@@V?$allocator@D@2@@std@@V12@@std@@PAX@std@@@2@XZ 10069700 f i SoundManager.obj
 0001:00068740       ?_Get_first@?$_Compressed_pair@V?$allocator@U?$_Tree_node@U?$pair@$$CBV?$basic_string@DU?$char_traits@D@std@@V?$allocator@D@2@@std@@V12@@std@@PAX@std@@@std@@V?$_Tree_val@U?$_Tree_simple_types@U?$pair@$$CBV?$basic_string@DU?$char_traits@D@std@@V?$allocator@D@2@@std@@V12@@std@@@std@@@2@$00@std@@QBEABV?$allocator@U?$_Tree_node@U?$pair@$$CBV?$basic_string@DU?$char_traits@D@std@@V?$allocator@D@2@@std@@V12@@std@@PAX@std@@@2@XZ 10069740 f i SoundManager.obj
 0001:00068780       ?_Get_second@?$_Compressed_pair@U?$less@V?$basic_string@DU?$char_traits@D@std@@V?$allocator@D@2@@std@@@std@@V?$_Compressed_pair@V?$allocator@U?$_Tree_node@U?$pair@$$CBV?$basic_string@DU?$char_traits@D@std@@V?$allocator@D@2@@std@@V12@@std@@PAX@std@@@std@@V?$_Tree_val@U?$_Tree_simple_types@U?$pair@$$CBV?$basic_string@DU?$char_traits@D@std@@V?$allocator@D@2@@std@@V12@@std@@@std@@@2@$00@2@$00@std@@QAEAAV?$_Compressed_pair@V?$allocator@U?$_Tree_node@U?$pair@$$CBV?$basic_string@DU?$char_traits@D@std@@V?$allocator@D@2@@std@@V12@@std@@PAX@std@@@std@@V?$_Tree_val@U?$_Tree_simple_types@U?$pair@$$CBV?$basic_string@DU?$char_traits@D@std@@V?$allocator@D@2@@std@@V12@@std@@@std@@@2@$00@2@XZ 10069780 f i SoundManager.obj
 0001:000687c0       ?_Get_second@?$_Compressed_pair@U?$less@V?$basic_string@DU?$char_traits@D@std@@V?$allocator@D@2@@std@@@std@@V?$_Compressed_pair@V?$allocator@U?$_Tree_node@U?$pair@$$CBV?$basic_string@DU?$char_traits@D@std@@V?$allocator@D@2@@std@@V12@@std@@PAX@std@@@std@@V?$_Tree_val@U?$_Tree_simple_types@U?$pair@$$CBV?$basic_string@DU?$char_traits@D@std@@V?$allocator@D@2@@std@@V12@@std@@@std@@@2@$00@2@$00@std@@QBEABV?$_Compressed_pair@V?$allocator@U?$_Tree_node@U?$pair@$$CBV?$basic_string@DU?$char_traits@D@std@@V?$allocator@D@2@@std@@V12@@std@@PAX@std@@@std@@V?$_Tree_val@U?$_Tree_simple_types@U?$pair@$$CBV?$basic_string@DU?$char_traits@D@std@@V?$allocator@D@2@@std@@V12@@std@@@std@@@2@$00@2@XZ 100697c0 f i SoundManager.obj
 0001:00068800       ?_Get_second@?$_Compressed_pair@V?$allocator@U?$_List_node@UtagPLAY_DATA@CSoundMananger@SOUND@NMBASE@@PAX@std@@@std@@V?$_List_val@U?$_List_simple_types@UtagPLAY_DATA@CSoundMananger@SOUND@NMBASE@@@std@@@2@$00@std@@QAEAAV?$_List_val@U?$_List_simple_types@UtagPLAY_DATA@CSoundMananger@SOUND@NMBASE@@@std@@@2@XZ 10069800 f i SoundManager.obj
 0001:00068840       ?_Get_second@?$_Compressed_pair@V?$allocator@U?$_List_node@UtagPLAY_DATA@CSoundMananger@SOUND@NMBASE@@PAX@std@@@std@@V?$_List_val@U?$_List_simple_types@UtagPLAY_DATA@CSoundMananger@SOUND@NMBASE@@@std@@@2@$00@std@@QBEABV?$_List_val@U?$_List_simple_types@UtagPLAY_DATA@CSoundMananger@SOUND@NMBASE@@@std@@@2@XZ 10069840 f i SoundManager.obj
 0001:00068880       ?_Get_second@?$_Compressed_pair@V?$allocator@U?$_Tree_node@U?$pair@$$CBV?$basic_string@DU?$char_traits@D@std@@V?$allocator@D@2@@std@@V12@@std@@PAX@std@@@std@@V?$_Tree_val@U?$_Tree_simple_types@U?$pair@$$CBV?$basic_string@DU?$char_traits@D@std@@V?$allocator@D@2@@std@@V12@@std@@@std@@@2@$00@std@@QAEAAV?$_Tree_val@U?$_Tree_simple_types@U?$pair@$$CBV?$basic_string@DU?$char_traits@D@std@@V?$allocator@D@2@@std@@V12@@std@@@std@@@2@XZ 10069880 f i SoundManager.obj
 0001:000688c0       ?_Get_second@?$_Compressed_pair@V?$allocator@U?$_Tree_node@U?$pair@$$CBV?$basic_string@DU?$char_traits@D@std@@V?$allocator@D@2@@std@@V12@@std@@PAX@std@@@std@@V?$_Tree_val@U?$_Tree_simple_types@U?$pair@$$CBV?$basic_string@DU?$char_traits@D@std@@V?$allocator@D@2@@std@@V12@@std@@@std@@@2@$00@std@@QBEABV?$_Tree_val@U?$_Tree_simple_types@U?$pair@$$CBV?$basic_string@DU?$char_traits@D@std@@V?$allocator@D@2@@std@@V12@@std@@@std@@@2@XZ 100698c0 f i SoundManager.obj
 0001:00068900       ?_Getal@?$_List_alloc@U?$_List_base_types@UtagPLAY_DATA@CSoundMananger@SOUND@NMBASE@@V?$allocator@UtagPLAY_DATA@CSoundMananger@SOUND@NMBASE@@@std@@@std@@@std@@QAEAAV?$allocator@U?$_List_node@UtagPLAY_DATA@CSoundMananger@SOUND@NMBASE@@PAX@std@@@2@XZ 10069900 f i SoundManager.obj
 0001:00068950       ?_Getal@?$_List_alloc@U?$_List_base_types@UtagPLAY_DATA@CSoundMananger@SOUND@NMBASE@@V?$allocator@UtagPLAY_DATA@CSoundMananger@SOUND@NMBASE@@@std@@@std@@@std@@QBEABV?$allocator@U?$_List_node@UtagPLAY_DATA@CSoundMananger@SOUND@NMBASE@@PAX@std@@@2@XZ 10069950 f i SoundManager.obj
 0001:000689a0       ?_Getal@?$_Tree_comp_alloc@V?$_Tmap_traits@V?$basic_string@DU?$char_traits@D@std@@V?$allocator@D@2@@std@@V12@U?$less@V?$basic_string@DU?$char_traits@D@std@@V?$allocator@D@2@@std@@@2@V?$allocator@U?$pair@$$CBV?$basic_string@DU?$char_traits@D@std@@V?$allocator@D@2@@std@@V12@@std@@@2@$00@std@@@std@@QAEAAV?$allocator@U?$_Tree_node@U?$pair@$$CBV?$basic_string@DU?$char_traits@D@std@@V?$allocator@D@2@@std@@V12@@std@@PAX@std@@@2@XZ 100699a0 f i SoundManager.obj
 0001:00068a00       ?_Getal@?$_Tree_comp_alloc@V?$_Tmap_traits@V?$basic_string@DU?$char_traits@D@std@@V?$allocator@D@2@@std@@V12@U?$less@V?$basic_string@DU?$char_traits@D@std@@V?$allocator@D@2@@std@@@2@V?$allocator@U?$pair@$$CBV?$basic_string@DU?$char_traits@D@std@@V?$allocator@D@2@@std@@V12@@std@@@2@$00@std@@@std@@QBEABV?$allocator@U?$_Tree_node@U?$pair@$$CBV?$basic_string@DU?$char_traits@D@std@@V?$allocator@D@2@@std@@V12@@std@@PAX@std@@@2@XZ 10069a00 f i SoundManager.obj
 0001:00068a60       ?_Getcomp@?$_Tree_comp_alloc@V?$_Tmap_traits@V?$basic_string@DU?$char_traits@D@std@@V?$allocator@D@2@@std@@V12@U?$less@V?$basic_string@DU?$char_traits@D@std@@V?$allocator@D@2@@std@@@2@V?$allocator@U?$pair@$$CBV?$basic_string@DU?$char_traits@D@std@@V?$allocator@D@2@@std@@V12@@std@@@2@$00@std@@@std@@QAEAAU?$less@V?$basic_string@DU?$char_traits@D@std@@V?$allocator@D@2@@std@@@2@XZ 10069a60 f i SoundManager.obj
 0001:00068ab0       ?_Getcomp@?$_Tree_comp_alloc@V?$_Tmap_traits@V?$basic_string@DU?$char_traits@D@std@@V?$allocator@D@2@@std@@V12@U?$less@V?$basic_string@DU?$char_traits@D@std@@V?$allocator@D@2@@std@@@2@V?$allocator@U?$pair@$$CBV?$basic_string@DU?$char_traits@D@std@@V?$allocator@D@2@@std@@V12@@std@@@2@$00@std@@@std@@QBEABU?$less@V?$basic_string@DU?$char_traits@D@std@@V?$allocator@D@2@@std@@@2@XZ 10069ab0 f i SoundManager.obj
 0001:00068b00       ?_Getpfirst@?$_List_alloc@U?$_List_base_types@UtagPLAY_DATA@CSoundMananger@SOUND@NMBASE@@V?$allocator@UtagPLAY_DATA@CSoundMananger@SOUND@NMBASE@@@std@@@std@@@std@@QBEPAPAU_Iterator_base12@2@XZ 10069b00 f i SoundManager.obj
 0001:00068b60       ?_Getpfirst@?$_Tree_comp_alloc@V?$_Tmap_traits@V?$basic_string@DU?$char_traits@D@std@@V?$allocator@D@2@@std@@V12@U?$less@V?$basic_string@DU?$char_traits@D@std@@V?$allocator@D@2@@std@@@2@V?$allocator@U?$pair@$$CBV?$basic_string@DU?$char_traits@D@std@@V?$allocator@D@2@@std@@V12@@std@@@2@$00@std@@@std@@QBEPAPAU_Iterator_base12@2@XZ 10069b60 f i SoundManager.obj
 0001:00068bc0       ?_Incsize@?$list@UtagPLAY_DATA@CSoundMananger@SOUND@NMBASE@@V?$allocator@UtagPLAY_DATA@CSoundMananger@SOUND@NMBASE@@@std@@@std@@QAEXI@Z 10069bc0 f i SoundManager.obj
 0001:00068c60       ?_Key@?$_Tree@V?$_Tmap_traits@V?$basic_string@DU?$char_traits@D@std@@V?$allocator@D@2@@std@@V12@U?$less@V?$basic_string@DU?$char_traits@D@std@@V?$allocator@D@2@@std@@@2@V?$allocator@U?$pair@$$CBV?$basic_string@DU?$char_traits@D@std@@V?$allocator@D@2@@std@@V12@@std@@@2@$00@std@@@std@@IBEABV?$basic_string@DU?$char_traits@D@std@@V?$allocator@D@2@@2@PAU?$_Tree_node@U?$pair@$$CBV?$basic_string@DU?$char_traits@D@std@@V?$allocator@D@2@@std@@V12@@std@@PAX@2@@Z 10069c60 f i SoundManager.obj
 0001:00068cc0       ?_Kfn@?$_Tree@V?$_Tmap_traits@V?$basic_string@DU?$char_traits@D@std@@V?$allocator@D@2@@std@@V12@U?$less@V?$basic_string@DU?$char_traits@D@std@@V?$allocator@D@2@@std@@@2@V?$allocator@U?$pair@$$CBV?$basic_string@DU?$char_traits@D@std@@V?$allocator@D@2@@std@@V12@@std@@@2@$00@std@@@std@@IBEABV?$basic_string@DU?$char_traits@D@std@@V?$allocator@D@2@@2@ABU?$pair@$$CBV?$basic_string@DU?$char_traits@D@std@@V?$allocator@D@2@@std@@V12@@2@@Z 10069cc0 f i SoundManager.obj
 0001:00068d20       ?_Lmost@?$_Tree_val@U?$_Tree_simple_types@U?$pair@$$CBV?$basic_string@DU?$char_traits@D@std@@V?$allocator@D@2@@std@@V12@@std@@@std@@@std@@QBEAAPAU?$_Tree_node@U?$pair@$$CBV?$basic_string@DU?$char_traits@D@std@@V?$allocator@D@2@@std@@V12@@std@@PAX@2@XZ 10069d20 f i SoundManager.obj
 0001:00068d60       ?_Lrotate@?$_Tree_val@U?$_Tree_simple_types@U?$pair@$$CBV?$basic_string@DU?$char_traits@D@std@@V?$allocator@D@2@@std@@V12@@std@@@std@@@std@@QAEXPAU?$_Tree_node@U?$pair@$$CBV?$basic_string@DU?$char_traits@D@std@@V?$allocator@D@2@@std@@V12@@std@@PAX@2@@Z 10069d60 f i SoundManager.obj
 0001:00068e50       ?_Make_iter@?$list@UtagPLAY_DATA@CSoundMananger@SOUND@NMBASE@@V?$allocator@UtagPLAY_DATA@CSoundMananger@SOUND@NMBASE@@@std@@@std@@QBE?AV?$_List_iterator@V?$_List_val@U?$_List_simple_types@UtagPLAY_DATA@CSoundMananger@SOUND@NMBASE@@@std@@@std@@@2@V?$_List_const_iterator@V?$_List_val@U?$_List_simple_types@UtagPLAY_DATA@CSoundMananger@SOUND@NMBASE@@@std@@@std@@@2@@Z 10069e50 f i SoundManager.obj
 0001:00068f00       ?_Max@?$_Tree_val@U?$_Tree_simple_types@U?$pair@$$CBV?$basic_string@DU?$char_traits@D@std@@V?$allocator@D@2@@std@@V12@@std@@@std@@@std@@SAPAU?$_Tree_node@U?$pair@$$CBV?$basic_string@DU?$char_traits@D@std@@V?$allocator@D@2@@std@@V12@@std@@PAX@2@PAU32@@Z 10069f00 f i SoundManager.obj
 0001:00068f60       ?_Min@?$_Tree_val@U?$_Tree_simple_types@U?$pair@$$CBV?$basic_string@DU?$char_traits@D@std@@V?$allocator@D@2@@std@@V12@@std@@@std@@@std@@SAPAU?$_Tree_node@U?$pair@$$CBV?$basic_string@DU?$char_traits@D@std@@V?$allocator@D@2@@std@@V12@@std@@PAX@2@PAU32@@Z 10069f60 f i SoundManager.obj
 0001:00068fb0       ?_Move_alloc@?$_String_alloc@U?$_String_base_types@DV?$allocator@D@std@@@std@@@std@@QAEXAAV?$allocator@D@2@@Z 10069fb0 f i SoundManager.obj
 0001:00069090       ?_Myhead@?$_List_alloc@U?$_List_base_types@UtagPLAY_DATA@CSoundMananger@SOUND@NMBASE@@V?$allocator@UtagPLAY_DATA@CSoundMananger@SOUND@NMBASE@@@std@@@std@@@std@@QAEAAPAU?$_List_node@UtagPLAY_DATA@CSoundMananger@SOUND@NMBASE@@PAX@2@XZ 1006a090 f i SoundManager.obj
 0001:000690f0       ?_Myhead@?$_List_alloc@U?$_List_base_types@UtagPLAY_DATA@CSoundMananger@SOUND@NMBASE@@V?$allocator@UtagPLAY_DATA@CSoundMananger@SOUND@NMBASE@@@std@@@std@@@std@@QBEABQAU?$_List_node@UtagPLAY_DATA@CSoundMananger@SOUND@NMBASE@@PAX@2@XZ 1006a0f0 f i SoundManager.obj
 0001:00069150       ?_Myproxy@?$_List_alloc@U?$_List_base_types@UtagPLAY_DATA@CSoundMananger@SOUND@NMBASE@@V?$allocator@UtagPLAY_DATA@CSoundMananger@SOUND@NMBASE@@@std@@@std@@@std@@QAEAAPAU_Container_proxy@2@XZ 1006a150 f i SoundManager.obj
 0001:000691a0       ?_Myproxy@?$_Tree_comp_alloc@V?$_Tmap_traits@V?$basic_string@DU?$char_traits@D@std@@V?$allocator@D@2@@std@@V12@U?$less@V?$basic_string@DU?$char_traits@D@std@@V?$allocator@D@2@@std@@@2@V?$allocator@U?$pair@$$CBV?$basic_string@DU?$char_traits@D@std@@V?$allocator@D@2@@std@@V12@@std@@@2@$00@std@@@std@@QAEAAPAU_Container_proxy@2@XZ 1006a1a0 f i SoundManager.obj
 0001:000691f0       ?_Mysize@?$_List_alloc@U?$_List_base_types@UtagPLAY_DATA@CSoundMananger@SOUND@NMBASE@@V?$allocator@UtagPLAY_DATA@CSoundMananger@SOUND@NMBASE@@@std@@@std@@@std@@QAEAAIXZ 1006a1f0 f i SoundManager.obj
 0001:00069250       ?_Mysize@?$_List_alloc@U?$_List_base_types@UtagPLAY_DATA@CSoundMananger@SOUND@NMBASE@@V?$allocator@UtagPLAY_DATA@CSoundMananger@SOUND@NMBASE@@@std@@@std@@@std@@QBEABIXZ 1006a250 f i SoundManager.obj
 0001:000692b0       ?_Orphan_all@?$_List_alloc@U?$_List_base_types@UtagPLAY_DATA@CSoundMananger@SOUND@NMBASE@@V?$allocator@UtagPLAY_DATA@CSoundMananger@SOUND@NMBASE@@@std@@@std@@@std@@QAEXXZ 1006a2b0 f i SoundManager.obj
 0001:00069310       ?_Orphan_all@?$_Tree_comp_alloc@V?$_Tmap_traits@V?$basic_string@DU?$char_traits@D@std@@V?$allocator@D@2@@std@@V12@U?$less@V?$basic_string@DU?$char_traits@D@std@@V?$allocator@D@2@@std@@@2@V?$allocator@U?$pair@$$CBV?$basic_string@DU?$char_traits@D@std@@V?$allocator@D@2@@std@@V12@@std@@@2@$00@std@@@std@@QAEXXZ 1006a310 f i SoundManager.obj
 0001:00069370       ?_Orphan_ptr@?$_Tree@V?$_Tmap_traits@V?$basic_string@DU?$char_traits@D@std@@V?$allocator@D@2@@std@@V12@U?$less@V?$basic_string@DU?$char_traits@D@std@@V?$allocator@D@2@@std@@@2@V?$allocator@U?$pair@$$CBV?$basic_string@DU?$char_traits@D@std@@V?$allocator@D@2@@std@@V12@@std@@@2@$00@std@@@std@@IAEXPAU?$_Tree_node@U?$pair@$$CBV?$basic_string@DU?$char_traits@D@std@@V?$allocator@D@2@@std@@V12@@std@@PAX@2@@Z 1006a370 f i SoundManager.obj
 0001:000694f0       ?_Orphan_ptr@?$list@UtagPLAY_DATA@CSoundMananger@SOUND@NMBASE@@V?$allocator@UtagPLAY_DATA@CSoundMananger@SOUND@NMBASE@@@std@@@std@@QAEXPAU?$_List_node@UtagPLAY_DATA@CSoundMananger@SOUND@NMBASE@@PAX@2@@Z 1006a4f0 f i SoundManager.obj
 0001:00069670       ?_Rmost@?$_Tree_val@U?$_Tree_simple_types@U?$pair@$$CBV?$basic_string@DU?$char_traits@D@std@@V?$allocator@D@2@@std@@V12@@std@@@std@@@std@@QBEAAPAU?$_Tree_node@U?$pair@$$CBV?$basic_string@DU?$char_traits@D@std@@V?$allocator@D@2@@std@@V12@@std@@PAX@2@XZ 1006a670 f i SoundManager.obj
 0001:000696b0       ?_Root@?$_Tree_val@U?$_Tree_simple_types@U?$pair@$$CBV?$basic_string@DU?$char_traits@D@std@@V?$allocator@D@2@@std@@V12@@std@@@std@@@std@@QBEAAPAU?$_Tree_node@U?$pair@$$CBV?$basic_string@DU?$char_traits@D@std@@V?$allocator@D@2@@std@@V12@@std@@PAX@2@XZ 1006a6b0 f i SoundManager.obj
 0001:000696f0       ?_Rrotate@?$_Tree_val@U?$_Tree_simple_types@U?$pair@$$CBV?$basic_string@DU?$char_traits@D@std@@V?$allocator@D@2@@std@@V12@@std@@@std@@@std@@QAEXPAU?$_Tree_node@U?$pair@$$CBV?$basic_string@DU?$char_traits@D@std@@V?$allocator@D@2@@std@@V12@@std@@PAX@2@@Z 1006a6f0 f i SoundManager.obj
 0001:000697e0       ?_Tidy@?$_Tree@V?$_Tmap_traits@V?$basic_string@DU?$char_traits@D@std@@V?$allocator@D@2@@std@@V12@U?$less@V?$basic_string@DU?$char_traits@D@std@@V?$allocator@D@2@@std@@@2@V?$allocator@U?$pair@$$CBV?$basic_string@DU?$char_traits@D@std@@V?$allocator@D@2@@std@@V12@@std@@@2@$00@std@@@std@@IAEXXZ 1006a7e0 f i SoundManager.obj
 0001:00069950       ?_Tidy@?$list@UtagPLAY_DATA@CSoundMananger@SOUND@NMBASE@@V?$allocator@UtagPLAY_DATA@CSoundMananger@SOUND@NMBASE@@@std@@@std@@QAEXXZ 1006a950 f i SoundManager.obj
 0001:000699a0       ?_Unchecked_end@?$list@UtagPLAY_DATA@CSoundMananger@SOUND@NMBASE@@V?$allocator@UtagPLAY_DATA@CSoundMananger@SOUND@NMBASE@@@std@@@std@@QAE?AV?$_List_unchecked_iterator@V?$_List_val@U?$_List_simple_types@UtagPLAY_DATA@CSoundMananger@SOUND@NMBASE@@@std@@@std@@@2@XZ 1006a9a0 f i SoundManager.obj
 0001:00069a10       ?_Unchecked_erase@?$list@UtagPLAY_DATA@CSoundMananger@SOUND@NMBASE@@V?$allocator@UtagPLAY_DATA@CSoundMananger@SOUND@NMBASE@@@std@@@std@@QAEXV?$_List_unchecked_const_iterator@V?$_List_val@U?$_List_simple_types@UtagPLAY_DATA@CSoundMananger@SOUND@NMBASE@@@std@@@std@@U_Iterator_base0@2@@2@@Z 1006aa10 f i SoundManager.obj
 0001:00069ac0       ?_Unlinknode@?$list@UtagPLAY_DATA@CSoundMananger@SOUND@NMBASE@@V?$allocator@UtagPLAY_DATA@CSoundMananger@SOUND@NMBASE@@@std@@@std@@QAEPAU?$_List_node@UtagPLAY_DATA@CSoundMananger@SOUND@NMBASE@@PAX@2@V?$_List_const_iterator@V?$_List_val@U?$_List_simple_types@UtagPLAY_DATA@CSoundMananger@SOUND@NMBASE@@@std@@@std@@@2@@Z 1006aac0 f i SoundManager.obj
 0001:00069c80       ?_Unwrapped@?$_List_const_iterator@V?$_List_val@U?$_List_simple_types@UtagPLAY_DATA@CSoundMananger@SOUND@NMBASE@@@std@@@std@@@std@@QBE?AV?$_List_unchecked_const_iterator@V?$_List_val@U?$_List_simple_types@UtagPLAY_DATA@CSoundMananger@SOUND@NMBASE@@@std@@@std@@U_Iterator_base0@2@@2@XZ 1006ac80 f i SoundManager.obj
 0001:00069cf0       ?_Unwrapped@?$_String_iterator@V?$_String_val@U?$_Simple_types@D@std@@@std@@@std@@QBEPADXZ 1006acf0 f i SoundManager.obj
 0001:00069d50       ?_Verify_offset@?$_String_const_iterator@V?$_String_val@U?$_Simple_types@D@std@@@std@@@std@@QBEXH@Z 1006ad50 f i SoundManager.obj
 0001:0006a050       ?_Verify_range@std@@YAXABV?$_List_const_iterator@V?$_List_val@U?$_List_simple_types@UtagPLAY_DATA@CSoundMananger@SOUND@NMBASE@@@std@@@std@@@1@0@Z 1006b050 f i SoundManager.obj
 0001:0006a130       ?_Verify_range@std@@YAXABV?$_String_const_iterator@V?$_String_val@U?$_Simple_types@D@std@@@std@@@1@0@Z 1006b130 f i SoundManager.obj
 0001:0006a290       ?allocate@?$allocator@U?$_List_node@UtagPLAY_DATA@CSoundMananger@SOUND@NMBASE@@PAX@std@@@std@@QAEPAU?$_List_node@UtagPLAY_DATA@CSoundMananger@SOUND@NMBASE@@PAX@2@I@Z 1006b290 f i SoundManager.obj
 0001:0006a300       ?allocate@?$allocator@U?$_Tree_node@U?$pair@$$CBV?$basic_string@DU?$char_traits@D@std@@V?$allocator@D@2@@std@@V12@@std@@PAX@std@@@std@@QAEPAU?$_Tree_node@U?$pair@$$CBV?$basic_string@DU?$char_traits@D@std@@V?$allocator@D@2@@std@@V12@@std@@PAX@2@I@Z 1006b300 f i SoundManager.obj
 0001:0006a370       ?append@?$basic_string@DU?$char_traits@D@std@@V?$allocator@D@2@@std@@QAEAAV12@ABV12@@Z 1006b370 f i SoundManager.obj
 0001:0006a3f0       ?begin@?$_Tree@V?$_Tmap_traits@V?$basic_string@DU?$char_traits@D@std@@V?$allocator@D@2@@std@@V12@U?$less@V?$basic_string@DU?$char_traits@D@std@@V?$allocator@D@2@@std@@@2@V?$allocator@U?$pair@$$CBV?$basic_string@DU?$char_traits@D@std@@V?$allocator@D@2@@std@@V12@@std@@@2@$00@std@@@std@@QAE?AV?$_Tree_iterator@V?$_Tree_val@U?$_Tree_simple_types@U?$pair@$$CBV?$basic_string@DU?$char_traits@D@std@@V?$allocator@D@2@@std@@V12@@std@@@std@@@std@@@2@XZ 1006b3f0 f i SoundManager.obj
 0001:0006a4b0       ?begin@?$basic_string@DU?$char_traits@D@std@@V?$allocator@D@2@@std@@QAE?AV?$_String_iterator@V?$_String_val@U?$_Simple_types@D@std@@@std@@@2@XZ 1006b4b0 f i SoundManager.obj
 0001:0006a570       ?begin@?$list@UtagPLAY_DATA@CSoundMananger@SOUND@NMBASE@@V?$allocator@UtagPLAY_DATA@CSoundMananger@SOUND@NMBASE@@@std@@@std@@QAE?AV?$_List_iterator@V?$_List_val@U?$_List_simple_types@UtagPLAY_DATA@CSoundMananger@SOUND@NMBASE@@@std@@@std@@@2@XZ 1006b570 f i SoundManager.obj
 0001:0006a620       ?begin@?$list@UtagPLAY_DATA@CSoundMananger@SOUND@NMBASE@@V?$allocator@UtagPLAY_DATA@CSoundMananger@SOUND@NMBASE@@@std@@@std@@QBE?AV?$_List_const_iterator@V?$_List_val@U?$_List_simple_types@UtagPLAY_DATA@CSoundMananger@SOUND@NMBASE@@@std@@@std@@@2@XZ 1006b620 f i SoundManager.obj
 0001:0006a6d0       ?clear@?$_Tree@V?$_Tmap_traits@V?$basic_string@DU?$char_traits@D@std@@V?$allocator@D@2@@std@@V12@U?$less@V?$basic_string@DU?$char_traits@D@std@@V?$allocator@D@2@@std@@@2@V?$allocator@U?$pair@$$CBV?$basic_string@DU?$char_traits@D@std@@V?$allocator@D@2@@std@@V12@@std@@@2@$00@std@@@std@@QAEXXZ 1006b6d0 f i SoundManager.obj
 0001:0006a7d0       ?clear@?$list@UtagPLAY_DATA@CSoundMananger@SOUND@NMBASE@@V?$allocator@UtagPLAY_DATA@CSoundMananger@SOUND@NMBASE@@@std@@@std@@QAEXXZ 1006b7d0 f i SoundManager.obj
 0001:0006a8f0       ?count@?$_Tree@V?$_Tmap_traits@V?$basic_string@DU?$char_traits@D@std@@V?$allocator@D@2@@std@@V12@U?$less@V?$basic_string@DU?$char_traits@D@std@@V?$allocator@D@2@@std@@@2@V?$allocator@U?$pair@$$CBV?$basic_string@DU?$char_traits@D@std@@V?$allocator@D@2@@std@@V12@@std@@@2@$00@std@@@std@@QBEIABV?$basic_string@DU?$char_traits@D@std@@V?$allocator@D@2@@2@@Z 1006b8f0 f i SoundManager.obj
 0001:0006aa30       ?deallocate@?$_Default_allocator_traits@V?$allocator@U?$_List_node@UtagPLAY_DATA@CSoundMananger@SOUND@NMBASE@@PAX@std@@@std@@@std@@SAXAAV?$allocator@U?$_List_node@UtagPLAY_DATA@CSoundMananger@SOUND@NMBASE@@PAX@std@@@2@QAU?$_List_node@UtagPLAY_DATA@CSoundMananger@SOUND@NMBASE@@PAX@2@I@Z 1006ba30 f i SoundManager.obj
 0001:0006aa90       ?deallocate@?$_Default_allocator_traits@V?$allocator@U?$_Tree_node@U?$pair@$$CBV?$basic_string@DU?$char_traits@D@std@@V?$allocator@D@2@@std@@V12@@std@@PAX@std@@@std@@@std@@SAXAAV?$allocator@U?$_Tree_node@U?$pair@$$CBV?$basic_string@DU?$char_traits@D@std@@V?$allocator@D@2@@std@@V12@@std@@PAX@std@@@2@QAU?$_Tree_node@U?$pair@$$CBV?$basic_string@DU?$char_traits@D@std@@V?$allocator@D@2@@std@@V12@@std@@PAX@2@I@Z 1006ba90 f i SoundManager.obj
 0001:0006aaf0       ?deallocate@?$allocator@U?$_List_node@UtagPLAY_DATA@CSoundMananger@SOUND@NMBASE@@PAX@std@@@std@@QAEXQAU?$_List_node@UtagPLAY_DATA@CSoundMananger@SOUND@NMBASE@@PAX@2@I@Z 1006baf0 f i SoundManager.obj
 0001:0006ab50       ?deallocate@?$allocator@U?$_Tree_node@U?$pair@$$CBV?$basic_string@DU?$char_traits@D@std@@V?$allocator@D@2@@std@@V12@@std@@PAX@std@@@std@@QAEXQAU?$_Tree_node@U?$pair@$$CBV?$basic_string@DU?$char_traits@D@std@@V?$allocator@D@2@@std@@V12@@std@@PAX@2@I@Z 1006bb50 f i SoundManager.obj
 0001:0006abb0       ?empty@?$list@UtagPLAY_DATA@CSoundMananger@SOUND@NMBASE@@V?$allocator@UtagPLAY_DATA@CSoundMananger@SOUND@NMBASE@@@std@@@std@@QBE_NXZ 1006bbb0 f i SoundManager.obj
 0001:0006ac30       ?end@?$_Tree@V?$_Tmap_traits@V?$basic_string@DU?$char_traits@D@std@@V?$allocator@D@2@@std@@V12@U?$less@V?$basic_string@DU?$char_traits@D@std@@V?$allocator@D@2@@std@@@2@V?$allocator@U?$pair@$$CBV?$basic_string@DU?$char_traits@D@std@@V?$allocator@D@2@@std@@V12@@std@@@2@$00@std@@@std@@QAE?AV?$_Tree_iterator@V?$_Tree_val@U?$_Tree_simple_types@U?$pair@$$CBV?$basic_string@DU?$char_traits@D@std@@V?$allocator@D@2@@std@@V12@@std@@@std@@@std@@@2@XZ 1006bc30 f i SoundManager.obj
 0001:0006ace0       ?end@?$basic_string@DU?$char_traits@D@std@@V?$allocator@D@2@@std@@QAE?AV?$_String_iterator@V?$_String_val@U?$_Simple_types@D@std@@@std@@@2@XZ 1006bce0 f i SoundManager.obj
 0001:0006adb0       ?end@?$list@UtagPLAY_DATA@CSoundMananger@SOUND@NMBASE@@V?$allocator@UtagPLAY_DATA@CSoundMananger@SOUND@NMBASE@@@std@@@std@@QAE?AV?$_List_iterator@V?$_List_val@U?$_List_simple_types@UtagPLAY_DATA@CSoundMananger@SOUND@NMBASE@@@std@@@std@@@2@XZ 1006bdb0 f i SoundManager.obj
 0001:0006ae60       ?end@?$list@UtagPLAY_DATA@CSoundMananger@SOUND@NMBASE@@V?$allocator@UtagPLAY_DATA@CSoundMananger@SOUND@NMBASE@@@std@@@std@@QBE?AV?$_List_const_iterator@V?$_List_val@U?$_List_simple_types@UtagPLAY_DATA@CSoundMananger@SOUND@NMBASE@@@std@@@std@@@2@XZ 1006be60 f i SoundManager.obj
 0001:0006af10       ?eq@?$char_traits@D@std@@SA_NABD0@Z 1006bf10 f i SoundManager.obj
 0001:0006af80       ?equal_range@?$_Tree@V?$_Tmap_traits@V?$basic_string@DU?$char_traits@D@std@@V?$allocator@D@2@@std@@V12@U?$less@V?$basic_string@DU?$char_traits@D@std@@V?$allocator@D@2@@std@@@2@V?$allocator@U?$pair@$$CBV?$basic_string@DU?$char_traits@D@std@@V?$allocator@D@2@@std@@V12@@std@@@2@$00@std@@@std@@QBE?AU?$pair@V?$_Tree_const_iterator@V?$_Tree_val@U?$_Tree_simple_types@U?$pair@$$CBV?$basic_string@DU?$char_traits@D@std@@V?$allocator@D@2@@std@@V12@@std@@@std@@@std@@@std@@V12@@2@ABV?$basic_string@DU?$char_traits@D@std@@V?$allocator@D@2@@2@@Z 1006bf80 f i SoundManager.obj
 0001:0006b000       ?erase@?$_Tree@V?$_Tmap_traits@V?$basic_string@DU?$char_traits@D@std@@V?$allocator@D@2@@std@@V12@U?$less@V?$basic_string@DU?$char_traits@D@std@@V?$allocator@D@2@@std@@@2@V?$allocator@U?$pair@$$CBV?$basic_string@DU?$char_traits@D@std@@V?$allocator@D@2@@std@@V12@@std@@@2@$00@std@@@std@@QAE?AV?$_Tree_iterator@V?$_Tree_val@U?$_Tree_simple_types@U?$pair@$$CBV?$basic_string@DU?$char_traits@D@std@@V?$allocator@D@2@@std@@V12@@std@@@std@@@std@@@2@V?$_Tree_const_iterator@V?$_Tree_val@U?$_Tree_simple_types@U?$pair@$$CBV?$basic_string@DU?$char_traits@D@std@@V?$allocator@D@2@@std@@V12@@std@@@std@@@std@@@2@0@Z 1006c000 f i SoundManager.obj
 0001:0006b320       ?erase@?$_Tree@V?$_Tmap_traits@V?$basic_string@DU?$char_traits@D@std@@V?$allocator@D@2@@std@@V12@U?$less@V?$basic_string@DU?$char_traits@D@std@@V?$allocator@D@2@@std@@@2@V?$allocator@U?$pair@$$CBV?$basic_string@DU?$char_traits@D@std@@V?$allocator@D@2@@std@@V12@@std@@@2@$00@std@@@std@@QAE?AV?$_Tree_iterator@V?$_Tree_val@U?$_Tree_simple_types@U?$pair@$$CBV?$basic_string@DU?$char_traits@D@std@@V?$allocator@D@2@@std@@V12@@std@@@std@@@std@@@2@V?$_Tree_const_iterator@V?$_Tree_val@U?$_Tree_simple_types@U?$pair@$$CBV?$basic_string@DU?$char_traits@D@std@@V?$allocator@D@2@@std@@V12@@std@@@std@@@std@@@2@@Z 1006c320 f i SoundManager.obj
 0001:0006b5b0       ?erase@?$list@UtagPLAY_DATA@CSoundMananger@SOUND@NMBASE@@V?$allocator@UtagPLAY_DATA@CSoundMananger@SOUND@NMBASE@@@std@@@std@@QAE?AV?$_List_iterator@V?$_List_val@U?$_List_simple_types@UtagPLAY_DATA@CSoundMananger@SOUND@NMBASE@@@std@@@std@@@2@V?$_List_const_iterator@V?$_List_val@U?$_List_simple_types@UtagPLAY_DATA@CSoundMananger@SOUND@NMBASE@@@std@@@std@@@2@0@Z 1006c5b0 f i SoundManager.obj
 0001:0006b900       ?erase@?$list@UtagPLAY_DATA@CSoundMananger@SOUND@NMBASE@@V?$allocator@UtagPLAY_DATA@CSoundMananger@SOUND@NMBASE@@@std@@@std@@QAE?AV?$_List_iterator@V?$_List_val@U?$_List_simple_types@UtagPLAY_DATA@CSoundMananger@SOUND@NMBASE@@@std@@@std@@@2@V?$_List_const_iterator@V?$_List_val@U?$_List_simple_types@UtagPLAY_DATA@CSoundMananger@SOUND@NMBASE@@@std@@@std@@@2@@Z 1006c900 f i SoundManager.obj
 0001:0006ba40       ?find@?$_Tree@V?$_Tmap_traits@V?$basic_string@DU?$char_traits@D@std@@V?$allocator@D@2@@std@@V12@U?$less@V?$basic_string@DU?$char_traits@D@std@@V?$allocator@D@2@@std@@@2@V?$allocator@U?$pair@$$CBV?$basic_string@DU?$char_traits@D@std@@V?$allocator@D@2@@std@@V12@@std@@@2@$00@std@@@std@@QAE?AV?$_Tree_iterator@V?$_Tree_val@U?$_Tree_simple_types@U?$pair@$$CBV?$basic_string@DU?$char_traits@D@std@@V?$allocator@D@2@@std@@V12@@std@@@std@@@std@@@2@ABV?$basic_string@DU?$char_traits@D@std@@V?$allocator@D@2@@2@@Z 1006ca40 f i SoundManager.obj
 0001:0006bcf0       ?find@?$basic_string@DU?$char_traits@D@std@@V?$allocator@D@2@@std@@QBEIDI@Z 1006ccf0 f i SoundManager.obj
 0001:0006bdb0       ?find@?$char_traits@D@std@@SAPBDQBDIABD@Z 1006cdb0 f i SoundManager.obj
 0001:0006be10       ?key_comp@?$_Tree@V?$_Tmap_traits@V?$basic_string@DU?$char_traits@D@std@@V?$allocator@D@2@@std@@V12@U?$less@V?$basic_string@DU?$char_traits@D@std@@V?$allocator@D@2@@std@@@2@V?$allocator@U?$pair@$$CBV?$basic_string@DU?$char_traits@D@std@@V?$allocator@D@2@@std@@V12@@std@@@2@$00@std@@@std@@QBE?AU?$less@V?$basic_string@DU?$char_traits@D@std@@V?$allocator@D@2@@std@@@2@XZ 1006ce10 f i SoundManager.obj
 0001:0006be70       ?lower_bound@?$_Tree@V?$_Tmap_traits@V?$basic_string@DU?$char_traits@D@std@@V?$allocator@D@2@@std@@V12@U?$less@V?$basic_string@DU?$char_traits@D@std@@V?$allocator@D@2@@std@@@2@V?$allocator@U?$pair@$$CBV?$basic_string@DU?$char_traits@D@std@@V?$allocator@D@2@@std@@V12@@std@@@2@$00@std@@@std@@QAE?AV?$_Tree_iterator@V?$_Tree_val@U?$_Tree_simple_types@U?$pair@$$CBV?$basic_string@DU?$char_traits@D@std@@V?$allocator@D@2@@std@@V12@@std@@@std@@@std@@@2@ABV?$basic_string@DU?$char_traits@D@std@@V?$allocator@D@2@@2@@Z 1006ce70 f i SoundManager.obj
 0001:0006bf10       ?max_size@?$_Default_allocator_traits@V?$allocator@U?$_List_node@UtagPLAY_DATA@CSoundMananger@SOUND@NMBASE@@PAX@std@@@std@@@std@@SAIABV?$allocator@U?$_List_node@UtagPLAY_DATA@CSoundMananger@SOUND@NMBASE@@PAX@std@@@2@@Z 1006cf10 f i SoundManager.obj
 0001:0006bf50       ?max_size@?$_Default_allocator_traits@V?$allocator@U?$_Tree_node@U?$pair@$$CBV?$basic_string@DU?$char_traits@D@std@@V?$allocator@D@2@@std@@V12@@std@@PAX@std@@@std@@@std@@SAIABV?$allocator@U?$_Tree_node@U?$pair@$$CBV?$basic_string@DU?$char_traits@D@std@@V?$allocator@D@2@@std@@V12@@std@@PAX@std@@@2@@Z 1006cf50 f i SoundManager.obj
 0001:0006bf90       ?max_size@?$_Tree@V?$_Tmap_traits@V?$basic_string@DU?$char_traits@D@std@@V?$allocator@D@2@@std@@V12@U?$less@V?$basic_string@DU?$char_traits@D@std@@V?$allocator@D@2@@std@@@2@V?$allocator@U?$pair@$$CBV?$basic_string@DU?$char_traits@D@std@@V?$allocator@D@2@@std@@V12@@std@@@2@$00@std@@@std@@QBEIXZ 1006cf90 f i SoundManager.obj
 0001:0006bff0       ?max_size@?$list@UtagPLAY_DATA@CSoundMananger@SOUND@NMBASE@@V?$allocator@UtagPLAY_DATA@CSoundMananger@SOUND@NMBASE@@@std@@@std@@QBEIXZ 1006cff0 f i SoundManager.obj
 0001:0006c050       ?pointer_to@?$pointer_traits@PAU?$pair@$$CBV?$basic_string@DU?$char_traits@D@std@@V?$allocator@D@2@@std@@V12@@std@@@std@@SAPAU?$pair@$$CBV?$basic_string@DU?$char_traits@D@std@@V?$allocator@D@2@@std@@V12@@2@AAU32@@Z 1006d050 f i SoundManager.obj
 0001:0006c0a0       ?pointer_to@?$pointer_traits@PAUtagPLAY_DATA@CSoundMananger@SOUND@NMBASE@@@std@@SAPAUtagPLAY_DATA@CSoundMananger@SOUND@NMBASE@@AAU3456@@Z 1006d0a0 f i SoundManager.obj
 0001:0006c0f0       ?push_back@?$list@UtagPLAY_DATA@CSoundMananger@SOUND@NMBASE@@V?$allocator@UtagPLAY_DATA@CSoundMananger@SOUND@NMBASE@@@std@@@std@@QAEXABUtagPLAY_DATA@CSoundMananger@SOUND@NMBASE@@@Z 1006d0f0 f i SoundManager.obj
 0001:0006c170       ?reserve@?$basic_string@DU?$char_traits@D@std@@V?$allocator@D@2@@std@@QAEXI@Z 1006d170 f i SoundManager.obj
 0001:0006c260       ?rfind@?$basic_string@DU?$char_traits@D@std@@V?$allocator@D@2@@std@@QBEIDI@Z 1006d260 f i SoundManager.obj
 0001:0006c320       ?select_on_container_copy_construction@?$_Default_allocator_traits@V?$allocator@U?$_List_node@UtagPLAY_DATA@CSoundMananger@SOUND@NMBASE@@PAX@std@@@std@@@std@@SA?AV?$allocator@U?$_List_node@UtagPLAY_DATA@CSoundMananger@SOUND@NMBASE@@PAX@std@@@2@ABV32@@Z 1006d320 f i SoundManager.obj
 0001:0006c360       ?select_on_container_copy_construction@?$_Default_allocator_traits@V?$allocator@U?$_Tree_node@U?$pair@$$CBV?$basic_string@DU?$char_traits@D@std@@V?$allocator@D@2@@std@@V12@@std@@PAX@std@@@std@@@std@@SA?AV?$allocator@U?$_Tree_node@U?$pair@$$CBV?$basic_string@DU?$char_traits@D@std@@V?$allocator@D@2@@std@@V12@@std@@PAX@std@@@2@ABV32@@Z 1006d360 f i SoundManager.obj
 0001:0006c3a0       ?size@?$_Tree@V?$_Tmap_traits@V?$basic_string@DU?$char_traits@D@std@@V?$allocator@D@2@@std@@V12@U?$less@V?$basic_string@DU?$char_traits@D@std@@V?$allocator@D@2@@std@@@2@V?$allocator@U?$pair@$$CBV?$basic_string@DU?$char_traits@D@std@@V?$allocator@D@2@@std@@V12@@std@@@2@$00@std@@@std@@QBEIXZ 1006d3a0 f i SoundManager.obj
 0001:0006c400       ?size@?$basic_string@DU?$char_traits@D@std@@V?$allocator@D@2@@std@@QBEIXZ 1006d400 f i SoundManager.obj
 0001:0006c460       ?size@?$list@UtagPLAY_DATA@CSoundMananger@SOUND@NMBASE@@V?$allocator@UtagPLAY_DATA@CSoundMananger@SOUND@NMBASE@@@std@@@std@@QBEIXZ 1006d460 f i SoundManager.obj
 0001:0006c540       ??$?0$$V@?$_Compressed_pair@V?$allocator@PAVxOggStream@SOUND@NMBASE@@@std@@V?$_Vector_val@U?$_Simple_types@PAVxOggStream@SOUND@NMBASE@@@std@@@2@$00@std@@QAE@U_Zero_then_variadic_args_t@1@@Z 1006d540 f i StreamManager.obj
 0001:0006c5a0       ??$?0PAVxOggStream@SOUND@NMBASE@@@?$allocator@U_Container_proxy@std@@@std@@QAE@ABV?$allocator@PAVxOggStream@SOUND@NMBASE@@@1@@Z 1006d5a0 f i StreamManager.obj
 0001:0006c5e0       ??$_Copy_memmove@PAPAVxOggStream@SOUND@NMBASE@@PAPAV123@@std@@YAPAPAVxOggStream@SOUND@NMBASE@@PAPAV123@00@Z 1006d5e0 f i StreamManager.obj
 0001:0006c660       ??$_Destroy_range1@V?$allocator@PAVxOggStream@SOUND@NMBASE@@@std@@@std@@YAXPAPAVxOggStream@SOUND@NMBASE@@0AAV?$allocator@PAVxOggStream@SOUND@NMBASE@@@0@U?$integral_constant@_N$00@0@@Z 1006d660 f i StreamManager.obj
 0001:0006c690       ??$_Destroy_range@V?$allocator@PAVxOggStream@SOUND@NMBASE@@@std@@@std@@YAXPAPAVxOggStream@SOUND@NMBASE@@0AAV?$allocator@PAVxOggStream@SOUND@NMBASE@@@0@@Z 1006d690 f i StreamManager.obj
 0001:0006c700       ??$_Emplace_back_with_unused_capacity@ABQAVxOggStream@SOUND@NMBASE@@@?$vector@PAVxOggStream@SOUND@NMBASE@@V?$allocator@PAVxOggStream@SOUND@NMBASE@@@std@@@std@@AAE@ABQAVxOggStream@SOUND@NMBASE@@@Z 1006d700 f i StreamManager.obj
 0001:0006c7f0       ??$_Emplace_reallocate@ABQAVxOggStream@SOUND@NMBASE@@@?$vector@PAVxOggStream@SOUND@NMBASE@@V?$allocator@PAVxOggStream@SOUND@NMBASE@@@std@@@std@@QAEPAPAVxOggStream@SOUND@NMBASE@@QAPAV234@ABQAV234@@Z 1006d7f0 f i StreamManager.obj
 0001:0006ca80       ??$_Get_size_of_n@$03@std@@YAII@Z 1006da80 f i StreamManager.obj
 0001:0006cae0       ??$_Get_unwrapped@PAVxOggStream@SOUND@NMBASE@@@std@@YAPAPAVxOggStream@SOUND@NMBASE@@QAPAV123@@Z 1006dae0 f i StreamManager.obj
 0001:0006cb20       ??$_Get_unwrapped_n@PAVxOggStream@SOUND@NMBASE@@H$0A@@std@@YAPAPAVxOggStream@SOUND@NMBASE@@QAPAV123@H@Z 1006db20 f i StreamManager.obj
 0001:0006cb60       ??$_Idl_distance1@PAPAVxOggStream@SOUND@NMBASE@@PAPAV123@@std@@YAHABQAPAVxOggStream@SOUND@NMBASE@@0Urandom_access_iterator_tag@0@@Z 1006db60 f i StreamManager.obj
 0001:0006cba0       ??$_Idl_distance@PAPAVxOggStream@SOUND@NMBASE@@PAPAV123@@std@@YA@ABQAPAVxOggStream@SOUND@NMBASE@@0@Z 1006dba0 f i StreamManager.obj
 0001:0006cc00       ??$_Move_unchecked1@PAPAVxOggStream@SOUND@NMBASE@@PAPAV123@@std@@YAPAPAVxOggStream@SOUND@NMBASE@@PAPAV123@00U_Trivially_copyable_ptr_iterator_tag@0@@Z 1006dc00 f i StreamManager.obj
 0001:0006cc60       ??$_Move_unchecked@PAPAVxOggStream@SOUND@NMBASE@@PAPAV123@@std@@YAPAPAVxOggStream@SOUND@NMBASE@@PAPAV123@00@Z 1006dc60 f i StreamManager.obj
 0001:0006cce0       ??$_Ptr_move_cat@PAVxOggStream@SOUND@NMBASE@@PAV123@@std@@YA?AU_Really_trivial_ptr_iterator_tag@0@ABQAPAVxOggStream@SOUND@NMBASE@@0@Z 1006dce0 f i StreamManager.obj
 0001:0006cd20       ??$_Seek_wrapped@PAVxOggStream@SOUND@NMBASE@@@std@@YAXAAPAPAVxOggStream@SOUND@NMBASE@@QAPAV123@@Z 1006dd20 f i StreamManager.obj
 0001:0006cd60       ??$_Unfancy@PAVxOggStream@SOUND@NMBASE@@@std@@YAPAPAVxOggStream@SOUND@NMBASE@@PAPAV123@@Z 1006dd60 f i StreamManager.obj
 0001:0006cda0       ??$_Uninitialized_move@PAPAVxOggStream@SOUND@NMBASE@@PAPAV123@V?$allocator@PAVxOggStream@SOUND@NMBASE@@@std@@@std@@YAPAPAVxOggStream@SOUND@NMBASE@@QAPAV123@0PAPAV123@AAV?$allocator@PAVxOggStream@SOUND@NMBASE@@@0@@Z 1006dda0 f i StreamManager.obj
 0001:0006cf00       ??$_Uninitialized_move_al_unchecked@PAVxOggStream@SOUND@NMBASE@@PAV123@V?$allocator@PAVxOggStream@SOUND@NMBASE@@@std@@@std@@YAPAPAVxOggStream@SOUND@NMBASE@@QAPAV123@00AAV?$allocator@PAVxOggStream@SOUND@NMBASE@@@0@U_Really_trivial_ptr_iterator_tag@0@U?$integral_constant@_N$00@0@@Z 1006df00 f i StreamManager.obj
 0001:0006cf60       ??$addressof@V?$_Vector_val@U?$_Simple_types@PAVxOggStream@SOUND@NMBASE@@@std@@@std@@@std@@YAPAV?$_Vector_val@U?$_Simple_types@PAVxOggStream@SOUND@NMBASE@@@std@@@0@AAV10@@Z 1006df60 f i StreamManager.obj
 0001:0006cfa0       ??$construct@PAVxOggStream@SOUND@NMBASE@@ABQAV123@@?$_Default_allocator_traits@V?$allocator@PAVxOggStream@SOUND@NMBASE@@@std@@@std@@SAXAAV?$allocator@PAVxOggStream@SOUND@NMBASE@@@1@QAPAVxOggStream@SOUND@NMBASE@@ABQAV345@@Z 1006dfa0 f i StreamManager.obj
 0001:0006d020       ??$destroy@PAVxOggStream@SOUND@NMBASE@@@?$_Default_allocator_traits@V?$allocator@PAVxOggStream@SOUND@NMBASE@@@std@@@std@@SAXAAV?$allocator@PAVxOggStream@SOUND@NMBASE@@@1@QAPAVxOggStream@SOUND@NMBASE@@@Z 1006e020 f i StreamManager.obj
 0001:0006d050       ??$emplace_back@ABQAVxOggStream@SOUND@NMBASE@@@?$vector@PAVxOggStream@SOUND@NMBASE@@V?$allocator@PAVxOggStream@SOUND@NMBASE@@@std@@@std@@QAE@ABQAVxOggStream@SOUND@NMBASE@@@Z 1006e050 f i StreamManager.obj
 0001:0006d100       ??$forward@ABQAVxOggStream@SOUND@NMBASE@@@std@@YAABQAVxOggStream@SOUND@NMBASE@@ABQAV123@@Z 1006e100 f i StreamManager.obj
 0001:0006d140       ??0?$CThreadQueue@PAVxOggStream@SOUND@NMBASE@@@SOUND@NMBASE@@QAE@XZ 1006e140 f i StreamManager.obj
 0001:0006d1d0       ??0?$_Vector_alloc@U?$_Vec_base_types@PAVxOggStream@SOUND@NMBASE@@V?$allocator@PAVxOggStream@SOUND@NMBASE@@@std@@@std@@@std@@QAE@XZ 1006e1d0 f i StreamManager.obj
 0001:0006d240       ??0?$_Vector_const_iterator@V?$_Vector_val@U?$_Simple_types@PAVxOggStream@SOUND@NMBASE@@@std@@@std@@@std@@QAE@$$QAV01@@Z 1006e240 f i StreamManager.obj
 0001:0006d2b0       ??0?$_Vector_const_iterator@V?$_Vector_val@U?$_Simple_types@PAVxOggStream@SOUND@NMBASE@@@std@@@std@@@std@@QAE@ABV01@@Z 1006e2b0 f i StreamManager.obj
 0001:0006d320       ??0?$_Vector_const_iterator@V?$_Vector_val@U?$_Simple_types@PAVxOggStream@SOUND@NMBASE@@@std@@@std@@@std@@QAE@PAPAVxOggStream@SOUND@NMBASE@@PBU_Container_base12@1@@Z 1006e320 f i StreamManager.obj
 0001:0006d390       ??0?$_Vector_iterator@V?$_Vector_val@U?$_Simple_types@PAVxOggStream@SOUND@NMBASE@@@std@@@std@@@std@@QAE@$$QAV01@@Z 1006e390 f i StreamManager.obj
 0001:0006d3f0       ??0?$_Vector_iterator@V?$_Vector_val@U?$_Simple_types@PAVxOggStream@SOUND@NMBASE@@@std@@@std@@@std@@QAE@ABV01@@Z 1006e3f0 f i StreamManager.obj
 0001:0006d450       ??0?$_Vector_iterator@V?$_Vector_val@U?$_Simple_types@PAVxOggStream@SOUND@NMBASE@@@std@@@std@@@std@@QAE@PAPAVxOggStream@SOUND@NMBASE@@PBU_Container_base12@1@@Z 1006e450 f i StreamManager.obj
 0001:0006d4b0       ??0?$_Vector_val@U?$_Simple_types@PAVxOggStream@SOUND@NMBASE@@@std@@@std@@QAE@XZ 1006e4b0 f i StreamManager.obj
 0001:0006d530       ??0?$allocator@PAVxOggStream@SOUND@NMBASE@@@std@@QAE@XZ 1006e530 f i StreamManager.obj
 0001:0006d570       ??0?$vector@PAVxOggStream@SOUND@NMBASE@@V?$allocator@PAVxOggStream@SOUND@NMBASE@@@std@@@std@@QAE@XZ 1006e570 f i StreamManager.obj
 0001:0006d600       ??0CStreamManager@SOUND@NMBASE@@QAE@XZ 1006e600 f   StreamManager.obj
 0001:0006d710       ??1?$CThreadQueue@PAVxOggStream@SOUND@NMBASE@@@SOUND@NMBASE@@UAE@XZ 1006e710 f i StreamManager.obj
 0001:0006d7b0       ??1?$_Vector_alloc@U?$_Vec_base_types@PAVxOggStream@SOUND@NMBASE@@V?$allocator@PAVxOggStream@SOUND@NMBASE@@@std@@@std@@@std@@QAE@XZ 1006e7b0 f i StreamManager.obj
 0001:0006d840       ??1?$_Vector_const_iterator@V?$_Vector_val@U?$_Simple_types@PAVxOggStream@SOUND@NMBASE@@@std@@@std@@@std@@QAE@XZ 1006e840 f i StreamManager.obj
 0001:0006d890       ??1?$_Vector_iterator@V?$_Vector_val@U?$_Simple_types@PAVxOggStream@SOUND@NMBASE@@@std@@@std@@@std@@QAE@XZ 1006e890 f i StreamManager.obj
 0001:0006d8e0       ??1?$vector@PAVxOggStream@SOUND@NMBASE@@V?$allocator@PAVxOggStream@SOUND@NMBASE@@@std@@@std@@QAE@XZ 1006e8e0 f i StreamManager.obj
 0001:0006d970       ??1CStreamManager@SOUND@NMBASE@@UAE@XZ 1006e970 f   StreamManager.obj
 0001:0006da20       ??8?$_Vector_const_iterator@V?$_Vector_val@U?$_Simple_types@PAVxOggStream@SOUND@NMBASE@@@std@@@std@@@std@@QBE_NABV01@@Z 1006ea20 f i StreamManager.obj
 0001:0006dab0       ??9?$_Vector_const_iterator@V?$_Vector_val@U?$_Simple_types@PAVxOggStream@SOUND@NMBASE@@@std@@@std@@@std@@QBE_NABV01@@Z 1006eab0 f i StreamManager.obj
 0001:0006db40       ??A?$vector@PAVxOggStream@SOUND@NMBASE@@V?$allocator@PAVxOggStream@SOUND@NMBASE@@@std@@@std@@QAEAAPAVxOggStream@SOUND@NMBASE@@I@Z 1006eb40 f i StreamManager.obj
 0001:0006dc30       ??D?$_Vector_const_iterator@V?$_Vector_val@U?$_Simple_types@PAVxOggStream@SOUND@NMBASE@@@std@@@std@@@std@@QBEABQAVxOggStream@SOUND@NMBASE@@XZ 1006ec30 f i StreamManager.obj
 0001:0006dda0       ??D?$_Vector_iterator@V?$_Vector_val@U?$_Simple_types@PAVxOggStream@SOUND@NMBASE@@@std@@@std@@@std@@QBEAAPAVxOggStream@SOUND@NMBASE@@XZ 1006eda0 f i StreamManager.obj
 0001:0006ddf0       ??E?$_Vector_const_iterator@V?$_Vector_val@U?$_Simple_types@PAVxOggStream@SOUND@NMBASE@@@std@@@std@@@std@@QAEAAV01@XZ 1006edf0 f i StreamManager.obj
 0001:0006df60       ??E?$_Vector_iterator@V?$_Vector_val@U?$_Simple_types@PAVxOggStream@SOUND@NMBASE@@@std@@@std@@@std@@QAE?AV01@H@Z 1006ef60 f i StreamManager.obj
 0001:0006e080       ??E?$_Vector_iterator@V?$_Vector_val@U?$_Simple_types@PAVxOggStream@SOUND@NMBASE@@@std@@@std@@@std@@QAEAAV01@XZ 1006f080 f i StreamManager.obj
 0001:0006e0e0       ??_E?$CThreadQueue@PAVxOggStream@SOUND@NMBASE@@@SOUND@NMBASE@@UAEPAXI@Z 1006f0e0 f i StreamManager.obj
 0001:0006e0e0       ??_G?$CThreadQueue@PAVxOggStream@SOUND@NMBASE@@@SOUND@NMBASE@@UAEPAXI@Z 1006f0e0 f i StreamManager.obj
 0001:0006e150       ??_GCStreamManager@SOUND@NMBASE@@UAEPAXI@Z 1006f150 f i StreamManager.obj
 0001:0006e150       ??_ECStreamManager@SOUND@NMBASE@@UAEPAXI@Z 1006f150 f i StreamManager.obj
 0001:0006e1d0       ?AddStream@CStreamManager@SOUND@NMBASE@@QAEXPAVxOggStream@23@@Z 1006f1d0 f   StreamManager.obj
 0001:0006e230       ?AddStreamBGM@CStreamManager@SOUND@NMBASE@@QAEXPAVxOggStream@23@@Z 1006f230 f   StreamManager.obj
 0001:0006e290       ?AddToBack@?$CThreadQueue@PAVxOggStream@SOUND@NMBASE@@@SOUND@NMBASE@@QAEXPAVxOggStream@23@@Z 1006f290 f i StreamManager.obj
 0001:0006e330       ?BeginManager@CStreamManager@SOUND@NMBASE@@AAE_NXZ 1006f330 f   StreamManager.obj
 0001:0006e3f0       ?DeleteFront@CStreamManager@SOUND@NMBASE@@QAEXPAVxOggStream@23@@Z 1006f3f0 f   StreamManager.obj
 0001:0006e450       ?DeleteFrontBGM@CStreamManager@SOUND@NMBASE@@QAEXPAVxOggStream@23@@Z 1006f450 f   StreamManager.obj
 0001:0006e4b0       ?Destroy@CStreamManager@SOUND@NMBASE@@QAEXXZ 1006f4b0 f   StreamManager.obj
 0001:0006e560       ?GetInstance@CStreamManager@SOUND@NMBASE@@SAAAV123@XZ 1006f560 f   StreamManager.obj
 0001:0006e660       ?GetQueueFront@?$CThreadQueue@PAVxOggStream@SOUND@NMBASE@@@SOUND@NMBASE@@QAE_NAAPAVxOggStream@23@@Z 1006f660 f i StreamManager.obj
 0001:0006e800       ?RemoveFront@?$CThreadQueue@PAVxOggStream@SOUND@NMBASE@@@SOUND@NMBASE@@QAE_NAAPAVxOggStream@23@@Z 1006f800 f i StreamManager.obj
 0001:0006ea80       ?StreamThreadStartProc@SOUND@NMBASE@@YGKPAX@Z 1006fa80 f   StreamManager.obj
 0001:0006eae0       ?StreamThread_Entry@CStreamManager@SOUND@NMBASE@@QAEXXZ 1006fae0 f   StreamManager.obj
 0001:0006ed60       ?_Alloc_proxy@?$_Vector_alloc@U?$_Vec_base_types@PAVxOggStream@SOUND@NMBASE@@V?$allocator@PAVxOggStream@SOUND@NMBASE@@@std@@@std@@@std@@QAEXXZ 1006fd60 f i StreamManager.obj
 0001:0006ee80       ?_Calculate_growth@?$vector@PAVxOggStream@SOUND@NMBASE@@V?$allocator@PAVxOggStream@SOUND@NMBASE@@@std@@@std@@ABEII@Z 1006fe80 f i StreamManager.obj
 0001:0006ef20       ?_Change_array@?$vector@PAVxOggStream@SOUND@NMBASE@@V?$allocator@PAVxOggStream@SOUND@NMBASE@@@std@@@std@@AAEXQAPAVxOggStream@SOUND@NMBASE@@II@Z 1006ff20 f i StreamManager.obj
 0001:0006f020       ?_Compat@?$_Vector_const_iterator@V?$_Vector_val@U?$_Simple_types@PAVxOggStream@SOUND@NMBASE@@@std@@@std@@@std@@QBEXABV12@@Z 10070020 f i StreamManager.obj
 0001:0006f100       ?_Destroy@?$vector@PAVxOggStream@SOUND@NMBASE@@V?$allocator@PAVxOggStream@SOUND@NMBASE@@@std@@@std@@AAEXPAPAVxOggStream@SOUND@NMBASE@@0@Z 10070100 f i StreamManager.obj
 0001:0006f170       ?_Free_proxy@?$_Vector_alloc@U?$_Vec_base_types@PAVxOggStream@SOUND@NMBASE@@V?$allocator@PAVxOggStream@SOUND@NMBASE@@@std@@@std@@@std@@QAEXXZ 10070170 f i StreamManager.obj
 0001:0006f270       ?_Get_data@?$_Vector_alloc@U?$_Vec_base_types@PAVxOggStream@SOUND@NMBASE@@V?$allocator@PAVxOggStream@SOUND@NMBASE@@@std@@@std@@@std@@QAEAAV?$_Vector_val@U?$_Simple_types@PAVxOggStream@SOUND@NMBASE@@@std@@@2@XZ 10070270 f i StreamManager.obj
 0001:0006f2c0       ?_Get_data@?$_Vector_alloc@U?$_Vec_base_types@PAVxOggStream@SOUND@NMBASE@@V?$allocator@PAVxOggStream@SOUND@NMBASE@@@std@@@std@@@std@@QBEABV?$_Vector_val@U?$_Simple_types@PAVxOggStream@SOUND@NMBASE@@@std@@@2@XZ 100702c0 f i StreamManager.obj
 0001:0006f310       ?_Get_first@?$_Compressed_pair@V?$allocator@PAVxOggStream@SOUND@NMBASE@@@std@@V?$_Vector_val@U?$_Simple_types@PAVxOggStream@SOUND@NMBASE@@@std@@@2@$00@std@@QAEAAV?$allocator@PAVxOggStream@SOUND@NMBASE@@@2@XZ 10070310 f i StreamManager.obj
 0001:0006f350       ?_Get_first@?$_Compressed_pair@V?$allocator@PAVxOggStream@SOUND@NMBASE@@@std@@V?$_Vector_val@U?$_Simple_types@PAVxOggStream@SOUND@NMBASE@@@std@@@2@$00@std@@QBEABV?$allocator@PAVxOggStream@SOUND@NMBASE@@@2@XZ 10070350 f i StreamManager.obj
 0001:0006f390       ?_Get_second@?$_Compressed_pair@V?$allocator@PAVxOggStream@SOUND@NMBASE@@@std@@V?$_Vector_val@U?$_Simple_types@PAVxOggStream@SOUND@NMBASE@@@std@@@2@$00@std@@QAEAAV?$_Vector_val@U?$_Simple_types@PAVxOggStream@SOUND@NMBASE@@@std@@@2@XZ 10070390 f i StreamManager.obj
 0001:0006f3d0       ?_Get_second@?$_Compressed_pair@V?$allocator@PAVxOggStream@SOUND@NMBASE@@@std@@V?$_Vector_val@U?$_Simple_types@PAVxOggStream@SOUND@NMBASE@@@std@@@2@$00@std@@QBEABV?$_Vector_val@U?$_Simple_types@PAVxOggStream@SOUND@NMBASE@@@std@@@2@XZ 100703d0 f i StreamManager.obj
 0001:0006f410       ?_Getal@?$_Vector_alloc@U?$_Vec_base_types@PAVxOggStream@SOUND@NMBASE@@V?$allocator@PAVxOggStream@SOUND@NMBASE@@@std@@@std@@@std@@QAEAAV?$allocator@PAVxOggStream@SOUND@NMBASE@@@2@XZ 10070410 f i StreamManager.obj
 0001:0006f460       ?_Getal@?$_Vector_alloc@U?$_Vec_base_types@PAVxOggStream@SOUND@NMBASE@@V?$allocator@PAVxOggStream@SOUND@NMBASE@@@std@@@std@@@std@@QBEABV?$allocator@PAVxOggStream@SOUND@NMBASE@@@2@XZ 10070460 f i StreamManager.obj
 0001:0006f4b0       ?_Getpfirst@?$_Vector_alloc@U?$_Vec_base_types@PAVxOggStream@SOUND@NMBASE@@V?$allocator@PAVxOggStream@SOUND@NMBASE@@@std@@@std@@@std@@QBEPAPAU_Iterator_base12@2@XZ 100704b0 f i StreamManager.obj
 0001:0006f510       ?_Has_unused_capacity@?$vector@PAVxOggStream@SOUND@NMBASE@@V?$allocator@PAVxOggStream@SOUND@NMBASE@@@std@@@std@@ABE_NXZ 10070510 f i StreamManager.obj
 0001:0006f5a0       ?_Myend@?$_Vector_alloc@U?$_Vec_base_types@PAVxOggStream@SOUND@NMBASE@@V?$allocator@PAVxOggStream@SOUND@NMBASE@@@std@@@std@@@std@@QAEAAPAPAVxOggStream@SOUND@NMBASE@@XZ 100705a0 f i StreamManager.obj
 0001:0006f600       ?_Myend@?$_Vector_alloc@U?$_Vec_base_types@PAVxOggStream@SOUND@NMBASE@@V?$allocator@PAVxOggStream@SOUND@NMBASE@@@std@@@std@@@std@@QBEABQAPAVxOggStream@SOUND@NMBASE@@XZ 10070600 f i StreamManager.obj
 0001:0006f660       ?_Myfirst@?$_Vector_alloc@U?$_Vec_base_types@PAVxOggStream@SOUND@NMBASE@@V?$allocator@PAVxOggStream@SOUND@NMBASE@@@std@@@std@@@std@@QAEAAPAPAVxOggStream@SOUND@NMBASE@@XZ 10070660 f i StreamManager.obj
 0001:0006f6c0       ?_Myfirst@?$_Vector_alloc@U?$_Vec_base_types@PAVxOggStream@SOUND@NMBASE@@V?$allocator@PAVxOggStream@SOUND@NMBASE@@@std@@@std@@@std@@QBEABQAPAVxOggStream@SOUND@NMBASE@@XZ 100706c0 f i StreamManager.obj
 0001:0006f720       ?_Mylast@?$_Vector_alloc@U?$_Vec_base_types@PAVxOggStream@SOUND@NMBASE@@V?$allocator@PAVxOggStream@SOUND@NMBASE@@@std@@@std@@@std@@QAEAAPAPAVxOggStream@SOUND@NMBASE@@XZ 10070720 f i StreamManager.obj
 0001:0006f780       ?_Mylast@?$_Vector_alloc@U?$_Vec_base_types@PAVxOggStream@SOUND@NMBASE@@V?$allocator@PAVxOggStream@SOUND@NMBASE@@@std@@@std@@@std@@QBEABQAPAVxOggStream@SOUND@NMBASE@@XZ 10070780 f i StreamManager.obj
 0001:0006f7e0       ?_Myproxy@?$_Vector_alloc@U?$_Vec_base_types@PAVxOggStream@SOUND@NMBASE@@V?$allocator@PAVxOggStream@SOUND@NMBASE@@@std@@@std@@@std@@QAEAAPAU_Container_proxy@2@XZ 100707e0 f i StreamManager.obj
 0001:0006f830       ?_Orphan_all@?$_Vector_alloc@U?$_Vec_base_types@PAVxOggStream@SOUND@NMBASE@@V?$allocator@PAVxOggStream@SOUND@NMBASE@@@std@@@std@@@std@@QAEXXZ 10070830 f i StreamManager.obj
 0001:0006f890       ?_Orphan_range@?$vector@PAVxOggStream@SOUND@NMBASE@@V?$allocator@PAVxOggStream@SOUND@NMBASE@@@std@@@std@@ABEXPAPAVxOggStream@SOUND@NMBASE@@0@Z 10070890 f i StreamManager.obj
 0001:0006fa00       ?_Tidy@?$vector@PAVxOggStream@SOUND@NMBASE@@V?$allocator@PAVxOggStream@SOUND@NMBASE@@@std@@@std@@AAEXXZ 10070a00 f i StreamManager.obj
 0001:0006faf0       ?_Umove@?$vector@PAVxOggStream@SOUND@NMBASE@@V?$allocator@PAVxOggStream@SOUND@NMBASE@@@std@@@std@@AAEPAPAVxOggStream@SOUND@NMBASE@@PAPAV345@00@Z 10070af0 f i StreamManager.obj
 0001:0006fb60       ?_Umove_if_noexcept1@?$vector@PAVxOggStream@SOUND@NMBASE@@V?$allocator@PAVxOggStream@SOUND@NMBASE@@@std@@@std@@AAEXPAPAVxOggStream@SOUND@NMBASE@@00U?$integral_constant@_N$00@2@@Z 10070b60 f i StreamManager.obj
 0001:0006fbd0       ?_Umove_if_noexcept@?$vector@PAVxOggStream@SOUND@NMBASE@@V?$allocator@PAVxOggStream@SOUND@NMBASE@@@std@@@std@@AAEXPAPAVxOggStream@SOUND@NMBASE@@00@Z 10070bd0 f i StreamManager.obj
 0001:0006fc50       ?_Xlength@?$vector@PAVxOggStream@SOUND@NMBASE@@V?$allocator@PAVxOggStream@SOUND@NMBASE@@@std@@@std@@CAXXZ 10070c50 f i StreamManager.obj
 0001:0006fca0       ?allocate@?$allocator@PAVxOggStream@SOUND@NMBASE@@@std@@QAEPAPAVxOggStream@SOUND@NMBASE@@I@Z 10070ca0 f i StreamManager.obj
 0001:0006fd10       ?begin@?$vector@PAVxOggStream@SOUND@NMBASE@@V?$allocator@PAVxOggStream@SOUND@NMBASE@@@std@@@std@@QAE?AV?$_Vector_iterator@V?$_Vector_val@U?$_Simple_types@PAVxOggStream@SOUND@NMBASE@@@std@@@std@@@2@XZ 10070d10 f i StreamManager.obj
 0001:0006fdc0       ?capacity@?$vector@PAVxOggStream@SOUND@NMBASE@@V?$allocator@PAVxOggStream@SOUND@NMBASE@@@std@@@std@@QBEIXZ 10070dc0 f i StreamManager.obj
 0001:0006fe30       ?clear@?$vector@PAVxOggStream@SOUND@NMBASE@@V?$allocator@PAVxOggStream@SOUND@NMBASE@@@std@@@std@@QAEXXZ 10070e30 f i StreamManager.obj
 0001:0006ff00       ?deallocate@?$allocator@PAVxOggStream@SOUND@NMBASE@@@std@@QAEXQAPAVxOggStream@SOUND@NMBASE@@I@Z 10070f00 f i StreamManager.obj
 0001:0006ff60       ?end@?$vector@PAVxOggStream@SOUND@NMBASE@@V?$allocator@PAVxOggStream@SOUND@NMBASE@@@std@@@std@@QAE?AV?$_Vector_iterator@V?$_Vector_val@U?$_Simple_types@PAVxOggStream@SOUND@NMBASE@@@std@@@std@@@2@XZ 10070f60 f i StreamManager.obj
 0001:00070010       ?erase@?$vector@PAVxOggStream@SOUND@NMBASE@@V?$allocator@PAVxOggStream@SOUND@NMBASE@@@std@@@std@@QAE?AV?$_Vector_iterator@V?$_Vector_val@U?$_Simple_types@PAVxOggStream@SOUND@NMBASE@@@std@@@std@@@2@V?$_Vector_const_iterator@V?$_Vector_val@U?$_Simple_types@PAVxOggStream@SOUND@NMBASE@@@std@@@std@@@2@@Z 10071010 f i StreamManager.obj
 0001:00070260       ?gStreamMan@SOUND@NMBASE@@YAAAVCStreamManager@12@XZ 10071260 f   StreamManager.obj
 0001:000702b0       ?max_size@?$_Default_allocator_traits@V?$allocator@PAVxOggStream@SOUND@NMBASE@@@std@@@std@@SAIABV?$allocator@PAVxOggStream@SOUND@NMBASE@@@2@@Z 100712b0 f i StreamManager.obj
 0001:000702f0       ?max_size@?$vector@PAVxOggStream@SOUND@NMBASE@@V?$allocator@PAVxOggStream@SOUND@NMBASE@@@std@@@std@@QBEIXZ 100712f0 f i StreamManager.obj
 0001:00070380       ?push_back@?$vector@PAVxOggStream@SOUND@NMBASE@@V?$allocator@PAVxOggStream@SOUND@NMBASE@@@std@@@std@@QAEXABQAVxOggStream@SOUND@NMBASE@@@Z 10071380 f i StreamManager.obj
 0001:000703e0       ?size@?$vector@PAVxOggStream@SOUND@NMBASE@@V?$allocator@PAVxOggStream@SOUND@NMBASE@@@std@@@std@@QBEIXZ 100713e0 f i StreamManager.obj
 0001:000704d0       ??0COggAutoLock@SOUND@NMBASE@@QAE@PAVxOggStream@12@@Z 100714d0 f i xOgg.obj
 0001:00070540       ??0SOUND_DESC@SOUND@NMBASE@@QAE@XZ 10071540 f i xOgg.obj
 0001:000705a0       ??0xOggFile@SOUND@NMBASE@@QAE@XZ 100715a0 f   xOgg.obj
 0001:000706a0       ??0xOggStream@SOUND@NMBASE@@QAE@XZ 100716a0 f   xOgg.obj
 0001:000707e0       ??1COggAutoLock@SOUND@NMBASE@@QAE@XZ 100717e0 f i xOgg.obj
 0001:00070870       ??1xOggFile@SOUND@NMBASE@@QAE@XZ 10071870 f   xOgg.obj
 0001:000709f0       ??1xOggStream@SOUND@NMBASE@@QAE@XZ 100719f0 f   xOgg.obj
 0001:00070a90       ??_GxMMTimer@SOUND@NMBASE@@QAEPAXI@Z 10071a90 f i xOgg.obj
 0001:00070b00       ??_GxOggFile@SOUND@NMBASE@@QAEPAXI@Z 10071b00 f i xOgg.obj
 0001:00070b80       ?Create@xOggStream@SOUND@NMBASE@@QAEHPBD@Z 10071b80 f   xOgg.obj
 0001:00070e90       ?Cue@xOggStream@SOUND@NMBASE@@QAEXXZ 10071e90 f   xOgg.obj
 0001:00070f50       ?CueFile@xOggFile@SOUND@NMBASE@@QAEHXZ 10071f50 f   xOgg.obj
 0001:00070ff0       ?Destroy@xOggStream@SOUND@NMBASE@@QAEHXZ 10071ff0 f   xOgg.obj
 0001:000711a0       ?GetAvgDataRate@xOggFile@SOUND@NMBASE@@QAEIXZ 100721a0 f i xOgg.obj
 0001:000711e0       ?GetDataSize@xOggFile@SOUND@NMBASE@@QAEIXZ 100721e0 f i xOgg.obj
 0001:00071220       ?GetDuration@xOggFile@SOUND@NMBASE@@QAEIXZ 10072220 f i xOgg.obj
 0001:00071260       ?GetMaxWriteSize@xOggStream@SOUND@NMBASE@@QAEKXZ 10072260 f   xOgg.obj
 0001:00071380       ?GetNumBytesRemaining@xOggFile@SOUND@NMBASE@@QAEIXZ 10072380 f i xOgg.obj
 0001:000713d0       ?GetSilenceData@xOggFile@SOUND@NMBASE@@QAEEXZ 100723d0 f   xOgg.obj
 0001:00071450       ?IsPlaying@xOggStream@SOUND@NMBASE@@QAEHXZ 10072450 f   xOgg.obj
 0001:000714a0       ?Lock@xOggStream@SOUND@NMBASE@@QAEXXZ 100724a0 f i xOgg.obj
 0001:00071500       ?Open@xOggFile@SOUND@NMBASE@@QAEHPBD@Z 10072500 f   xOgg.obj
 0001:00071960       ?Play@xOggStream@SOUND@NMBASE@@QAEXHJJH_N@Z 10072960 f   xOgg.obj
 0001:00071bc0       ?Read@xOggFile@SOUND@NMBASE@@QAEIPAEI@Z 10072bc0 f   xOgg.obj
 0001:00071e00       ?RegisterStreamMan@xOggStream@SOUND@NMBASE@@QAEXH@Z 10072e00 f   xOgg.obj
 0001:00071ec0       ?Reset@SOUND_DESC@SOUND@NMBASE@@QAEXXZ 10072ec0 f i xOgg.obj
 0001:00071f40       ?ServiceBuffer@xOggStream@SOUND@NMBASE@@QAEHAA_N@Z 10072f40 f   xOgg.obj
 0001:00072240       ?SetPanning@xOggStream@SOUND@NMBASE@@QAEHJ@Z 10073240 f   xOgg.obj
 0001:00072310       ?SetPlaying@xOggStream@SOUND@NMBASE@@QAEXH@Z 10073310 f   xOgg.obj
 0001:00072360       ?SetVolume@xOggStream@SOUND@NMBASE@@QAEHJ@Z 10073360 f   xOgg.obj
 0001:00072470       ?Stop@xOggStream@SOUND@NMBASE@@QAEXXZ 10073470 f   xOgg.obj
 0001:000725a0       ?TimerCallback@xOggStream@SOUND@NMBASE@@SAHK@Z 100735a0 f   xOgg.obj
 0001:00072730       ?Unlock@xOggStream@SOUND@NMBASE@@QAEXXZ 10073730 f i xOgg.obj
 0001:00072790       ?WriteSilence@xOggStream@SOUND@NMBASE@@QAEHI@Z 10073790 f   xOgg.obj
 0001:000729e0       ?WriteWaveData@xOggStream@SOUND@NMBASE@@QAEHI@Z 100739e0 f   xOgg.obj
 0001:00072c30       ?log10@@YAMM@Z             10073c30 f i xOgg.obj
 0001:00072d10       _log10f                    10073d10 f i xOgg.obj
 0001:00072d80       ??0xMMTimer@SOUND@NMBASE@@QAE@XZ 10073d80 f   xSound.obj
 0001:00072dd0       ??0xMidi@SOUND@NMBASE@@QAE@XZ 10073dd0 f   xSound.obj
 0001:00072e10       ??0xMusicCD@SOUND@NMBASE@@QAE@XZ 10073e10 f   xSound.obj
 0001:00072e60       ??0xSound@SOUND@NMBASE@@QAE@XZ 10073e60 f   xSound.obj
 0001:00072ee0       ??0xSoundBuffer@SOUND@NMBASE@@QAE@XZ 10073ee0 f   xSound.obj
 0001:00072f50       ??0xStream@SOUND@NMBASE@@QAE@XZ 10073f50 f   xSound.obj
 0001:00073050       ??0xWaveFile@SOUND@NMBASE@@QAE@XZ 10074050 f   xSound.obj
 0001:00073140       ??1xMMTimer@SOUND@NMBASE@@QAE@XZ 10074140 f   xSound.obj
 0001:000731e0       ??1xMusicCD@SOUND@NMBASE@@QAE@XZ 100741e0 f   xSound.obj
 0001:00073220       ??1xSound@SOUND@NMBASE@@QAE@XZ 10074220 f   xSound.obj
 0001:000732a0       ??1xSoundBuffer@SOUND@NMBASE@@QAE@XZ 100742a0 f   xSound.obj
 0001:00073330       ??1xStream@SOUND@NMBASE@@QAE@XZ 10074330 f   xSound.obj
 0001:000733c0       ??1xWaveFile@SOUND@NMBASE@@QAE@XZ 100743c0 f   xSound.obj
 0001:00073460       ??_GxWaveFile@SOUND@NMBASE@@QAEPAXI@Z 10074460 f i xSound.obj
 0001:000734d0       ?Create@x3DSoundBuffer@SOUND@NMBASE@@UAEJPADH@Z 100744d0 f   xSound.obj
 0001:00073a10       ?Create@xMMTimer@SOUND@NMBASE@@QAE_NIIKP6AHK@Z@Z 10074a10 f   xSound.obj
 0001:00073ae0       ?Create@xSoundBuffer@SOUND@NMBASE@@UAEJPADH@Z 10074ae0 f   xSound.obj
 0001:00074030       ?Create@xStream@SOUND@NMBASE@@QAEHPAD@Z 10075030 f   xSound.obj
 0001:00074330       ?Cue@xStream@SOUND@NMBASE@@QAEXXZ 10075330 f   xSound.obj
 0001:000743e0       ?Cue@xWaveFile@SOUND@NMBASE@@QAEHXZ 100753e0 f   xSound.obj
 0001:000744f0       ?Destroy@xSound@SOUND@NMBASE@@SAXXZ 100754f0 f   xSound.obj
 0001:000745f0       ?Destroy@xSoundBuffer@SOUND@NMBASE@@QAEXXZ 100755f0 f   xSound.obj
 0001:00074770       ?Destroy@xStream@SOUND@NMBASE@@QAEHXZ 10075770 f   xSound.obj
 0001:00074870       ?GetAvgDataRate@xWaveFile@SOUND@NMBASE@@QAEIXZ 10075870 f i xSound.obj
 0001:000748b0       ?GetDataSize@xWaveFile@SOUND@NMBASE@@QAEIXZ 100758b0 f i xSound.obj
 0001:000748f0       ?GetDuration@xWaveFile@SOUND@NMBASE@@QAEIXZ 100758f0 f i xSound.obj
 0001:00074930       ?GetFreeBuffer@xSoundBuffer@SOUND@NMBASE@@QAEPAUIDirectSoundBuffer@@XZ 10075930 f   xSound.obj
 0001:00074af0       ?GetMasterVolume@xSound@SOUND@NMBASE@@SAJXZ 10075af0 f   xSound.obj
 0001:00074b30       ?GetMaxWriteSize@xStream@SOUND@NMBASE@@QAEKXZ 10075b30 f   xSound.obj
 0001:00074c50       ?GetNumBytesRemaining@xWaveFile@SOUND@NMBASE@@QAEIXZ 10075c50 f i xSound.obj
 0001:00074ca0       ?GetSilenceData@xWaveFile@SOUND@NMBASE@@QAEEXZ 10075ca0 f   xSound.obj
 0001:00074d20       ?GetTotalLength@xMusicCD@SOUND@NMBASE@@SAFXZ 10075d20 f   xSound.obj
 0001:00074db0       ?GetTrackLength@xMusicCD@SOUND@NMBASE@@SAFF@Z 10075db0 f   xSound.obj
 0001:00074e20       ?Init@xMidi@SOUND@NMBASE@@SAHPAUHWND__@@PAD@Z 10075e20 f   xSound.obj
 0001:00074ec0       ?Init@xSound@SOUND@NMBASE@@SAJPAUHWND__@@@Z 10075ec0 f   xSound.obj
 0001:00075090       ?IsPlaying@xSoundBuffer@SOUND@NMBASE@@QAEHH@Z 10076090 f   xSound.obj
 0001:00075280       ?OnMM_MCINOTIFY@xMidi@SOUND@NMBASE@@SAXIJ@Z 10076280 f   xSound.obj
 0001:000752e0       ?Open@xWaveFile@SOUND@NMBASE@@QAEHPAD@Z 100762e0 f   xSound.obj
 0001:000757c0       ?Pause@xMidi@SOUND@NMBASE@@SAHXZ 100767c0 f   xSound.obj
 0001:00075830       ?Play@xMidi@SOUND@NMBASE@@SAHH@Z 10076830 f   xSound.obj
 0001:000759c0       ?Play@xMusicCD@SOUND@NMBASE@@SAXF@Z 100769c0 f   xSound.obj
 0001:00075b80       ?Play@xSoundBuffer@SOUND@NMBASE@@QAEJHJJH@Z 10076b80 f   xSound.obj
 0001:00075dd0       ?Play@xStream@SOUND@NMBASE@@QAEXHJJ@Z 10076dd0 f   xSound.obj
 0001:00075fe0       ?Read@xMusicCD@SOUND@NMBASE@@SAFXZ 10076fe0 f   xSound.obj
 0001:000761f0       ?Read@xWaveFile@SOUND@NMBASE@@QAEIPAEI@Z 100771f0 f   xSound.obj
 0001:00076450       ?Replay@xMidi@SOUND@NMBASE@@SAHXZ 10077450 f   xSound.obj
 0001:000764e0       ?Restart@xMidi@SOUND@NMBASE@@SAHXZ 100774e0 f   xSound.obj
 0001:00076560       ?Resume@xMidi@SOUND@NMBASE@@SAHXZ 10077560 f   xSound.obj
 0001:000765e0       ?ServiceBuffer@xStream@SOUND@NMBASE@@QAEHXZ 100775e0 f   xSound.obj
 0001:000767c0       ?SetMasterVolume@xSound@SOUND@NMBASE@@SAXJ@Z 100777c0 f   xSound.obj
 0001:00076820       ?SetPanning@xSoundBuffer@SOUND@NMBASE@@QAEHPAUIDirectSoundBuffer@@J@Z 10077820 f   xSound.obj
 0001:000768f0       ?SetPanning@xStream@SOUND@NMBASE@@QAEHJ@Z 100778f0 f   xSound.obj
 0001:000769c0       ?SetSoundPanning@xSoundBuffer@SOUND@NMBASE@@QAEHJJ@Z 100779c0 f   xSound.obj
 0001:00076ad0       ?SetSoundVolume@xSoundBuffer@SOUND@NMBASE@@QAEHJJ@Z 10077ad0 f   xSound.obj
 0001:00076c40       ?SetTrackLength@xMusicCD@SOUND@NMBASE@@SAXFF@Z 10077c40 f   xSound.obj
 0001:00076ca0       ?SetVolume@xSoundBuffer@SOUND@NMBASE@@QAEHPAUIDirectSoundBuffer@@J@Z 10077ca0 f   xSound.obj
 0001:00076dd0       ?SetVolume@xStream@SOUND@NMBASE@@QAEHJ@Z 10077dd0 f   xSound.obj
 0001:00076eb0       ?Stop@xMMTimer@SOUND@NMBASE@@QAE_NXZ 10077eb0 f   xSound.obj
 0001:00076f30       ?Stop@xMidi@SOUND@NMBASE@@SAHXZ 10077f30 f   xSound.obj
 0001:00076fa0       ?Stop@xMusicCD@SOUND@NMBASE@@SAXXZ 10077fa0 f   xSound.obj
 0001:00077010       ?Stop@xSoundBuffer@SOUND@NMBASE@@QAEJH@Z 10078010 f   xSound.obj
 0001:00077230       ?Stop@xStream@SOUND@NMBASE@@QAEXXZ 10078230 f   xSound.obj
 0001:00077320       ?TimeProc@xMMTimer@SOUND@NMBASE@@KGXIIKKK@Z 10078320 f   xSound.obj
 0001:000773c0       ?TimerCallback@xStream@SOUND@NMBASE@@SAHK@Z 100783c0 f   xSound.obj
 0001:00077410       ?WriteSilence@xStream@SOUND@NMBASE@@QAEHI@Z 10078410 f   xSound.obj
 0001:00077640       ?WriteWaveData@xStream@SOUND@NMBASE@@QAEHI@Z 10078640 f   xSound.obj
 0001:00077870       __vsprintf_l               10078870 f i xSound.obj
 0001:000778d0       _sprintf                   100788d0 f i xSound.obj
 0001:00077941       _waveOutGetVolume@8        10078941 f   winmm:WINMM.dll
 0001:00077947       _waveOutSetVolume@8        10078947 f   winmm:WINMM.dll
 0001:0007794d       _mciSendCommandA@16        1007894d f   winmm:WINMM.dll
 0001:00077953       _mciGetErrorStringA@12     10078953 f   winmm:WINMM.dll
 0001:00077959       _PlaySoundA@12             10078959 f   winmm:WINMM.dll
 0001:0007795f       _timeGetTime@0             1007895f f   winmm:WINMM.dll
 0001:00077965       _timeSetEvent@20           10078965 f   winmm:WINMM.dll
 0001:0007796b       _timeKillEvent@4           1007896b f   winmm:WINMM.dll
 0001:00077971       _mmioOpenA@12              10078971 f   winmm:WINMM.dll
 0001:00077977       _mmioClose@8               10078977 f   winmm:WINMM.dll
 0001:0007797d       _mmioRead@12               1007897d f   winmm:WINMM.dll
 0001:00077983       _mmioSeek@12               10078983 f   winmm:WINMM.dll
 0001:00077989       _mmioGetInfo@12            10078989 f   winmm:WINMM.dll
 0001:0007798f       _mmioSetInfo@12            1007898f f   winmm:WINMM.dll
 0001:00077995       _mmioAdvance@12            10078995 f   winmm:WINMM.dll
 0001:0007799b       _mmioDescend@16            1007899b f   winmm:WINMM.dll
 0001:000779a1       _mmioAscend@12             100789a1 f   winmm:WINMM.dll
 0001:000779a7       _mciSendStringA@16         100789a7 f   winmm:WINMM.dll
 0001:000779ad       _DirectSoundCreate@12      100789ad f   dsound:DSOUND.dll
 0001:000779b3       ??2CObject@@SGPAXIPBDH@Z   100789b3 f   mfc140d:mfc140d.dll
 0001:000779b9       ?AfxGetModuleState@@YGPAVAFX_MODULE_STATE@@XZ 100789b9 f   mfc140d:mfc140d.dll
 0001:000779bf       ??0CDynLinkLibrary@@QAE@AAUAFX_EXTENSION_MODULE@@H@Z 100789bf f   mfc140d:mfc140d.dll
 0001:000779c5       ?AfxInitExtensionModule@@YGHAAUAFX_EXTENSION_MODULE@@PAUHINSTANCE__@@@Z 100789c5 f   mfc140d:mfc140d.dll
 0001:000779cb       ?AfxTermExtensionModule@@YGXAAUAFX_EXTENSION_MODULE@@H@Z 100789cb f   mfc140d:mfc140d.dll
 0001:000779d1       ??3@YAXPAX@Z               100789d1 f   mfc140d:mfc140d.dll
 0001:000779d7       ??2@YAPAXI@Z               100789d7 f   mfc140d:mfc140d.dll
 0001:000779dd       ??B?$CSimpleStringT@D$00@ATL@@QBEPBDXZ 100789dd f   mfc140d:mfc140d.dll
 0001:000779e3       ??0?$CStringT@DV?$StrTraitMFC_DLL@DV?$ChTraitsCRT@D@ATL@@@@@ATL@@QAE@XZ 100789e3 f   mfc140d:mfc140d.dll
 0001:000779e9       ??1?$CStringT@DV?$StrTraitMFC_DLL@DV?$ChTraitsCRT@D@ATL@@@@@ATL@@QAE@XZ 100789e9 f   mfc140d:mfc140d.dll
 0001:000779ef       ?Format@?$CStringT@DV?$StrTraitMFC_DLL@DV?$ChTraitsCRT@D@ATL@@@@@ATL@@QAAXPBDZZ 100789ef f   mfc140d:mfc140d.dll
 0001:000779f5       ??0CFileFind@@QAE@XZ       100789f5 f   mfc140d:mfc140d.dll
 0001:000779fb       ??1CFileFind@@UAE@XZ       100789fb f   mfc140d:mfc140d.dll
 0001:00077a01       ?GetFilePath@CFileFind@@UBE?AV?$CStringT@DV?$StrTraitMFC_DLL@DV?$ChTraitsCRT@D@ATL@@@@@ATL@@XZ 10078a01 f   mfc140d:mfc140d.dll
 0001:00077a07       ?Close@CFileFind@@QAEXXZ   10078a07 f   mfc140d:mfc140d.dll
 0001:00077a0d       ?FindFile@CFileFind@@UAEHPBDK@Z 10078a0d f   mfc140d:mfc140d.dll
 0001:00077a13       ?FindNextFileA@CFileFind@@UAEHXZ 10078a13 f   mfc140d:mfc140d.dll
 0001:00077a19       ?GetSafeHwnd@CWnd@@QBEPAUHWND__@@XZ 10078a19 f   mfc140d:mfc140d.dll
 0001:00077a1f       ?AfxMessageBox@@YGHPBDII@Z 10078a1f f   mfc140d:mfc140d.dll
 0001:00077a25       ??_U@YAPAXI@Z              10078a25 f   mfc140d:mfc140d.dll
 0001:00077a30       ??1CComBSTR@ATL@@QAE@XZ    10078a30 f i mfcs140d:nolib.obj
 0001:00077a70       ??1stringdispid@CComTypeInfoHolder@ATL@@QAE@XZ 10078a70 f i mfcs140d:nolib.obj
 0001:00077aa0       ??_Estringdispid@CComTypeInfoHolder@ATL@@QAEPAXI@Z 10078aa0 f i mfcs140d:nolib.obj
 0001:00077b80       _IsolationAwareActivateActCtx@8 10078b80 f i mfcs140d:nolib.obj
 0001:00077c40       _IsolationAwareCreateActCtxW@4 10078c40 f i mfcs140d:nolib.obj
 0001:00077d00       _IsolationAwareDeactivateActCtx@8 10078d00 f i mfcs140d:nolib.obj
 0001:00077dc0       _IsolationAwareFindActCtxSectionStringW@20 10078dc0 f i mfcs140d:nolib.obj
 0001:00077e90       _IsolationAwarePrivatenPgViNgRzlnPgpgk@4 10078e90 f i mfcs140d:nolib.obj
 0001:00077fb0       _IsolationAwarePrivatezltRgCebPnQQeRff@12 10078fb0 f i mfcs140d:nolib.obj
 0001:00078080       _IsolationAwarePrivatezltRgzbQhYRuNaQYRJ@4 10079080 f i mfcs140d:nolib.obj
 0001:000780b0       _IsolationAwarePrivatezltRgzbQhYRuNaQYRn@4 100790b0 f i mfcs140d:nolib.obj
 0001:000780e0       _IsolationAwareQueryActCtxW@28 100790e0 f i mfcs140d:nolib.obj
 0001:000781c0       _IsolationAwareUnregisterClassA@8 100791c0 f i mfcs140d:nolib.obj
 0001:000783d0       _WinbaseIsolationAwarePrivatetRgCebPnQQeRff_xReaRYQP_QYY@4 100793d0 f i mfcs140d:nolib.obj
 0001:00078400       _WinbaseIsolationAwarePrivatetRgzlnPgpgk@0 10079400 f i mfcs140d:nolib.obj
 0001:00078850       ??3@YAXPAXI@Z              10079850 f   msvcrtd:delete_scalar_size.obj
 0001:00078870       ??$__crt_fast_decode_pointer@PAP6AXXZ@@YAPAP6AXXZQAP6AXXZ@Z 10079870 f i msvcrtd:utility.obj
 0001:000788a0       ??$__crt_fast_encode_pointer@PAP6AXXZ@@YAPAP6AXXZQAP6AXXZ@Z 100798a0 f i msvcrtd:utility.obj
 0001:000788e0       ?__crt_rotate_pointer_value@@YAIIH@Z 100798e0 f i msvcrtd:utility.obj
 0001:000788f0       ?configure_argv@__scrt_narrow_argv_policy@@SAHXZ 100798f0 f i msvcrtd:utility.obj
 0001:000789c0       ?initialize_environment@__scrt_narrow_environment_policy@@SAHXZ 100799c0 f i msvcrtd:utility.obj
 0001:00078a60       _NtCurrentTeb              10079a60 f i msvcrtd:utility.obj
 0001:00078a70       ___scrt_acquire_startup_lock 10079a70 f   msvcrtd:utility.obj
 0001:00078ad0       ___scrt_dllmain_after_initialize_c 10079ad0 f   msvcrtd:utility.obj
 0001:00078b10       ___scrt_dllmain_before_initialize_c 10079b10 f   msvcrtd:utility.obj
 0001:00078b40       ___scrt_dllmain_crt_thread_attach 10079b40 f   msvcrtd:utility.obj
 0001:00078b80       ___scrt_dllmain_crt_thread_detach 10079b80 f   msvcrtd:utility.obj
 0001:00078ba0       ___scrt_dllmain_exception_filter 10079ba0 f   msvcrtd:utility.obj
 0001:00078c00       ___scrt_dllmain_uninitialize_c 10079c00 f   msvcrtd:utility.obj
 0001:00078c40       ___scrt_dllmain_uninitialize_critical 10079c40 f   msvcrtd:utility.obj
 0001:00078c60       ___scrt_initialize_crt     10079c60 f   msvcrtd:utility.obj
 0001:00078cc0       ___scrt_initialize_onexit_tables 10079cc0 f   msvcrtd:utility.obj
 0001:00078de0       ___scrt_is_nonwritable_in_current_image 10079de0 f   msvcrtd:utility.obj
 0001:00078f60       ___scrt_release_startup_lock 10079f60 f   msvcrtd:utility.obj
 0001:00078f90       ___scrt_uninitialize_crt   10079f90 f   msvcrtd:utility.obj
 0001:00078fe0       __onexit                   10079fe0 f   msvcrtd:utility.obj
 0001:00079070       _at_quick_exit             1007a070 f   msvcrtd:utility.obj
 0001:000790d0       _atexit                    1007a0d0 f   msvcrtd:utility.obj
 0001:00079150       ??$__crt_fast_decode_pointer@P6GHPAU_RTL_CONDITION_VARIABLE@@PAU_RTL_CRITICAL_SECTION@@K@Z@@YAP6GHPAU_RTL_CONDITION_VARIABLE@@PAU_RTL_CRITICAL_SECTION@@K@ZQ6GH01K@Z@Z 1007a150 f i msvcrtd:thread_safe_statics.obj
 0001:00079180       ??$__crt_fast_decode_pointer@P6GXPAU_RTL_CONDITION_VARIABLE@@@Z@@YAP6GXPAU_RTL_CONDITION_VARIABLE@@@ZQ6GX0@Z@Z 1007a180 f i msvcrtd:thread_safe_statics.obj
 0001:000791b0       ??$__crt_fast_encode_pointer@P6GHPAU_RTL_CONDITION_VARIABLE@@PAU_RTL_CRITICAL_SECTION@@K@Z@@YAP6GHPAU_RTL_CONDITION_VARIABLE@@PAU_RTL_CRITICAL_SECTION@@K@ZQ6GH01K@Z@Z 1007a1b0 f i msvcrtd:thread_safe_statics.obj
 0001:000791f0       ??$__crt_fast_encode_pointer@P6GXPAU_RTL_CONDITION_VARIABLE@@@Z@@YAP6GXPAU_RTL_CONDITION_VARIABLE@@@ZQ6GX0@Z@Z 1007a1f0 f i msvcrtd:thread_safe_statics.obj
 0001:000793a0       ?__scrt_is_event_api_used@@YA_NQAX@Z 1007a3a0 f i msvcrtd:thread_safe_statics.obj
 0001:00079450       __Init_thread_abort        1007a450 f   msvcrtd:thread_safe_statics.obj
 0001:00079480       __Init_thread_footer       1007a480 f   msvcrtd:thread_safe_statics.obj
 0001:000794e0       __Init_thread_header       1007a4e0 f   msvcrtd:thread_safe_statics.obj
 0001:00079570       __Init_thread_lock         1007a570 f   msvcrtd:thread_safe_statics.obj
 0001:00079590       __Init_thread_notify       1007a590 f   msvcrtd:thread_safe_statics.obj
 0001:00079610       __Init_thread_unlock       1007a610 f   msvcrtd:thread_safe_statics.obj
 0001:00079630       __Init_thread_wait         1007a630 f   msvcrtd:thread_safe_statics.obj
 0001:000796f0       @_RTC_AllocaHelper@12      1007a6f0 f   msvcrtd:stack.obj
 0001:00079730       @_RTC_CheckStackVars2@12   1007a730 f   msvcrtd:stack.obj
 0001:00079850       @_RTC_CheckStackVars@8     1007a850 f   msvcrtd:stack.obj
 0001:000798d0       __RTC_CheckEsp             1007a8d0 f   msvcrtd:stack.obj
 0001:00079910       @__security_check_cookie@4 1007a910 f   msvcrtd:secchk.obj
 0001:00079930       __CRT_RTC_INIT             1007a930 f   msvcrtd:init.obj
 0001:00079940       __CRT_RTC_INITW            1007a940 f   msvcrtd:init.obj
 0001:00079950       __RTC_InitBase             1007a950 f   msvcrtd:init.obj
 0001:00079990       __RTC_Shutdown             1007a990 f   msvcrtd:init.obj
 0001:000799b0       ??1type_info@@UAE@XZ       1007a9b0 f   msvcrtd:std_type_info_static.obj
 0001:000799d0       ??_Gtype_info@@UAEPAXI@Z   1007a9d0 f i msvcrtd:std_type_info_static.obj
 0001:000799d0       ??_Etype_info@@UAEPAXI@Z   1007a9d0 f i msvcrtd:std_type_info_static.obj
 0001:00079a10       __ftoui3                   1007aa10 f   msvcrtd:ftol3.obj
 0001:00079a1f       __ftoul3                   1007aa1f f   msvcrtd:ftol3.obj
 0001:00079a2e       __ftol3                    1007aa2e f   msvcrtd:ftol3.obj
 0001:00079a3b       __ftol3_NaN                1007aa3b f   msvcrtd:ftol3.obj
 0001:00079a53       __ftol3_work               1007aa53 f   msvcrtd:ftol3.obj
 0001:00079ad9       __ftol3_common             1007aad9 f   msvcrtd:ftol3.obj
 0001:00079b9b       __ftol3_arg_error          1007ab9b f   msvcrtd:ftol3.obj
 0001:00079bad       __ftol3_except             1007abad f   msvcrtd:ftol3.obj
 0001:00079bf1       __dtoui3                   1007abf1 f   msvcrtd:ftol3.obj
 0001:00079c00       __dtoul3                   1007ac00 f   msvcrtd:ftol3.obj
 0001:00079c0f       __dtol3                    1007ac0f f   msvcrtd:ftol3.obj
 0001:00079c1c       __dtol3_NaN                1007ac1c f   msvcrtd:ftol3.obj
 0001:00079c39       __dtol3_work               1007ac39 f   msvcrtd:ftol3.obj
 0001:00079d20       __ultod3                   1007ad20 f   msvcrtd:ftol3.obj
 0001:00079d60       __ltod3                    1007ad60 f   msvcrtd:ftol3.obj
 0001:00079e70       ??_M@YGXPAXIHP6EX0@Z@Z     1007ae70 f   msvcrtd:ehvecdtr.obj
 0001:00079ea0       ??_M@YGXPAXIIP6EX0@Z@Z     1007aea0 f   msvcrtd:ehvecdtr.obj
 0001:00079fe0       ?__ArrayUnwind@@YGXPAXIIP6EX0@Z@Z 1007afe0 f   msvcrtd:ehvecdtr.obj
 0001:0007a0c0       ??_V@YAXPAXI@Z             1007b0c0 f   msvcrtd:delete_array_size.obj
 0001:0007a0e0       __chkstk                   1007b0e0 f   msvcrtd:chkstk.obj
 0001:0007a0e0       __alloca_probe             1007b0e0 f   msvcrtd:chkstk.obj
 0001:0007a120       __alldiv                   1007b120 f   msvcrtd:lldiv.obj
 0001:0007a200       __allmul                   1007b200 f   msvcrtd:llmul.obj
 0001:0007a300       ?_RTC_AllocaFailure@@YAXPAXPAU_RTC_ALLOCA_NODE@@H@Z 1007b300 f   msvcrtd:error.obj
 0001:0007a420       ?_RTC_Failure@@YAXPAXH@Z   1007b420 f   msvcrtd:error.obj
 0001:0007a490       ?_RTC_StackFailure@@YAXPAXPBD@Z 1007b490 f   msvcrtd:error.obj
 0001:0007a940       __RTC_UninitUse            1007b940 f   msvcrtd:error.obj
 0001:0007aa20       __vsprintf_s_l             1007ba20 f i msvcrtd:error.obj
 0001:0007aa60       _sprintf_s                 1007ba60 f i msvcrtd:error.obj
 0001:0007b050       __CRT_INIT@12              1007c050 f   msvcrtd:dll_dllmain.obj
 0001:0007b070       __DllMainCRTStartup@12     1007c070 f   msvcrtd:dll_dllmain.obj
 0001:0007b0a0       __ftol2_sse                1007c0a0 f   msvcrtd:ftol2.obj
 0001:0007b0a9       __ftol2_pentium4           1007c0a9 f   msvcrtd:ftol2.obj
 0001:0007b0bc       __ftol2_sse_excpt          1007c0bc f   msvcrtd:ftol2.obj
 0001:0007b0e0       __ftol2                    1007c0e0 f   msvcrtd:ftol2.obj
 0001:0007b190       __allshl                   1007c190 f   msvcrtd:llshl.obj
 0001:0007b1c0       __allshr                   1007c1c0 f   msvcrtd:llshr.obj
 0001:0007b1f0       __alloca_probe_16          1007c1f0 f   msvcrtd:alloca16.obj
 0001:0007b206       __alloca_probe_8           1007c206     msvcrtd:alloca16.obj
 0001:0007b230       __except_handler4          1007c230 f   msvcrtd:chandler4gs.obj
 0001:0007b260       @_guard_check_icall_nop@4  1007c260 f i msvcrtd:guard_support.obj
 0001:0007b270       _ReadNoFence               1007c270 f i msvcrtd:guard_support.obj
 0001:0007b290       _ReadPointerNoFence        1007c290 f i msvcrtd:guard_support.obj
 0001:0007b2b0       __guard_icall_checks_enforced 1007c2b0 f i msvcrtd:guard_support.obj
 0001:0007b2f0       ___isa_available_init      1007c2f0 f   msvcrtd:cpu_disp.obj
 0001:0007b680       __get_startup_argv_mode    1007c680 f   msvcrtd:argv_mode.obj
 0001:0007b690       ___scrt_is_ucrt_dll_in_use 1007c690 f   msvcrtd:ucrt_detection.obj
 0001:0007b6c0       ___scrt_fastfail           1007c6c0 f   msvcrtd:utility_desktop.obj
 0001:0007b850       ___scrt_get_show_window_mode 1007c850 f   msvcrtd:utility_desktop.obj
 0001:0007b8a0       ___scrt_initialize_mta     1007c8a0 f   msvcrtd:utility_desktop.obj
 0001:0007b8b0       ___scrt_initialize_winrt   1007c8b0 f   msvcrtd:utility_desktop.obj
 0001:0007b8c0       ___scrt_is_managed_app     1007c8c0 f   msvcrtd:utility_desktop.obj
 0001:0007b970       ___scrt_set_unhandled_exception_filter 1007c970 f   msvcrtd:utility_desktop.obj
 0001:0007b990       ___scrt_stub_for_initialize_mta 1007c990 f   msvcrtd:utility_desktop.obj
 0001:0007b990       ___scrt_exe_initialize_mta 1007c990 f   msvcrtd:utility_desktop.obj
 0001:0007b9a0       ___scrt_unhandled_exception_filter@4 1007c9a0 f   msvcrtd:utility_desktop.obj
 0001:0007ba20       __crt_debugger_hook        1007ca20 f   msvcrtd:utility_desktop.obj
 0001:0007ba40       ___raise_securityfailure   1007ca40 f   msvcrtd:gs_report.obj
 0001:0007ba80       ___report_gsfailure        1007ca80 f   msvcrtd:gs_report.obj
 0001:0007bbd0       ___report_rangecheckfailure 1007cbd0 f   msvcrtd:gs_report.obj
 0001:0007bbe0       ___report_securityfailure  1007cbe0 f   msvcrtd:gs_report.obj
 0001:0007bcf0       ___report_securityfailureEx 1007ccf0 f   msvcrtd:gs_report.obj
 0001:0007be60       ?_RTC_GetErrorFunc@@YAP6AHHPBDH00ZZPBX@Z 1007ce60 f   msvcrtd:userapi.obj
 0001:0007be70       ?_RTC_GetErrorFuncW@@YAP6AHHPB_WH00ZZPBX@Z 1007ce70 f   msvcrtd:userapi.obj
 0001:0007be80       __RTC_GetErrDesc           1007ce80 f   msvcrtd:userapi.obj
 0001:0007bea0       __RTC_NumErrors            1007cea0 f   msvcrtd:userapi.obj
 0001:0007beb0       __RTC_SetErrorFunc         1007ceb0 f   msvcrtd:userapi.obj
 0001:0007bee0       __RTC_SetErrorFuncW        1007cee0 f   msvcrtd:userapi.obj
 0001:0007bf10       __RTC_SetErrorType         1007cf10 f   msvcrtd:userapi.obj
 0001:0007bf40       ??_V@YAXPAX@Z              1007cf40 f   msvcrtd:delete_array.obj
 0001:0007c4f0       ?_RTC_GetSrcLine@@YAHPAEPA_WKPAH1K@Z 1007d4f0 f   msvcrtd:pdblkup.obj
 0001:0007c960       __except_handler4_noexcept 1007d960 f   msvcrtd:chandler4_noexcept.obj
 0001:0007ca50       ___security_init_cookie    1007da50 f   msvcrtd:gs_support.obj
 0001:0007caf0       ?__scrt_initialize_type_info@@YAXXZ 1007daf0 f   msvcrtd:tncleanup.obj
 0001:0007cb10       ?__scrt_uninitialize_type_info@@YAXXZ 1007db10 f   msvcrtd:tncleanup.obj
 0001:0007cb30       ___local_stdio_scanf_options 1007db30 f i msvcrtd:default_local_stdio_options.obj
 0001:0007cb40       ___scrt_initialize_default_local_stdio_options 1007db40 f   msvcrtd:default_local_stdio_options.obj
 0001:0007cb90       ___scrt_get_dyn_tls_init_callback 1007db90 f   msvcrtd:dyn_tls_init.obj
 0001:0007cba0       __RTC_Initialize           1007dba0 f   msvcrtd:initsect.obj
 0001:0007cbe0       __RTC_Terminate            1007dbe0 f   msvcrtd:initsect.obj
 0001:0007cc19       _DecodePointer@4           1007dc19 f   kernel32:KERNEL32.dll
 0001:0007cc1f       _HeapDestroy@4             1007dc1f f   kernel32:KERNEL32.dll
 0001:0007cc25       _HeapAlloc@12              1007dc25 f   kernel32:KERNEL32.dll
 0001:0007cc2b       _HeapReAlloc@16            1007dc2b f   kernel32:KERNEL32.dll
 0001:0007cc31       _HeapFree@12               1007dc31 f   kernel32:KERNEL32.dll
 0001:0007cc37       _HeapSize@12               1007dc37 f   kernel32:KERNEL32.dll
 0001:0007cc3d       _GetProcessHeap@0          1007dc3d f   kernel32:KERNEL32.dll
 0001:0007cc43       _RaiseException@16         1007dc43 f   kernel32:KERNEL32.dll
 0001:0007cc49       _GetLastError@0            1007dc49 f   kernel32:KERNEL32.dll
 0001:0007cc4f       _SetLastError@4            1007dc4f f   kernel32:KERNEL32.dll
 0001:0007cc55       _InitializeCriticalSectionAndSpinCount@8 1007dc55 f   kernel32:KERNEL32.dll
 0001:0007cc5b       _DeleteCriticalSection@4   1007dc5b f   kernel32:KERNEL32.dll
 0001:0007cc61       _MultiByteToWideChar@24    1007dc61 f   kernel32:KERNEL32.dll
 0001:0007cc67       _GetModuleHandleA@4        1007dc67 f   kernel32:KERNEL32.dll
 0001:0007cc6d       _GetCurrentDirectoryA@8    1007dc6d f   kernel32:KERNEL32.dll
 0001:0007cc73       _AllocConsole@0            1007dc73 f   kernel32:KERNEL32.dll
 0001:0007cc79       _GetTickCount@0            1007dc79 f   kernel32:KERNEL32.dll
 0001:0007cc7f       _InitializeCriticalSection@4 1007dc7f f   kernel32:KERNEL32.dll
 0001:0007cc85       _EnterCriticalSection@4    1007dc85 f   kernel32:KERNEL32.dll
 0001:0007cc8b       _LeaveCriticalSection@4    1007dc8b f   kernel32:KERNEL32.dll
 0001:0007cc91       _Sleep@4                   1007dc91 f   kernel32:KERNEL32.dll
 0001:0007cc97       _CloseHandle@4             1007dc97 f   kernel32:KERNEL32.dll
 0001:0007cc9d       _IsBadReadPtr@8            1007dc9d f   kernel32:KERNEL32.dll
 0001:0007cca3       _InterlockedExchange@8     1007dca3 f   kernel32:KERNEL32.dll
 0001:0007cca9       _GlobalAlloc@8             1007dca9 f   kernel32:KERNEL32.dll
 0001:0007ccaf       _GlobalFree@4              1007dcaf f   kernel32:KERNEL32.dll
 0001:0007ccb5       _IsBadWritePtr@8           1007dcb5 f   kernel32:KERNEL32.dll
 0001:0007ccbb       _OutputDebugStringA@4      1007dcbb f   kernel32:KERNEL32.dll
 0001:0007ccc1       _GetModuleFileNameW@12     1007dcc1 f   kernel32:KERNEL32.dll
 0001:0007ccc7       _GetModuleHandleW@4        1007dcc7 f   kernel32:KERNEL32.dll
 0001:0007cccd       _GetProcAddress@8          1007dccd f   kernel32:KERNEL32.dll
 0001:0007ccd3       _LoadLibraryW@4            1007dcd3 f   kernel32:KERNEL32.dll
 0001:0007ccd9       _SetEvent@4                1007dcd9 f   kernel32:KERNEL32.dll
 0001:0007ccdf       _ResetEvent@4              1007dcdf f   kernel32:KERNEL32.dll
 0001:0007cce5       _WaitForSingleObjectEx@12  1007dce5 f   kernel32:KERNEL32.dll
 0001:0007cceb       _CreateEventW@16           1007dceb f   kernel32:KERNEL32.dll
 0001:0007ccf1       _IsDebuggerPresent@0       1007dcf1 f   kernel32:KERNEL32.dll
 0001:0007ccf7       _WideCharToMultiByte@32    1007dcf7 f   kernel32:KERNEL32.dll
 0001:0007ccfd       _IsProcessorFeaturePresent@4 1007dcfd f   kernel32:KERNEL32.dll
 0001:0007cd03       _UnhandledExceptionFilter@4 1007dd03 f   kernel32:KERNEL32.dll
 0001:0007cd09       _SetUnhandledExceptionFilter@4 1007dd09 f   kernel32:KERNEL32.dll
 0001:0007cd0f       _GetStartupInfoW@4         1007dd0f f   kernel32:KERNEL32.dll
 0001:0007cd15       _GetCurrentProcess@0       1007dd15 f   kernel32:KERNEL32.dll
 0001:0007cd1b       _TerminateProcess@8        1007dd1b f   kernel32:KERNEL32.dll
 0001:0007cd21       _VirtualQuery@12           1007dd21 f   kernel32:KERNEL32.dll
 0001:0007cd27       _FreeLibrary@4             1007dd27 f   kernel32:KERNEL32.dll
 0001:0007cd2d       _QueryPerformanceCounter@4 1007dd2d f   kernel32:KERNEL32.dll
 0001:0007cd33       _GetCurrentProcessId@0     1007dd33 f   kernel32:KERNEL32.dll
 0001:0007cd39       _GetCurrentThreadId@0      1007dd39 f   kernel32:KERNEL32.dll
 0001:0007cd3f       _GetSystemTimeAsFileTime@4 1007dd3f f   kernel32:KERNEL32.dll
 0001:0007cd45       _InitializeSListHead@4     1007dd45 f   kernel32:KERNEL32.dll
 0001:0007cd4b       _UnregisterClassA@8        1007dd4b f   user32:USER32.dll
 0001:0007cd51       _DefWindowProcA@16         1007dd51 f   user32:USER32.dll
 0001:0007cd57       _RegisterClassExA@4        1007dd57 f   user32:USER32.dll
 0001:0007cd5d       _CreateWindowExA@48        1007dd5d f   user32:USER32.dll
 0001:0007cd63       _DestroyWindow@4           1007dd63 f   user32:USER32.dll
 0001:0007cd69       _GetWindowLongA@8          1007dd69 f   user32:USER32.dll
 0001:0007cd6f       _SetWindowLongA@12         1007dd6f f   user32:USER32.dll
 0001:0007cd75       _wsprintfA                 1007dd75 f   user32:USER32.dll
 0001:0007cd7b       _IsIconic@4                1007dd7b f   user32:USER32.dll
 0001:0007cd81       ??$?2PAUHINSTANCE__@@@Wrapper@?$CSimpleArray@PAUHINSTANCE__@@V?$CSimpleArrayEqualHelper@PAUHINSTANCE__@@@ATL@@@ATL@@SAPAXIPAPAUHINSTANCE__@@@Z 1007dd81 f i atls:atlbase.obj
 0001:0007cd8b       ??0?$CComCritSecLock@VCComCriticalSection@ATL@@@ATL@@QAE@AAVCComCriticalSection@1@_N@Z 1007dd8b f i atls:atlbase.obj
 0001:0007cdbb       ??0?$CSimpleArray@PAUHINSTANCE__@@V?$CSimpleArrayEqualHelper@PAUHINSTANCE__@@@ATL@@@ATL@@QAE@XZ 1007ddbb f i atls:atlbase.obj
 0001:0007cdcb       ??0CAtlBaseModule@ATL@@QAE@XZ 1007ddcb f   atls:atlbase.obj
 0001:0007ce32       ??0Wrapper@?$CSimpleArray@PAUHINSTANCE__@@V?$CSimpleArrayEqualHelper@PAUHINSTANCE__@@@ATL@@@ATL@@QAE@ABQAUHINSTANCE__@@@Z 1007de32 f i atls:atlbase.obj
 0001:0007ce46       ??0_ATL_BASE_MODULE70@ATL@@QAE@XZ 1007de46 f i atls:atlbase.obj
 0001:0007ce71       ??1?$CComCritSecLock@VCComCriticalSection@ATL@@@ATL@@QAE@XZ 1007de71 f i atls:atlbase.obj
 0001:0007ce8d       ??1?$CSimpleArray@PAUHINSTANCE__@@V?$CSimpleArrayEqualHelper@PAUHINSTANCE__@@@ATL@@@ATL@@QAE@XZ 1007de8d f i atls:atlbase.obj
 0001:0007ce92       ??1CAtlBaseModule@ATL@@QAE@XZ 1007de92 f   atls:atlbase.obj
 0001:0007cead       ??1_ATL_BASE_MODULE70@ATL@@QAE@XZ 1007dead f i atls:atlbase.obj
 0001:0007ceb7       ??A?$CSimpleArray@PAUHINSTANCE__@@V?$CSimpleArrayEqualHelper@PAUHINSTANCE__@@@ATL@@@ATL@@QAEAAPAUHINSTANCE__@@H@Z 1007deb7 f i atls:atlbase.obj
 0001:0007cee5       ?Add@?$CSimpleArray@PAUHINSTANCE__@@V?$CSimpleArrayEqualHelper@PAUHINSTANCE__@@@ATL@@@ATL@@QAEHABQAUHINSTANCE__@@@Z 1007dee5 f i atls:atlbase.obj
 0001:0007cf87       ?AddResourceInstance@CAtlBaseModule@ATL@@QAE_NPAUHINSTANCE__@@@Z 1007df87 f   atls:atlbase.obj
 0001:0007cfc6       ?AtlCrtErrorCheck@ATL@@YAHH@Z 1007dfc6 f i atls:atlbase.obj
 0001:0007d00f       ?AtlThrowImpl@ATL@@YGXJ@Z  1007e00f f i atls:atlbase.obj
 0001:0007d038       ?GetHInstanceAt@CAtlBaseModule@ATL@@QAEPAUHINSTANCE__@@H@Z 1007e038 f   atls:atlbase.obj
 0001:0007d08e       ?GetSize@?$CSimpleArray@PAUHINSTANCE__@@V?$CSimpleArrayEqualHelper@PAUHINSTANCE__@@@ATL@@@ATL@@QBEHXZ 1007e08e f i atls:atlbase.obj
 0001:0007d092       ?InternalSetAtIndex@?$CSimpleArray@PAUHINSTANCE__@@V?$CSimpleArrayEqualHelper@PAUHINSTANCE__@@@ATL@@@ATL@@QAEXHABQAUHINSTANCE__@@@Z 1007e092 f i atls:atlbase.obj
 0001:0007d0b2       ?Lock@?$CComCritSecLock@VCComCriticalSection@ATL@@@ATL@@QAEJXZ 1007e0b2 f i atls:atlbase.obj
 0001:0007d0c9       ?Lock@CComCriticalSection@ATL@@QAEJXZ 1007e0c9 f i atls:atlbase.obj
 0001:0007d0d5       ?RemoveAll@?$CSimpleArray@PAUHINSTANCE__@@V?$CSimpleArrayEqualHelper@PAUHINSTANCE__@@@ATL@@@ATL@@QAEXXZ 1007e0d5 f i atls:atlbase.obj
 0001:0007d0f9       ?RemoveAt@?$CSimpleArray@PAUHINSTANCE__@@V?$CSimpleArrayEqualHelper@PAUHINSTANCE__@@@ATL@@@ATL@@QAEHH@Z 1007e0f9 f i atls:atlbase.obj
 0001:0007d15a       ?RemoveResourceInstance@CAtlBaseModule@ATL@@QAE_NPAUHINSTANCE__@@@Z 1007e15a f   atls:atlbase.obj
 0001:0007d1ce       ?Unlock@?$CComCritSecLock@VCComCriticalSection@ATL@@@ATL@@QAEXXZ 1007e1ce f i atls:atlbase.obj
 0001:0007d1e3       ?Unlock@CComCriticalSection@ATL@@QAEJXZ 1007e1e3 f i atls:atlbase.obj
 0001:0007d1ef       ?memmove_s@Checked@ATL@@YAXPAXIPBXI@Z 1007e1ef f i atls:atlbase.obj
 0001:0007d2b3       ??0?$CTraceCategoryEx@$00$0A@@ATL@@QAE@PB_W@Z 1007e2b3 f i atls:stdafx.obj
 0001:0007d2b8       ??0?$CTraceCategoryEx@$01$0A@@ATL@@QAE@PB_W@Z 1007e2b8 f i atls:stdafx.obj
 0001:0007d2bd       ??0?$CTraceCategoryEx@$03$0A@@ATL@@QAE@PB_W@Z 1007e2bd f i atls:stdafx.obj
 0001:0007d2c2       ??0?$CTraceCategoryEx@$07$0A@@ATL@@QAE@PB_W@Z 1007e2c2 f i atls:stdafx.obj
 0001:0007d2c7       ??0?$CTraceCategoryEx@$0BA@$0A@@ATL@@QAE@PB_W@Z 1007e2c7 f i atls:stdafx.obj
 0001:0007d2cc       ??0?$CTraceCategoryEx@$0BAA@$0A@@ATL@@QAE@PB_W@Z 1007e2cc f i atls:stdafx.obj
 0001:0007d2d1       ??0?$CTraceCategoryEx@$0BAAA@$0A@@ATL@@QAE@PB_W@Z 1007e2d1 f i atls:stdafx.obj
 0001:0007d2d6       ??0?$CTraceCategoryEx@$0BAAAA@$0A@@ATL@@QAE@PB_W@Z 1007e2d6 f i atls:stdafx.obj
 0001:0007d2db       ??0?$CTraceCategoryEx@$0BAAAAA@$0A@@ATL@@QAE@PB_W@Z 1007e2db f i atls:stdafx.obj
 0001:0007d2e0       ??0?$CTraceCategoryEx@$0CA@$0A@@ATL@@QAE@PB_W@Z 1007e2e0 f i atls:stdafx.obj
 0001:0007d2e5       ??0?$CTraceCategoryEx@$0CAA@$0A@@ATL@@QAE@PB_W@Z 1007e2e5 f i atls:stdafx.obj
 0001:0007d2ea       ??0?$CTraceCategoryEx@$0CAAA@$0A@@ATL@@QAE@PB_W@Z 1007e2ea f i atls:stdafx.obj
 0001:0007d2ef       ??0?$CTraceCategoryEx@$0CAAAA@$0A@@ATL@@QAE@PB_W@Z 1007e2ef f i atls:stdafx.obj
 0001:0007d2f4       ??0?$CTraceCategoryEx@$0CAAAAA@$0A@@ATL@@QAE@PB_W@Z 1007e2f4 f i atls:stdafx.obj
 0001:0007d2f9       ??0?$CTraceCategoryEx@$0EA@$0A@@ATL@@QAE@PB_W@Z 1007e2f9 f i atls:stdafx.obj
 0001:0007d2fe       ??0?$CTraceCategoryEx@$0EAA@$0A@@ATL@@QAE@PB_W@Z 1007e2fe f i atls:stdafx.obj
 0001:0007d303       ??0?$CTraceCategoryEx@$0EAAA@$0A@@ATL@@QAE@PB_W@Z 1007e303 f i atls:stdafx.obj
 0001:0007d308       ??0?$CTraceCategoryEx@$0EAAAA@$0A@@ATL@@QAE@PB_W@Z 1007e308 f i atls:stdafx.obj
 0001:0007d30d       ??0?$CTraceCategoryEx@$0EAAAAA@$0A@@ATL@@QAE@PB_W@Z 1007e30d f i atls:stdafx.obj
 0001:0007d312       ??0?$CTraceCategoryEx@$0IA@$0A@@ATL@@QAE@PB_W@Z 1007e312 f i atls:stdafx.obj
 0001:0007d317       ??0?$CTraceCategoryEx@$0IAA@$0A@@ATL@@QAE@PB_W@Z 1007e317 f i atls:stdafx.obj
 0001:0007d31c       ??0?$CTraceCategoryEx@$0IAAA@$0A@@ATL@@QAE@PB_W@Z 1007e31c f i atls:stdafx.obj
 0001:0007d321       ??0?$CTraceCategoryEx@$0IAAAA@$0A@@ATL@@QAE@PB_W@Z 1007e321 f i atls:stdafx.obj
 0001:0007d326       ??_I@YGXPAXIIP6EX0@Z@Z     1007e326 f i atls:stdafx.obj
 0001:0007d365       _SysFreeString@4           1007e365 f   oleaut32:OLEAUT32.dll
 0001:0007d36b       ??0_Lockit@std@@QAE@H@Z    1007e36b f   msvcprtd:MSVCP140D.dll
 0001:0007d371       ??1_Lockit@std@@QAE@XZ     1007e371 f   msvcprtd:MSVCP140D.dll
 0001:0007d377       ?_Xlength_error@std@@YAXPBD@Z 1007e377 f   msvcprtd:MSVCP140D.dll
 0001:0007d37d       ?_Xout_of_range@std@@YAXPBD@Z 1007e37d f   msvcprtd:MSVCP140D.dll
 0001:0007d383       _memset                    1007e383 f   vcruntimed:VCRUNTIME140D.dll
 0001:0007d389       ___CxxFrameHandler3        1007e389 f   vcruntimed:VCRUNTIME140D.dll
 0001:0007d38f       _memcmp                    1007e38f f   vcruntimed:VCRUNTIME140D.dll
 0001:0007d395       _memcpy                    1007e395 f   vcruntimed:VCRUNTIME140D.dll
 0001:0007d39b       _memmove                   1007e39b f   vcruntimed:VCRUNTIME140D.dll
 0001:0007d3a1       __CxxThrowException@8      1007e3a1 f   vcruntimed:VCRUNTIME140D.dll
 0001:0007d3a7       _memchr                    1007e3a7 f   vcruntimed:VCRUNTIME140D.dll
 0001:0007d3ad       __except_handler4_common   1007e3ad f   vcruntimed:VCRUNTIME140D.dll
 0001:0007d3b3       ___vcrt_GetModuleFileNameW 1007e3b3 f   vcruntimed:VCRUNTIME140D.dll
 0001:0007d3b9       ___vcrt_GetModuleHandleW   1007e3b9 f   vcruntimed:VCRUNTIME140D.dll
 0001:0007d3bf       ___vcrt_LoadLibraryExW     1007e3bf f   vcruntimed:VCRUNTIME140D.dll
 0001:0007d3c5       ___std_type_info_destroy_list 1007e3c5 f   vcruntimed:VCRUNTIME140D.dll
 0001:0007d3cb       _wcscpy_s                  1007e3cb f   ucrtd:ucrtbased.dll
 0001:0007d3d1       _wcslen                    1007e3d1 f   ucrtd:ucrtbased.dll
 0001:0007d3d7       ___stdio_common_vswprintf_s 1007e3d7 f   ucrtd:ucrtbased.dll
 0001:0007d3dd       ___stdio_common_vsprintf   1007e3dd f   ucrtd:ucrtbased.dll
 0001:0007d3e3       ___stdio_common_vsnprintf_s 1007e3e3 f   ucrtd:ucrtbased.dll
 0001:0007d3e9       _free                      1007e3e9 f   ucrtd:ucrtbased.dll
 0001:0007d3ef       _malloc                    1007e3ef f   ucrtd:ucrtbased.dll
 0001:0007d3f5       __CrtDbgReportW            1007e3f5 f   ucrtd:ucrtbased.dll
 0001:0007d3fb       __invalid_parameter        1007e3fb f   ucrtd:ucrtbased.dll
 0001:0007d401       _strcpy                    1007e401 f   ucrtd:ucrtbased.dll
 0001:0007d407       _strlen                    1007e407 f   ucrtd:ucrtbased.dll
 0001:0007d40d       _fclose                    1007e40d f   ucrtd:ucrtbased.dll
 0001:0007d413       _fread                     1007e413 f   ucrtd:ucrtbased.dll
 0001:0007d419       __fseeki64                 1007e419 f   ucrtd:ucrtbased.dll
 0001:0007d41f       _ftell                     1007e41f f   ucrtd:ucrtbased.dll
 0001:0007d425       __CrtDbgReport             1007e425 f   ucrtd:ucrtbased.dll
 0001:0007d42b       _rand                      1007e42b f   ucrtd:ucrtbased.dll
 0001:0007d431       __beginthreadex            1007e431 f   ucrtd:ucrtbased.dll
 0001:0007d437       _fopen                     1007e437 f   ucrtd:ucrtbased.dll
 0001:0007d43d       _fseek                     1007e43d f   ucrtd:ucrtbased.dll
 0001:0007d443       _log10                     1007e443 f   ucrtd:ucrtbased.dll
 0001:0007d449       __wassert                  1007e449 f   ucrtd:ucrtbased.dll
 0001:0007d44f       _calloc                    1007e44f f   ucrtd:ucrtbased.dll
 0001:0007d455       __errno                    1007e455 f   ucrtd:ucrtbased.dll
 0001:0007d45b       _realloc                   1007e45b f   ucrtd:ucrtbased.dll
 0001:0007d461       _floor                     1007e461 f   ucrtd:ucrtbased.dll
 0001:0007d467       __seh_filter_dll           1007e467 f   ucrtd:ucrtbased.dll
 0001:0007d46d       __configure_narrow_argv    1007e46d f   ucrtd:ucrtbased.dll
 0001:0007d473       __initialize_narrow_environment 1007e473 f   ucrtd:ucrtbased.dll
 0001:0007d479       __initialize_onexit_table  1007e479 f   ucrtd:ucrtbased.dll
 0001:0007d47f       __register_onexit_function 1007e47f f   ucrtd:ucrtbased.dll
 0001:0007d485       __execute_onexit_table     1007e485 f   ucrtd:ucrtbased.dll
 0001:0007d48b       __crt_atexit               1007e48b f   ucrtd:ucrtbased.dll
 0001:0007d491       __crt_at_quick_exit        1007e491 f   ucrtd:ucrtbased.dll
 0001:0007d497       __cexit                    1007e497 f   ucrtd:ucrtbased.dll
 0001:0007d49d       __except1                  1007e49d f   ucrtd:ucrtbased.dll
 0001:0007d4a3       _terminate                 1007e4a3 f   ucrtd:ucrtbased.dll
 0001:0007d4a9       _strcpy_s                  1007e4a9 f   ucrtd:ucrtbased.dll
 0001:0007d4af       _strcat_s                  1007e4af f   ucrtd:ucrtbased.dll
 0001:0007d4b5       ___stdio_common_vsprintf_s 1007e4b5 f   ucrtd:ucrtbased.dll
 0001:0007d4bb       __initterm                 1007e4bb f   ucrtd:ucrtbased.dll
 0001:0007d4c1       __initterm_e               1007e4c1 f   ucrtd:ucrtbased.dll
 0001:0007d4c7       __wmakepath_s              1007e4c7 f   ucrtd:ucrtbased.dll
 0001:0007d4cd       __wsplitpath_s             1007e4cd f   ucrtd:ucrtbased.dll
 0001:0007d4d3       __invalid_parameter_noinfo 1007e4d3 f   ucrtd:ucrtbased.dll
 0001:0007d4d9       __recalloc                 1007e4d9 f   ucrtd:ucrtbased.dll
 0001:0007d4df       __cputs                    1007e4df f   ucrtd:ucrtbased.dll
 0001:0007d4e5       __strnicmp                 1007e4e5 f   ucrtd:ucrtbased.dll
 0001:0007d4eb       _OutputDebugStringW@4      1007e4eb f   kernel32:KERNEL32.dll
 0001:0007d4f1       _strcat                    1007e4f1 f   ucrtd:ucrtbased.dll
 0001:0007d4f7       _toupper                   1007e4f7 f   ucrtd:ucrtbased.dll
 0001:0007d4fd       _atan                      1007e4fd f   ucrtd:ucrtbased.dll
 0001:0007d503       _exp                       1007e503 f   ucrtd:ucrtbased.dll
 0001:0007d509       _log                       1007e509 f   ucrtd:ucrtbased.dll
 0001:0007d50f       _ceil                      1007e50f f   ucrtd:ucrtbased.dll
 0001:0007d515       _abs                       1007e515 f   ucrtd:ucrtbased.dll
 0001:0007d51b       _fabs                      1007e51b f   ucrtd:ucrtbased.dll
 0001:0007d521       _qsort                     1007e521 f   ucrtd:ucrtbased.dll
 0001:0007d527       _sqrt                      1007e527 f   ucrtd:ucrtbased.dll
 0001:0007d52d       _ldexp                     1007e52d f   ucrtd:ucrtbased.dll
 0001:0007d533       _pow                       1007e533 f   ucrtd:ucrtbased.dll
 0001:0007d539       _labs                      1007e539 f   ucrtd:ucrtbased.dll
 0001:0007d53f       _sin                       1007e53f f   ucrtd:ucrtbased.dll
 0001:0007d545       _cos                       1007e545 f   ucrtd:ucrtbased.dll
 0001:0007d54b       _exit                      1007e54b f   ucrtd:ucrtbased.dll
 0001:0007d551       _acos                      1007e551 f   ucrtd:ucrtbased.dll
 0001:0007d560       ___scrt_stub_for_acrt_initialize 1007e560 f   msvcrtd:ucrt_stubs.obj
 0001:0007d560       ___vcrt_initialize         1007e560 f   msvcrtd:ucrt_stubs.obj
 0001:0007d560       ___acrt_initialize         1007e560 f   msvcrtd:ucrt_stubs.obj
 0001:0007d570       ___scrt_stub_for_acrt_thread_attach 1007e570 f   msvcrtd:ucrt_stubs.obj
 0001:0007d570       ___vcrt_thread_attach      1007e570 f   msvcrtd:ucrt_stubs.obj
 0001:0007d570       ___acrt_thread_attach      1007e570 f   msvcrtd:ucrt_stubs.obj
 0001:0007d580       ___scrt_stub_for_acrt_thread_detach 1007e580 f   msvcrtd:ucrt_stubs.obj
 0001:0007d580       ___vcrt_thread_detach      1007e580 f   msvcrtd:ucrt_stubs.obj
 0001:0007d580       ___acrt_thread_detach      1007e580 f   msvcrtd:ucrt_stubs.obj
 0001:0007d590       ___acrt_uninitialize       1007e590 f   msvcrtd:ucrt_stubs.obj
 0001:0007d590       ___scrt_stub_for_acrt_uninitialize 1007e590 f   msvcrtd:ucrt_stubs.obj
 0001:0007d590       ___vcrt_uninitialize       1007e590 f   msvcrtd:ucrt_stubs.obj
 0001:0007d5a0       ___acrt_uninitialize_critical 1007e5a0 f   msvcrtd:ucrt_stubs.obj
 0001:0007d5a0       ___scrt_stub_for_acrt_uninitialize_critical 1007e5a0 f   msvcrtd:ucrt_stubs.obj
 0001:0007d5a0       ___vcrt_uninitialize_critical 1007e5a0 f   msvcrtd:ucrt_stubs.obj
 0001:0007d5b0       __is_c_termination_complete 1007e5b0 f   msvcrtd:ucrt_stubs.obj
 0001:0007d5b0       ___scrt_stub_for_is_c_termination_complete 1007e5b0 f   msvcrtd:ucrt_stubs.obj
 0001:00084040       ??__FstrHeap@?1??GetInstance@CAtlStringMgr@ATL@@SAPAUIAtlStringMgr@2@XZ@YAXXZ 10085040 f i dllmain.obj
 0001:00084090       ??__FstrMgr@?1??GetInstance@CAtlStringMgr@ATL@@SAPAUIAtlStringMgr@2@XZ@YAXXZ 10085090 f i dllmain.obj
 0002:00000000       ___xc_a                    10087000     msvcrtd:initializers.obj
 0002:000003e8       ___xc_z                    100873e8     msvcrtd:initializers.obj
 0002:000004ec       ___xi_a                    100874ec     msvcrtd:initializers.obj
 0002:000006f4       ___xi_z                    100876f4     msvcrtd:initializers.obj
 0002:000007f8       ___xl_a                    100877f8     msvcrtd:tlssup.obj
 0002:000007fc       ___xl_z                    100877fc     msvcrtd:tlssup.obj
 0002:00000800       ___xp_a                    10087800     msvcrtd:initializers.obj
 0002:00000904       ___xp_z                    10087904     msvcrtd:initializers.obj
 0002:00000a08       ___xt_a                    10087a08     msvcrtd:initializers.obj
 0002:00000b0c       ___xt_z                    10087b0c     msvcrtd:initializers.obj
 0002:00000c10       __pAtlLcidToLocaleNameTable 10087c10     dllmain.obj
 0002:0000149c       ??_C@_15EMKDOKLE@?$AAa?$AAr@ 1008849c     dllmain.obj
 0002:000014a4       ??_C@_15KNPADPLH@?$AAb?$AAg@ 100884a4     dllmain.obj
 0002:000014ac       ??_C@_15EDMHLDMO@?$AAc?$AAa@ 100884ac     dllmain.obj
 0002:000014b4       ??_C@_1O@BPEAJADD@?$AAz?$AAh?$AA?9?$AAC?$AAH?$AAS@ 100884b4     dllmain.obj
 0002:000014c4       ??_C@_15LJNHCMNK@?$AAc?$AAs@ 100884c4     dllmain.obj
 0002:000014cc       ??_C@_15FOMCIDHG@?$AAd?$AAa@ 100884cc     dllmain.obj
 0002:000014d4       ??_C@_15NBKABECB@?$AAd?$AAe@ 100884d4     dllmain.obj
 0002:000014dc       ??_C@_15GHPEIIAO@?$AAe?$AAl@ 100884dc     dllmain.obj
 0002:000014e4       ??_C@_15MNPNEAIF@?$AAe?$AAn@ 100884e4     dllmain.obj
 0002:000014ec       ??_C@_15GPIOMPMH@?$AAe?$AAs@ 100884ec     dllmain.obj
 0002:000014f4       ??_C@_15NGLOAKJC@?$AAf?$AAi@ 100884f4     dllmain.obj
 0002:000014fc       ??_C@_15FBKGNKAM@?$AAf?$AAr@ 100884fc     dllmain.obj
 0002:00001504       ??_C@_15KGGCNEFK@?$AAh?$AAe@ 10088504     dllmain.obj
 0002:0000150c       ??_C@_15PGHLIDMF@?$AAh?$AAu@ 1008850c     dllmain.obj
 0002:00001514       ??_C@_15BIEMAPLM@?$AAi?$AAs@ 10088514     dllmain.obj
 0002:0000151c       ??_C@_15IFJLDHAF@?$AAi?$AAt@ 1008851c     dllmain.obj
 0002:00001524       ??_C@_15GEMIOCAG@?$AAj?$AAa@ 10088524     dllmain.obj
 0002:0000152c       ??_C@_15EPELEGJA@?$AAk?$AAo@ 1008852c     dllmain.obj
 0002:00001534       ??_C@_15NDDHIMN@?$AAn?$AAl@ 10088534     dllmain.obj
 0002:0000153c       ??_C@_15BPIGNHCD@?$AAn?$AAo@ 1008853c     dllmain.obj
 0002:00001544       ??_C@_15DEOPBLCG@?$AAp?$AAl@ 10088544     dllmain.obj
 0002:0000154c       ??_C@_15KBECGEFG@?$AAp?$AAt@ 1008854c     dllmain.obj
 0002:00001554       ??_C@_15GLJCBFMD@?$AAr?$AAo@ 10088554     dllmain.obj
 0002:0000155c       ??_C@_15FEDGKCDI@?$AAr?$AAu@ 1008855c     dllmain.obj
 0002:00001564       ??_C@_15GLKMLLHM@?$AAh?$AAr@ 10088564     dllmain.obj
 0002:0000156c       ??_C@_15CPKMFBDB@?$AAs?$AAk@ 1008856c     dllmain.obj
 0002:00001574       ??_C@_15BAAIOGMK@?$AAs?$AAq@ 10088574     dllmain.obj
 0002:0000157c       ??_C@_15INNPNOHD@?$AAs?$AAv@ 1008857c     dllmain.obj
 0002:00001584       ??_C@_15CABMMOGH@?$AAt?$AAh@ 10088584     dllmain.obj
 0002:0000158c       ??_C@_15BPLIHJJM@?$AAt?$AAr@ 1008858c     dllmain.obj
 0002:00001594       ??_C@_15NEOEKKDJ@?$AAu?$AAr@ 10088594     dllmain.obj
 0002:0000159c       ??_C@_15NFICGAJK@?$AAi?$AAd@ 1008859c     dllmain.obj
 0002:000015a4       ??_C@_15PJPFLCCM@?$AAu?$AAk@ 100885a4     dllmain.obj
 0002:000015ac       ??_C@_15HPJPHDM@?$AAb?$AAe@ 100885ac     dllmain.obj
 0002:000015b4       ??_C@_15LCHLGJII@?$AAs?$AAl@ 100885b4     dllmain.obj
 0002:000015bc       ??_C@_15PCFJPHHO@?$AAe?$AAt@ 100885bc     dllmain.obj
 0002:000015c4       ??_C@_15HPFPGODN@?$AAl?$AAv@ 100885c4     dllmain.obj
 0002:000015cc       ??_C@_15NFFGKGLG@?$AAl?$AAt@ 100885cc     dllmain.obj
 0002:000015d4       ??_C@_15BDAKCCHN@?$AAf?$AAa@ 100885d4     dllmain.obj
 0002:000015dc       ??_C@_15NFGIAIAJ@?$AAv?$AAi@ 100885dc     dllmain.obj
 0002:000015e4       ??_C@_15LMKNDMHN@?$AAh?$AAy@ 100885e4     dllmain.obj
 0002:000015ec       ??_C@_15IJBHMCFL@?$AAa?$AAz@ 100885ec     dllmain.obj
 0002:000015f4       ??_C@_15EKOFJABL@?$AAe?$AAu@ 100885f4     dllmain.obj
 0002:000015fc       ??_C@_15BGHADCNK@?$AAm?$AAk@ 100885fc     dllmain.obj
 0002:00001604       ??_C@_15JDNICKHM@?$AAa?$AAf@ 10088604     dllmain.obj
 0002:0000160c       ??_C@_15KPJEDBKD@?$AAk?$AAa@ 1008860c     dllmain.obj
 0002:00001614       ??_C@_15PDNFFFEO@?$AAf?$AAo@ 10088614     dllmain.obj
 0002:0000161c       ??_C@_15OMLEGLOC@?$AAh?$AAi@ 1008861c     dllmain.obj
 0002:00001624       ??_C@_15IDNNENKK@?$AAm?$AAs@ 10088624     dllmain.obj
 0002:0000162c       ??_C@_15MACJNBMH@?$AAk?$AAk@ 1008862c     dllmain.obj
 0002:00001634       ??_C@_15DKDJEOND@?$AAk?$AAy@ 10088634     dllmain.obj
 0002:0000163c       ??_C@_15DFGDLJBG@?$AAs?$AAw@ 1008863c     dllmain.obj
 0002:00001644       ??_C@_15BBFAICNG@?$AAu?$AAz@ 10088644     dllmain.obj
 0002:0000164c       ??_C@_15DKNDCGEA@?$AAt?$AAt@ 1008864c     dllmain.obj
 0002:00001654       ??_C@_15MGIFMDPL@?$AAp?$AAa@ 10088654     dllmain.obj
 0002:0000165c       ??_C@_15HCNDBBA@?$AAg?$AAu@ 1008865c     dllmain.obj
 0002:00001664       ??_C@_15FNBEIBON@?$AAt?$AAa@ 10088664     dllmain.obj
 0002:0000166c       ??_C@_15NCHGBGLK@?$AAt?$AAe@ 1008866c     dllmain.obj
 0002:00001674       ??_C@_15PHPHCBPF@?$AAk?$AAn@ 10088674     dllmain.obj
 0002:0000167c       ??_C@_15DLGBCKMP@?$AAm?$AAr@ 1008867c     dllmain.obj
 0002:00001684       ??_C@_15EABBLBFF@?$AAs?$AAa@ 10088684     dllmain.obj
 0002:0000168c       ??_C@_15CBKOMCOI@?$AAm?$AAn@ 1008868c     dllmain.obj
 0002:00001694       ??_C@_15CKDMCJAF@?$AAg?$AAl@ 10088694     dllmain.obj
 0002:0000169c       ??_C@_17CNJFBPG@?$AAk?$AAo?$AAk@ 1008869c     dllmain.obj
 0002:000016a8       ??_C@_17FFBJICPL@?$AAs?$AAy?$AAr@ 100886a8     dllmain.obj
 0002:000016b4       ??_C@_17KPNDCPAF@?$AAd?$AAi?$AAv@ 100886b4     dllmain.obj
 0002:000016c0       ??_C@_11LOCGONAA@@         100886c0     dllmain.obj
 0002:000016c4       ??_C@_1M@OKAHONE@?$AAa?$AAr?$AA?9?$AAS?$AAA@ 100886c4     dllmain.obj
 0002:000016d4       ??_C@_1M@FFFIGIGK@?$AAb?$AAg?$AA?9?$AAB?$AAG@ 100886d4     dllmain.obj
 0002:000016e4       ??_C@_1M@BJNKEDC@?$AAc?$AAa?$AA?9?$AAE?$AAS@ 100886e4     dllmain.obj
 0002:000016f4       ??_C@_1M@CLNBBOPM@?$AAz?$AAh?$AA?9?$AAT?$AAW@ 100886f4     dllmain.obj
 0002:00001704       ??_C@_1M@IJJHFJHA@?$AAc?$AAs?$AA?9?$AAC?$AAZ@ 10088704     dllmain.obj
 0002:00001714       ??_C@_1M@CLPEOBGI@?$AAd?$AAa?$AA?9?$AAD?$AAK@ 10088714     dllmain.obj
 0002:00001724       ??_C@_1M@MCMADGCB@?$AAd?$AAe?$AA?9?$AAD?$AAE@ 10088724     dllmain.obj
 0002:00001734       ??_C@_1M@OOCKEMAM@?$AAe?$AAl?$AA?9?$AAG?$AAR@ 10088734     dllmain.obj
 0002:00001744       ??_C@_1M@BMHNFIME@?$AAe?$AAn?$AA?9?$AAU?$AAS@ 10088744     dllmain.obj
 0002:00001754       ??_C@_1M@DDNJFGID@?$AAf?$AAi?$AA?9?$AAF?$AAI@ 10088754     dllmain.obj
 0002:00001764       ??_C@_1M@GLIPPMAC@?$AAf?$AAr?$AA?9?$AAF?$AAR@ 10088764     dllmain.obj
 0002:00001774       ??_C@_1M@GFMCHPE@?$AAh?$AAe?$AA?9?$AAI?$AAL@ 10088774     dllmain.obj
 0002:00001784       ??_C@_1M@MHLPGNKM@?$AAh?$AAu?$AA?9?$AAH?$AAU@ 10088784     dllmain.obj
 0002:00001794       ??_C@_1M@LPDDNNPN@?$AAi?$AAs?$AA?9?$AAI?$AAS@ 10088794     dllmain.obj
 0002:000017a4       ??_C@_1M@MADIPODN@?$AAi?$AAt?$AA?9?$AAI?$AAT@ 100887a4     dllmain.obj
 0002:000017b4       ??_C@_1M@HPNHIDJI@?$AAj?$AAa?$AA?9?$AAJ?$AAP@ 100887b4     dllmain.obj
 0002:000017c4       ??_C@_1M@JLOOOEGK@?$AAk?$AAo?$AA?9?$AAK?$AAR@ 100887c4     dllmain.obj
 0002:000017d4       ??_C@_1M@IHBJJGG@?$AAn?$AAl?$AA?9?$AAN?$AAL@ 100887d4     dllmain.obj
 0002:000017e4       ??_C@_1M@EANAGDL@?$AAn?$AAb?$AA?9?$AAN?$AAO@ 100887e4     dllmain.obj
 0002:000017f4       ??_C@_1M@NEIEMEGP@?$AAp?$AAl?$AA?9?$AAP?$AAL@ 100887f4     dllmain.obj
 0002:00001804       ??_C@_1M@BOCFIGEP@?$AAp?$AAt?$AA?9?$AAB?$AAR@ 10088804     dllmain.obj
 0002:00001814       ??_C@_1M@IMPFOPBG@?$AAr?$AAo?$AA?9?$AAR?$AAO@ 10088814     dllmain.obj
 0002:00001824       ??_C@_1M@IDNNEJMM@?$AAr?$AAu?$AA?9?$AAR?$AAU@ 10088824     dllmain.obj
 0002:00001834       ??_C@_1M@LILEEOGM@?$AAh?$AAr?$AA?9?$AAH?$AAR@ 10088834     dllmain.obj
 0002:00001844       ??_C@_1M@FKIFEHPB@?$AAs?$AAk?$AA?9?$AAS?$AAK@ 10088844     dllmain.obj
 0002:00001854       ??_C@_1M@LJMAMNPJ@?$AAs?$AAq?$AA?9?$AAA?$AAL@ 10088854     dllmain.obj
 0002:00001864       ??_C@_1M@GIAKDKJK@?$AAs?$AAv?$AA?9?$AAS?$AAE@ 10088864     dllmain.obj
 0002:00001874       ??_C@_1M@MKJKIKCL@?$AAt?$AAh?$AA?9?$AAT?$AAH@ 10088874     dllmain.obj
 0002:00001884       ??_C@_1M@MFLCCMPB@?$AAt?$AAr?$AA?9?$AAT?$AAR@ 10088884     dllmain.obj
 0002:00001894       ??_C@_1M@OIJHDKJN@?$AAu?$AAr?$AA?9?$AAP?$AAK@ 10088894     dllmain.obj
 0002:000018a4       ??_C@_1M@LHIPCIEK@?$AAi?$AAd?$AA?9?$AAI?$AAD@ 100888a4     dllmain.obj
 0002:000018b4       ??_C@_1M@MFMOBGI@?$AAu?$AAk?$AA?9?$AAU?$AAA@ 100888b4     dllmain.obj
 0002:000018c4       ??_C@_1M@OBGLJIPL@?$AAb?$AAe?$AA?9?$AAB?$AAY@ 100888c4     dllmain.obj
 0002:000018d4       ??_C@_1M@BCFAJEAD@?$AAs?$AAl?$AA?9?$AAS?$AAI@ 100888d4     dllmain.obj
 0002:000018e4       ??_C@_1M@FKFFEDDN@?$AAe?$AAt?$AA?9?$AAE?$AAE@ 100888e4     dllmain.obj
 0002:000018f4       ??_C@_1M@KGKKAACI@?$AAl?$AAv?$AA?9?$AAL?$AAV@ 100888f4     dllmain.obj
 0002:00001904       ??_C@_1M@IFGBIJO@?$AAl?$AAt?$AA?9?$AAL?$AAT@ 10088904     dllmain.obj
 0002:00001914       ??_C@_1M@FGEAHEDM@?$AAf?$AAa?$AA?9?$AAI?$AAR@ 10088914     dllmain.obj
 0002:00001924       ??_C@_1M@KBMAIBFN@?$AAv?$AAi?$AA?9?$AAV?$AAN@ 10088924     dllmain.obj
 0002:00001934       ??_C@_1M@GPCBKDJK@?$AAh?$AAy?$AA?9?$AAA?$AAM@ 10088934     dllmain.obj
 0002:00001944       ??_C@_1BG@BECMDDJB@?$AAa?$AAz?$AA?9?$AAA?$AAZ?$AA?9?$AAL?$AAa?$AAt?$AAn@ 10088944     dllmain.obj
 0002:00001960       ??_C@_1M@MAOFCAEA@?$AAe?$AAu?$AA?9?$AAE?$AAS@ 10088960     dllmain.obj
 0002:00001970       ??_C@_1M@IGHABKPI@?$AAm?$AAk?$AA?9?$AAM?$AAK@ 10088970     dllmain.obj
 0002:00001980       ??_C@_1M@IAIGNEJG@?$AAt?$AAn?$AA?9?$AAZ?$AAA@ 10088980     dllmain.obj
 0002:00001990       ??_C@_1M@IIJCOJFA@?$AAx?$AAh?$AA?9?$AAZ?$AAA@ 10088990     dllmain.obj
 0002:000019a0       ??_C@_1M@LGPJHNJH@?$AAz?$AAu?$AA?9?$AAZ?$AAA@ 100889a0     dllmain.obj
 0002:000019b0       ??_C@_1M@HOKAOIO@?$AAa?$AAf?$AA?9?$AAZ?$AAA@ 100889b0     dllmain.obj
 0002:000019c0       ??_C@_1M@DPCLHLIE@?$AAk?$AAa?$AA?9?$AAG?$AAE@ 100889c0     dllmain.obj
 0002:000019d0       ??_C@_1M@BLKMHJBI@?$AAf?$AAo?$AA?9?$AAF?$AAO@ 100889d0     dllmain.obj
 0002:000019e0       ??_C@_1M@LGGJAPPB@?$AAh?$AAi?$AA?9?$AAI?$AAN@ 100889e0     dllmain.obj
 0002:000019f0       ??_C@_1M@FIKPIHFE@?$AAm?$AAt?$AA?9?$AAM?$AAT@ 100889f0     dllmain.obj
 0002:00001a00       ??_C@_1M@HEGGPBFA@?$AAs?$AAe?$AA?9?$AAN?$AAO@ 10088a00     dllmain.obj
 0002:00001a10       ??_C@_1M@EIBJEEPA@?$AAm?$AAs?$AA?9?$AAM?$AAY@ 10088a10     dllmain.obj
 0002:00001a20       ??_C@_1M@FHLBGMPP@?$AAk?$AAk?$AA?9?$AAK?$AAZ@ 10088a20     dllmain.obj
 0002:00001a30       ??_C@_1M@NGJJLCGI@?$AAk?$AAy?$AA?9?$AAK?$AAG@ 10088a30     dllmain.obj
 0002:00001a40       ??_C@_1M@GIENNBFC@?$AAs?$AAw?$AA?9?$AAK?$AAE@ 10088a40     dllmain.obj
 0002:00001a50       ??_C@_1BG@NDGMJIMJ@?$AAu?$AAz?$AA?9?$AAU?$AAZ?$AA?9?$AAL?$AAa?$AAt?$AAn@ 10088a50     dllmain.obj
 0002:00001a6c       ??_C@_1M@IDCCIHBC@?$AAt?$AAt?$AA?9?$AAR?$AAU@ 10088a6c     dllmain.obj
 0002:00001a7c       ??_C@_1M@LOICPMOJ@?$AAb?$AAn?$AA?9?$AAI?$AAN@ 10088a7c     dllmain.obj
 0002:00001a8c       ??_C@_1M@KPKKNEAH@?$AAp?$AAa?$AA?9?$AAI?$AAN@ 10088a8c     dllmain.obj
 0002:00001a9c       ??_C@_1M@PJGPPBOG@?$AAg?$AAu?$AA?9?$AAI?$AAN@ 10088a9c     dllmain.obj
 0002:00001aac       ??_C@_1M@KMKMOPHI@?$AAt?$AAa?$AA?9?$AAI?$AAN@ 10088aac     dllmain.obj
 0002:00001abc       ??_C@_1M@KFEHEPAC@?$AAt?$AAe?$AA?9?$AAI?$AAN@ 10088abc     dllmain.obj
 0002:00001acc       ??_C@_1M@CDCLMGHI@?$AAk?$AAn?$AA?9?$AAI?$AAN@ 10088acc     dllmain.obj
 0002:00001adc       ??_C@_1M@MIODLDKF@?$AAm?$AAl?$AA?9?$AAI?$AAN@ 10088adc     dllmain.obj
 0002:00001aec       ??_C@_1M@PBIEACPO@?$AAm?$AAr?$AA?9?$AAI?$AAN@ 10088aec     dllmain.obj
 0002:00001afc       ??_C@_1M@NIDEAGPH@?$AAs?$AAa?$AA?9?$AAI?$AAN@ 10088afc     dllmain.obj
 0002:00001b0c       ??_C@_1M@FHIHCBIO@?$AAm?$AAn?$AA?9?$AAM?$AAN@ 10088b0c     dllmain.obj
 0002:00001b1c       ??_C@_1M@JAIJPENP@?$AAc?$AAy?$AA?9?$AAG?$AAB@ 10088b1c     dllmain.obj
 0002:00001b2c       ??_C@_1M@PHGFBEPN@?$AAg?$AAl?$AA?9?$AAE?$AAS@ 10088b2c     dllmain.obj
 0002:00001b3c       ??_C@_1O@KPIPDNCP@?$AAk?$AAo?$AAk?$AA?9?$AAI?$AAN@ 10088b3c     dllmain.obj
 0002:00001b4c       ??_C@_1O@KNHJLDJA@?$AAs?$AAy?$AAr?$AA?9?$AAS?$AAY@ 10088b4c     dllmain.obj
 0002:00001b5c       ??_C@_1O@MKEKBLAH@?$AAd?$AAi?$AAv?$AA?9?$AAM?$AAV@ 10088b5c     dllmain.obj
 0002:00001b6c       ??_C@_1O@OHDCKDDF@?$AAq?$AAu?$AAz?$AA?9?$AAB?$AAO@ 10088b6c     dllmain.obj
 0002:00001b7c       ??_C@_1M@LEPJNLFD@?$AAn?$AAs?$AA?9?$AAZ?$AAA@ 10088b7c     dllmain.obj
 0002:00001b8c       ??_C@_1M@OMLEIIJB@?$AAm?$AAi?$AA?9?$AAN?$AAZ@ 10088b8c     dllmain.obj
 0002:00001b9c       ??_C@_1M@PMPEAILG@?$AAa?$AAr?$AA?9?$AAI?$AAQ@ 10088b9c     dllmain.obj
 0002:00001bac       ??_C@_1M@BIBDDEMK@?$AAz?$AAh?$AA?9?$AAC?$AAN@ 10088bac     dllmain.obj
 0002:00001bbc       ??_C@_1M@CNKPNOEE@?$AAd?$AAe?$AA?9?$AAC?$AAH@ 10088bbc     dllmain.obj
 0002:00001bcc       ??_C@_1M@LKMGMLKO@?$AAe?$AAn?$AA?9?$AAG?$AAB@ 10088bcc     dllmain.obj
 0002:00001bdc       ??_C@_1M@PGKJFFGL@?$AAe?$AAs?$AA?9?$AAM?$AAX@ 10088bdc     dllmain.obj
 0002:00001bec       ??_C@_1M@DNNANBDC@?$AAf?$AAr?$AA?9?$AAB?$AAE@ 10088bec     dllmain.obj
 0002:00001bfc       ??_C@_1M@HLGMDFHM@?$AAi?$AAt?$AA?9?$AAC?$AAH@ 10088bfc     dllmain.obj
 0002:00001c0c       ??_C@_1M@CLLBGJH@?$AAn?$AAl?$AA?9?$AAB?$AAE@ 10088c0c     dllmain.obj
 0002:00001c1c       ??_C@_1M@BODBOGLF@?$AAn?$AAn?$AA?9?$AAN?$AAO@ 10088c1c     dllmain.obj
 0002:00001c2c       ??_C@_1M@HFFAHKAD@?$AAp?$AAt?$AA?9?$AAP?$AAT@ 10088c2c     dllmain.obj
 0002:00001c3c       ??_C@_1BG@LNOAKHIE@?$AAs?$AAr?$AA?9?$AAS?$AAP?$AA?9?$AAL?$AAa?$AAt?$AAn@ 10088c3c     dllmain.obj
 0002:00001c58       ??_C@_1M@HBMHBGAK@?$AAs?$AAv?$AA?9?$AAF?$AAI@ 10088c58     dllmain.obj
 0002:00001c68       ??_C@_1BG@DGCJGJBE@?$AAa?$AAz?$AA?9?$AAA?$AAZ?$AA?9?$AAC?$AAy?$AAr?$AAl@ 10088c68     dllmain.obj
 0002:00001c84       ??_C@_1M@KEJDAAHB@?$AAs?$AAe?$AA?9?$AAS?$AAE@ 10088c84     dllmain.obj
 0002:00001c94       ??_C@_1M@HEIBJJAD@?$AAm?$AAs?$AA?9?$AAB?$AAN@ 10088c94     dllmain.obj
 0002:00001ca4       ??_C@_1BG@PBGJMCEM@?$AAu?$AAz?$AA?9?$AAU?$AAZ?$AA?9?$AAC?$AAy?$AAr?$AAl@ 10088ca4     dllmain.obj
 0002:00001cc0       ??_C@_1O@LAOBCMDF@?$AAq?$AAu?$AAz?$AA?9?$AAE?$AAC@ 10088cc0     dllmain.obj
 0002:00001cd0       ??_C@_1M@POEEMAIO@?$AAa?$AAr?$AA?9?$AAE?$AAG@ 10088cd0     dllmain.obj
 0002:00001ce0       ??_C@_1M@EFAKDEDL@?$AAz?$AAh?$AA?9?$AAH?$AAK@ 10088ce0     dllmain.obj
 0002:00001cf0       ??_C@_1M@HKKIJHGI@?$AAd?$AAe?$AA?9?$AAA?$AAT@ 10088cf0     dllmain.obj
 0002:00001d00       ??_C@_1M@KBFBEHJF@?$AAe?$AAn?$AA?9?$AAA?$AAU@ 10088d00     dllmain.obj
 0002:00001d10       ??_C@_1M@MNPLFAAH@?$AAe?$AAs?$AA?9?$AAE?$AAS@ 10088d10     dllmain.obj
 0002:00001d20       ??_C@_1M@HJOOJFMA@?$AAf?$AAr?$AA?9?$AAC?$AAA@ 10088d20     dllmain.obj
 0002:00001d30       ??_C@_1BG@JPOFPNAB@?$AAs?$AAr?$AA?9?$AAS?$AAP?$AA?9?$AAC?$AAy?$AAr?$AAl@ 10088d30     dllmain.obj
 0002:00001d4c       ??_C@_1M@LNFOCMOB@?$AAs?$AAe?$AA?9?$AAF?$AAI@ 10088d4c     dllmain.obj
 0002:00001d5c       ??_C@_1O@MGJBOAMB@?$AAq?$AAu?$AAz?$AA?9?$AAP?$AAE@ 10088d5c     dllmain.obj
 0002:00001d6c       ??_C@_1M@GJINLBOK@?$AAa?$AAr?$AA?9?$AAL?$AAY@ 10088d6c     dllmain.obj
 0002:00001d7c       ??_C@_1M@GGMNHJNL@?$AAz?$AAh?$AA?9?$AAS?$AAG@ 10088d7c     dllmain.obj
 0002:00001d8c       ??_C@_1M@HOIKODND@?$AAd?$AAe?$AA?9?$AAL?$AAU@ 10088d8c     dllmain.obj
 0002:00001d9c       ??_C@_1M@DDOCCGFG@?$AAe?$AAn?$AA?9?$AAC?$AAA@ 10088d9c     dllmain.obj
 0002:00001dac       ??_C@_1M@BNOEMJLF@?$AAe?$AAs?$AA?9?$AAG?$AAT@ 10088dac     dllmain.obj
 0002:00001dbc       ??_C@_1M@EOGNKEK@?$AAf?$AAr?$AA?9?$AAC?$AAH@ 10088dbc     dllmain.obj
 0002:00001dcc       ??_C@_1M@FLIDJFHL@?$AAh?$AAr?$AA?9?$AAB?$AAA@ 10088dcc     dllmain.obj
 0002:00001ddc       ??_C@_1O@FMCELNAJ@?$AAs?$AAm?$AAj?$AA?9?$AAN?$AAO@ 10088ddc     dllmain.obj
 0002:00001dec       ??_C@_1M@JHGLJMGJ@?$AAa?$AAr?$AA?9?$AAD?$AAZ@ 10088dec     dllmain.obj
 0002:00001dfc       ??_C@_1M@JKKFDCNP@?$AAz?$AAh?$AA?9?$AAM?$AAO@ 10088dfc     dllmain.obj
 0002:00001e0c       ??_C@_1M@GEEFALPE@?$AAd?$AAe?$AA?9?$AAL?$AAI@ 10088e0c     dllmain.obj
 0002:00001e1c       ??_C@_1M@IGEOFBG@?$AAe?$AAn?$AA?9?$AAN?$AAZ@ 10088e1c     dllmain.obj
 0002:00001e2c       ??_C@_1M@KDBONEHP@?$AAe?$AAs?$AA?9?$AAC?$AAR@ 10088e2c     dllmain.obj
 0002:00001e3c       ??_C@_1M@FHMDOHNN@?$AAf?$AAr?$AA?9?$AAL?$AAU@ 10088e3c     dllmain.obj
 0002:00001e4c       ??_C@_1BG@NFKKMAFG@?$AAb?$AAs?$AA?9?$AAB?$AAA?$AA?9?$AAL?$AAa?$AAt?$AAn@ 10088e4c     dllmain.obj
 0002:00001e68       ??_C@_1O@IMNBEMCI@?$AAs?$AAm?$AAj?$AA?9?$AAS?$AAE@ 10088e68     dllmain.obj
 0002:00001e78       ??_C@_1M@DHHMBNDP@?$AAa?$AAr?$AA?9?$AAM?$AAA@ 10088e78     dllmain.obj
 0002:00001e88       ??_C@_1M@BNBLJCGH@?$AAe?$AAn?$AA?9?$AAI?$AAE@ 10088e88     dllmain.obj
 0002:00001e98       ??_C@_1M@GEPAFMDL@?$AAe?$AAs?$AA?9?$AAP?$AAA@ 10088e98     dllmain.obj
 0002:00001ea8       ??_C@_1M@OJONDMDL@?$AAf?$AAr?$AA?9?$AAM?$AAC@ 10088ea8     dllmain.obj
 0002:00001eb8       ??_C@_1BG@OBCNFJB@?$AAs?$AAr?$AA?9?$AAB?$AAA?$AA?9?$AAL?$AAa?$AAt?$AAn@ 10088eb8     dllmain.obj
 0002:00001ed4       ??_C@_1O@KEMEEGPO@?$AAs?$AAm?$AAa?$AA?9?$AAN?$AAO@ 10088ed4     dllmain.obj
 0002:00001ee4       ??_C@_1M@ELMGFODK@?$AAa?$AAr?$AA?9?$AAT?$AAN@ 10088ee4     dllmain.obj
 0002:00001ef4       ??_C@_1M@BHDLHFAF@?$AAe?$AAn?$AA?9?$AAZ?$AAA@ 10088ef4     dllmain.obj
 0002:00001f04       ??_C@_1M@BMGIGLIF@?$AAe?$AAs?$AA?9?$AAD?$AAO@ 10088f04     dllmain.obj
 0002:00001f14       ??_C@_1BG@CMBHIPBE@?$AAs?$AAr?$AA?9?$AAB?$AAA?$AA?9?$AAC?$AAy?$AAr?$AAl@ 10088f14     dllmain.obj
 0002:00001f30       ??_C@_1O@HEDBLHNP@?$AAs?$AAm?$AAa?$AA?9?$AAS?$AAE@ 10088f30     dllmain.obj
 0002:00001f40       ??_C@_1M@DAGCADIM@?$AAa?$AAr?$AA?9?$AAO?$AAM@ 10088f40     dllmain.obj
 0002:00001f50       ??_C@_1M@FODLMICG@?$AAe?$AAn?$AA?9?$AAJ?$AAM@ 10088f50     dllmain.obj
 0002:00001f60       ??_C@_1M@DNMLCIHB@?$AAe?$AAs?$AA?9?$AAV?$AAE@ 10088f60     dllmain.obj
 0002:00001f70       ??_C@_1O@EOKHMKJK@?$AAs?$AAm?$AAs?$AA?9?$AAF?$AAI@ 10088f70     dllmain.obj
 0002:00001f80       ??_C@_1M@CAFJMKOF@?$AAa?$AAr?$AA?9?$AAY?$AAE@ 10088f80     dllmain.obj
 0002:00001f90       ??_C@_1M@CBFHIJLI@?$AAe?$AAn?$AA?9?$AAC?$AAB@ 10088f90     dllmain.obj
 0002:00001fa0       ??_C@_1M@BGNFLDN@?$AAe?$AAs?$AA?9?$AAC?$AAO@ 10088fa0     dllmain.obj
 0002:00001fb0       ??_C@_1O@JMPHMAMC@?$AAs?$AAm?$AAn?$AA?9?$AAF?$AAI@ 10088fb0     dllmain.obj
 0002:00001fc0       ??_C@_1M@JLANABKE@?$AAa?$AAr?$AA?9?$AAS?$AAY@ 10088fc0     dllmain.obj
 0002:00001fd0       ??_C@_1M@HPKGCFGN@?$AAe?$AAn?$AA?9?$AAB?$AAZ@ 10088fd0     dllmain.obj
 0002:00001fe0       ??_C@_1M@OLJCMLGM@?$AAe?$AAs?$AA?9?$AAP?$AAE@ 10088fe0     dllmain.obj
 0002:00001ff0       ??_C@_1M@MKKGFKLE@?$AAa?$AAr?$AA?9?$AAJ?$AAO@ 10088ff0     dllmain.obj
 0002:00002000       ??_C@_1M@EKPGLDNI@?$AAe?$AAn?$AA?9?$AAT?$AAT@ 10089000     dllmain.obj
 0002:00002010       ??_C@_1M@OONGHFHE@?$AAe?$AAs?$AA?9?$AAA?$AAR@ 10089010     dllmain.obj
 0002:00002020       ??_C@_1M@OOJFGBHE@?$AAa?$AAr?$AA?9?$AAL?$AAB@ 10089020     dllmain.obj
 0002:00002030       ??_C@_1M@GCEJHNEG@?$AAe?$AAn?$AA?9?$AAZ?$AAW@ 10089030     dllmain.obj
 0002:00002040       ??_C@_1M@JNOCAHJI@?$AAe?$AAs?$AA?9?$AAE?$AAC@ 10089040     dllmain.obj
 0002:00002050       ??_C@_1M@JEFHPGGB@?$AAa?$AAr?$AA?9?$AAK?$AAW@ 10089050     dllmain.obj
 0002:00002060       ??_C@_1M@MLKIBJOJ@?$AAe?$AAn?$AA?9?$AAP?$AAH@ 10089060     dllmain.obj
 0002:00002070       ??_C@_1M@BDNIPEND@?$AAe?$AAs?$AA?9?$AAC?$AAL@ 10089070     dllmain.obj
 0002:00002080       ??_C@_1M@MPNMEKBD@?$AAa?$AAr?$AA?9?$AAA?$AAE@ 10089080     dllmain.obj
 0002:00002090       ??_C@_1M@KBJALCPI@?$AAe?$AAs?$AA?9?$AAU?$AAY@ 10089090     dllmain.obj
 0002:000020a0       ??_C@_1M@LLCCOAGA@?$AAa?$AAr?$AA?9?$AAB?$AAH@ 100890a0     dllmain.obj
 0002:000020b0       ??_C@_1M@PBFNCDEL@?$AAe?$AAs?$AA?9?$AAP?$AAY@ 100890b0     dllmain.obj
 0002:000020c0       ??_C@_1M@EDGINPNP@?$AAa?$AAr?$AA?9?$AAQ?$AAA@ 100890c0     dllmain.obj
 0002:000020d0       ??_C@_1M@MKDBIIJI@?$AAe?$AAs?$AA?9?$AAB?$AAO@ 100890d0     dllmain.obj
 0002:000020e0       ??_C@_1M@CPKKEBLD@?$AAe?$AAs?$AA?9?$AAS?$AAV@ 100890e0     dllmain.obj
 0002:000020f0       ??_C@_1M@NDBGMMJL@?$AAe?$AAs?$AA?9?$AAH?$AAN@ 100890f0     dllmain.obj
 0002:00002100       ??_C@_1M@JIJIBHDP@?$AAe?$AAs?$AA?9?$AAN?$AAI@ 10089100     dllmain.obj
 0002:00002110       ??_C@_1M@CGFMKEEK@?$AAe?$AAs?$AA?9?$AAP?$AAR@ 10089110     dllmain.obj
 0002:00002120       ??_C@_1O@ICJHKIIK@?$AAz?$AAh?$AA?9?$AAC?$AAH?$AAT@ 10089120     dllmain.obj
 0002:00002130       ??_C@_15CLNEJCE@?$AAs?$AAr@ 10089130     dllmain.obj
 0002:00002138       __pAtlLocaleNameToIndexTable 10089138     dllmain.obj
 0002:000029c4       ??_C@_1M@KAHEKEIG@?$AAa?$AAf?$AA?9?$AAz?$AAa@ 100899c4     dllmain.obj
 0002:000029d4       ??_C@_1M@GIECOABL@?$AAa?$AAr?$AA?9?$AAa?$AAe@ 100899d4     dllmain.obj
 0002:000029e4       ??_C@_1M@BMLMEKGI@?$AAa?$AAr?$AA?9?$AAb?$AAh@ 100899e4     dllmain.obj
 0002:000029f4       ??_C@_1M@DAPFDGGB@?$AAa?$AAr?$AA?9?$AAd?$AAz@ 100899f4     dllmain.obj
 0002:00002a04       ??_C@_1M@FJNKGKIG@?$AAa?$AAr?$AA?9?$AAe?$AAg@ 10089a04     dllmain.obj
 0002:00002a14       ??_C@_1M@FLGKKCLO@?$AAa?$AAr?$AA?9?$AAi?$AAq@ 10089a14     dllmain.obj
 0002:00002a24       ??_C@_1M@GNDIPALM@?$AAa?$AAr?$AA?9?$AAj?$AAo@ 10089a24     dllmain.obj
 0002:00002a34       ??_C@_1M@DDMJFMGJ@?$AAa?$AAr?$AA?9?$AAk?$AAw@ 10089a34     dllmain.obj
 0002:00002a44       ??_C@_1M@EJALMLHM@?$AAa?$AAr?$AA?9?$AAl?$AAb@ 10089a44     dllmain.obj
 0002:00002a54       ??_C@_1M@MOBDBLOC@?$AAa?$AAr?$AA?9?$AAl?$AAy@ 10089a54     dllmain.obj
 0002:00002a64       ??_C@_1M@JAOCLHDH@?$AAa?$AAr?$AA?9?$AAm?$AAa@ 10089a64     dllmain.obj
 0002:00002a74       ??_C@_1M@JHPMKJIE@?$AAa?$AAr?$AA?9?$AAo?$AAm@ 10089a74     dllmain.obj
 0002:00002a84       ??_C@_1M@OEPGHFNH@?$AAa?$AAr?$AA?9?$AAq?$AAa@ 10089a84     dllmain.obj
 0002:00002a94       ??_C@_1M@KJDONENM@?$AAa?$AAr?$AA?9?$AAs?$AAa@ 10089a94     dllmain.obj
 0002:00002aa4       ??_C@_1M@DMJDKLKM@?$AAa?$AAr?$AA?9?$AAs?$AAy@ 10089aa4     dllmain.obj
 0002:00002ab4       ??_C@_1M@OMFIPEDC@?$AAa?$AAr?$AA?9?$AAt?$AAn@ 10089ab4     dllmain.obj
 0002:00002ac4       ??_C@_1M@IHMHGAON@?$AAa?$AAr?$AA?9?$AAy?$AAe@ 10089ac4     dllmain.obj
 0002:00002ad4       ??_C@_1BG@KDCPGJGB@?$AAa?$AAz?$AA?9?$AAa?$AAz?$AA?9?$AAc?$AAy?$AAr?$AAl@ 10089ad4     dllmain.obj
 0002:00002af0       ??_C@_1BG@IBCKDDOE@?$AAa?$AAz?$AA?9?$AAa?$AAz?$AA?9?$AAl?$AAa?$AAt?$AAn@ 10089af0     dllmain.obj
 0002:00002b0c       ??_C@_1M@EGPFDCPD@?$AAb?$AAe?$AA?9?$AAb?$AAy@ 10089b0c     dllmain.obj
 0002:00002b1c       ??_C@_1M@PCMGMCGC@?$AAb?$AAg?$AA?9?$AAb?$AAg@ 10089b1c     dllmain.obj
 0002:00002b2c       ??_C@_1M@BJBMFGOB@?$AAb?$AAn?$AA?9?$AAi?$AAn@ 10089b2c     dllmain.obj
 0002:00002b3c       ??_C@_1BG@EAKMMACD@?$AAb?$AAs?$AA?9?$AAb?$AAa?$AA?9?$AAl?$AAa?$AAt?$AAn@ 10089b3c     dllmain.obj
 0002:00002b58       ??_C@_1M@KGADAODK@?$AAc?$AAa?$AA?9?$AAe?$AAs@ 10089b58     dllmain.obj
 0002:00002b68       ??_C@_1M@COAJPDHI@?$AAc?$AAs?$AA?9?$AAc?$AAz@ 10089b68     dllmain.obj
 0002:00002b78       ??_C@_1M@DHBHFONH@?$AAc?$AAy?$AA?9?$AAg?$AAb@ 10089b78     dllmain.obj
 0002:00002b88       ??_C@_1M@IMGKELGA@?$AAd?$AAa?$AA?9?$AAd?$AAk@ 10089b88     dllmain.obj
 0002:00002b98       ??_C@_1M@NNDGDNGA@?$AAd?$AAe?$AA?9?$AAa?$AAt@ 10089b98     dllmain.obj
 0002:00002ba8       ??_C@_1M@IKDBHEEM@?$AAd?$AAe?$AA?9?$AAc?$AAh@ 10089ba8     dllmain.obj
 0002:00002bb8       ??_C@_1M@GFFOJMCJ@?$AAd?$AAe?$AA?9?$AAd?$AAe@ 10089bb8     dllmain.obj
 0002:00002bc8       ??_C@_1M@MDNLKBPM@?$AAd?$AAe?$AA?9?$AAl?$AAi@ 10089bc8     dllmain.obj
 0002:00002bd8       ??_C@_1M@NJBEEJNL@?$AAd?$AAe?$AA?9?$AAl?$AAu@ 10089bd8     dllmain.obj
 0002:00002be8       ??_C@_1O@GNNELBAP@?$AAd?$AAi?$AAv?$AA?9?$AAm?$AAv@ 10089be8     dllmain.obj
 0002:00002bf8       ??_C@_1M@EJLEOGAE@?$AAe?$AAl?$AA?9?$AAg?$AAr@ 10089bf8     dllmain.obj
 0002:00002c08       ??_C@_1M@GMPONJN@?$AAe?$AAn?$AA?9?$AAa?$AAu@ 10089c08     dllmain.obj
 0002:00002c18       ??_C@_1M@NIDIIPGF@?$AAe?$AAn?$AA?9?$AAb?$AAz@ 10089c18     dllmain.obj
 0002:00002c28       ??_C@_1M@JEHMIMFO@?$AAe?$AAn?$AA?9?$AAc?$AAa@ 10089c28     dllmain.obj
 0002:00002c38       ??_C@_1M@IGMJCDLA@?$AAe?$AAn?$AA?9?$AAc?$AAb@ 10089c38     dllmain.obj
 0002:00002c48       ??_C@_1M@BNFIGBKG@?$AAe?$AAn?$AA?9?$AAg?$AAb@ 10089c48     dllmain.obj
 0002:00002c58       ??_C@_1M@LKIFDIGP@?$AAe?$AAn?$AA?9?$AAi?$AAe@ 10089c58     dllmain.obj
 0002:00002c68       ??_C@_1M@PJKFGCCO@?$AAe?$AAn?$AA?9?$AAj?$AAm@ 10089c68     dllmain.obj
 0002:00002c78       ??_C@_1M@KPPKEPBO@?$AAe?$AAn?$AA?9?$AAn?$AAz@ 10089c78     dllmain.obj
 0002:00002c88       ??_C@_1M@GMDGLDOB@?$AAe?$AAn?$AA?9?$AAp?$AAh@ 10089c88     dllmain.obj
 0002:00002c98       ??_C@_1M@ONGIBJNA@?$AAe?$AAn?$AA?9?$AAt?$AAt@ 10089c98     dllmain.obj
 0002:00002ca8       ??_C@_1M@LLODPCMM@?$AAe?$AAn?$AA?9?$AAu?$AAs@ 10089ca8     dllmain.obj
 0002:00002cb8       ??_C@_1M@LAKFNPAN@?$AAe?$AAn?$AA?9?$AAz?$AAa@ 10089cb8     dllmain.obj
 0002:00002cc8       ??_C@_1M@MFNHNHEO@?$AAe?$AAn?$AA?9?$AAz?$AAw@ 10089cc8     dllmain.obj
 0002:00002cd8       ??_C@_1M@EJEINPHM@?$AAe?$AAs?$AA?9?$AAa?$AAr@ 10089cd8     dllmain.obj
 0002:00002ce8       ??_C@_1M@GNKPCCJA@?$AAe?$AAs?$AA?9?$AAb?$AAo@ 10089ce8     dllmain.obj
 0002:00002cf8       ??_C@_1M@LEEGFONL@?$AAe?$AAs?$AA?9?$AAc?$AAl@ 10089cf8     dllmain.obj
 0002:00002d08       ??_C@_1M@KGPDPBDF@?$AAe?$AAs?$AA?9?$AAc?$AAo@ 10089d08     dllmain.obj
 0002:00002d18       ??_C@_1M@EIAHOHH@?$AAe?$AAs?$AA?9?$AAc?$AAr@ 10089d18     dllmain.obj
 0002:00002d28       ??_C@_1M@LLPGMBIN@?$AAe?$AAs?$AA?9?$AAd?$AAo@ 10089d28     dllmain.obj
 0002:00002d38       ??_C@_1M@DKHMKNJA@?$AAe?$AAs?$AA?9?$AAe?$AAc@ 10089d38     dllmain.obj
 0002:00002d48       ??_C@_1M@GKGFPKAP@?$AAe?$AAs?$AA?9?$AAe?$AAs@ 10089d48     dllmain.obj
 0002:00002d58       ??_C@_1M@LKHKGDLN@?$AAe?$AAs?$AA?9?$AAg?$AAt@ 10089d58     dllmain.obj
 0002:00002d68       ??_C@_1M@HEIIGGJD@?$AAe?$AAs?$AA?9?$AAh?$AAn@ 10089d68     dllmain.obj
 0002:00002d78       ??_C@_1M@FBDHPPGD@?$AAe?$AAs?$AA?9?$AAm?$AAx@ 10089d78     dllmain.obj
 0002:00002d88       ??_C@_1M@DPAGLNDH@?$AAe?$AAs?$AA?9?$AAn?$AAi@ 10089d88     dllmain.obj
 0002:00002d98       ??_C@_1M@MDGOPGDD@?$AAe?$AAs?$AA?9?$AAp?$AAa@ 10089d98     dllmain.obj
 0002:00002da8       ??_C@_1M@EMAMGBGE@?$AAe?$AAs?$AA?9?$AAp?$AAe@ 10089da8     dllmain.obj
 0002:00002db8       ??_C@_1M@IBMCAOEC@?$AAe?$AAs?$AA?9?$AAp?$AAr@ 10089db8     dllmain.obj
 0002:00002dc8       ??_C@_1M@FGMDIJED@?$AAe?$AAs?$AA?9?$AAp?$AAy@ 10089dc8     dllmain.obj
 0002:00002dd8       ??_C@_1M@IIDEOLLL@?$AAe?$AAs?$AA?9?$AAs?$AAv@ 10089dd8     dllmain.obj
 0002:00002de8       ??_C@_1M@GAOBIPA@?$AAe?$AAs?$AA?9?$AAu?$AAy@ 10089de8     dllmain.obj
 0002:00002df8       ??_C@_1M@JKFFICHJ@?$AAe?$AAs?$AA?9?$AAv?$AAe@ 10089df8     dllmain.obj
 0002:00002e08       ??_C@_1M@PNMLOJDF@?$AAe?$AAt?$AA?9?$AAe?$AAe@ 10089e08     dllmain.obj
 0002:00002e18       ??_C@_1M@GHHLIKEI@?$AAe?$AAu?$AA?9?$AAe?$AAs@ 10089e18     dllmain.obj
 0002:00002e28       ??_C@_1M@PBNONODE@?$AAf?$AAa?$AA?9?$AAi?$AAr@ 10089e28     dllmain.obj
 0002:00002e38       ??_C@_1M@JEEHPMIL@?$AAf?$AAi?$AA?9?$AAf?$AAi@ 10089e38     dllmain.obj
 0002:00002e48       ??_C@_1M@LMDCNDBA@?$AAf?$AAo?$AA?9?$AAf?$AAo@ 10089e48     dllmain.obj
 0002:00002e58       ??_C@_1M@JKEOHLDK@?$AAf?$AAr?$AA?9?$AAb?$AAe@ 10089e58     dllmain.obj
 0002:00002e68       ??_C@_1M@NOHADPMI@?$AAf?$AAr?$AA?9?$AAc?$AAa@ 10089e68     dllmain.obj
 0002:00002e78       ??_C@_1M@KDHIHAEC@?$AAf?$AAr?$AA?9?$AAc?$AAh@ 10089e78     dllmain.obj
 0002:00002e88       ??_C@_1M@MMBBFGAK@?$AAf?$AAr?$AA?9?$AAf?$AAr@ 10089e88     dllmain.obj
 0002:00002e98       ??_C@_1M@PAFNENNF@?$AAf?$AAr?$AA?9?$AAl?$AAu@ 10089e98     dllmain.obj
 0002:00002ea8       ??_C@_1M@EOHDJGDD@?$AAf?$AAr?$AA?9?$AAm?$AAc@ 10089ea8     dllmain.obj
 0002:00002eb8       ??_C@_1M@FAPLLOPF@?$AAg?$AAl?$AA?9?$AAe?$AAs@ 10089eb8     dllmain.obj
 0002:00002ec8       ??_C@_1M@FOPBFLOO@?$AAg?$AAu?$AA?9?$AAi?$AAn@ 10089ec8     dllmain.obj
 0002:00002ed8       ??_C@_1M@KBMCINPM@?$AAh?$AAe?$AA?9?$AAi?$AAl@ 10089ed8     dllmain.obj
 0002:00002ee8       ??_C@_1M@BBPHKFPJ@?$AAh?$AAi?$AA?9?$AAi?$AAn@ 10089ee8     dllmain.obj
 0002:00002ef8       ??_C@_1M@PMBNDPHD@?$AAh?$AAr?$AA?9?$AAb?$AAa@ 10089ef8     dllmain.obj
 0002:00002f08       ??_C@_1M@BPCKOEGE@?$AAh?$AAr?$AA?9?$AAh?$AAr@ 10089f08     dllmain.obj
 0002:00002f18       ??_C@_1M@GACBMHKE@?$AAh?$AAu?$AA?9?$AAh?$AAu@ 10089f18     dllmain.obj
 0002:00002f28       ??_C@_1M@MILPAJJC@?$AAh?$AAy?$AA?9?$AAa?$AAm@ 10089f28     dllmain.obj
 0002:00002f38       ??_C@_1M@BABBICEC@?$AAi?$AAd?$AA?9?$AAi?$AAd@ 10089f38     dllmain.obj
 0002:00002f48       ??_C@_1M@BIKNHHPF@?$AAi?$AAs?$AA?9?$AAi?$AAs@ 10089f48     dllmain.obj
 0002:00002f58       ??_C@_1M@NMPCJPHE@?$AAi?$AAt?$AA?9?$AAc?$AAh@ 10089f58     dllmain.obj
 0002:00002f68       ??_C@_1M@GHKGFEDF@?$AAi?$AAt?$AA?9?$AAi?$AAt@ 10089f68     dllmain.obj
 0002:00002f78       ??_C@_1M@NIEJCJJA@?$AAj?$AAa?$AA?9?$AAj?$AAp@ 10089f78     dllmain.obj
 0002:00002f88       ??_C@_1M@JILFNBIM@?$AAk?$AAa?$AA?9?$AAg?$AAe@ 10089f88     dllmain.obj
 0002:00002f98       ??_C@_1M@PACPMGPH@?$AAk?$AAk?$AA?9?$AAk?$AAz@ 10089f98     dllmain.obj
 0002:00002fa8       ??_C@_1M@IELFGMHA@?$AAk?$AAn?$AA?9?$AAi?$AAn@ 10089fa8     dllmain.obj
 0002:00002fb8       ??_C@_1O@IBBJHCH@?$AAk?$AAo?$AAk?$AA?9?$AAi?$AAn@ 10089fb8     dllmain.obj
 0002:00002fc8       ??_C@_1M@DMHAEOGC@?$AAk?$AAo?$AA?9?$AAk?$AAr@ 10089fc8     dllmain.obj
 0002:00002fd8       ??_C@_1M@HBAHBIGA@?$AAk?$AAy?$AA?9?$AAk?$AAg@ 10089fd8     dllmain.obj
 0002:00002fe8       ??_C@_1M@KPMILCJG@?$AAl?$AAt?$AA?9?$AAl?$AAt@ 10089fe8     dllmain.obj
 0002:00002ff8       ??_C@_1M@BDEKKCA@?$AAl?$AAv?$AA?9?$AAl?$AAv@ 10089ff8     dllmain.obj
 0002:00003008       ??_C@_1M@ELCKCCJJ@?$AAm?$AAi?$AA?9?$AAn?$AAz@ 1008a008     dllmain.obj
 0002:00003018       ??_C@_1M@CBOOLAPA@?$AAm?$AAk?$AA?9?$AAm?$AAk@ 1008a018     dllmain.obj
 0002:00003028       ??_C@_1M@GPHNBJKN@?$AAm?$AAl?$AA?9?$AAi?$AAn@ 1008a028     dllmain.obj
 0002:00003038       ??_C@_1M@PABJILIG@?$AAm?$AAn?$AA?9?$AAm?$AAn@ 1008a038     dllmain.obj
 0002:00003048       ??_C@_1M@FGBKKIPG@?$AAm?$AAr?$AA?9?$AAi?$AAn@ 1008a048     dllmain.obj
 0002:00003058       ??_C@_1M@NDBPDDAL@?$AAm?$AAs?$AA?9?$AAb?$AAn@ 1008a058     dllmain.obj
 0002:00003068       ??_C@_1M@OPIHOOPI@?$AAm?$AAs?$AA?9?$AAm?$AAy@ 1008a068     dllmain.obj
 0002:00003078       ??_C@_1M@PPDBCNFM@?$AAm?$AAt?$AA?9?$AAm?$AAt@ 1008a078     dllmain.obj
 0002:00003088       ??_C@_1M@KDJDKMDD@?$AAn?$AAb?$AA?9?$AAn?$AAo@ 1008a088     dllmain.obj
 0002:00003098       ??_C@_1M@KFCFLMJP@?$AAn?$AAl?$AA?9?$AAb?$AAe@ 1008a098     dllmain.obj
 0002:000030a8       ??_C@_1M@KPOPDDGO@?$AAn?$AAl?$AA?9?$AAn?$AAl@ 1008a0a8     dllmain.obj
 0002:000030b8       ??_C@_1M@LJKPEMLN@?$AAn?$AAn?$AA?9?$AAn?$AAo@ 1008a0b8     dllmain.obj
 0002:000030c8       ??_C@_1M@BDGHHBFL@?$AAn?$AAs?$AA?9?$AAz?$AAa@ 1008a0c8     dllmain.obj
 0002:000030d8       ??_C@_1M@IDEHOAP@?$AAp?$AAa?$AA?9?$AAi?$AAn@ 1008a0d8     dllmain.obj
 0002:000030e8       ??_C@_1M@HDBKGOGH@?$AAp?$AAl?$AA?9?$AAp?$AAl@ 1008a0e8     dllmain.obj
 0002:000030f8       ??_C@_1M@LJLLCMEH@?$AAp?$AAt?$AA?9?$AAb?$AAr@ 1008a0f8     dllmain.obj
 0002:00003108       ??_C@_1M@NCMONAAL@?$AAp?$AAt?$AA?9?$AAp?$AAt@ 1008a108     dllmain.obj
 0002:00003118       ??_C@_1O@EAKMAJDN@?$AAq?$AAu?$AAz?$AA?9?$AAb?$AAo@ 1008a118     dllmain.obj
 0002:00003128       ??_C@_1O@BHHPIGDN@?$AAq?$AAu?$AAz?$AA?9?$AAe?$AAc@ 1008a128     dllmain.obj
 0002:00003138       ??_C@_1O@GBAPEKMJ@?$AAq?$AAu?$AAz?$AA?9?$AAp?$AAe@ 1008a138     dllmain.obj
 0002:00003148       ??_C@_1M@CLGLEFBO@?$AAr?$AAo?$AA?9?$AAr?$AAo@ 1008a148     dllmain.obj
 0002:00003158       ??_C@_1M@CEEDODME@?$AAr?$AAu?$AA?9?$AAr?$AAu@ 1008a158     dllmain.obj
 0002:00003168       ??_C@_1M@HPKKKMPP@?$AAs?$AAa?$AA?9?$AAi?$AAn@ 1008a168     dllmain.obj
 0002:00003178       ??_C@_1M@BKMAIGOJ@?$AAs?$AAe?$AA?9?$AAf?$AAi@ 1008a178     dllmain.obj
 0002:00003188       ??_C@_1M@NDPIFLFI@?$AAs?$AAe?$AA?9?$AAn?$AAo@ 1008a188     dllmain.obj
 0002:00003198       ??_C@_1M@DANKKHJ@?$AAs?$AAe?$AA?9?$AAs?$AAe@ 1008a198     dllmain.obj
 0002:000031a8       ??_C@_1M@PNBLONPJ@?$AAs?$AAk?$AA?9?$AAs?$AAk@ 1008a1a8     dllmain.obj
 0002:000031b8       ??_C@_1M@LFMODOAL@?$AAs?$AAl?$AA?9?$AAs?$AAi@ 1008a1b8     dllmain.obj
 0002:000031c8       ??_C@_1O@DFKOMPG@?$AAs?$AAm?$AAa?$AA?9?$AAn?$AAo@ 1008a1c8     dllmain.obj
 0002:000031d8       ??_C@_1O@NDKPBNNH@?$AAs?$AAm?$AAa?$AA?9?$AAs?$AAe@ 1008a1d8     dllmain.obj
 0002:000031e8       ??_C@_1O@PLLKBHAB@?$AAs?$AAm?$AAj?$AA?9?$AAn?$AAo@ 1008a1e8     dllmain.obj
 0002:000031f8       ??_C@_1O@CLEPOGCA@?$AAs?$AAm?$AAj?$AA?9?$AAs?$AAe@ 1008a1f8     dllmain.obj
 0002:00003208       ??_C@_1O@DLGJGKMK@?$AAs?$AAm?$AAn?$AA?9?$AAf?$AAi@ 1008a208     dllmain.obj
 0002:00003218       ??_C@_1O@OJDJGAJC@?$AAs?$AAm?$AAs?$AA?9?$AAf?$AAi@ 1008a218     dllmain.obj
 0002:00003228       ??_C@_1M@BOFOGHPB@?$AAs?$AAq?$AA?9?$AAa?$AAl@ 1008a228     dllmain.obj
 0002:00003238       ??_C@_1BG@LJBBIPGB@?$AAs?$AAr?$AA?9?$AAb?$AAa?$AA?9?$AAc?$AAy?$AAr?$AAl@ 1008a238     dllmain.obj
 0002:00003254       ??_C@_1BG@JLBENFOE@?$AAs?$AAr?$AA?9?$AAb?$AAa?$AA?9?$AAl?$AAa?$AAt?$AAn@ 1008a254     dllmain.obj
 0002:00003270       ??_C@_1BG@KODPNHE@?$AAs?$AAr?$AA?9?$AAs?$AAp?$AA?9?$AAc?$AAy?$AAr?$AAl@ 1008a270     dllmain.obj
 0002:0000328c       ??_C@_1BG@CIOGKHPB@?$AAs?$AAr?$AA?9?$AAs?$AAp?$AA?9?$AAl?$AAa?$AAt?$AAn@ 1008a28c     dllmain.obj
 0002:000032a8       ??_C@_1M@NGFJLMAC@?$AAs?$AAv?$AA?9?$AAf?$AAi@ 1008a2a8     dllmain.obj
 0002:000032b8       ??_C@_1M@MPJEJAJC@?$AAs?$AAv?$AA?9?$AAs?$AAe@ 1008a2b8     dllmain.obj
 0002:000032c8       ??_C@_1M@MPNDHLFK@?$AAs?$AAw?$AA?9?$AAk?$AAe@ 1008a2c8     dllmain.obj
 0002:000032d8       ??_C@_1O@KOHBJJI@?$AAs?$AAy?$AAr?$AA?9?$AAs?$AAy@ 1008a2d8     dllmain.obj
 0002:000032e8       ??_C@_1M@LDCEFHA@?$AAt?$AAa?$AA?9?$AAi?$AAn@ 1008a2e8     dllmain.obj
 0002:000032f8       ??_C@_1M@CNJOFAK@?$AAt?$AAe?$AA?9?$AAi?$AAn@ 1008a2f8     dllmain.obj
 0002:00003308       ??_C@_1M@GNAECACD@?$AAt?$AAh?$AA?9?$AAt?$AAh@ 1008a308     dllmain.obj
 0002:00003318       ??_C@_1M@CHBIHOJO@?$AAt?$AAn?$AA?9?$AAz?$AAa@ 1008a318     dllmain.obj
 0002:00003328       ??_C@_1M@GCCMIGPJ@?$AAt?$AAr?$AA?9?$AAt?$AAr@ 1008a328     dllmain.obj
 0002:00003338       ??_C@_1M@CELMCNBK@?$AAt?$AAt?$AA?9?$AAr?$AAu@ 1008a338     dllmain.obj
 0002:00003348       ??_C@_1M@KLMCELGA@?$AAu?$AAk?$AA?9?$AAu?$AAa@ 1008a348     dllmain.obj
 0002:00003358       ??_C@_1M@EPAJJAJF@?$AAu?$AAr?$AA?9?$AAp?$AAk@ 1008a358     dllmain.obj
 0002:00003368       ??_C@_1BG@GEGPMCDJ@?$AAu?$AAz?$AA?9?$AAu?$AAz?$AA?9?$AAc?$AAy?$AAr?$AAl@ 1008a368     dllmain.obj
 0002:00003384       ??_C@_1BG@EGGKJILM@?$AAu?$AAz?$AA?9?$AAu?$AAz?$AA?9?$AAl?$AAa?$AAt?$AAn@ 1008a384     dllmain.obj
 0002:000033a0       ??_C@_1M@GFOCLFF@?$AAv?$AAi?$AA?9?$AAv?$AAn@ 1008a3a0     dllmain.obj
 0002:000033b0       ??_C@_1M@CPAMEDFI@?$AAx?$AAh?$AA?9?$AAz?$AAa@ 1008a3b0     dllmain.obj
 0002:000033c0       ??_C@_1O@EBKIFIGN@?$AAz?$AAh?$AA?9?$AAc?$AAh?$AAs@ 1008a3c0     dllmain.obj
 0002:000033d0       ??_C@_1O@NMHPGANE@?$AAz?$AAh?$AA?9?$AAc?$AAh?$AAt@ 1008a3d0     dllmain.obj
 0002:000033e0       ??_C@_1M@LPINJOMC@?$AAz?$AAh?$AA?9?$AAc?$AAn@ 1008a3e0     dllmain.obj
 0002:000033f0       ??_C@_1M@OCJEJODD@?$AAz?$AAh?$AA?9?$AAh?$AAk@ 1008a3f0     dllmain.obj
 0002:00003400       ??_C@_1M@DNDLJINH@?$AAz?$AAh?$AA?9?$AAm?$AAo@ 1008a400     dllmain.obj
 0002:00003410       ??_C@_1M@MBFDNDND@?$AAz?$AAh?$AA?9?$AAs?$AAg@ 1008a410     dllmain.obj
 0002:00003420       ??_C@_1M@IMEPLEPE@?$AAz?$AAh?$AA?9?$AAt?$AAw@ 1008a420     dllmain.obj
 0002:00003430       ??_C@_1M@BBGHNHJP@?$AAz?$AAu?$AA?9?$AAz?$AAa@ 1008a430     dllmain.obj
 0002:00003440       ?szInvalidDateTime@ATL@@3QBDB 1008a440     dllmain.obj
 0002:00003444       ??_C@_0BB@KEKMKJPM@Invalid?5DateTime@ 1008a444     dllmain.obj
 0002:00003458       ?szInvalidDateTimeSpan@ATL@@3QBDB 1008a458     dllmain.obj
 0002:0000345c       ??_C@_0BF@GPPHKJFN@Invalid?5DateTimeSpan@ 1008a45c     dllmain.obj
 0002:00003478       _CLSID_Registrar           1008a478     dllmain.obj
 0002:0000348c       _IID_IRegistrar            1008a48c     dllmain.obj
 0002:000034a0       _IID_IDocHostUIHandlerDispatch 1008a4a0     dllmain.obj
 0002:000034b4       _IID_IAxWinHostWindow      1008a4b4     dllmain.obj
 0002:000034c8       _IID_IAxWinHostWindowLic   1008a4c8     dllmain.obj
 0002:000034dc       _IID_IAxWinAmbientDispatch 1008a4dc     dllmain.obj
 0002:000034f0       _IID_IAxWinAmbientDispatchEx 1008a4f0     dllmain.obj
 0002:00003504       _IID_IInternalConnection   1008a504     dllmain.obj
 0002:00003518       _LIBID_ATLLib              1008a518     dllmain.obj
 0002:0000352b       ?chDirSep@ATL@@3DB         1008a52b     dllmain.obj
 0002:0000352c       ?chRightBracket@ATL@@3DB   1008a52c     dllmain.obj
 0002:0000352d       ?chLeftBracket@ATL@@3DB    1008a52d     dllmain.obj
 0002:0000352e       ?chQuote@ATL@@3DB          1008a52e     dllmain.obj
 0002:0000352f       ?chEquals@ATL@@3DB         1008a52f     dllmain.obj
 0002:00003530       ?szStringVal@ATL@@3QBDB    1008a530     dllmain.obj
 0002:00003534       ??_C@_01CPLAODJH@S@        1008a534     dllmain.obj
 0002:00003538       ?multiszStringVal@ATL@@3QBDB 1008a538     dllmain.obj
 0002:0000353c       ??_C@_01PLPBNMEI@M@        1008a53c     dllmain.obj
 0002:00003540       ?szDwordVal@ATL@@3QBDB     1008a540     dllmain.obj
 0002:00003544       ??_C@_01CKDDGHAB@D@        1008a544     dllmain.obj
 0002:00003548       ?szBinaryVal@ATL@@3QBDB    1008a548     dllmain.obj
 0002:0000354c       ??_C@_01HMGJMAIH@B@        1008a54c     dllmain.obj
 0002:00003550       ?szValToken@ATL@@3QBDB     1008a550     dllmain.obj
 0002:00003554       ??_C@_03LAIAPFCB@Val@      1008a554     dllmain.obj
 0002:00003558       ?szForceRemove@ATL@@3QBDB  1008a558     dllmain.obj
 0002:0000355c       ??_C@_0M@DBGDLGLL@ForceRemove@ 1008a55c     dllmain.obj
 0002:0000356c       ?szNoRemove@ATL@@3QBDB     1008a56c     dllmain.obj
 0002:00003570       ??_C@_08KAAPDIAN@NoRemove@ 1008a570     dllmain.obj
 0002:0000357c       ?szDelete@ATL@@3QBDB       1008a57c     dllmain.obj
 0002:00003580       ??_C@_06JBKGCNBB@Delete@   1008a580     dllmain.obj
 0002:00003588       ?CLSID_WinFormsControl@@3U_GUID@@B 1008a588     dllmain.obj
 0002:0000359c       __pRawDllMain              1008a59c     dllmain.obj
 0002:000035a0       ??_C@_13COJANIEC@?$AA0@    1008a5a0     dllmain.obj
 0002:000035a4       ??_C@_17CNPHIMPH@?$AA?$CF?$AAl?$AAs@ 1008a5a4     dllmain.obj
 0002:000035b0       ??_C@_1OG@DMCPDNOH@?$AAc?$AA?3?$AA?2?$AAp?$AAr?$AAo?$AAg?$AAr?$AAa?$AAm?$AA?5?$AAf?$AAi?$AAl?$AAe@ 1008a5b0     dllmain.obj
 0002:000036c4       ??_C@_0BA@MKMIKKJB@atlTraceGeneral@ 1008a6c4     dllmain.obj
 0002:000036d8       ??_C@_0M@DGPFJEBB@atlTraceCOM@ 1008a6d8     dllmain.obj
 0002:000036e8       ??_C@_0L@LHELAKBP@atlTraceQI@ 1008a6e8     dllmain.obj
 0002:000036f8       ??_C@_0BC@MALHFBAO@atlTraceRegistrar@ 1008a6f8     dllmain.obj
 0002:00003710       ??_C@_0BB@ILPPDKFL@atlTraceRefcount@ 1008a710     dllmain.obj
 0002:00003724       ??_C@_0BC@DGHHNKDC@atlTraceWindowing@ 1008a724     dllmain.obj
 0002:0000373c       ??_C@_0BB@GHKJKKIE@atlTraceControls@ 1008a73c     dllmain.obj
 0002:00003750       ??_C@_0BA@DKOAAGGM@atlTraceHosting@ 1008a750     dllmain.obj
 0002:00003764       ??_C@_0BB@BEBMGMDO@atlTraceDBClient@ 1008a764     dllmain.obj
 0002:00003778       ??_C@_0BD@KOADKDIA@atlTraceDBProvider@ 1008a778     dllmain.obj
 0002:00003790       ??_C@_0P@LNEGBOLO@atlTraceSnapin@ 1008a790     dllmain.obj
 0002:000037a4       ??_C@_0BA@MCBFIDIC@atlTraceNotImpl@ 1008a7a4     dllmain.obj
 0002:000037b8       ??_C@_0BD@PJPCCAKP@atlTraceAllocation@ 1008a7b8     dllmain.obj
 0002:000037d0       ??_C@_0BC@PGMFNIFA@atlTraceException@ 1008a7d0     dllmain.obj
 0002:000037e8       ??_C@_0N@BNNILHBE@atlTraceTime@ 1008a7e8     dllmain.obj
 0002:000037f8       ??_C@_0O@MEOJAOKK@atlTraceCache@ 1008a7f8     dllmain.obj
 0002:00003808       ??_C@_0BA@IDBKCKK@atlTraceStencil@ 1008a808     dllmain.obj
 0002:0000381c       ??_C@_0P@MBNHGHMI@atlTraceString@ 1008a81c     dllmain.obj
 0002:00003830       ??_C@_0M@IOBBMAHG@atlTraceMap@ 1008a830     dllmain.obj
 0002:00003840       ??_C@_0N@FEAAACHD@atlTraceUtil@ 1008a840     dllmain.obj
 0002:00003850       ??_C@_0BB@DNJDADMG@atlTraceSecurity@ 1008a850     dllmain.obj
 0002:00003864       ??_C@_0N@KLPNCFEE@atlTraceSync@ 1008a864     dllmain.obj
 0002:00003874       ??_C@_0O@KHOBHOBJ@atlTraceISAPI@ 1008a874     dllmain.obj
 0002:00003884       ??_C@_1O@LFNDFEBP@?$AA?$CF?$AAl?$AAs?$AA?5?$AA?9?$AA?5@ 1008a884     dllmain.obj
 0002:00003894       ??_C@_1M@PGKOAACE@?$AA?$CF?$AAu?$AA?5?$AA?9?$AA?5@ 1008a894     dllmain.obj
 0002:000038a4       ??_C@_1O@OAIPCDPO@?$AA?$CF?$AAl?$AAs?$AA?$CF?$AAl?$AAs@ 1008a8a4     dllmain.obj
 0002:000038b4       ??_C@_17LGGGMOOB@?$AA?$CF?$AAh?$AAs@ 1008a8b4     dllmain.obj
 0002:000038c0       ??_C@_1EO@EBPPKGOM@?$AAf?$AAa?$AAl?$AAs?$AAe?$AA?5?$AA?$CG?$AA?$CG?$AA?5?$AA?$CC?$AAT?$AAo?$AAo?$AA?5?$AAm@ 1008a8c0     dllmain.obj
 0002:00003920       ??_C@_1OG@EPIEFPGE@?$AAc?$AA?3?$AA?2?$AAp?$AAr?$AAo?$AAg?$AAr?$AAa?$AAm?$AA?5?$AAf?$AAi?$AAl?$AAe@ 1008a920     dllmain.obj
 0002:00003a34       ??_C@_1BM@GBBOFEAE@?$AA_?$AA_?$AAa?$AAt?$AAl?$AA_?$AAc?$AAo?$AAn?$AAd?$AAV?$AAa?$AAl@ 1008aa34     dllmain.obj
 0002:00003a5c       ??_7CWin32Heap@ATL@@6B@    1008aa5c     dllmain.obj
 0002:00003a74       ??_C@_1BG@CLPBKBHG@?$AAh?$AAH?$AAe?$AAa?$AAp?$AA?5?$AA?$CB?$AA?$DN?$AA?5?$AA0@ 1008aa74     dllmain.obj
 0002:00003a90       ??_C@_1OC@OFNGGEPE@?$AAc?$AA?3?$AA?2?$AAp?$AAr?$AAo?$AAg?$AAr?$AAa?$AAm?$AA?5?$AAf?$AAi?$AAl?$AAe@ 1008aa90     dllmain.obj
 0002:00003ba0       ??_C@_1BC@PMINONJG@?$AAb?$AAS?$AAu?$AAc?$AAc?$AAe?$AAs?$AAs@ 1008aba0     dllmain.obj
 0002:00003bb8       ??_C@_1BE@BLGCOAPB@?$AAn?$AAR?$AAe?$AAf?$AAs?$AA?5?$AA?$DO?$AA?5?$AA0@ 1008abb8     dllmain.obj
 0002:00003bd0       ??_C@_1OK@IGLFIDNJ@?$AAc?$AA?3?$AA?2?$AAp?$AAr?$AAo?$AAg?$AAr?$AAa?$AAm?$AA?5?$AAf?$AAi?$AAl?$AAe@ 1008abd0     dllmain.obj
 0002:00003ce8       ??_C@_1CA@MEFFJNJ@?$AAp?$AAS?$AAt?$AAr?$AAi?$AAn?$AAg?$AAM?$AAg?$AAr?$AA?5?$AA?$DN?$AA?$DN?$AA?5?$AA0@ 1008ace8     dllmain.obj
 0002:00003d10       ??_C@_1OE@FJOLCNK@?$AAc?$AA?3?$AA?2?$AAp?$AAr?$AAo?$AAg?$AAr?$AAa?$AAm?$AA?5?$AAf?$AAi?$AAl?$AAe@ 1008ad10     dllmain.obj
 0002:00003e28       ??_C@_0HC@MPCLIDIG@c?3?2program?5files?5?$CIx86?$CJ?2microsof@ 1008ae28     dllmain.obj
 0002:00003eb0       ??_C@_0EA@EJEMLPD@ERROR?5?3?5Unable?5to?5initialize?5cr@ 1008aeb0     dllmain.obj
 0002:00003f00       ??_C@_0ED@GFNHMOFC@ERROR?5?3?5Unable?5to?5initialize?5cr@ 1008af00     dllmain.obj
 0002:00003f54       ??_7CAtlStringMgr@ATL@@6B@ 1008af54     dllmain.obj
 0002:00003f78       ??_C@_1OC@GNAIJDEH@?$AAc?$AA?3?$AA?2?$AAp?$AAr?$AAo?$AAg?$AAr?$AAa?$AAm?$AA?5?$AAf?$AAi?$AAl?$AAe@ 1008af78     dllmain.obj
 0002:00004088       ??_C@_1BG@IEBIBJEI@?$AAp?$AAD?$AAa?$AAt?$AAa?$AA?5?$AA?$CB?$AA?$DN?$AA?5?$AA0@ 1008b088     dllmain.obj
 0002:000040a4       ??_C@_1DE@KEEBDKDC@?$AAp?$AAD?$AAa?$AAt?$AAa?$AA?9?$AA?$DO?$AAp?$AAS?$AAt?$AAr?$AAi?$AAn?$AAg?$AAM@ 1008b0a4     dllmain.obj
 0002:000040e4       ??_C@_03CGPANDLG@?$CFTs@   1008b0e4     dllmain.obj
 0002:000040e8       ??_C@_0DK@NKHPAAOA@c?3?2work?2client_pc?2framework_ext@ 1008b0e8     dllmain.obj
 0002:00004130       ??_C@_0CE@KPGNOIHB@NMSound?4DLL?$MA?$LL?5?C?J?$LB?b?H?$KN?G?O?$LA?m?5?$MA?V?$LN?$MA?$LE?O@ 1008b130     dllmain.obj
 0002:0000415c       ??_C@_0CC@GNNFPH@NMSound?4DLL?$MA?$LL?5?A?$LO?$LH?a?G?O?$LA?m?5?$MA?V?$LN?$MA?$LE?O?$LE?Y@ 1008b15c     dllmain.obj
 0002:00004188       ??_C@_1EA@JHMKKLFC@?$AAn?$AAI?$AAn?$AAd?$AAe?$AAx?$AA?5?$AA?$DO?$AA?$DN?$AA?5?$AA0?$AA?5?$AA?$CG?$AA?$CG?$AA?5@ 1008b188     dllmain.obj
 0002:000041d8       ??_C@_1OM@EKDPBNLB@?$AAc?$AA?3?$AA?2?$AAp?$AAr?$AAo?$AAg?$AAr?$AAa?$AAm?$AA?5?$AAf?$AAi?$AAl?$AAe@ 1008b1d8     dllmain.obj
 0002:000042f4       ??_C@_1BK@NHECDDNK@?$AAm?$AA_?$AAp?$AAD?$AAa?$AAt?$AAa?$AA?5?$AA?$DN?$AA?$DN?$AA?5?$AA0@ 1008b2f4     dllmain.obj
 0002:00004318       ??_7CMciMedia@SOUND@NMBASE@@6B@ 1008b318     MciMedia.obj
 0002:00004320       ??_C@_0N@HOABMHLA@MciMsgWindow@ 1008b320     MciMedia.obj
 0002:00004330       __real@42c80000            1008b330     MciMedia.obj
 0002:00004334       __real@4423d666            1008b334     MciMedia.obj
 0002:00004340       __xmm@41f00000000000000000000000000000 1008b340     MciMedia.obj
 0002:00004354       ??_C@_0BB@FCMFBGOM@invalid?5argument@ 1008b354     Sound.obj
 0002:00004368       ??_C@_02DKCKIIND@?$CFs@    1008b368     Sound.obj
 0002:0000436c       ??_C@_1CG@JNLFBNGN@?$AA?$CC?$AAi?$AAn?$AAv?$AAa?$AAl?$AAi?$AAd?$AA?5?$AAa?$AAr?$AAg?$AAu?$AAm?$AAe@ 1008b36c     Sound.obj
 0002:0000439c       ??_C@_0BJ@LFDBABJJ@ITERATOR?5LIST?5CORRUPTED?$CB@ 1008b39c     Sound.obj
 0002:000043c0       ??_C@_0GK@DDKPGBCB@c?3?2program?5files?5?$CIx86?$CJ?2microsof@ 1008b3c0     Sound.obj
 0002:00004440       ??_C@_1NE@EFEKKLJM@?$AAc?$AA?3?$AA?2?$AAp?$AAr?$AAo?$AAg?$AAr?$AAa?$AAm?$AA?5?$AAf?$AAi?$AAl?$AAe@ 1008b440     Sound.obj
 0002:00004540       ??_C@_1EE@KLDMFDFL@?$AAs?$AAt?$AAd?$AA?3?$AA?3?$AA_?$AAI?$AAt?$AAe?$AAr?$AAa?$AAt?$AAo?$AAr?$AA_@ 1008b540     Sound.obj
 0002:00004594       ??_C@_1DG@PLBPCAEM@?$AA?$CC?$AAI?$AAT?$AAE?$AAR?$AAA?$AAT?$AAO?$AAR?$AA?5?$AAL?$AAI?$AAS?$AAT?$AA?5@ 1008b594     Sound.obj
 0002:000045d8       ??_C@_0GK@CPBCFDIC@c?3?2program?5files?5?$CIx86?$CJ?2microsof@ 1008b5d8     Sound.obj
 0002:00004658       ??_C@_1NE@LIKBHODP@?$AAc?$AA?3?$AA?2?$AAp?$AAr?$AAo?$AAg?$AAr?$AAa?$AAm?$AA?5?$AAf?$AAi?$AAl?$AAe@ 1008b658     Sound.obj
 0002:00004758       ??_C@_1EK@NIFDJFDG@?$AAs?$AAt?$AAd?$AA?3?$AA?3?$AA_?$AAA?$AAd?$AAj?$AAu?$AAs?$AAt?$AA_?$AAm?$AAa@ 1008b758     Sound.obj
 0002:000047b4       ??_7CSound@SOUND@NMBASE@@6B@ 1008b7b4     Sound.obj
 0002:000047bc       ??_C@_0CI@CBAANOMK@SOUNDLOG?$DO?5All?5Sound?5Resource?5De@ 1008b7bc     Sound.obj
 0002:000047ec       ??_C@_01KICIPPFI@?2@       1008b7ec     Sound.obj
 0002:000047f0       ??_C@_0CH@MIOKAFJC@SOUNDLOG?$DO?5?$CFd?5WAV?5Registered?$CITot@ 1008b7f0     Sound.obj
 0002:00004820       ??_C@_0CH@COMDGKJA@SOUNDLOG?$DO?5?$CFd?5MCI?5Registered?$CITot@ 1008b820     Sound.obj
 0002:00004850       ??_C@_0CH@KCAEAFOK@SOUNDLOG?$DO?5?$CFd?5OGG?5Registered?$CITot@ 1008b850     Sound.obj
 0002:00004880       ??_C@_0DA@KBEJCFCG@SOUNDLOG?$DO?5Playing?5failed?5?9?5Unre@ 1008b880     Sound.obj
 0002:000048bc       ??_C@_0DA@CJCNKJKC@SOUNDLOG?$DO?5Playing?5failed?5?9?5Unre@ 1008b8bc     Sound.obj
 0002:000048f8       ??_C@_0DA@KFENOLLM@SOUNDLOG?$DO?5Playing?5failed?5?9?5Unre@ 1008b8f8     Sound.obj
 0002:00004934       ??_C@_02PCIJFNDE@?$AN?6@   1008b934     Sound.obj
 0002:00004938       ??_C@_0CA@ODCNLOCI@SOUNDLOG?$DO?5?$CFd?1?$CFd?5WAV?5Created?$CI?$CFs?$CJ@ 1008b938     Sound.obj
 0002:00004960       ??_C@_0CA@GJBJADJB@SOUNDLOG?$DO?5?$CFd?1?$CFd?5MCI?5Created?$CI?$CFs?$CJ@ 1008b960     Sound.obj
 0002:00004988       ??_C@_0CA@KPFOBGBB@SOUNDLOG?$DO?5?$CFd?1?$CFd?5OGG?5Created?$CI?$CFs?$CJ@ 1008b988     Sound.obj
 0002:000049b0       ??_C@_0CD@IDIGEHGK@SOUNDLOG?$DO?5Release?5Sound?5Object?$CI@ 1008b9b0     Sound.obj
 0002:000049dc       ??_C@_0DO@BNLCMPMM@SOUNDLOG?$DO?5Resource?5Status?5?3?5?$CIWA@ 1008b9dc     Sound.obj
 0002:00004a28       ??_C@_0DG@LCFNIIPB@cannot?5dereference?5value?9initia@ 1008ba28     Sound.obj
 0002:00004a68       ??_C@_0GH@HDPMBCLG@c?3?2program?5files?5?$CIx86?$CJ?2microsof@ 1008ba68     Sound.obj
 0002:00004ae8       ??_C@_1MO@EJJJGECM@?$AAc?$AA?3?$AA?2?$AAp?$AAr?$AAo?$AAg?$AAr?$AAa?$AAm?$AA?5?$AAf?$AAi?$AAl?$AAe@ 1008bae8     Sound.obj
 0002:00004be0       ??_C@_1BHA@DGOGIFJG@?$AAs?$AAt?$AAd?$AA?3?$AA?3?$AA_?$AAT?$AAr?$AAe?$AAe?$AA_?$AAc?$AAo?$AAn?$AAs@ 1008bbe0     Sound.obj
 0002:00004da0       ??_C@_1HA@ILGCNILF@?$AA?$CC?$AAc?$AAa?$AAn?$AAn?$AAo?$AAt?$AA?5?$AAd?$AAe?$AAr?$AAe?$AAf?$AAe?$AAr@ 1008bda0     Sound.obj
 0002:00004e28       ??_C@_0CI@OKFEHCEB@cannot?5dereference?5end?5map?1set?5@ 1008be28     Sound.obj
 0002:00004e58       ??_C@_1FE@NKHAAGMB@?$AA?$CC?$AAc?$AAa?$AAn?$AAn?$AAo?$AAt?$AA?5?$AAd?$AAe?$AAr?$AAe?$AAf?$AAe?$AAr@ 1008be58     Sound.obj
 0002:00004ebc       ??_C@_0BP@OLDKBHLM@map?1set?5iterators?5incompatible@ 1008bebc     Sound.obj
 0002:00004ee8       ??_C@_1BOC@LNOFKAKH@?$AAs?$AAt?$AAd?$AA?3?$AA?3?$AA_?$AAT?$AAr?$AAe?$AAe?$AA_?$AAc?$AAo?$AAn?$AAs@ 1008bee8     Sound.obj
 0002:00005130       ??_C@_1EC@JLIDLCDH@?$AA?$CC?$AAm?$AAa?$AAp?$AA?1?$AAs?$AAe?$AAt?$AA?5?$AAi?$AAt?$AAe?$AAr?$AAa?$AAt@ 1008c130     Sound.obj
 0002:00005180       ??_C@_1BHC@KGFLHOIK@?$AAs?$AAt?$AAd?$AA?3?$AA?3?$AA_?$AAT?$AAr?$AAe?$AAe?$AA_?$AAc?$AAo?$AAn?$AAs@ 1008c180     Sound.obj
 0002:0000533c       ??_C@_0DE@DMNPKCGM@cannot?5increment?5value?9initiali@ 1008c33c     Sound.obj
 0002:00005380       ??_C@_1BHC@GKGJHEP@?$AAs?$AAt?$AAd?$AA?3?$AA?3?$AA_?$AAT?$AAr?$AAe?$AAe?$AA_?$AAc?$AAo?$AAn?$AAs@ 1008c380     Sound.obj
 0002:00005540       ??_C@_1GM@BJMCGEGI@?$AA?$CC?$AAc?$AAa?$AAn?$AAn?$AAo?$AAt?$AA?5?$AAi?$AAn?$AAc?$AAr?$AAe?$AAm?$AAe@ 1008c540     Sound.obj
 0002:000055c4       ??_C@_0CG@NLEHEOHN@cannot?5increment?5end?5map?1set?5it@ 1008c5c4     Sound.obj
 0002:000055f8       ??_C@_1FA@KLFCDGNE@?$AA?$CC?$AAc?$AAa?$AAn?$AAn?$AAo?$AAt?$AA?5?$AAi?$AAn?$AAc?$AAr?$AAe?$AAm?$AAe@ 1008c5f8     Sound.obj
 0002:00005658       ??_C@_0BM@BALDKKHE@list?5iterators?5incompatible@ 1008c658     Sound.obj
 0002:00005680       ??_C@_0GG@HINEFHHH@c?3?2program?5files?5?$CIx86?$CJ?2microsof@ 1008c680     Sound.obj
 0002:00005700       ??_C@_1MM@NOHKNLEF@?$AAc?$AA?3?$AA?2?$AAp?$AAr?$AAo?$AAg?$AAr?$AAa?$AAm?$AA?5?$AAf?$AAi?$AAl?$AAe@ 1008c700     Sound.obj
 0002:000057f8       ??_C@_1BAI@LAKBHHEO@?$AAs?$AAt?$AAd?$AA?3?$AA?3?$AA_?$AAL?$AAi?$AAs?$AAt?$AA_?$AAc?$AAo?$AAn?$AAs@ 1008c7f8     Sound.obj
 0002:00005934       ??_C@_1DM@KDLJAKOP@?$AA?$CC?$AAl?$AAi?$AAs?$AAt?$AA?5?$AAi?$AAt?$AAe?$AAr?$AAa?$AAt?$AAo?$AAr?$AAs@ 1008c934     Sound.obj
 0002:0000597c       ??_C@_0DD@MBIHGLJE@cannot?5dereference?5value?9initia@ 1008c97c     Sound.obj
 0002:000059c0       ??_C@_1BAG@PJMPNENM@?$AAs?$AAt?$AAd?$AA?3?$AA?3?$AA_?$AAL?$AAi?$AAs?$AAt?$AA_?$AAc?$AAo?$AAn?$AAs@ 1008c9c0     Sound.obj
 0002:00005b00       ??_C@_1GK@NKIMOCIG@?$AA?$CC?$AAc?$AAa?$AAn?$AAn?$AAo?$AAt?$AA?5?$AAd?$AAe?$AAr?$AAe?$AAf?$AAe?$AAr@ 1008cb00     Sound.obj
 0002:00005b80       ??_C@_0CF@JCBFHMPL@cannot?5dereference?5end?5list?5ite@ 1008cb80     Sound.obj
 0002:00005bb0       ??_C@_1EO@CNEFBDCF@?$AA?$CC?$AAc?$AAa?$AAn?$AAn?$AAo?$AAt?$AA?5?$AAd?$AAe?$AAr?$AAe?$AAf?$AAe?$AAr@ 1008cbb0     Sound.obj
 0002:00005c10       ??_C@_1BOA@JNNBMGKF@?$AAs?$AAt?$AAd?$AA?3?$AA?3?$AA_?$AAT?$AAr?$AAe?$AAe?$AA_?$AAc?$AAo?$AAn?$AAs@ 1008cc10     Sound.obj
 0002:00005e50       ??_C@_0CC@KEJJOMBH@list?5erase?5iterator?5outside?5ran@ 1008ce50     Sound.obj
 0002:00005e78       ??_C@_1OO@JOMEBOGO@?$AAs?$AAt?$AAd?$AA?3?$AA?3?$AAl?$AAi?$AAs?$AAt?$AA?$DM?$AAs?$AAt?$AAr?$AAu?$AAc@ 1008ce78     Sound.obj
 0002:00005f98       ??_C@_1EI@FHIDKIBN@?$AA?$CC?$AAl?$AAi?$AAs?$AAt?$AA?5?$AAe?$AAr?$AAa?$AAs?$AAe?$AA?5?$AAi?$AAt?$AAe@ 1008cf98     Sound.obj
 0002:00005ff0       ??_C@_0DB@ENBCPNKO@cannot?5increment?5value?9initiali@ 1008cff0     Sound.obj
 0002:00006030       ??_C@_1BAI@BAFMJOIL@?$AAs?$AAt?$AAd?$AA?3?$AA?3?$AA_?$AAL?$AAi?$AAs?$AAt?$AA_?$AAc?$AAo?$AAn?$AAs@ 1008d030     Sound.obj
 0002:00006170       ??_C@_1GG@JLMAGPNK@?$AA?$CC?$AAc?$AAa?$AAn?$AAn?$AAo?$AAt?$AA?5?$AAi?$AAn?$AAc?$AAr?$AAe?$AAm?$AAe@ 1008d170     Sound.obj
 0002:000061ec       ??_C@_0CD@PMFMCEG@cannot?5increment?5end?5list?5itera@ 1008d1ec     Sound.obj
 0002:00006218       ??_C@_1EK@OKKCFDJN@?$AA?$CC?$AAc?$AAa?$AAn?$AAn?$AAo?$AAt?$AA?5?$AAi?$AAn?$AAc?$AAr?$AAe?$AAm?$AAe@ 1008d218     Sound.obj
 0002:00006270       ??_C@_1BOC@BNBIEJGC@?$AAs?$AAt?$AAd?$AA?3?$AA?3?$AA_?$AAT?$AAr?$AAe?$AAe?$AA_?$AAc?$AAo?$AAn?$AAs@ 1008d270     Sound.obj
 0002:000064b4       ??_C@_0BI@CFPLBAOH@invalid?5string?5position@ 1008d4b4     Sound.obj
 0002:000064d0       ??_C@_0CF@JILFNJOL@map?1set?5erase?5iterator?5outside?5@ 1008d4d0     Sound.obj
 0002:00006500       ??_C@_1CMC@JCDMDDFN@?$AAs?$AAt?$AAd?$AA?3?$AA?3?$AA_?$AAT?$AAr?$AAe?$AAe?$AA?$DM?$AAc?$AAl?$AAa?$AAs@ 1008d500     Sound.obj
 0002:00006850       ??_C@_1EO@CEDAEPC@?$AA?$CC?$AAm?$AAa?$AAp?$AA?1?$AAs?$AAe?$AAt?$AA?5?$AAe?$AAr?$AAa?$AAs?$AAe?$AA?5@ 1008d850     Sound.obj
 0002:000068b0       ??_C@_1DHA@OKCBDMNH@?$AAs?$AAt?$AAd?$AA?3?$AA?3?$AA_?$AAT?$AAr?$AAe?$AAe?$AA?$DM?$AAc?$AAl?$AAa?$AAs@ 1008d8b0     Sound.obj
 0002:00006cd0       ??_C@_1BCI@BIAFDMGC@?$AAs?$AAt?$AAd?$AA?3?$AA?3?$AA_?$AAT?$AAr?$AAe?$AAe?$AA_?$AAv?$AAa?$AAl?$AA?$DM@ 1008dcd0     Sound.obj
 0002:00006e38       ??_C@_1BJI@CDPINCDK@?$AAs?$AAt?$AAd?$AA?3?$AA?3?$AA_?$AAT?$AAr?$AAe?$AAe?$AA_?$AAv?$AAa?$AAl?$AA?$DM@ 1008de38     Sound.obj
 0002:00007024       ??_C@_0BD@FEEMDEPI@invalid?5comparator@ 1008e024     Sound.obj
 0002:0000703c       ??_C@_1CI@JONCLBEJ@?$AAs?$AAt?$AAd?$AA?3?$AA?3?$AA_?$AAD?$AAe?$AAb?$AAu?$AAg?$AA_?$AAl?$AAt?$AA_@ 1008e03c     Sound.obj
 0002:0000706c       ??_C@_1CK@NDNHPKPI@?$AA?$CC?$AAi?$AAn?$AAv?$AAa?$AAl?$AAi?$AAd?$AA?5?$AAc?$AAo?$AAm?$AAp?$AAa?$AAr@ 1008e06c     Sound.obj
 0002:000070a0       ??_C@_0CD@LEPJCKBH@list?5insert?5iterator?5outside?5ra@ 1008e0a0     Sound.obj
 0002:000070d0       ??_C@_1OE@ENEONKJP@?$AAs?$AAt?$AAd?$AA?3?$AA?3?$AAl?$AAi?$AAs?$AAt?$AA?$DM?$AAs?$AAt?$AAr?$AAu?$AAc@ 1008e0d0     Sound.obj
 0002:000071e8       ??_C@_1EK@HLNIPGJB@?$AA?$CC?$AAl?$AAi?$AAs?$AAt?$AA?5?$AAi?$AAn?$AAs?$AAe?$AAr?$AAt?$AA?5?$AAi?$AAt@ 1008e1e8     Sound.obj
 0002:00007240       ??_C@_0BB@MOGOBHAF@list?$DMT?$DO?5too?5long@ 1008e240     Sound.obj
 0002:00007254       ??_C@_0BA@JFNIOLAK@string?5too?5long@ 1008e254     Sound.obj
 0002:00007268       ??_C@_0DB@MCPEHPCC@cannot?5decrement?5value?9initiali@ 1008e268     Sound.obj
 0002:000072a8       ??_C@_1BAI@ODGOCCEK@?$AAs?$AAt?$AAd?$AA?3?$AA?3?$AA_?$AAL?$AAi?$AAs?$AAt?$AA_?$AAc?$AAo?$AAn?$AAs@ 1008e2a8     Sound.obj
 0002:000073e8       ??_C@_1GG@FLDKPFOH@?$AA?$CC?$AAc?$AAa?$AAn?$AAn?$AAo?$AAt?$AA?5?$AAd?$AAe?$AAc?$AAr?$AAe?$AAm?$AAe@ 1008e3e8     Sound.obj
 0002:00007464       ??_C@_0CF@BAAFPBMN@cannot?5decrement?5begin?5list?5ite@ 1008e464     Sound.obj
 0002:00007490       ??_C@_1EO@PPPLIDNC@?$AA?$CC?$AAc?$AAa?$AAn?$AAn?$AAo?$AAt?$AA?5?$AAd?$AAe?$AAc?$AAr?$AAe?$AAm?$AAe@ 1008e490     Sound.obj
 0002:000074f0       ??_C@_1EO@GFNCMDLA@?$AAs?$AAt?$AAd?$AA?3?$AA?3?$AA_?$AAA?$AAl?$AAl?$AAo?$AAc?$AAa?$AAt?$AAe?$AA_@ 1008e4f0     Sound.obj
 0002:00007550       ??_C@_0DE@JECMPNID@cannot?5decrement?5value?9initiali@ 1008e550     Sound.obj
 0002:00007590       ??_C@_1BHC@PFJECLIO@?$AAs?$AAt?$AAd?$AA?3?$AA?3?$AA_?$AAT?$AAr?$AAe?$AAe?$AA_?$AAc?$AAo?$AAn?$AAs@ 1008e590     Sound.obj
 0002:00007750       ??_C@_1GM@ECOECPCJ@?$AA?$CC?$AAc?$AAa?$AAn?$AAn?$AAo?$AAt?$AA?5?$AAd?$AAe?$AAc?$AAr?$AAe?$AAm?$AAe@ 1008e750     Sound.obj
 0002:000077d4       ??_C@_0CI@FJCIBNID@cannot?5decrement?5begin?5map?1set?5@ 1008e7d4     Sound.obj
 0002:00007808       ??_C@_1FE@HAEBNAIH@?$AA?$CC?$AAc?$AAa?$AAn?$AAn?$AAo?$AAt?$AA?5?$AAd?$AAe?$AAc?$AAr?$AAe?$AAm?$AAe@ 1008e808     Sound.obj
 0002:0000786c       ??_C@_1CG@LJCPDKEJ@?$AAs?$AAt?$AAd?$AA?3?$AA?3?$AA_?$AAV?$AAe?$AAr?$AAi?$AAf?$AAy?$AA_?$AAr?$AAa@ 1008e86c     Sound.obj
 0002:0000789c       ??_C@_0BE@JONHPENG@map?1set?$DMT?$DO?5too?5long@ 1008e89c     Sound.obj
 0002:000078b4       ??_C@_0CG@MOLIBF@map?1set?5insert?5iterator?5outside@ 1008e8b4     Sound.obj
 0002:000078e8       ??_C@_1DHO@JGHFPOPI@?$AAs?$AAt?$AAd?$AA?3?$AA?3?$AA_?$AAT?$AAr?$AAe?$AAe?$AA?$DM?$AAc?$AAl?$AAa?$AAs@ 1008e8e8     Sound.obj
 0002:00007d18       ??_C@_1FA@HNFOKDLB@?$AA?$CC?$AAm?$AAa?$AAp?$AA?1?$AAs?$AAe?$AAt?$AA?5?$AAi?$AAn?$AAs?$AAe?$AAr?$AAt@ 1008ed18     Sound.obj
 0002:00007d78       ??_C@_0DG@GAGDEJEE@list?5iterators?5in?5range?5are?5fro@ 1008ed78     Sound.obj
 0002:00007db8       ??_C@_1HA@KAMKPLHN@?$AA?$CC?$AAl?$AAi?$AAs?$AAt?$AA?5?$AAi?$AAt?$AAe?$AAr?$AAa?$AAt?$AAo?$AAr?$AAs@ 1008edb8     Sound.obj
 0002:00007e40       ??_C@_1BOC@OOCKPFKD@?$AAs?$AAt?$AAd?$AA?3?$AA?3?$AA_?$AAT?$AAr?$AAe?$AAe?$AA_?$AAc?$AAo?$AAn?$AAs@ 1008ee40     Sound.obj
 0002:00008082       ??_C@_00CNPNBAHC@@         1008f082     SoundManager.obj
 0002:00008088       ??_7CSoundMananger@SOUND@NMBASE@@6B@ 1008f088     SoundManager.obj
 0002:00008090       ??_C@_0EI@OLBIBKME@c?3?2work?2client_pc?2framework_ext@ 1008f090     SoundManager.obj
 0002:000080e8       ??_C@_0CJ@IPFDNOBB@nothing?5?9?5CSoundMananger?3?3PlayW@ 1008f0e8     SoundManager.obj
 0002:0000811c       ??_C@_0CK@DNLGKPOB@Count?$DN?$DN0?5?9?5CSoundMananger?3?3Play@ 1008f11c     SoundManager.obj
 0002:00008150       ??_C@_03BICDMHKB@wav@      1008f150     SoundManager.obj
 0002:00008154       ??_C@_03NKNKOHHD@ogg@      1008f154     SoundManager.obj
 0002:00008158       ??_C@_0CH@CCPKKNBG@Error?5?9?5CSoundMananger?3?3PlayWav@ 1008f158     SoundManager.obj
 0002:00008188       ??_C@_0BH@IFGLOJHE@?$CFs?5?3?5?$CFs?5regist?5error?$CB?6@ 1008f188     SoundManager.obj
 0002:000081a4       ??_C@_0CC@BGGBPJBM@CSoundMananger?3?3Attach?$CI?5?$CFs?0?5?$CFs?5@ 1008f1a4     SoundManager.obj
 0002:000081cc       ??_C@_09MMJOHGCM@?$CFs?$CFs?$CK?4ogg@ 1008f1cc     SoundManager.obj
 0002:000081d8       ??_C@_01JOAMLHOP@?9@       1008f1d8     SoundManager.obj
 0002:000081e0       ??_C@_1CFG@FGJHCIBH@?$AAs?$AAt?$AAd?$AA?3?$AA?3?$AA_?$AAT?$AAr?$AAe?$AAe?$AA_?$AAc?$AAo?$AAn?$AAs@ 1008f1e0     SoundManager.obj
 0002:000084b0       ??_C@_0GJ@KCDLDJHJ@c?3?2program?5files?5?$CIx86?$CJ?2microsof@ 1008f4b0     SoundManager.obj
 0002:00008530       ??_C@_1NC@IGJLJKHD@?$AAc?$AA?3?$AA?2?$AAp?$AAr?$AAo?$AAg?$AAr?$AAa?$AAm?$AA?5?$AAf?$AAi?$AAl?$AAe@ 1008f530     SoundManager.obj
 0002:00008630       ??_C@_1BCK@KAHFFDDB@?$AAs?$AAt?$AAd?$AA?3?$AA?3?$AAl?$AAi?$AAs?$AAt?$AA?$DM?$AAs?$AAt?$AAr?$AAu?$AAc@ 1008f630     SoundManager.obj
 0002:00008798       ??_C@_1BCG@HBCJEFKJ@?$AAs?$AAt?$AAd?$AA?3?$AA?3?$AA_?$AAL?$AAi?$AAs?$AAt?$AA_?$AAc?$AAo?$AAn?$AAs@ 1008f798     SoundManager.obj
 0002:000088f8       ??_C@_1BCE@NMMMGCEO@?$AAs?$AAt?$AAd?$AA?3?$AA?3?$AA_?$AAL?$AAi?$AAs?$AAt?$AA_?$AAc?$AAo?$AAn?$AAs@ 1008f8f8     SoundManager.obj
 0002:00008a58       ??_C@_1CFG@PGGKMBNC@?$AAs?$AAt?$AAd?$AA?3?$AA?3?$AA_?$AAT?$AAr?$AAe?$AAe?$AA_?$AAc?$AAo?$AAn?$AAs@ 1008fa58     SoundManager.obj
 0002:00008d28       ??_C@_1CFE@PPLBLEGL@?$AAs?$AAt?$AAd?$AA?3?$AA?3?$AA_?$AAT?$AAr?$AAe?$AAe?$AA_?$AAc?$AAo?$AAn?$AAs@ 1008fd28     SoundManager.obj
 0002:00008ff8       ??_C@_1EFG@POBIGBAF@?$AAs?$AAt?$AAd?$AA?3?$AA?3?$AA_?$AAT?$AAr?$AAe?$AAe?$AA?$DM?$AAc?$AAl?$AAa?$AAs@ 1008fff8     SoundManager.obj
 0002:0000952c       ??_C@_0CO@HMKHBNHI@cannot?5seek?5value?9initialized?5s@ 1009052c     SoundManager.obj
 0002:00009568       ??_C@_1MO@NHFHAAFD@?$AAs?$AAt?$AAd?$AA?3?$AA?3?$AA_?$AAS?$AAt?$AAr?$AAi?$AAn?$AAg?$AA_?$AAc?$AAo@ 10090568     SoundManager.obj
 0002:00009660       ??_C@_1GA@DPDCOHLH@?$AA?$CC?$AAc?$AAa?$AAn?$AAn?$AAo?$AAt?$AA?5?$AAs?$AAe?$AAe?$AAk?$AA?5?$AAv?$AAa@ 10090660     SoundManager.obj
 0002:000096d8       ??_C@_0HL@FFBIGJOL@cannot?5seek?5string?5iterator?5bec@ 100906d8     SoundManager.obj
 0002:00009770       ??_C@_1BAA@CKOBBKNE@?$AA?$CC?$AAc?$AAa?$AAn?$AAn?$AAo?$AAt?$AA?5?$AAs?$AAe?$AAe?$AAk?$AA?5?$AAs?$AAt@ 10090770     SoundManager.obj
 0002:000098a4       ??_C@_0CJ@CGBGDMPO@cannot?5seek?5string?5iterator?5bef@ 100908a4     SoundManager.obj
 0002:000098d8       ??_C@_1FG@EJPDEFGL@?$AA?$CC?$AAc?$AAa?$AAn?$AAn?$AAo?$AAt?$AA?5?$AAs?$AAe?$AAe?$AAk?$AA?5?$AAs?$AAt@ 100908d8     SoundManager.obj
 0002:00009940       ??_C@_0CG@BGNOMIGA@cannot?5seek?5string?5iterator?5aft@ 10090940     SoundManager.obj
 0002:00009970       ??_C@_1FA@POFOLIGA@?$AA?$CC?$AAc?$AAa?$AAn?$AAn?$AAo?$AAt?$AA?5?$AAs?$AAe?$AAe?$AAk?$AA?5?$AAs?$AAt@ 10090970     SoundManager.obj
 0002:000099d0       ??_C@_1CAM@NGLDEJOH@?$AAs?$AAt?$AAd?$AA?3?$AA?3?$AA_?$AAT?$AAr?$AAe?$AAe?$AA_?$AAv?$AAa?$AAl?$AA?$DM@ 100909d0     SoundManager.obj
 0002:00009c48       ??_C@_1BCA@BMGMEDFB@?$AAs?$AAt?$AAd?$AA?3?$AA?3?$AAl?$AAi?$AAs?$AAt?$AA?$DM?$AAs?$AAt?$AAr?$AAu?$AAc@ 10090c48     SoundManager.obj
 0002:00009da8       ??_C@_1BCG@NBNEKMGM@?$AAs?$AAt?$AAd?$AA?3?$AA?3?$AA_?$AAL?$AAi?$AAs?$AAt?$AA_?$AAc?$AAo?$AAn?$AAs@ 10090da8     SoundManager.obj
 0002:00009f08       ??_C@_1BCG@ICBLPJGI@?$AAs?$AAt?$AAd?$AA?3?$AA?3?$AA_?$AAL?$AAi?$AAs?$AAt?$AA_?$AAc?$AAo?$AAn?$AAs@ 10090f08     SoundManager.obj
 0002:0000a068       ??_C@_1CFG@FFIHNBD@?$AAs?$AAt?$AAd?$AA?3?$AA?3?$AA_?$AAT?$AAr?$AAe?$AAe?$AA_?$AAc?$AAo?$AAn?$AAs@ 10091068     SoundManager.obj
 0002:0000a338       ??_C@_0DI@FIGNHEDK@string?5iterators?5in?5range?5are?5f@ 10091338     SoundManager.obj
 0002:0000a380       ??_C@_1HE@MFNJODIC@?$AA?$CC?$AAs?$AAt?$AAr?$AAi?$AAn?$AAg?$AA?5?$AAi?$AAt?$AAe?$AAr?$AAa?$AAt?$AAo@ 10091380     SoundManager.obj
 0002:0000a40c       ??_C@_0CB@KDGGCAAF@string?5iterator?5range?5transpose@ 1009140c     SoundManager.obj
 0002:0000a438       ??_C@_1EG@NKDFABAL@?$AA?$CC?$AAs?$AAt?$AAr?$AAi?$AAn?$AAg?$AA?5?$AAi?$AAt?$AAe?$AAr?$AAa?$AAt?$AAo@ 10091438     SoundManager.obj
 0002:0000a490       ??_7?$CThreadQueue@PAVxOggStream@SOUND@NMBASE@@@SOUND@NMBASE@@6B@ 10091490     StreamManager.obj
 0002:0000a49c       ??_7CStreamManager@SOUND@NMBASE@@6B@ 1009149c     StreamManager.obj
 0002:0000a4a4       ??_C@_0DM@PMECCJEF@CStreamManager?3?3BeginLoading?$CI?$CJ?3@ 100914a4     StreamManager.obj
 0002:0000a4ec       ??_C@_0BO@PFKOHNJC@vector?5subscript?5out?5of?5range@ 100914ec     StreamManager.obj
 0002:0000a510       ??_C@_0GI@BPHPFAKC@c?3?2program?5files?5?$CIx86?$CJ?2microsof@ 10091510     StreamManager.obj
 0002:0000a590       ??_C@_1NA@DHBIODHH@?$AAc?$AA?3?$AA?2?$AAp?$AAr?$AAo?$AAg?$AAr?$AAa?$AAm?$AA?5?$AAf?$AAi?$AAl?$AAe@ 10091590     StreamManager.obj
 0002:0000a690       ??_C@_1OK@OPCHNLCJ@?$AAs?$AAt?$AAd?$AA?3?$AA?3?$AAv?$AAe?$AAc?$AAt?$AAo?$AAr?$AA?$DM?$AAc?$AAl?$AAa@ 10091690     StreamManager.obj
 0002:0000a7a8       ??_C@_1EA@LEKOKFNB@?$AA?$CC?$AAv?$AAe?$AAc?$AAt?$AAo?$AAr?$AA?5?$AAs?$AAu?$AAb?$AAs?$AAc?$AAr?$AAi@ 100917a8     StreamManager.obj
 0002:0000a7f4       ??_C@_0CE@EAMOGAIE@vector?5erase?5iterator?5outside?5r@ 100917f4     StreamManager.obj
 0002:0000a820       ??_C@_1NO@HFNAACP@?$AAs?$AAt?$AAd?$AA?3?$AA?3?$AAv?$AAe?$AAc?$AAt?$AAo?$AAr?$AA?$DM?$AAc?$AAl?$AAa@ 10091820     StreamManager.obj
 0002:0000a930       ??_C@_1EM@BEMPOGMM@?$AA?$CC?$AAv?$AAe?$AAc?$AAt?$AAo?$AAr?$AA?5?$AAe?$AAr?$AAa?$AAs?$AAe?$AA?5?$AAi@ 10091930     StreamManager.obj
 0002:0000a98c       ??_C@_0DE@CHADHGFF@can?8t?5dereference?5value?9initial@ 1009198c     StreamManager.obj
 0002:0000a9d0       ??_C@_1BAA@KACPHBEH@?$AAs?$AAt?$AAd?$AA?3?$AA?3?$AA_?$AAV?$AAe?$AAc?$AAt?$AAo?$AAr?$AA_?$AAc?$AAo@ 100919d0     StreamManager.obj
 0002:0000ab08       ??_C@_1GM@FNBFNBEL@?$AA?$CC?$AAc?$AAa?$AAn?$AA?8?$AAt?$AA?5?$AAd?$AAe?$AAr?$AAe?$AAf?$AAe?$AAr?$AAe@ 10091b08     StreamManager.obj
 0002:0000ab8c       ??_C@_0CP@MDHADBHN@can?8t?5dereference?5out?5of?5range?5@ 10091b8c     StreamManager.obj
 0002:0000abc8       ??_C@_1GC@JDCKOLAC@?$AA?$CC?$AAc?$AAa?$AAn?$AA?8?$AAt?$AA?5?$AAd?$AAe?$AAr?$AAe?$AAf?$AAe?$AAr?$AAe@ 10091bc8     StreamManager.obj
 0002:0000ac40       ??_C@_0BO@CAOBBIOC@vector?5iterators?5incompatible@ 10091c40     StreamManager.obj
 0002:0000ac68       ??_C@_1PK@NBHLPHII@?$AAs?$AAt?$AAd?$AA?3?$AA?3?$AA_?$AAV?$AAe?$AAc?$AAt?$AAo?$AAr?$AA_?$AAc?$AAo@ 10091c68     StreamManager.obj
 0002:0000ad98       ??_C@_1EA@DJDGNIII@?$AA?$CC?$AAv?$AAe?$AAc?$AAt?$AAo?$AAr?$AA?5?$AAi?$AAt?$AAe?$AAr?$AAa?$AAt?$AAo@ 10091d98     StreamManager.obj
 0002:0000ade4       ??_C@_0DC@KEKNBAEB@can?8t?5increment?5value?9initializ@ 10091de4     StreamManager.obj
 0002:0000ae20       ??_C@_1BAC@CEFFMDNN@?$AAs?$AAt?$AAd?$AA?3?$AA?3?$AA_?$AAV?$AAe?$AAc?$AAt?$AAo?$AAr?$AA_?$AAc?$AAo@ 10091e20     StreamManager.obj
 0002:0000af58       ??_C@_1GI@EDCILPL@?$AA?$CC?$AAc?$AAa?$AAn?$AA?8?$AAt?$AA?5?$AAi?$AAn?$AAc?$AAr?$AAe?$AAm?$AAe?$AAn@ 10091f58     StreamManager.obj
 0002:0000afd4       ??_C@_0CJ@OAAAAGPM@can?8t?5increment?5vector?5iterator@ 10091fd4     StreamManager.obj
 0002:0000b008       ??_C@_1FG@LDPPKMGP@?$AA?$CC?$AAc?$AAa?$AAn?$AA?8?$AAt?$AA?5?$AAi?$AAn?$AAc?$AAr?$AAe?$AAm?$AAe?$AAn@ 10092008     StreamManager.obj
 0002:0000b070       ??_C@_0BD@OLBABOEK@vector?$DMT?$DO?5too?5long@ 10092070     StreamManager.obj
 0002:0000b088       ??_C@_1IA@KGIJFEH@?$AAc?$AA?3?$AA?2?$AAw?$AAo?$AAr?$AAk?$AA?2?$AAc?$AAl?$AAi?$AAe?$AAn?$AAt?$AA_@ 10092088     xOgg.obj
 0002:0000b124       ??_C@_1BI@JMDJCGNN@?$AAp?$AAs?$AAz?$AAF?$AAi?$AAl?$AAe?$AAn?$AAa?$AAm?$AAe@ 10092124     xOgg.obj
 0002:0000b140       ??_C@_02JDPG@rb@           10092140     xOgg.obj
 0002:0000b144       ??_C@_04JJIBNLPC@OggS@     10092144     xOgg.obj
 0002:0000b14c       ??_C@_1BE@KJFCONAO@?$AAm?$AA_?$AAp?$AAF?$AAo?$AAr?$AAm?$AAa?$AAt@ 1009214c     xOgg.obj
 0002:0000b164       __real@c4fa0000            10092164     xOgg.obj
 0002:0000b16c       ??_7xSoundBuffer@SOUND@NMBASE@@6B@ 1009216c     xSound.obj
 0002:0000b174       ??_C@_0CD@OEIGBKIJ@open?5?$CFs?5type?5sequencer?5alias?5MU@ 10092174     xSound.obj
 0002:0000b1a0       ??_C@_09NKFOBFIP@close?5all@ 100921a0     xSound.obj
 0002:0000b1ac       ??_C@_0BJ@GLGFNDGM@play?5MUSIC?5from?50?5notify@ 100921ac     xSound.obj
 0002:0000b1cc       ??_C@_0L@NCLPOKLG@stop?5MUSIC@ 100921cc     xSound.obj
 0002:0000b1dc       ??_C@_0BC@IEABCFCG@play?5MUSIC?5notify@ 100921dc     xSound.obj
 0002:0000b1f8       __real@c09f400000000000    100921f8     xSound.obj
 0002:0000b204       _GUID_MAX_POWER_SAVINGS    10092204     dxguid:dxguid.obj
 0002:0000b218       _GUID_MIN_POWER_SAVINGS    10092218     dxguid:dxguid.obj
 0002:0000b22c       _GUID_TYPICAL_POWER_SAVINGS 1009222c     dxguid:dxguid.obj
 0002:0000b240       _NO_SUBGROUP_GUID          10092240     dxguid:dxguid.obj
 0002:0000b254       _ALL_POWERSCHEMES_GUID     10092254     dxguid:dxguid.obj
 0002:0000b268       _GUID_POWERSCHEME_PERSONALITY 10092268     dxguid:dxguid.obj
 0002:0000b27c       _GUID_ACTIVE_POWERSCHEME   1009227c     dxguid:dxguid.obj
 0002:0000b290       _GUID_VIDEO_SUBGROUP       10092290     dxguid:dxguid.obj
 0002:0000b2a4       _GUID_VIDEO_POWERDOWN_TIMEOUT 100922a4     dxguid:dxguid.obj
 0002:0000b2b8       _GUID_VIDEO_ADAPTIVE_POWERDOWN 100922b8     dxguid:dxguid.obj
 0002:0000b2cc       _GUID_MONITOR_POWER_ON     100922cc     dxguid:dxguid.obj
 0002:0000b2e0       _GUID_DISK_SUBGROUP        100922e0     dxguid:dxguid.obj
 0002:0000b2f4       _GUID_DISK_POWERDOWN_TIMEOUT 100922f4     dxguid:dxguid.obj
 0002:0000b308       _GUID_DISK_ADAPTIVE_POWERDOWN 10092308     dxguid:dxguid.obj
 0002:0000b31c       _GUID_SLEEP_SUBGROUP       1009231c     dxguid:dxguid.obj
 0002:0000b330       _GUID_SLEEP_IDLE_THRESHOLD 10092330     dxguid:dxguid.obj
 0002:0000b344       _GUID_STANDBY_TIMEOUT      10092344     dxguid:dxguid.obj
 0002:0000b358       _GUID_HIBERNATE_TIMEOUT    10092358     dxguid:dxguid.obj
 0002:0000b36c       _GUID_HIBERNATE_FASTS4_POLICY 1009236c     dxguid:dxguid.obj
 0002:0000b380       _GUID_CRITICAL_POWER_TRANSITION 10092380     dxguid:dxguid.obj
 0002:0000b394       _GUID_SYSTEM_AWAYMODE      10092394     dxguid:dxguid.obj
 0002:0000b3a8       _GUID_ALLOW_AWAYMODE       100923a8     dxguid:dxguid.obj
 0002:0000b3bc       _GUID_ALLOW_STANDBY_STATES 100923bc     dxguid:dxguid.obj
 0002:0000b3d0       _GUID_ALLOW_RTC_WAKE       100923d0     dxguid:dxguid.obj
 0002:0000b3e4       _GUID_SYSTEM_BUTTON_SUBGROUP 100923e4     dxguid:dxguid.obj
 0002:0000b3f8       _GUID_POWERBUTTON_ACTION   100923f8     dxguid:dxguid.obj
 0002:0000b40c       _GUID_POWERBUTTON_ACTION_FLAGS 1009240c     dxguid:dxguid.obj
 0002:0000b420       _GUID_SLEEPBUTTON_ACTION   10092420     dxguid:dxguid.obj
 0002:0000b434       _GUID_SLEEPBUTTON_ACTION_FLAGS 10092434     dxguid:dxguid.obj
 0002:0000b448       _GUID_USERINTERFACEBUTTON_ACTION 10092448     dxguid:dxguid.obj
 0002:0000b45c       _GUID_LIDCLOSE_ACTION      1009245c     dxguid:dxguid.obj
 0002:0000b470       _GUID_LIDCLOSE_ACTION_FLAGS 10092470     dxguid:dxguid.obj
 0002:0000b484       _GUID_LIDOPEN_POWERSTATE   10092484     dxguid:dxguid.obj
 0002:0000b498       _GUID_BATTERY_SUBGROUP     10092498     dxguid:dxguid.obj
 0002:0000b4ac       _GUID_BATTERY_DISCHARGE_ACTION_0 100924ac     dxguid:dxguid.obj
 0002:0000b4c0       _GUID_BATTERY_DISCHARGE_LEVEL_0 100924c0     dxguid:dxguid.obj
 0002:0000b4d4       _GUID_BATTERY_DISCHARGE_FLAGS_0 100924d4     dxguid:dxguid.obj
 0002:0000b4e8       _GUID_BATTERY_DISCHARGE_ACTION_1 100924e8     dxguid:dxguid.obj
 0002:0000b4fc       _GUID_BATTERY_DISCHARGE_LEVEL_1 100924fc     dxguid:dxguid.obj
 0002:0000b510       _GUID_BATTERY_DISCHARGE_FLAGS_1 10092510     dxguid:dxguid.obj
 0002:0000b524       _GUID_BATTERY_DISCHARGE_ACTION_2 10092524     dxguid:dxguid.obj
 0002:0000b538       _GUID_BATTERY_DISCHARGE_LEVEL_2 10092538     dxguid:dxguid.obj
 0002:0000b54c       _GUID_BATTERY_DISCHARGE_FLAGS_2 1009254c     dxguid:dxguid.obj
 0002:0000b560       _GUID_BATTERY_DISCHARGE_ACTION_3 10092560     dxguid:dxguid.obj
 0002:0000b574       _GUID_BATTERY_DISCHARGE_LEVEL_3 10092574     dxguid:dxguid.obj
 0002:0000b588       _GUID_BATTERY_DISCHARGE_FLAGS_3 10092588     dxguid:dxguid.obj
 0002:0000b59c       _GUID_PROCESSOR_SETTINGS_SUBGROUP 1009259c     dxguid:dxguid.obj
 0002:0000b5b0       _GUID_PROCESSOR_THROTTLE_POLICY 100925b0     dxguid:dxguid.obj
 0002:0000b5c4       _GUID_PROCESSOR_THROTTLE_MAXIMUM 100925c4     dxguid:dxguid.obj
 0002:0000b5d8       _GUID_PROCESSOR_THROTTLE_MINIMUM 100925d8     dxguid:dxguid.obj
 0002:0000b5ec       _GUID_PROCESSOR_IDLESTATE_POLICY 100925ec     dxguid:dxguid.obj
 0002:0000b600       _GUID_PROCESSOR_PERFSTATE_POLICY 10092600     dxguid:dxguid.obj
 0002:0000b614       _GUID_SYSTEM_COOLING_POLICY 10092614     dxguid:dxguid.obj
 0002:0000b628       _GUID_LOCK_CONSOLE_ON_WAKE 10092628     dxguid:dxguid.obj
 0002:0000b63c       _GUID_ACDC_POWER_SOURCE    1009263c     dxguid:dxguid.obj
 0002:0000b650       _GUID_LIDSWITCH_STATE_CHANGE 10092650     dxguid:dxguid.obj
 0002:0000b664       _GUID_BATTERY_PERCENTAGE_REMAINING 10092664     dxguid:dxguid.obj
 0002:0000b678       _GUID_IDLE_BACKGROUND_TASK 10092678     dxguid:dxguid.obj
 0002:0000b68c       _GUID_BACKGROUND_TASK_NOTIFICATION 1009268c     dxguid:dxguid.obj
 0002:0000b6a0       _GUID_APPLAUNCH_BUTTON     100926a0     dxguid:dxguid.obj
 0002:0000b6b4       _GUID_PCIEXPRESS_SETTINGS_SUBGROUP 100926b4     dxguid:dxguid.obj
 0002:0000b6c8       _GUID_PCIEXPRESS_ASPM_POLICY 100926c8     dxguid:dxguid.obj
 0002:0000b6dc       _PPM_PERFSTATE_CHANGE_GUID 100926dc     dxguid:dxguid.obj
 0002:0000b6f0       _PPM_PERFSTATE_DOMAIN_CHANGE_GUID 100926f0     dxguid:dxguid.obj
 0002:0000b704       _PPM_IDLESTATE_CHANGE_GUID 10092704     dxguid:dxguid.obj
 0002:0000b718       _PPM_PERFSTATES_DATA_GUID  10092718     dxguid:dxguid.obj
 0002:0000b72c       _PPM_IDLESTATES_DATA_GUID  1009272c     dxguid:dxguid.obj
 0002:0000b740       _PPM_IDLE_ACCOUNTING_GUID  10092740     dxguid:dxguid.obj
 0002:0000b754       _PPM_THERMALCONSTRAINT_GUID 10092754     dxguid:dxguid.obj
 0002:0000b768       _PPM_PERFMON_PERFSTATE_GUID 10092768     dxguid:dxguid.obj
 0002:0000b77c       _PPM_THERMAL_POLICY_CHANGE_GUID 1009277c     dxguid:dxguid.obj
 0002:0000b790       _CLSID_DirectDraw          10092790     dxguid:dxguid.obj
 0002:0000b7a4       _CLSID_DirectDraw7         100927a4     dxguid:dxguid.obj
 0002:0000b7b8       _CLSID_DirectDrawClipper   100927b8     dxguid:dxguid.obj
 0002:0000b7cc       _IID_IDirectDraw           100927cc     dxguid:dxguid.obj
 0002:0000b7e0       _IID_IDirectDraw2          100927e0     dxguid:dxguid.obj
 0002:0000b7f4       _IID_IDirectDraw4          100927f4     dxguid:dxguid.obj
 0002:0000b808       _IID_IDirectDraw7          10092808     dxguid:dxguid.obj
 0002:0000b81c       _IID_IDirectDrawSurface    1009281c     dxguid:dxguid.obj
 0002:0000b830       _IID_IDirectDrawSurface2   10092830     dxguid:dxguid.obj
 0002:0000b844       _IID_IDirectDrawSurface3   10092844     dxguid:dxguid.obj
 0002:0000b858       _IID_IDirectDrawSurface4   10092858     dxguid:dxguid.obj
 0002:0000b86c       _IID_IDirectDrawSurface7   1009286c     dxguid:dxguid.obj
 0002:0000b880       _IID_IDirectDrawSurfaceNew 10092880     dxguid:dxguid.obj
 0002:0000b894       _CLSID_DirectDrawFactory2  10092894     dxguid:dxguid.obj
 0002:0000b8a8       _IID_IDirectDrawFactory2   100928a8     dxguid:dxguid.obj
 0002:0000b8bc       _GUID_DirectDrawSurfaceStream 100928bc     dxguid:dxguid.obj
 0002:0000b8d0       _GUID_DirectDrawPaletteStream 100928d0     dxguid:dxguid.obj
 0002:0000b8e4       _IID_IDirectDrawOptSurface 100928e4     dxguid:dxguid.obj
 0002:0000b8f8       _IID_IDirectDrawPalette2   100928f8     dxguid:dxguid.obj
 0002:0000b90c       _IID_IDirectDrawPalette    1009290c     dxguid:dxguid.obj
 0002:0000b920       _IID_IDirectDrawClipper    10092920     dxguid:dxguid.obj
 0002:0000b934       _IID_IDirectDrawColorControl 10092934     dxguid:dxguid.obj
 0002:0000b948       _IID_IDirectDrawGammaControl 10092948     dxguid:dxguid.obj
 0002:0000b95c       _GUID_MiscellaneousCallbacks 1009295c     dxguid:dxguid.obj
 0002:0000b970       _GUID_VideoPortCallbacks   10092970     dxguid:dxguid.obj
 0002:0000b984       _GUID_ColorControlCallbacks 10092984     dxguid:dxguid.obj
 0002:0000b998       _GUID_VideoPortCaps        10092998     dxguid:dxguid.obj
 0002:0000b9ac       _GUID_D3DCallbacks2        100929ac     dxguid:dxguid.obj
 0002:0000b9c0       _GUID_D3DCallbacks3        100929c0     dxguid:dxguid.obj
 0002:0000b9d4       _GUID_NonLocalVidMemCaps   100929d4     dxguid:dxguid.obj
 0002:0000b9e8       _GUID_KernelCallbacks      100929e8     dxguid:dxguid.obj
 0002:0000b9fc       _GUID_KernelCaps           100929fc     dxguid:dxguid.obj
 0002:0000ba10       _GUID_D3DExtendedCaps      10092a10     dxguid:dxguid.obj
 0002:0000ba24       _GUID_ZPixelFormats        10092a24     dxguid:dxguid.obj
 0002:0000ba38       _GUID_DDMoreSurfaceCaps    10092a38     dxguid:dxguid.obj
 0002:0000ba4c       _GUID_DDStereoMode         10092a4c     dxguid:dxguid.obj
 0002:0000ba60       _GUID_OptSurfaceKmodeInfo  10092a60     dxguid:dxguid.obj
 0002:0000ba74       _GUID_OptSurfaceUmodeInfo  10092a74     dxguid:dxguid.obj
 0002:0000ba88       _GUID_UserModeDriverInfo   10092a88     dxguid:dxguid.obj
 0002:0000ba9c       _GUID_UserModeDriverPassword 10092a9c     dxguid:dxguid.obj
 0002:0000bab0       _GUID_D3DParseUnknownCommandCallback 10092ab0     dxguid:dxguid.obj
 0002:0000bac4       _GUID_MotionCompCallbacks  10092ac4     dxguid:dxguid.obj
 0002:0000bad8       _GUID_NTCallbacks          10092ad8     dxguid:dxguid.obj
 0002:0000baec       _GUID_Miscellaneous2Callbacks 10092aec     dxguid:dxguid.obj
 0002:0000bb00       _GUID_DDMoreCaps           10092b00     dxguid:dxguid.obj
 0002:0000bb14       _IID_IDDVideoPortContainer 10092b14     dxguid:dxguid.obj
 0002:0000bb28       _IID_IDirectDrawVideoPort  10092b28     dxguid:dxguid.obj
 0002:0000bb3c       _IID_IDirectDrawVideoPortNotify 10092b3c     dxguid:dxguid.obj
 0002:0000bb50       _DDVPTYPE_E_HREFH_VREFH    10092b50     dxguid:dxguid.obj
 0002:0000bb64       _DDVPTYPE_E_HREFH_VREFL    10092b64     dxguid:dxguid.obj
 0002:0000bb78       _DDVPTYPE_E_HREFL_VREFH    10092b78     dxguid:dxguid.obj
 0002:0000bb8c       _DDVPTYPE_E_HREFL_VREFL    10092b8c     dxguid:dxguid.obj
 0002:0000bba0       _DDVPTYPE_CCIR656          10092ba0     dxguid:dxguid.obj
 0002:0000bbb4       _DDVPTYPE_BROOKTREE        10092bb4     dxguid:dxguid.obj
 0002:0000bbc8       _DDVPTYPE_PHILIPS          10092bc8     dxguid:dxguid.obj
 0002:0000bbdc       _TID_D3DRMInfo             10092bdc     dxguid:dxguid.obj
 0002:0000bbf0       _TID_D3DRMMesh             10092bf0     dxguid:dxguid.obj
 0002:0000bc04       _TID_D3DRMVector           10092c04     dxguid:dxguid.obj
 0002:0000bc18       _TID_D3DRMMeshFace         10092c18     dxguid:dxguid.obj
 0002:0000bc2c       _TID_D3DRMMaterial         10092c2c     dxguid:dxguid.obj
 0002:0000bc40       _TID_D3DRMMaterialArray    10092c40     dxguid:dxguid.obj
 0002:0000bc54       _TID_D3DRMFrame            10092c54     dxguid:dxguid.obj
 0002:0000bc68       _TID_D3DRMFrameTransformMatrix 10092c68     dxguid:dxguid.obj
 0002:0000bc7c       _TID_D3DRMMeshMaterialList 10092c7c     dxguid:dxguid.obj
 0002:0000bc90       _TID_D3DRMMeshTextureCoords 10092c90     dxguid:dxguid.obj
 0002:0000bca4       _TID_D3DRMMeshNormals      10092ca4     dxguid:dxguid.obj
 0002:0000bcb8       _TID_D3DRMCoords2d         10092cb8     dxguid:dxguid.obj
 0002:0000bccc       _TID_D3DRMMatrix4x4        10092ccc     dxguid:dxguid.obj
 0002:0000bce0       _TID_D3DRMAnimation        10092ce0     dxguid:dxguid.obj
 0002:0000bcf4       _TID_D3DRMAnimationSet     10092cf4     dxguid:dxguid.obj
 0002:0000bd08       _TID_D3DRMAnimationKey     10092d08     dxguid:dxguid.obj
 0002:0000bd1c       _TID_D3DRMFloatKeys        10092d1c     dxguid:dxguid.obj
 0002:0000bd30       _TID_D3DRMMaterialAmbientColor 10092d30     dxguid:dxguid.obj
 0002:0000bd44       _TID_D3DRMMaterialDiffuseColor 10092d44     dxguid:dxguid.obj
 0002:0000bd58       _TID_D3DRMMaterialSpecularColor 10092d58     dxguid:dxguid.obj
 0002:0000bd6c       _TID_D3DRMMaterialEmissiveColor 10092d6c     dxguid:dxguid.obj
 0002:0000bd80       _TID_D3DRMMaterialPower    10092d80     dxguid:dxguid.obj
 0002:0000bd94       _TID_D3DRMColorRGBA        10092d94     dxguid:dxguid.obj
 0002:0000bda8       _TID_D3DRMColorRGB         10092da8     dxguid:dxguid.obj
 0002:0000bdbc       _TID_D3DRMGuid             10092dbc     dxguid:dxguid.obj
 0002:0000bdd0       _TID_D3DRMTextureFilename  10092dd0     dxguid:dxguid.obj
 0002:0000bde4       _TID_D3DRMTextureReference 10092de4     dxguid:dxguid.obj
 0002:0000bdf8       _TID_D3DRMIndexedColor     10092df8     dxguid:dxguid.obj
 0002:0000be0c       _TID_D3DRMMeshVertexColors 10092e0c     dxguid:dxguid.obj
 0002:0000be20       _TID_D3DRMMaterialWrap     10092e20     dxguid:dxguid.obj
 0002:0000be34       _TID_D3DRMBoolean          10092e34     dxguid:dxguid.obj
 0002:0000be48       _TID_D3DRMMeshFaceWraps    10092e48     dxguid:dxguid.obj
 0002:0000be5c       _TID_D3DRMBoolean2d        10092e5c     dxguid:dxguid.obj
 0002:0000be70       _TID_D3DRMTimedFloatKeys   10092e70     dxguid:dxguid.obj
 0002:0000be84       _TID_D3DRMAnimationOptions 10092e84     dxguid:dxguid.obj
 0002:0000be98       _TID_D3DRMFramePosition    10092e98     dxguid:dxguid.obj
 0002:0000beac       _TID_D3DRMFrameVelocity    10092eac     dxguid:dxguid.obj
 0002:0000bec0       _TID_D3DRMFrameRotation    10092ec0     dxguid:dxguid.obj
 0002:0000bed4       _TID_D3DRMLight            10092ed4     dxguid:dxguid.obj
 0002:0000bee8       _TID_D3DRMCamera           10092ee8     dxguid:dxguid.obj
 0002:0000befc       _TID_D3DRMAppData          10092efc     dxguid:dxguid.obj
 0002:0000bf10       _TID_D3DRMLightUmbra       10092f10     dxguid:dxguid.obj
 0002:0000bf24       _TID_D3DRMLightRange       10092f24     dxguid:dxguid.obj
 0002:0000bf38       _TID_D3DRMLightPenumbra    10092f38     dxguid:dxguid.obj
 0002:0000bf4c       _TID_D3DRMLightAttenuation 10092f4c     dxguid:dxguid.obj
 0002:0000bf60       _TID_D3DRMInlineData       10092f60     dxguid:dxguid.obj
 0002:0000bf74       _TID_D3DRMUrl              10092f74     dxguid:dxguid.obj
 0002:0000bf88       _TID_D3DRMProgressiveMesh  10092f88     dxguid:dxguid.obj
 0002:0000bf9c       _TID_D3DRMExternalVisual   10092f9c     dxguid:dxguid.obj
 0002:0000bfb0       _TID_D3DRMStringProperty   10092fb0     dxguid:dxguid.obj
 0002:0000bfc4       _TID_D3DRMPropertyBag      10092fc4     dxguid:dxguid.obj
 0002:0000bfd8       _TID_D3DRMRightHanded      10092fd8     dxguid:dxguid.obj
 0002:0000bfec       _CLSID_CDirectXFile        10092fec     dxguid:dxguid.obj
 0002:0000c000       _IID_IDirectXFile          10093000     dxguid:dxguid.obj
 0002:0000c014       _IID_IDirectXFileEnumObject 10093014     dxguid:dxguid.obj
 0002:0000c028       _IID_IDirectXFileSaveObject 10093028     dxguid:dxguid.obj
 0002:0000c03c       _IID_IDirectXFileObject    1009303c     dxguid:dxguid.obj
 0002:0000c050       _IID_IDirectXFileData      10093050     dxguid:dxguid.obj
 0002:0000c064       _IID_IDirectXFileDataReference 10093064     dxguid:dxguid.obj
 0002:0000c078       _IID_IDirectXFileBinary    10093078     dxguid:dxguid.obj
 0002:0000c08c       _TID_DXFILEHeader          1009308c     dxguid:dxguid.obj
 0002:0000c0a0       _CLSID_DirectInput         100930a0     dxguid:dxguid.obj
 0002:0000c0b4       _CLSID_DirectInputDevice   100930b4     dxguid:dxguid.obj
 0002:0000c0c8       _CLSID_DirectInput8        100930c8     dxguid:dxguid.obj
 0002:0000c0dc       _CLSID_DirectInputDevice8  100930dc     dxguid:dxguid.obj
 0002:0000c0f0       _IID_IDirectInputA         100930f0     dxguid:dxguid.obj
 0002:0000c104       _IID_IDirectInputW         10093104     dxguid:dxguid.obj
 0002:0000c118       _IID_IDirectInput2A        10093118     dxguid:dxguid.obj
 0002:0000c12c       _IID_IDirectInput2W        1009312c     dxguid:dxguid.obj
 0002:0000c140       _IID_IDirectInput7A        10093140     dxguid:dxguid.obj
 0002:0000c154       _IID_IDirectInput7W        10093154     dxguid:dxguid.obj
 0002:0000c168       _IID_IDirectInput8A        10093168     dxguid:dxguid.obj
 0002:0000c17c       _IID_IDirectInput8W        1009317c     dxguid:dxguid.obj
 0002:0000c190       _IID_IDirectInputDeviceA   10093190     dxguid:dxguid.obj
 0002:0000c1a4       _IID_IDirectInputDeviceW   100931a4     dxguid:dxguid.obj
 0002:0000c1b8       _IID_IDirectInputDevice2A  100931b8     dxguid:dxguid.obj
 0002:0000c1cc       _IID_IDirectInputDevice2W  100931cc     dxguid:dxguid.obj
 0002:0000c1e0       _IID_IDirectInputDevice7A  100931e0     dxguid:dxguid.obj
 0002:0000c1f4       _IID_IDirectInputDevice7W  100931f4     dxguid:dxguid.obj
 0002:0000c208       _IID_IDirectInputDevice8A  10093208     dxguid:dxguid.obj
 0002:0000c21c       _IID_IDirectInputDevice8W  1009321c     dxguid:dxguid.obj
 0002:0000c230       _IID_IDirectInputEffect    10093230     dxguid:dxguid.obj
 0002:0000c244       _GUID_XAxis                10093244     dxguid:dxguid.obj
 0002:0000c258       _GUID_YAxis                10093258     dxguid:dxguid.obj
 0002:0000c26c       _GUID_ZAxis                1009326c     dxguid:dxguid.obj
 0002:0000c280       _GUID_RxAxis               10093280     dxguid:dxguid.obj
 0002:0000c294       _GUID_RyAxis               10093294     dxguid:dxguid.obj
 0002:0000c2a8       _GUID_RzAxis               100932a8     dxguid:dxguid.obj
 0002:0000c2bc       _GUID_Slider               100932bc     dxguid:dxguid.obj
 0002:0000c2d0       _GUID_Button               100932d0     dxguid:dxguid.obj
 0002:0000c2e4       _GUID_Key                  100932e4     dxguid:dxguid.obj
 0002:0000c2f8       _GUID_POV                  100932f8     dxguid:dxguid.obj
 0002:0000c30c       _GUID_Unknown              1009330c     dxguid:dxguid.obj
 0002:0000c320       _GUID_SysMouse             10093320     dxguid:dxguid.obj
 0002:0000c334       _GUID_SysKeyboard          10093334     dxguid:dxguid.obj
 0002:0000c348       _GUID_Joystick             10093348     dxguid:dxguid.obj
 0002:0000c35c       _GUID_SysMouseEm           1009335c     dxguid:dxguid.obj
 0002:0000c370       _GUID_SysMouseEm2          10093370     dxguid:dxguid.obj
 0002:0000c384       _GUID_SysKeyboardEm        10093384     dxguid:dxguid.obj
 0002:0000c398       _GUID_SysKeyboardEm2       10093398     dxguid:dxguid.obj
 0002:0000c3ac       _GUID_ConstantForce        100933ac     dxguid:dxguid.obj
 0002:0000c3c0       _GUID_RampForce            100933c0     dxguid:dxguid.obj
 0002:0000c3d4       _GUID_Square               100933d4     dxguid:dxguid.obj
 0002:0000c3e8       _GUID_Sine                 100933e8     dxguid:dxguid.obj
 0002:0000c3fc       _GUID_Triangle             100933fc     dxguid:dxguid.obj
 0002:0000c410       _GUID_SawtoothUp           10093410     dxguid:dxguid.obj
 0002:0000c424       _GUID_SawtoothDown         10093424     dxguid:dxguid.obj
 0002:0000c438       _GUID_Spring               10093438     dxguid:dxguid.obj
 0002:0000c44c       _GUID_Damper               1009344c     dxguid:dxguid.obj
 0002:0000c460       _GUID_Inertia              10093460     dxguid:dxguid.obj
 0002:0000c474       _GUID_Friction             10093474     dxguid:dxguid.obj
 0002:0000c488       _GUID_CustomForce          10093488     dxguid:dxguid.obj
 0002:0000c49c       _IID_IDirectInputEffectDriver 1009349c     dxguid:dxguid.obj
 0002:0000c4b0       _IID_IDirectInputJoyConfig 100934b0     dxguid:dxguid.obj
 0002:0000c4c4       _IID_IDirectInputPIDDriver 100934c4     dxguid:dxguid.obj
 0002:0000c4d8       _IID_IDirectInputJoyConfig8 100934d8     dxguid:dxguid.obj
 0002:0000c4ec       _GUID_KeyboardClass        100934ec     dxguid:dxguid.obj
 0002:0000c500       _GUID_MediaClass           10093500     dxguid:dxguid.obj
 0002:0000c514       _GUID_MouseClass           10093514     dxguid:dxguid.obj
 0002:0000c528       _GUID_HIDClass             10093528     dxguid:dxguid.obj
 0002:0000c53c       _CLSID_DirectSound         1009353c     dxguid:dxguid.obj
 0002:0000c550       _CLSID_DirectSound8        10093550     dxguid:dxguid.obj
 0002:0000c564       _CLSID_DirectSoundCapture  10093564     dxguid:dxguid.obj
 0002:0000c578       _CLSID_DirectSoundCapture8 10093578     dxguid:dxguid.obj
 0002:0000c58c       _CLSID_DirectSoundFullDuplex 1009358c     dxguid:dxguid.obj
 0002:0000c5a0       _DSDEVID_DefaultPlayback   100935a0     dxguid:dxguid.obj
 0002:0000c5b4       _DSDEVID_DefaultCapture    100935b4     dxguid:dxguid.obj
 0002:0000c5c8       _DSDEVID_DefaultVoicePlayback 100935c8     dxguid:dxguid.obj
 0002:0000c5dc       _DSDEVID_DefaultVoiceCapture 100935dc     dxguid:dxguid.obj
 0002:0000c5f0       _IID_IReferenceClock       100935f0     dxguid:dxguid.obj
 0002:0000c604       _IID_IDirectSound          10093604     dxguid:dxguid.obj
 0002:0000c618       _IID_IDirectSound8         10093618     dxguid:dxguid.obj
 0002:0000c62c       _IID_IDirectSoundBuffer    1009362c     dxguid:dxguid.obj
 0002:0000c640       _IID_IDirectSoundBuffer8   10093640     dxguid:dxguid.obj
 0002:0000c654       _GUID_All_Objects          10093654     dxguid:dxguid.obj
 0002:0000c668       _IID_IDirectSound3DListener 10093668     dxguid:dxguid.obj
 0002:0000c67c       _IID_IDirectSound3DBuffer  1009367c     dxguid:dxguid.obj
 0002:0000c690       _IID_IDirectSoundCapture   10093690     dxguid:dxguid.obj
 0002:0000c6a4       _IID_IDirectSoundCaptureBuffer 100936a4     dxguid:dxguid.obj
 0002:0000c6b8       _IID_IDirectSoundCaptureBuffer8 100936b8     dxguid:dxguid.obj
 0002:0000c6cc       _IID_IDirectSoundNotify    100936cc     dxguid:dxguid.obj
 0002:0000c6e0       _IID_IKsPropertySet        100936e0     dxguid:dxguid.obj
 0002:0000c6f4       _IID_IDirectSoundFXGargle  100936f4     dxguid:dxguid.obj
 0002:0000c708       _IID_IDirectSoundFXChorus  10093708     dxguid:dxguid.obj
 0002:0000c71c       _IID_IDirectSoundFXFlanger 1009371c     dxguid:dxguid.obj
 0002:0000c730       _IID_IDirectSoundFXEcho    10093730     dxguid:dxguid.obj
 0002:0000c744       _IID_IDirectSoundFXDistortion 10093744     dxguid:dxguid.obj
 0002:0000c758       _IID_IDirectSoundFXCompressor 10093758     dxguid:dxguid.obj
 0002:0000c76c       _IID_IDirectSoundFXParamEq 1009376c     dxguid:dxguid.obj
 0002:0000c780       _IID_IDirectSoundFXI3DL2Reverb 10093780     dxguid:dxguid.obj
 0002:0000c794       _IID_IDirectSoundFXWavesReverb 10093794     dxguid:dxguid.obj
 0002:0000c7a8       _IID_IDirectSoundCaptureFXAec 100937a8     dxguid:dxguid.obj
 0002:0000c7bc       _IID_IDirectSoundCaptureFXNoiseSuppress 100937bc     dxguid:dxguid.obj
 0002:0000c7d0       _IID_IDirectSoundFullDuplex 100937d0     dxguid:dxguid.obj
 0002:0000c7e4       _DS3DALG_NO_VIRTUALIZATION 100937e4     dxguid:dxguid.obj
 0002:0000c7f8       _DS3DALG_HRTF_FULL         100937f8     dxguid:dxguid.obj
 0002:0000c80c       _DS3DALG_HRTF_LIGHT        1009380c     dxguid:dxguid.obj
 0002:0000c820       _GUID_DSFX_STANDARD_GARGLE 10093820     dxguid:dxguid.obj
 0002:0000c834       _GUID_DSFX_STANDARD_CHORUS 10093834     dxguid:dxguid.obj
 0002:0000c848       _GUID_DSFX_STANDARD_FLANGER 10093848     dxguid:dxguid.obj
 0002:0000c85c       _GUID_DSFX_STANDARD_ECHO   1009385c     dxguid:dxguid.obj
 0002:0000c870       _GUID_DSFX_STANDARD_DISTORTION 10093870     dxguid:dxguid.obj
 0002:0000c884       _GUID_DSFX_STANDARD_COMPRESSOR 10093884     dxguid:dxguid.obj
 0002:0000c898       _GUID_DSFX_STANDARD_PARAMEQ 10093898     dxguid:dxguid.obj
 0002:0000c8ac       _GUID_DSFX_STANDARD_I3DL2REVERB 100938ac     dxguid:dxguid.obj
 0002:0000c8c0       _GUID_DSFX_WAVES_REVERB    100938c0     dxguid:dxguid.obj
 0002:0000c8d4       _GUID_DSCFX_CLASS_AEC      100938d4     dxguid:dxguid.obj
 0002:0000c8e8       _GUID_DSCFX_MS_AEC         100938e8     dxguid:dxguid.obj
 0002:0000c8fc       _GUID_DSCFX_SYSTEM_AEC     100938fc     dxguid:dxguid.obj
 0002:0000c910       _GUID_DSCFX_CLASS_NS       10093910     dxguid:dxguid.obj
 0002:0000c924       _GUID_DSCFX_MS_NS          10093924     dxguid:dxguid.obj
 0002:0000c938       _GUID_DSCFX_SYSTEM_NS      10093938     dxguid:dxguid.obj
 0002:0000c94c       _CLSID_DxDiagProvider      1009394c     dxguid:dxguid.obj
 0002:0000c960       _IID_IDxDiagProvider       10093960     dxguid:dxguid.obj
 0002:0000c974       _IID_IDxDiagContainer      10093974     dxguid:dxguid.obj
 0002:0000c988       ??_C@_02JDPG@rb?$AA@       10093988     vorbisfile_static_d:vorbisfile.obj
 0002:0000c990       __real@3fe0000000000000    10093990     vorbisfile_static_d:vorbisfile.obj
 0002:0000c9a0       __real@0000000000000000    100939a0     vorbisfile_static_d:vorbisfile.obj
 0002:0000c9b0       __real@c060600000000000    100939b0     vorbisfile_static_d:vorbisfile.obj
 0002:0000c9c0       __real@40e0000000000000    100939c0     vorbisfile_static_d:vorbisfile.obj
 0002:0000c9d0       __real@4060000000000000    100939d0     vorbisfile_static_d:vorbisfile.obj
 0002:0000c9e0       __real@3ff0000000000000    100939e0     vorbisfile_static_d:vorbisfile.obj
 0002:0000c9ec       ??_C@_0O@JKAFBCMB@CreateActCtxW@ 100939ec     mfcs140d:nolib.obj
 0002:0000c9fc       ??_C@_0P@CECBPMJL@ActivateActCtx@ 100939fc     mfcs140d:nolib.obj
 0002:0000ca10       ??_C@_0BB@NPIOCCPF@DeactivateActCtx@ 10093a10     mfcs140d:nolib.obj
 0002:0000ca24       ??_C@_0BJ@MGNMALIC@FindActCtxSectionStringW@ 10093a24     mfcs140d:nolib.obj
 0002:0000ca44       ??_C@_0N@IMINIHMJ@QueryActCtxW@ 10093a44     mfcs140d:nolib.obj
 0002:0000ca54       ??_C@_0BD@GIGEJCNH@GetModuleHandleExW@ 10093a54     mfcs140d:nolib.obj
 0002:0000ca6c       ??_C@_1BK@BFMCNHEO@?$AAC?$AAo?$AAm?$AAc?$AAt?$AAl?$AA3?$AA2?$AA?4?$AAd?$AAl?$AAl@ 10093a6c     mfcs140d:nolib.obj
 0002:0000ca8c       ?debugString@?4??IsolationAwarePrivatenPgViNgRzlnPgpgk@@9@4@4QBDB 10093a8c     mfcs140d:nolib.obj
 0002:0000cad4       ?c@?1??WinbaseIsolationAwarePrivatetRgCebPnQQeRff_xReaRYQP_QYY@@9@4@4UIsolationAwarePrivate_pBAFGnAG_zBqHyr_vAsB@@B 10093ad4     mfcs140d:nolib.obj
 0002:0000cae8       ??_C@_1BK@EJBALEBG@?$AAK?$AAe?$AAr?$AAn?$AAe?$AAl?$AA3?$AA2?$AA?4?$AAd?$AAl?$AAl@ 10093ae8     mfcs140d:nolib.obj
 0002:0000cb08       ??_C@_0N@HAOHNMDE@Kernel32?4dll@ 10093b08     mfcs140d:nolib.obj
 0002:0000cb18       ??_C@_1IM@JDALAIMN@?$AAd?$AA?3?$AA?2?$AAa?$AAg?$AAe?$AAn?$AAt?$AA?2?$AA_?$AAw?$AAo?$AAr?$AAk?$AA?2@ 10093b18     mfcs140d:nolib.obj
 0002:0000cbc0       ??_C@_1IM@OAKAGKEO@?$AAd?$AA?3?$AA?2?$AAa?$AAg?$AAe?$AAn?$AAt?$AA?2?$AA_?$AAw?$AAo?$AAr?$AAk?$AA?2@ 10093bc0     mfcs140d:nolib.obj
 0002:0000cc68       ??_C@_1II@MFCNAHJH@?$AAd?$AA?3?$AA?2?$AAa?$AAg?$AAe?$AAn?$AAt?$AA?2?$AA_?$AAw?$AAo?$AAr?$AAk?$AA?2@ 10093c68     mfcs140d:nolib.obj
 0002:0000cd10       ??_C@_1JA@NMBLLECH@?$AAd?$AA?3?$AA?2?$AAa?$AAg?$AAe?$AAn?$AAt?$AA?2?$AA_?$AAw?$AAo?$AAr?$AAk?$AA?2@ 10093d10     mfcs140d:nolib.obj
 0002:0000cdc0       ??_C@_1IK@JPPFJKKH@?$AAd?$AA?3?$AA?2?$AAa?$AAg?$AAe?$AAn?$AAt?$AA?2?$AA_?$AAw?$AAo?$AAr?$AAk?$AA?2@ 10093dc0     mfcs140d:nolib.obj
 0002:0000ce68       ??_C@_0EF@IPDELHHG@d?3?2agent?2_work?23?2s?2src?2vctools?2@ 10093e68     mfcs140d:nolib.obj
 0002:0000cec0       ??_C@_1II@ENPDPACE@?$AAd?$AA?3?$AA?2?$AAa?$AAg?$AAe?$AAn?$AAt?$AA?2?$AA_?$AAw?$AAo?$AAr?$AAk?$AA?2@ 10093ec0     mfcs140d:nolib.obj
 0002:0000cf68       ??_C@_1JC@HILNCOCD@?$AAd?$AA?3?$AA?2?$AAa?$AAg?$AAe?$AAn?$AAt?$AA?2?$AA_?$AAw?$AAo?$AAr?$AAk?$AA?2@ 10093f68     mfcs140d:nolib.obj
 0002:0000d018       ??_C@_1EC@JIJBPKFM@?$AAa?$AAp?$AAi?$AA?9?$AAm?$AAs?$AA?9?$AAw?$AAi?$AAn?$AA?9?$AAc?$AAo?$AAr?$AAe@ 10094018     msvcrtd:thread_safe_statics.obj
 0002:0000d068       ??_C@_1BK@MGMFAEKH@?$AAk?$AAe?$AAr?$AAn?$AAe?$AAl?$AA3?$AA2?$AA?4?$AAd?$AAl?$AAl@ 10094068     msvcrtd:thread_safe_statics.obj
 0002:0000d088       ??_C@_0BM@HLJJNPAH@InitializeConditionVariable@ 10094088     msvcrtd:thread_safe_statics.obj
 0002:0000d0ac       ??_C@_0BJ@JEBJOJFJ@SleepConditionVariableCS@ 100940ac     msvcrtd:thread_safe_statics.obj
 0002:0000d0cc       ??_C@_0BJ@PGPPEPCC@WakeAllConditionVariable@ 100940cc     msvcrtd:thread_safe_statics.obj
 0002:0000d0f0       ??_C@_1JM@MEGLFHBK@?$AAd?$AA?3?$AA?2?$AAa?$AAg?$AAe?$AAn?$AAt?$AA?2?$AA_?$AAw?$AAo?$AAr?$AAk?$AA?2@ 100940f0     msvcrtd:thread_safe_statics.obj
 0002:0000d1b0       ??_7type_info@@6B@         100941b0     msvcrtd:std_type_info_static.obj
 0002:0000d318       ??_C@_0NN@NGPKDKPD@The?5value?5of?5ESP?5was?5not?5proper@ 10094318     msvcrtd:error.obj
 0002:0000d428       ??_C@_0BBN@GPMLNJCF@A?5cast?5to?5a?5smaller?5data?5type?5h@ 10094428     msvcrtd:error.obj
 0002:0000d580       ??_C@_0BN@FFOINMNJ@Stack?5memory?5was?5corrupted?6?$AN@ 10094580     msvcrtd:error.obj
 0002:0000d5a4       ??_C@_0DG@HKJMLLLP@A?5local?5variable?5was?5used?5befor@ 100945a4     msvcrtd:error.obj
 0002:0000d5e4       ??_C@_0CM@NGINOKPC@Stack?5memory?5around?5_alloca?5was@ 100945e4     msvcrtd:error.obj
 0002:0000d618       ??_C@_0BO@GNIAFIKK@Unknown?5Runtime?5Check?5Error?6?$AN@ 10094618     msvcrtd:error.obj
 0002:0000d640       ??_C@_1GM@OLMCBDMB@?$AAR?$AAu?$AAn?$AAt?$AAi?$AAm?$AAe?$AA?5?$AAC?$AAh?$AAe?$AAc?$AAk?$AA?5?$AAE@ 10094640     msvcrtd:error.obj
 0002:0000d6c8       ??_C@_1EA@NFKNIFJP@?$AAR?$AAu?$AAn?$AA?9?$AAT?$AAi?$AAm?$AAe?$AA?5?$AAC?$AAh?$AAe?$AAc?$AAk?$AA?5@ 100946c8     msvcrtd:error.obj
 0002:0000d714       ??_C@_0BB@PFFGGCJP@Unknown?5Filename@ 10094714     msvcrtd:error.obj
 0002:0000d728       ??_C@_0BE@GNBOBNCK@Unknown?5Module?5Name@ 10094728     msvcrtd:error.obj
 0002:0000d740       ??_C@_0CA@IODNCDPG@Run?9Time?5Check?5Failure?5?$CD?$CFd?5?9?5?$CFs@ 10094740     msvcrtd:error.obj
 0002:0000d768       ??_C@_0CG@IAFNJNEE@Stack?5corrupted?5near?5unknown?5va@ 10094768     msvcrtd:error.obj
 0002:0000d798       ??_C@_05MKKEDADM@?$CF?42X?5@ 10094798     msvcrtd:error.obj
 0002:0000d7a0       ??_C@_0EJ@LJKNEOLN@Stack?5area?5around?5_alloca?5memor@ 100947a0     msvcrtd:error.obj
 0002:0000d7f8       ??_C@_01EEMJAFIK@?6@       100947f8     msvcrtd:error.obj
 0002:0000d7fc       ??_C@_02LLMPMKNF@?$DO?5@   100947fc     msvcrtd:error.obj
 0002:0000d800       ??_C@_08OMAHNMHJ@?6Data?3?5?$DM@ 10094800     msvcrtd:error.obj
 0002:0000d80c       ??_C@_0CK@DKGBICFE@?6Allocation?5number?5within?5this?5@ 1009480c     msvcrtd:error.obj
 0002:0000d840       ??_C@_07DFDJCKFN@?6Size?3?5@ 10094840     msvcrtd:error.obj
 0002:0000d84c       ??_C@_0N@MHFFIMFG@?6Address?3?50x@ 1009484c     msvcrtd:error.obj
 0002:0000d860       ??_C@_0EI@CLEPFNGI@Stack?5area?5around?5_alloca?5memor@ 10094860     msvcrtd:error.obj
 0002:0000d8b8       ??_C@_0BK@ODNDAGKB@?$CFs?$CFs?$CFp?$CFs?$CFzd?$CFs?$CFd?$CFs?$CFs?$CFs?$CFs?$CFs@ 100948b8     msvcrtd:error.obj
 0002:0000d8d8       ??_C@_0DE@OHJBPMBP@A?5variable?5is?5being?5used?5withou@ 100948d8     msvcrtd:error.obj
 0002:0000d918       __pDefaultRawDllMain       10094918     msvcrtd:dll_dllmain.obj
 0002:0000d940       ??_C@_0BJ@HEGAHDFO@Stack?5pointer?5corruption@ 10094940     msvcrtd:userapi.obj
 0002:0000d960       ??_C@_0CK@FEGOIOPB@Cast?5to?5smaller?5type?5causing?5lo@ 10094960     msvcrtd:userapi.obj
 0002:0000d994       ??_C@_0BI@CIGMDCBH@Stack?5memory?5corruption@ 10094994     msvcrtd:userapi.obj
 0002:0000d9b0       ??_C@_0CK@CNLNOEPB@Local?5variable?5used?5before?5init@ 100949b0     msvcrtd:userapi.obj
 0002:0000d9e4       ??_C@_0BP@OGBCLIBO@Stack?5around?5_alloca?5corrupted@ 100949e4     msvcrtd:userapi.obj
 0002:0000da68       ??_C@_1EI@MLPKHBGE@?$AAa?$AAp?$AAi?$AA?9?$AAm?$AAs?$AA?9?$AAw?$AAi?$AAn?$AA?9?$AAc?$AAo?$AAr?$AAe@ 10094a68     msvcrtd:pdblkup.obj
 0002:0000dac0       ??_C@_1BK@JHLNAEJL@?$AAa?$AAd?$AAv?$AAa?$AAp?$AAi?$AA3?$AA2?$AA?4?$AAd?$AAl?$AAl@ 10094ac0     msvcrtd:pdblkup.obj
 0002:0000dae0       ??_C@_0O@COHOBMLB@RegOpenKeyExW@ 10094ae0     msvcrtd:pdblkup.obj
 0002:0000daf0       ??_C@_0BB@GLNAEDBD@RegQueryValueExW@ 10094af0     msvcrtd:pdblkup.obj
 0002:0000db04       ??_C@_0M@HLOHPNFA@RegCloseKey@ 10094b04     msvcrtd:pdblkup.obj
 0002:0000db18       ??_C@_1HE@EBEAGLFB@?$AAS?$AAO?$AAF?$AAT?$AAW?$AAA?$AAR?$AAE?$AA?2?$AAW?$AAo?$AAw?$AA6?$AA4?$AA3@ 10094b18     msvcrtd:pdblkup.obj
 0002:0000dba4       ??_C@_1BG@EABPBLLF@?$AAP?$AAr?$AAo?$AAd?$AAu?$AAc?$AAt?$AAD?$AAi?$AAr@ 10094ba4     msvcrtd:pdblkup.obj
 0002:0000dbe4       ??_C@_1BC@JINFINNJ@?$AAM?$AAS?$AAP?$AAD?$AAB?$AA1?$AA4?$AA0@ 10094be4     msvcrtd:pdblkup.obj
 0002:0000dbfc       ??_C@_0BB@KCIACLNC@PDBOpenValidate5@ 10094bfc     msvcrtd:pdblkup.obj
 0002:0000dc10       ??_C@_01KDCPPGHE@r@        10094c10     msvcrtd:pdblkup.obj
 0002:0000dc14       _GUID_ATLVer30             10094c14     atls:atlbase.obj
 0002:0000dc28       _GUID_ATLVer70             10094c28     atls:atlbase.obj
 0002:0000dc3c       _GUID_ATLVer100            10094c3c     atls:atlbase.obj
 0002:0000dc50       _GUID_ATLVer110            10094c50     atls:atlbase.obj
 0002:0000dc68       ??_C@_1IC@ONKHOIDK@?$AAE?$AAR?$AAR?$AAO?$AAR?$AA?5?$AA?3?$AA?5?$AAU?$AAn?$AAa?$AAb?$AAl?$AAe?$AA?5@ 10094c68     atls:atlbase.obj
 0002:0000dd04       ?chDirSep@ATL@@3_WB        10094d04     atls:stdafx.obj
 0002:0000dd08       ?chRightBracket@ATL@@3_WB  10094d08     atls:stdafx.obj
 0002:0000dd0c       ?chLeftBracket@ATL@@3_WB   10094d0c     atls:stdafx.obj
 0002:0000dd10       ?chQuote@ATL@@3_WB         10094d10     atls:stdafx.obj
 0002:0000dd14       ?chEquals@ATL@@3_WB        10094d14     atls:stdafx.obj
 0002:0000dd18       ?szStringVal@ATL@@3QB_WB   10094d18     atls:stdafx.obj
 0002:0000dd1c       ??_C@_13HADIAKP@?$AAS@     10094d1c     atls:stdafx.obj
 0002:0000dd20       ?multiszStringVal@ATL@@3QB_WB 10094d20     atls:stdafx.obj
 0002:0000dd24       ??_C@_13LHMFKAAD@?$AAM@    10094d24     atls:stdafx.obj
 0002:0000dd28       ?szDwordVal@ATL@@3QB_WB    10094d28     atls:stdafx.obj
 0002:0000dd2c       ??_C@_13MKMNOPIJ@?$AAD@    10094d2c     atls:stdafx.obj
 0002:0000dd30       ?szBinaryVal@ATL@@3QB_WB   10094d30     atls:stdafx.obj
 0002:0000dd34       ??_C@_13OPKGLAFF@?$AAB@    10094d34     atls:stdafx.obj
 0002:0000dd38       ?szValToken@ATL@@3QB_WB    10094d38     atls:stdafx.obj
 0002:0000dd3c       ??_C@_17LLMMEOJD@?$AAV?$AAa?$AAl@ 10094d3c     atls:stdafx.obj
 0002:0000dd48       ?szForceRemove@ATL@@3QB_WB 10094d48     atls:stdafx.obj
 0002:0000dd4c       ??_C@_1BI@JFAIJMHL@?$AAF?$AAo?$AAr?$AAc?$AAe?$AAR?$AAe?$AAm?$AAo?$AAv?$AAe@ 10094d4c     atls:stdafx.obj
 0002:0000dd68       ?szNoRemove@ATL@@3QB_WB    10094d68     atls:stdafx.obj
 0002:0000dd6c       ??_C@_1BC@GCKHIPE@?$AAN?$AAo?$AAR?$AAe?$AAm?$AAo?$AAv?$AAe@ 10094d6c     atls:stdafx.obj
 0002:0000dd84       ?szDelete@ATL@@3QB_WB      10094d84     atls:stdafx.obj
 0002:0000dd88       ??_C@_1O@JDLOHAN@?$AAD?$AAe?$AAl?$AAe?$AAt?$AAe@ 10094d88     atls:stdafx.obj
 0002:0000e264       ??_C@_04JJIBNLPC@OggS?$AA@ 10095264     ogg_static_d:framing.obj
 0002:0000e26c       ??_C@_01NEMOKFLO@?$DN?$AA@ 1009526c     vorbis_static_d:info.obj
 0002:0000e270       ??_C@_06EFKACOKC@vorbis?$AA@ 10095270     vorbis_static_d:info.obj
 0002:0000e278       ??_C@_0CO@LBEEKICM@Xiph?4Org?5libVorbis?5I?520101101?5?$CIS@ 10095278     vorbis_static_d:info.obj
 0002:0000e2b0       __real@4000000000000000    100952b0     vorbis_static_d:info.obj
 0002:0000e2c0       __real@bff0000000000000    100952c0     vorbis_static_d:info.obj
 0002:0000e2cc       ??_C@_0BJ@FAJBPPPE@Xiph?4Org?5libVorbis?51?43?42?$AA@ 100952cc     vorbis_static_d:info.obj
 0002:0000e2ec       __real@c61c3c00            100952ec     vorbis_static_d:block.obj
 0002:0001505c       __real@41800000            1009c05c     vorbis_static_d:psy.obj
 0002:00015060       __real@4030000000000000    1009c060     vorbis_static_d:psy.obj
 0002:00015070       __real@3f1a36e2e0000000    1009c070     vorbis_static_d:psy.obj
 0002:00015080       __real@4001eb8520000000    1009c080     vorbis_static_d:psy.obj
 0002:00015090       __real@3e53dd3dc0000000    1009c090     vorbis_static_d:psy.obj
 0002:000150a0       __real@402a333340000000    1009c0a0     vorbis_static_d:psy.obj
 0002:000150b0       __real@3f483f91e0000000    1009c0b0     vorbis_static_d:psy.obj
 0002:000150c0       __real@4059000000000000    1009c0c0     vorbis_static_d:psy.obj
 0002:000150d0       __real@3fe62e42a0000000    1009c0d0     vorbis_static_d:psy.obj
 0002:000150e0       __real@3fc0000000000000    1009c0e0     vorbis_static_d:psy.obj
 0002:000150ec       __real@3fa33333            1009c0ec     vorbis_static_d:psy.obj
 0002:000150f0       __real@3f70a3d7            1009c0f0     vorbis_static_d:psy.obj
 0002:000150f4       __real@00000000            1009c0f4     vorbis_static_d:psy.obj
 0002:000150f8       __real@3f800000            1009c0f8     vorbis_static_d:psy.obj
 0002:00015100       __real@4017dcf680000000    1009c100     vorbis_static_d:psy.obj
 0002:00015110       __real@3ff7154760000000    1009c110     vorbis_static_d:psy.obj
 0002:00015120       __real@3fd0000000000000    1009c120     vorbis_static_d:psy.obj
 0002:00015130       __real@4020000000000000    1009c130     vorbis_static_d:psy.obj
 0002:00015140       __real@c069000000000000    1009c140     vorbis_static_d:psy.obj
 0002:0001514c       __real@c479c000            1009c14c     vorbis_static_d:psy.obj
 0002:00015150       __real@3fff000000000000    1009c150     vorbis_static_d:psy.obj
 0002:00015160       __real@4000800000000000    1009c160     vorbis_static_d:psy.obj
 0002:00015170       __real@403e000000000000    1009c170     vorbis_static_d:psy.obj
 0002:00015180       __real@4024000000000000    1009c180     vorbis_static_d:psy.obj
 0002:0001518c       __real@4479c000            1009c18c     vorbis_static_d:psy.obj
 0002:00015190       __real@430c0000            1009c190     vorbis_static_d:psy.obj
 0002:00015198       __real@4018000000000000    1009c198     vorbis_static_d:psy.obj
 0002:000151a8       __real@3fb99999a0000000    1009c1a8     vorbis_static_d:psy.obj
 0002:000151b8       __real@c0c3878000000000    1009c1b8     vorbis_static_d:psy.obj
 0002:000151c8       __real@3f33a92a30553261    1009c1c8     vorbis_static_d:psy.obj
 0002:000151d4       __real@38d1b717            1009c1d4     vorbis_static_d:psy.obj
 0002:000151d8       __real@3f747ae147ae147b    1009c1d8     vorbis_static_d:psy.obj
 0002:000151e4       __real@c189999a            1009c1e4     vorbis_static_d:psy.obj
 0002:000151e8       __real@2edbe6ff            1009c1e8     vorbis_static_d:psy.obj
 0002:000151f0       __real@3fb999999999999a    1009c1f0     vorbis_static_d:psy.obj
 0002:00015200       __real@3f50624dd2f1a9fc    1009c200     vorbis_static_d:sharedbook.obj
 0002:0001520c       __floor_P                  1009c20c     vorbis_static_d:registry.obj
 0002:00015214       __residue_P                1009c214     vorbis_static_d:registry.obj
 0002:00015220       __mapping_P                1009c220     vorbis_static_d:registry.obj
 0002:00015228       __real@401c000000000000    1009c228     vorbis_static_d:bitrate.obj
 0002:00015238       __real@402e000000000000    1009c238     vorbis_static_d:bitrate.obj
 0002:00015248       __real@400921fb60000000    1009c248     vorbis_static_d:envelope.obj
 0002:00015254       __real@47c34f80            1009c254     vorbis_static_d:envelope.obj
 0002:00015258       __real@c7c34f80            1009c258     vorbis_static_d:envelope.obj
 0002:00015260       __real@3fb0000000000000    1009c260     vorbis_static_d:envelope.obj
 0002:00015270       __real@3fc999999999999a    1009c270     vorbis_static_d:envelope.obj
 0002:00015280       __real@3fe6666666666666    1009c280     vorbis_static_d:envelope.obj
 0002:00015290       __real@4087e4ee00000000    1009c290     vorbis_static_d:envelope.obj
 0002:000152a0       __real@3ea8151820000000    1009c2a0     vorbis_static_d:envelope.obj
 0002:000152b0       __real@4010000000000000    1009c2b0     vorbis_static_d:mdct.obj
 0002:000152c0       __real@3fe6a09e60000000    1009c2c0     vorbis_static_d:mdct.obj
 0002:000152d0       __real@3fd87de2a0000000    1009c2d0     vorbis_static_d:mdct.obj
 0002:000152e0       __real@3fed906bc0000000    1009c2e0     vorbis_static_d:mdct.obj
 0002:000152f0       __real@3fefae147ae147ae    1009c2f0     vorbis_static_d:lpc.obj
 0002:00015300       __real@3ddb7cdfd9d7bdbb    1009c300     vorbis_static_d:lpc.obj
 0002:00015310       __real@3e112e0be826d695    1009c310     vorbis_static_d:lpc.obj
 0002:00015320       __real@3ff000000006df38    1009c320     vorbis_static_d:lpc.obj
 0002:0001ec58       _mapping0_exportbundle     100a5c58     vorbis_static_d:mapping0.obj
 0002:0001ec70       __real@3fd6147ae147ae14    100a5c70     vorbis_static_d:mapping0.obj
 0002:0001ec7c       _residue0_exportbundle     100a5c7c     vorbis_static_d:res0.obj
 0002:0001ec9c       _residue1_exportbundle     100a5c9c     vorbis_static_d:res0.obj
 0002:0001ecbc       _residue2_exportbundle     100a5cbc     vorbis_static_d:res0.obj
 0002:0001f0f0       _floor1_exportbundle       100a60f0     vorbis_static_d:floor1.obj
 0002:0001f1e0       __real@408ffc0000000000    100a61e0     vorbis_static_d:floor1.obj
 0002:0001f1f0       __real@401d41d420000000    100a61f0     vorbis_static_d:floor1.obj
 0002:0001f1fc       _floor0_exportbundle       100a61fc     vorbis_static_d:floor0.obj
 0002:0001f220       __real@3fbd791c40000000    100a6220     vorbis_static_d:lsp.obj
 0002:0001f22c       __real@3f000000            100a622c     vorbis_static_d:lsp.obj
 0002:0001f230       __real@3da5fd7fe1796495    100a6230     vorbis_static_d:lsp.obj
 0002:0001f240       __real@beb0c6f7a0b5ed8d    100a6240     vorbis_static_d:lsp.obj
 0002:0001f250       __real@3eb0c6f7a0b5ed8d    100a6250     vorbis_static_d:lsp.obj
 0002:0001f260       __real@3bc79ca10c924223    100a6260     vorbis_static_d:lsp.obj
 0002:0001f378       __load_config_used         100a6378     msvcrtd:loadcfg.obj
 0002:0001f894       __tls_used                 100a6894     msvcrtd:tlssup.obj
 0002:0001f9b0       ??_R4CWin32Heap@ATL@@6B@   100a69b0     dllmain.obj
 0002:0001f9c8       ??_R3CWin32Heap@ATL@@8     100a69c8     dllmain.obj
 0002:0001f9dc       ??_R2CWin32Heap@ATL@@8     100a69dc     dllmain.obj
 0002:0001f9e8       ??_R1A@?0A@EA@CWin32Heap@ATL@@8 100a69e8     dllmain.obj
 0002:0001fa0c       ??_R1A@?0A@EA@IAtlMemMgr@ATL@@8 100a6a0c     dllmain.obj
 0002:0001fa30       ??_R3IAtlMemMgr@ATL@@8     100a6a30     dllmain.obj
 0002:0001fa44       ??_R2IAtlMemMgr@ATL@@8     100a6a44     dllmain.obj
 0002:0001fa4c       ??_R1A@?0A@EA@IAtlStringMgr@ATL@@8 100a6a4c     dllmain.obj
 0002:0001fa70       ??_R3IAtlStringMgr@ATL@@8  100a6a70     dllmain.obj
 0002:0001fa84       ??_R2IAtlStringMgr@ATL@@8  100a6a84     dllmain.obj
 0002:0001fa8c       ??_R4CAtlStringMgr@ATL@@6B@ 100a6a8c     dllmain.obj
 0002:0001faa4       ??_R3CAtlStringMgr@ATL@@8  100a6aa4     dllmain.obj
 0002:0001fab8       ??_R2CAtlStringMgr@ATL@@8  100a6ab8     dllmain.obj
 0002:0001fac4       ??_R1A@?0A@EA@CAtlStringMgr@ATL@@8 100a6ac4     dllmain.obj
 0002:0001fae8       ??_R4CMciMedia@SOUND@NMBASE@@6B@ 100a6ae8     MciMedia.obj
 0002:0001fb00       ??_R3CMciMedia@SOUND@NMBASE@@8 100a6b00     MciMedia.obj
 0002:0001fb14       ??_R2CMciMedia@SOUND@NMBASE@@8 100a6b14     MciMedia.obj
 0002:0001fb1c       ??_R1A@?0A@EA@CMciMedia@SOUND@NMBASE@@8 100a6b1c     MciMedia.obj
 0002:0001fb40       ??_R4CSound@SOUND@NMBASE@@6B@ 100a6b40     Sound.obj
 0002:0001fb58       ??_R3CSound@SOUND@NMBASE@@8 100a6b58     Sound.obj
 0002:0001fb6c       ??_R2CSound@SOUND@NMBASE@@8 100a6b6c     Sound.obj
 0002:0001fb74       ??_R1A@?0A@EA@CSound@SOUND@NMBASE@@8 100a6b74     Sound.obj
 0002:0001fb98       ??_R4CSoundMananger@SOUND@NMBASE@@6B@ 100a6b98     SoundManager.obj
 0002:0001fbb0       ??_R3CSoundMananger@SOUND@NMBASE@@8 100a6bb0     SoundManager.obj
 0002:0001fbc4       ??_R2CSoundMananger@SOUND@NMBASE@@8 100a6bc4     SoundManager.obj
 0002:0001fbcc       ??_R1A@?0A@EA@CSoundMananger@SOUND@NMBASE@@8 100a6bcc     SoundManager.obj
 0002:0001fbf0       ??_R4CStreamManager@SOUND@NMBASE@@6B@ 100a6bf0     StreamManager.obj
 0002:0001fc08       ??_R3CStreamManager@SOUND@NMBASE@@8 100a6c08     StreamManager.obj
 0002:0001fc1c       ??_R2CStreamManager@SOUND@NMBASE@@8 100a6c1c     StreamManager.obj
 0002:0001fc24       ??_R1A@?0A@EA@CStreamManager@SOUND@NMBASE@@8 100a6c24     StreamManager.obj
 0002:0001fc48       ??_R4?$CThreadQueue@PAVxOggStream@SOUND@NMBASE@@@SOUND@NMBASE@@6B@ 100a6c48     StreamManager.obj
 0002:0001fc60       ??_R3?$CThreadQueue@PAVxOggStream@SOUND@NMBASE@@@SOUND@NMBASE@@8 100a6c60     StreamManager.obj
 0002:0001fc74       ??_R2?$CThreadQueue@PAVxOggStream@SOUND@NMBASE@@@SOUND@NMBASE@@8 100a6c74     StreamManager.obj
 0002:0001fc7c       ??_R1A@?0A@EA@?$CThreadQueue@PAVxOggStream@SOUND@NMBASE@@@SOUND@NMBASE@@8 100a6c7c     StreamManager.obj
 0002:0001fca0       ??_R4xSoundBuffer@SOUND@NMBASE@@6B@ 100a6ca0     xSound.obj
 0002:0001fcb8       ??_R3xSoundBuffer@SOUND@NMBASE@@8 100a6cb8     xSound.obj
 0002:0001fccc       ??_R2xSoundBuffer@SOUND@NMBASE@@8 100a6ccc     xSound.obj
 0002:0001fcd4       ??_R1A@?0A@EA@xSoundBuffer@SOUND@NMBASE@@8 100a6cd4     xSound.obj
 0002:0001fcf8       ??_R4type_info@@6B@        100a6cf8     msvcrtd:std_type_info_static.obj
 0002:0001fd10       ??_R3type_info@@8          100a6d10     msvcrtd:std_type_info_static.obj
 0002:0001fd24       ??_R2type_info@@8          100a6d24     msvcrtd:std_type_info_static.obj
 0002:0001fd2c       ??_R1A@?0A@EA@type_info@@8 100a6d2c     msvcrtd:std_type_info_static.obj
 0002:0001fe70       ___safe_se_handler_table   100a6e70     <linker-defined>
 0002:00020560       ___rtc_iaa                 100a7560     msvcrtd:initsect.obj
 0002:000207f8       ___rtc_izz                 100a77f8     msvcrtd:initsect.obj
 0002:000208fc       ___rtc_taa                 100a78fc     msvcrtd:initsect.obj
 0002:00020b94       ___rtc_tzz                 100a7b94     msvcrtd:initsect.obj
 0002:000241f8       __TI2PAD                   100ab1f8     StreamManager.obj
 0002:0002420c       __CTA2PAD                  100ab20c     StreamManager.obj
 0002:0002421c       __CT??_R0PAD@84            100ab21c     StreamManager.obj
 0002:0002423c       __CT??_R0PAX@84            100ab23c     StreamManager.obj
 0002:00024db0       ___pobjMapEntryFirst       100abdb0     dllmain.obj
 0002:00024eb4       ___pobjMapEntryLast        100abeb4     dllmain.obj
 0003:00000000       __pIncludeInitManaged      100ae000     dllmain.obj
 0003:00000004       ?m_nCategory@CTrace@ATL@@1IA 100ae004     dllmain.obj
 0003:00000008       ?__LINE__Var@?0??AtlWinModuleInit@ATL@@YGJPAU_ATL_WIN_MODULE70@2@@Z@4JA 100ae008     dllmain.obj
 0003:0000000c       ?__LINE__Var@?0??DllMain@@9@12@4JA 100ae00c     dllmain.obj
 0003:00000010       ?__LINE__Var@?0??_Adjust_manually_vector_aligned@std@@YAXAAPAXAAI@Z@4JA 100ae010     Sound.obj
 0003:00000014       ?__LINE__Var@?0??PlayWav@CSoundMananger@SOUND@NMBASE@@QAE_NV?$basic_string@DU?$char_traits@D@std@@V?$allocator@D@2@@std@@@Z@4JA 100ae014     SoundManager.obj
 0003:00000018       ?__LINE__Var@?0??Attach@CSoundMananger@SOUND@NMBASE@@IAE_NPAD00@Z@4JA 100ae018     SoundManager.obj
 0003:0000001c       ?__LINE__Var@?0??Open@xOggFile@SOUND@NMBASE@@QAEHPBD@Z@4JA 100ae01c     xOgg.obj
 0003:00000020       ?__LINE__Var@?0??Read@xOggFile@SOUND@NMBASE@@QAEIPAEI@Z@4JA 100ae020     xOgg.obj
 0003:00000024       ?m_lMasterVolume@xSound@SOUND@NMBASE@@2JA 100ae024     xSound.obj
 0003:00000028       _CLSID_XACTEngine          100ae028     dxguid:dxguid.obj
 0003:0000003c       _CLSID_XACTAuditionEngine  100ae03c     dxguid:dxguid.obj
 0003:00000050       _CLSID_XACTDebugEngine     100ae050     dxguid:dxguid.obj
 0003:00000064       _IID_IXACT3Engine          100ae064     dxguid:dxguid.obj
 0003:00000078       _CLSID_XAudio2             100ae078     dxguid:dxguid.obj
 0003:0000008c       _CLSID_XAudio2_Debug       100ae08c     dxguid:dxguid.obj
 0003:000000a0       _IID_IXAudio2              100ae0a0     dxguid:dxguid.obj
 0003:000000b4       _CLSID_AudioVolumeMeter    100ae0b4     dxguid:dxguid.obj
 0003:000000c8       _CLSID_AudioVolumeMeter_Debug 100ae0c8     dxguid:dxguid.obj
 0003:000000dc       _CLSID_AudioReverb         100ae0dc     dxguid:dxguid.obj
 0003:000000f0       _CLSID_AudioReverb_Debug   100ae0f0     dxguid:dxguid.obj
 0003:00000104       _WinbaseIsolationAwarePrivateT_UnPgpgk 100ae104     mfcs140d:nolib.obj
 0003:00000108       ___scrt_native_dllmain_reason 100ae108     msvcrtd:utility.obj
 0003:0000010c       __Init_global_epoch        100ae10c     msvcrtd:thread_safe_statics.obj
 0003:00000110       ___security_cookie_complement 100ae110     msvcrtd:gs_cookie.obj
 0003:00000114       ___security_cookie         100ae114     msvcrtd:gs_cookie.obj
 0003:00000120       __fltused                  100ae120     msvcrtd:fltused.obj
 0003:00000130       ?_RTC_ErrorLevels@@3PAHA   100ae130     msvcrtd:error.obj
 0003:00000150       ___isa_enabled             100ae150     msvcrtd:cpu_disp.obj
 0003:00000658       ___scrt_ucrt_dll_is_in_use 100ae658     msvcrtd:ucrt_stubs.obj
 0003:00000778       ??_R0?AVCWin32Heap@ATL@@@8 100ae778     dllmain.obj
 0003:0000079c       ??_R0?AUIAtlMemMgr@ATL@@@8 100ae79c     dllmain.obj
 0003:000007c0       ??_R0?AUIAtlStringMgr@ATL@@@8 100ae7c0     dllmain.obj
 0003:000007e8       ??_R0?AVCAtlStringMgr@ATL@@@8 100ae7e8     dllmain.obj
 0003:00000810       ??_R0?AVCMciMedia@SOUND@NMBASE@@@8 100ae810     MciMedia.obj
 0003:0000083c       ??_R0?AVCSound@SOUND@NMBASE@@@8 100ae83c     Sound.obj
 0003:00000864       ??_R0?AVCSoundMananger@SOUND@NMBASE@@@8 100ae864     SoundManager.obj
 0003:00000898       ??_R0PAD@8                 100ae898     StreamManager.obj
 0003:000008a8       ??_R0PAX@8                 100ae8a8     StreamManager.obj
 0003:000008b8       ??_R0?AVCStreamManager@SOUND@NMBASE@@@8 100ae8b8     StreamManager.obj
 0003:000008f0       ??_R0?AV?$CThreadQueue@PAVxOggStream@SOUND@NMBASE@@@SOUND@NMBASE@@@8 100ae8f0     StreamManager.obj
 0003:00000948       ??_R0?AVxSoundBuffer@SOUND@NMBASE@@@8 100ae948     xSound.obj
 0003:00000978       ??_R0?AVtype_info@@@8      100ae978     msvcrtd:std_type_info_static.obj
 0003:00000aa0       ?_pPerfRegFunc@ATL@@3P6AJPAUHINSTANCE__@@@ZA 100aeaa0     dllmain.obj
 0003:00000aa4       ?_pPerfUnRegFunc@ATL@@3P6AJXZA 100aeaa4     dllmain.obj
 0003:00000aa8       ?_AtlRegisterPerUser@ATL@@3_NA 100aeaa8     dllmain.obj
 0003:00000aac       ?_pAtlModule@ATL@@3PAVCAtlModule@1@A 100aeaac     dllmain.obj
 0003:00000ab0       ?_pModule@ATL@@3PAVCComModule@1@A 100aeab0     dllmain.obj
 0003:00000ab4       ?_pAtlAutoThreadModule@ATL@@3PAUIAtlAutoThreadModule@1@A 100aeab4     dllmain.obj
 0003:00000ab8       __afxForceEXTDLL           100aeab8     dllmain.obj
 0003:00000ad8       ?_OptionsStorage@?1??__local_stdio_printf_options@@9@4_KA 100aead8     dllmain.obj
 0003:00000ae4       ?atlTraceGeneral@ATL@@3V?$CTraceCategoryEx@$00$0A@@1@A 100aeae4     dllmain.obj
 0003:00000ae8       ?atlTraceCOM@ATL@@3V?$CTraceCategoryEx@$01$0A@@1@A 100aeae8     dllmain.obj
 0003:00000aec       ?atlTraceQI@ATL@@3V?$CTraceCategoryEx@$03$0A@@1@A 100aeaec     dllmain.obj
 0003:00000af0       ?atlTraceRegistrar@ATL@@3V?$CTraceCategoryEx@$07$0A@@1@A 100aeaf0     dllmain.obj
 0003:00000af4       ?atlTraceRefcount@ATL@@3V?$CTraceCategoryEx@$0BA@$0A@@1@A 100aeaf4     dllmain.obj
 0003:00000af8       ?atlTraceWindowing@ATL@@3V?$CTraceCategoryEx@$0CA@$0A@@1@A 100aeaf8     dllmain.obj
 0003:00000afc       ?atlTraceControls@ATL@@3V?$CTraceCategoryEx@$0EA@$0A@@1@A 100aeafc     dllmain.obj
 0003:00000b00       ?atlTraceHosting@ATL@@3V?$CTraceCategoryEx@$0IA@$0A@@1@A 100aeb00     dllmain.obj
 0003:00000b04       ?atlTraceDBClient@ATL@@3V?$CTraceCategoryEx@$0BAA@$0A@@1@A 100aeb04     dllmain.obj
 0003:00000b08       ?atlTraceDBProvider@ATL@@3V?$CTraceCategoryEx@$0CAA@$0A@@1@A 100aeb08     dllmain.obj
 0003:00000b0c       ?atlTraceSnapin@ATL@@3V?$CTraceCategoryEx@$0EAA@$0A@@1@A 100aeb0c     dllmain.obj
 0003:00000b10       ?atlTraceNotImpl@ATL@@3V?$CTraceCategoryEx@$0IAA@$0A@@1@A 100aeb10     dllmain.obj
 0003:00000b14       ?atlTraceAllocation@ATL@@3V?$CTraceCategoryEx@$0BAAA@$0A@@1@A 100aeb14     dllmain.obj
 0003:00000b18       ?atlTraceException@ATL@@3V?$CTraceCategoryEx@$0CAAA@$0A@@1@A 100aeb18     dllmain.obj
 0003:00000b1c       ?atlTraceTime@ATL@@3V?$CTraceCategoryEx@$0EAAA@$0A@@1@A 100aeb1c     dllmain.obj
 0003:00000b20       ?atlTraceCache@ATL@@3V?$CTraceCategoryEx@$0IAAA@$0A@@1@A 100aeb20     dllmain.obj
 0003:00000b24       ?atlTraceStencil@ATL@@3V?$CTraceCategoryEx@$0BAAAA@$0A@@1@A 100aeb24     dllmain.obj
 0003:00000b28       ?atlTraceString@ATL@@3V?$CTraceCategoryEx@$0CAAAA@$0A@@1@A 100aeb28     dllmain.obj
 0003:00000b2c       ?atlTraceMap@ATL@@3V?$CTraceCategoryEx@$0EAAAA@$0A@@1@A 100aeb2c     dllmain.obj
 0003:00000b30       ?atlTraceUtil@ATL@@3V?$CTraceCategoryEx@$0IAAAA@$0A@@1@A 100aeb30     dllmain.obj
 0003:00000b34       ?atlTraceSecurity@ATL@@3V?$CTraceCategoryEx@$0BAAAAA@$0A@@1@A 100aeb34     dllmain.obj
 0003:00000b38       ?atlTraceSync@ATL@@3V?$CTraceCategoryEx@$0CAAAAA@$0A@@1@A 100aeb38     dllmain.obj
 0003:00000b3c       ?atlTraceISAPI@ATL@@3V?$CTraceCategoryEx@$0EAAAAA@$0A@@1@A 100aeb3c     dllmain.obj
 0003:00000b40       ?m_nLevel@CTrace@ATL@@1IA  100aeb40     dllmain.obj
 0003:00000b44       ?m_nLastCategory@CTrace@ATL@@1IA 100aeb44     dllmain.obj
 0003:00000b48       ?m_nMap@CTrace@ATL@@1PAUCategoryMap@12@A 100aeb48     dllmain.obj
 0003:00003248       ?m_bInitFailed@CAtlBaseModule@ATL@@2_NA 100b1248     dllmain.obj
 0003:0000324c       ?_AtlComModule@ATL@@3VCAtlComModule@1@A 100b124c     dllmain.obj
 0003:0000327c       ?_AtlWinModule@ATL@@3VCAtlWinModule@1@A 100b127c     dllmain.obj
 0003:000032b0       ?strHeap@?1??GetInstance@CAtlStringMgr@ATL@@SAPAUIAtlStringMgr@3@XZ@4VCWin32Heap@3@A 100b12b0     dllmain.obj
 0003:000032c0       ?$TSS0@?1??GetInstance@CAtlStringMgr@ATL@@SAPAUIAtlStringMgr@3@XZ@4HA 100b12c0     dllmain.obj
 0003:000032c4       ?strMgr@?1??GetInstance@CAtlStringMgr@ATL@@SAPAUIAtlStringMgr@3@XZ@4V23@A 100b12c4     dllmain.obj
 0003:000032e8       ?$TSS1@?1??GetInstance@CAtlStringMgr@ATL@@SAPAUIAtlStringMgr@3@XZ@4HA 100b12e8     dllmain.obj
 0003:000032ec       ?InitializeCAtlStringMgr@ATLImplementationDetails@ATL@@3UCAtlStringMgrStaticInitializer@12@A 100b12ec     dllmain.obj
 0003:000032f0       ?g_Sound@SOUND@NMBASE@@3VCSound@12@A 100b12f0     Sound.obj
 0003:000034e8       ?g_NMSoundManager@SOUND@NMBASE@@3VCSoundMananger@12@A 100b14e8     SoundManager.obj
 0003:00003880       ?IsInitDSound@xSound@SOUND@NMBASE@@2HA 100b1880     xSound.obj
 0003:00003884       ?m_DirectSound@xSound@SOUND@NMBASE@@2PAUIDirectSound@@A 100b1884     xSound.obj
 0003:00003888       ?m_Primary@xSound@SOUND@NMBASE@@2PAUIDirectSoundBuffer@@A 100b1888     xSound.obj
 0003:0000388c       ?m_Listener@xSound@SOUND@NMBASE@@2PAUIDirectSound3DListener@@A 100b188c     xSound.obj
 0003:00003890       ?m_hWnd@xMidi@SOUND@NMBASE@@0PAUHWND__@@A 100b1890     xSound.obj
 0003:00003894       ?m_isOK@xMidi@SOUND@NMBASE@@0HA 100b1894     xSound.obj
 0003:00003898       ?Filename@xMidi@SOUND@NMBASE@@0PAPADA 100b1898     xSound.obj
 0003:00003c98       ?m_isLoop@xMidi@SOUND@NMBASE@@2HA 100b1c98     xSound.obj
 0003:00003c9c       ?m_nNumberOfTracks@xMusicCD@SOUND@NMBASE@@2FA 100b1c9c     xSound.obj
 0003:00003ca0       ?m_nTrackLength@xMusicCD@SOUND@NMBASE@@2PAFA 100b1ca0     xSound.obj
 0003:00003d68       ?m_MCIStatus@xMusicCD@SOUND@NMBASE@@2UtagMCI_STATUS_PARMS@@A 100b1d68     xSound.obj
 0003:00003d78       ?m_MCIOpen@xMusicCD@SOUND@NMBASE@@2UtagMCI_OPEN_PARMSA@@A 100b1d78     xSound.obj
 0003:00003d8d       ?cMusicCD@SOUND@NMBASE@@3VxMusicCD@12@A 100b1d8d     xSound.obj
 0003:00003e90       ___@@_PchSym_@00@UdlipUxorvmgPkxUuiznvdlipPvcgvimzohUyfrowlfkfgUmnhlfmwUwvyftUhgwzucOlyq@4B2008FD98C1DD4 100b1e90     stdafx.obj
 0003:00003e94       __afxForceEXCLUDE          100b1e94     mfcs140d:nolib.obj
 0003:00003e98       _IsolationAwarePrivateT_SqbjaYRiRY 100b1e98     mfcs140d:nolib.obj
 0003:00003e9c       _IsolationAwarePrivateT_SAbnPgpgk 100b1e9c     mfcs140d:nolib.obj
 0003:00003ea0       _WinbaseIsolationAwarePrivateT_SpeRNgRQnPgpgk 100b1ea0     mfcs140d:nolib.obj
 0003:00003ea4       _WinbaseIsolationAwarePrivateT_SpYRNahcpNYYRQ 100b1ea4     mfcs140d:nolib.obj
 0003:00003ea8       ?s_pfn@?1??IsolationAwareCreateActCtxW@@9@4@4P6GPAXPBUtagACTCTXW@@@ZA 100b1ea8     mfcs140d:nolib.obj
 0003:00003eac       ?s_pfn@?1??IsolationAwareActivateActCtx@@9@8@4P6GHPAXPAK@ZA 100b1eac     mfcs140d:nolib.obj
 0003:00003eb0       ?s_pfn@?1??IsolationAwareDeactivateActCtx@@9@8@4P6GHKK@ZA 100b1eb0     mfcs140d:nolib.obj
 0003:00003eb4       ?s_pfn@?1??IsolationAwareFindActCtxSectionStringW@@9@20@4P6GHKPBU_GUID@@KPB_WPAUtagACTCTX_SECTION_KEYED_DATA@@@ZA 100b1eb4     mfcs140d:nolib.obj
 0003:00003eb8       ?s_pfn@?1??IsolationAwareQueryActCtxW@@9@28@4P6GHKPAX0K0KPAK@ZA 100b1eb8     mfcs140d:nolib.obj
 0003:00003ebc       ?m@?1??WinbaseIsolationAwarePrivatetRgCebPnQQeRff_xReaRYQP_QYY@@9@4@4UIsolationAwarePrivate_zHGnoyr_zBqHyr_vAsB@@A 100b1ebc     mfcs140d:nolib.obj
 0003:00003ec0       ??_B?1??GetInstance@CAtlStringMgr@ATL@@SAPAUIAtlStringMgr@2@XZ@51 100b1ec0     mfcs140d:nolib.obj
 0003:00003ec4       __afxForceSTDAFX           100b1ec4     mfcs140d:stdafx.obj
 0003:00003ec8       ___scrt_current_native_startup_state 100b1ec8     msvcrtd:utility.obj
 0003:00003ecc       ___scrt_native_startup_lock 100b1ecc     msvcrtd:utility.obj
 0003:00003f28       __tls_index                100b1f28     msvcrtd:tlssup.obj
 0003:00003f30       ___isa_available           100b1f30     msvcrtd:cpu_disp.obj
 0003:00003f34       ___favor                   100b1f34     msvcrtd:cpu_disp.obj
 0003:00003f3c       ___scrt_debugger_hook_flag 100b1f3c     msvcrtd:utility_desktop.obj
 0003:00004310       ?__type_info_root_node@@3U__type_info_node@@A 100b2310     msvcrtd:tncleanup.obj
 0003:00004320       ?_OptionsStorage@?1??__local_stdio_scanf_options@@9@4_KA 100b2320     msvcrtd:default_local_stdio_options.obj
 0003:0000432c       ?_AtlBaseModule@ATL@@3VCAtlBaseModule@1@A 100b232c     atls:atlbase.obj
 0003:00004370       ___@@_PchSym_@00@UztvmgUPdlipUDUhUrmgvinvwrzgvUexgllohUzgohOmzgrevkilqPBACIAJCBDBUlyqiPhkvxgivUcIGUhgwzucOlyq@4B2008FD98C1DD4 100b2370     atls:stdafx.obj
 0003:00004374       ___dyn_tls_init_callback   100b2374     <common>
 0004:00000000       __imp__DirectSoundCreate@12 100b3000     dsound:DSOUND.dll
 0004:00000004       \177DSOUND_NULL_THUNK_DATA 100b3004     dsound:DSOUND.dll
 0004:00000030       __imp__GlobalFree@4        100b3030     kernel32:KERNEL32.dll
 0004:00000034       __imp__GlobalAlloc@8       100b3034     kernel32:KERNEL32.dll
 0004:00000038       __imp__InterlockedExchange@8 100b3038     kernel32:KERNEL32.dll
 0004:0000003c       __imp__IsBadReadPtr@8      100b303c     kernel32:KERNEL32.dll
 0004:00000040       __imp__CloseHandle@4       100b3040     kernel32:KERNEL32.dll
 0004:00000044       __imp__Sleep@4             100b3044     kernel32:KERNEL32.dll
 0004:00000048       __imp__LeaveCriticalSection@4 100b3048     kernel32:KERNEL32.dll
 0004:0000004c       __imp__InitializeSListHead@4 100b304c     kernel32:KERNEL32.dll
 0004:00000050       __imp__IsBadWritePtr@8     100b3050     kernel32:KERNEL32.dll
 0004:00000054       __imp__GetCurrentThreadId@0 100b3054     kernel32:KERNEL32.dll
 0004:00000058       __imp__GetCurrentProcessId@0 100b3058     kernel32:KERNEL32.dll
 0004:0000005c       __imp__QueryPerformanceCounter@4 100b305c     kernel32:KERNEL32.dll
 0004:00000060       __imp__FreeLibrary@4       100b3060     kernel32:KERNEL32.dll
 0004:00000064       __imp__VirtualQuery@12     100b3064     kernel32:KERNEL32.dll
 0004:00000068       __imp__TerminateProcess@8  100b3068     kernel32:KERNEL32.dll
 0004:0000006c       __imp__GetCurrentProcess@0 100b306c     kernel32:KERNEL32.dll
 0004:00000070       __imp__OutputDebugStringW@4 100b3070     kernel32:KERNEL32.dll
 0004:00000074       __imp__GetSystemTimeAsFileTime@4 100b3074     kernel32:KERNEL32.dll
 0004:00000078       __imp__SetLastError@4      100b3078     kernel32:KERNEL32.dll
 0004:0000007c       __imp__GetStartupInfoW@4   100b307c     kernel32:KERNEL32.dll
 0004:00000080       __imp__SetUnhandledExceptionFilter@4 100b3080     kernel32:KERNEL32.dll
 0004:00000084       __imp__UnhandledExceptionFilter@4 100b3084     kernel32:KERNEL32.dll
 0004:00000088       __imp__IsProcessorFeaturePresent@4 100b3088     kernel32:KERNEL32.dll
 0004:0000008c       __imp__WideCharToMultiByte@32 100b308c     kernel32:KERNEL32.dll
 0004:00000090       __imp__IsDebuggerPresent@0 100b3090     kernel32:KERNEL32.dll
 0004:00000094       __imp__CreateEventW@16     100b3094     kernel32:KERNEL32.dll
 0004:00000098       __imp__WaitForSingleObjectEx@12 100b3098     kernel32:KERNEL32.dll
 0004:0000009c       __imp__ResetEvent@4        100b309c     kernel32:KERNEL32.dll
 0004:000000a0       __imp__SetEvent@4          100b30a0     kernel32:KERNEL32.dll
 0004:000000a4       __imp__LoadLibraryW@4      100b30a4     kernel32:KERNEL32.dll
 0004:000000a8       __imp__GetProcAddress@8    100b30a8     kernel32:KERNEL32.dll
 0004:000000ac       __imp__GetModuleHandleW@4  100b30ac     kernel32:KERNEL32.dll
 0004:000000b0       __imp__EnterCriticalSection@4 100b30b0     kernel32:KERNEL32.dll
 0004:000000b4       __imp__OutputDebugStringA@4 100b30b4     kernel32:KERNEL32.dll
 0004:000000b8       __imp__InitializeCriticalSection@4 100b30b8     kernel32:KERNEL32.dll
 0004:000000bc       __imp__GetTickCount@0      100b30bc     kernel32:KERNEL32.dll
 0004:000000c0       __imp__AllocConsole@0      100b30c0     kernel32:KERNEL32.dll
 0004:000000c4       __imp__GetCurrentDirectoryA@8 100b30c4     kernel32:KERNEL32.dll
 0004:000000c8       __imp__GetModuleHandleA@4  100b30c8     kernel32:KERNEL32.dll
 0004:000000cc       __imp__GetModuleFileNameW@12 100b30cc     kernel32:KERNEL32.dll
 0004:000000d0       __imp__DecodePointer@4     100b30d0     kernel32:KERNEL32.dll
 0004:000000d4       __imp__HeapDestroy@4       100b30d4     kernel32:KERNEL32.dll
 0004:000000d8       __imp__HeapAlloc@12        100b30d8     kernel32:KERNEL32.dll
 0004:000000dc       __imp__HeapReAlloc@16      100b30dc     kernel32:KERNEL32.dll
 0004:000000e0       __imp__HeapFree@12         100b30e0     kernel32:KERNEL32.dll
 0004:000000e4       __imp__HeapSize@12         100b30e4     kernel32:KERNEL32.dll
 0004:000000e8       __imp__GetProcessHeap@0    100b30e8     kernel32:KERNEL32.dll
 0004:000000ec       __imp__RaiseException@16   100b30ec     kernel32:KERNEL32.dll
 0004:000000f0       __imp__GetLastError@0      100b30f0     kernel32:KERNEL32.dll
 0004:000000f4       __imp__MultiByteToWideChar@24 100b30f4     kernel32:KERNEL32.dll
 0004:000000f8       __imp__InitializeCriticalSectionAndSpinCount@8 100b30f8     kernel32:KERNEL32.dll
 0004:000000fc       __imp__DeleteCriticalSection@4 100b30fc     kernel32:KERNEL32.dll
 0004:00000100       \177KERNEL32_NULL_THUNK_DATA 100b3100     kernel32:KERNEL32.dll
 0004:00000154       __imp_?_Xlength_error@std@@YAXPBD@Z 100b3154     msvcprtd:MSVCP140D.dll
 0004:00000158       __imp_??0_Lockit@std@@QAE@H@Z 100b3158     msvcprtd:MSVCP140D.dll
 0004:0000015c       __imp_??1_Lockit@std@@QAE@XZ 100b315c     msvcprtd:MSVCP140D.dll
 0004:00000160       __imp_?_Xout_of_range@std@@YAXPBD@Z 100b3160     msvcprtd:MSVCP140D.dll
 0004:00000164       \177MSVCP140D_NULL_THUNK_DATA 100b3164     msvcprtd:MSVCP140D.dll
 0004:00000190       __imp__SysFreeString@4     100b3190     oleaut32:OLEAUT32.dll
 0004:00000194       \177OLEAUT32_NULL_THUNK_DATA 100b3194     oleaut32:OLEAUT32.dll
 0004:000001c0       __imp__UnregisterClassA@8  100b31c0     user32:USER32.dll
 0004:000001c4       __imp__RegisterClassExA@4  100b31c4     user32:USER32.dll
 0004:000001c8       __imp__CreateWindowExA@48  100b31c8     user32:USER32.dll
 0004:000001cc       __imp__DestroyWindow@4     100b31cc     user32:USER32.dll
 0004:000001d0       __imp__GetWindowLongA@8    100b31d0     user32:USER32.dll
 0004:000001d4       __imp__SetWindowLongA@12   100b31d4     user32:USER32.dll
 0004:000001d8       __imp__wsprintfA           100b31d8     user32:USER32.dll
 0004:000001dc       __imp__DefWindowProcA@16   100b31dc     user32:USER32.dll
 0004:000001e0       __imp__IsIconic@4          100b31e0     user32:USER32.dll
 0004:000001e4       \177USER32_NULL_THUNK_DATA 100b31e4     user32:USER32.dll
 0004:00000214       __imp____CxxFrameHandler3  100b3214     vcruntimed:VCRUNTIME140D.dll
 0004:00000218       __imp__memcmp              100b3218     vcruntimed:VCRUNTIME140D.dll
 0004:0000021c       __imp__memcpy              100b321c     vcruntimed:VCRUNTIME140D.dll
 0004:00000220       __imp__memmove             100b3220     vcruntimed:VCRUNTIME140D.dll
 0004:00000224       __imp___CxxThrowException@8 100b3224     vcruntimed:VCRUNTIME140D.dll
 0004:00000228       __imp__memchr              100b3228     vcruntimed:VCRUNTIME140D.dll
 0004:0000022c       __imp___except_handler4_common 100b322c     vcruntimed:VCRUNTIME140D.dll
 0004:00000230       __imp____vcrt_GetModuleFileNameW 100b3230     vcruntimed:VCRUNTIME140D.dll
 0004:00000234       __imp____vcrt_GetModuleHandleW 100b3234     vcruntimed:VCRUNTIME140D.dll
 0004:00000238       __imp____vcrt_LoadLibraryExW 100b3238     vcruntimed:VCRUNTIME140D.dll
 0004:0000023c       __imp____std_type_info_destroy_list 100b323c     vcruntimed:VCRUNTIME140D.dll
 0004:00000240       __imp__memset              100b3240     vcruntimed:VCRUNTIME140D.dll
 0004:00000244       \177VCRUNTIME140D_NULL_THUNK_DATA 100b3244     vcruntimed:VCRUNTIME140D.dll
 0004:00000278       __imp__mmioAscend@12       100b3278     winmm:WINMM.dll
 0004:0000027c       __imp__mciSendStringA@16   100b327c     winmm:WINMM.dll
 0004:00000280       __imp__mmioAdvance@12      100b3280     winmm:WINMM.dll
 0004:00000284       __imp__mmioSetInfo@12      100b3284     winmm:WINMM.dll
 0004:00000288       __imp__mmioGetInfo@12      100b3288     winmm:WINMM.dll
 0004:0000028c       __imp__mmioSeek@12         100b328c     winmm:WINMM.dll
 0004:00000290       __imp__mmioRead@12         100b3290     winmm:WINMM.dll
 0004:00000294       __imp__mmioClose@8         100b3294     winmm:WINMM.dll
 0004:00000298       __imp__mmioOpenA@12        100b3298     winmm:WINMM.dll
 0004:0000029c       __imp__timeKillEvent@4     100b329c     winmm:WINMM.dll
 0004:000002a0       __imp__waveOutGetVolume@8  100b32a0     winmm:WINMM.dll
 0004:000002a4       __imp__timeSetEvent@20     100b32a4     winmm:WINMM.dll
 0004:000002a8       __imp__timeGetTime@0       100b32a8     winmm:WINMM.dll
 0004:000002ac       __imp__PlaySoundA@12       100b32ac     winmm:WINMM.dll
 0004:000002b0       __imp__mciGetErrorStringA@12 100b32b0     winmm:WINMM.dll
 0004:000002b4       __imp__mciSendCommandA@16  100b32b4     winmm:WINMM.dll
 0004:000002b8       __imp__waveOutSetVolume@8  100b32b8     winmm:WINMM.dll
 0004:000002bc       __imp__mmioDescend@16      100b32bc     winmm:WINMM.dll
 0004:000002c0       \177WINMM_NULL_THUNK_DATA  100b32c0     winmm:WINMM.dll
 0004:000002f8       __imp_??_U@YAPAXI@Z        100b32f8     mfc140d:mfc140d.dll
 0004:000002fc       __imp_?AfxMessageBox@@YGHPBDII@Z 100b32fc     mfc140d:mfc140d.dll
 0004:00000300       __imp_?GetSafeHwnd@CWnd@@QBEPAUHWND__@@XZ 100b3300     mfc140d:mfc140d.dll
 0004:00000304       __imp_?FindNextFileA@CFileFind@@UAEHXZ 100b3304     mfc140d:mfc140d.dll
 0004:00000308       __imp_?FindFile@CFileFind@@UAEHPBDK@Z 100b3308     mfc140d:mfc140d.dll
 0004:0000030c       __imp_?Close@CFileFind@@QAEXXZ 100b330c     mfc140d:mfc140d.dll
 0004:00000310       __imp_?GetFilePath@CFileFind@@UBE?AV?$CStringT@DV?$StrTraitMFC_DLL@DV?$ChTraitsCRT@D@ATL@@@@@ATL@@XZ 100b3310     mfc140d:mfc140d.dll
