 nmutil_d

 Timestamp is 5d6f09a2 (Wed Sep  4 09:47:30 2019)

 Preferred load address is 10000000

 Start         Length     Name                   Class
 0001:00000000 0005556dH .textbss                DATA
 0002:00000000 00018f00H .text                   CODE
 0002:00018f00 00004320H .text$di                CODE
 0002:0001d220 00096150H .text$mn                CODE
 0002:000b3370 00009c70H .text$x                 CODE
 0002:000bcfe0 00001a97H .text$yd                CODE
 0003:00000000 00000104H .CRT$XCA                DATA
 0003:00000104 00000104H .CRT$XCL                DATA
 0003:00000208 000001a4H .CRT$XCU                DATA
 0003:000003ac 00000104H .CRT$XCZ                DATA
 0003:000004b0 00000104H .CRT$XIA                DATA
 0003:000005b4 0000010cH .CRT$XIC                DATA
 0003:000006c0 00000104H .CRT$XIZ                DATA
 0003:000007c4 00000004H .CRT$XLA                DATA
 0003:000007c8 00000004H .CRT$XLZ                DATA
 0003:000007cc 00000104H .CRT$XPA                DATA
 0003:000008d0 00000104H .CRT$XPZ                DATA
 0003:000009d4 00000104H .CRT$XTA                DATA
 0003:00000ad8 00000108H .CRT$XTZ                DATA
 0003:00000be0 0001a530H .rdata                  DATA
 0003:0001b110 0000011cH .rdata$T                DATA
 0003:0001b22c 00001014H .rdata$r                DATA
 0003:0001c240 0000017cH .rdata$zzzdbg           DATA
 0003:0001c3bc 00000104H .rtc$IAA                DATA
 0003:0001c4c0 000001d0H .rtc$IMZ                DATA
 0003:0001c690 00000104H .rtc$IZZ                DATA
 0003:0001c794 00000104H .rtc$TAA                DATA
 0003:0001c898 000001d0H .rtc$TMZ                DATA
 0003:0001ca68 00000108H .rtc$TZZ                DATA
 0003:0001cb70 000088e8H .xdata$x                DATA
 0003:00025458 00000104H ATL$__a                 DATA
 0003:0002555c 00000104H ATL$__z                 DATA
 0003:00025660 0000b8b5H .edata                  DATA
 0004:00000000 000017a0H .data                   DATA
 0004:000017a0 00000950H .data$r                 DATA
 0004:000020f0 00005920H .bss                    DATA
 0005:00000000 00000ce0H .idata$5                DATA
 0005:00000ce0 00000140H .idata$2                DATA
 0005:00000e20 00000014H .idata$3                DATA
 0005:00000e34 00000ce0H .idata$4                DATA
 0005:00001b14 0000152dH .idata$6                DATA
 0006:00000000 00000104H .tls                    DATA
 0006:00000104 00000104H .tls$                   DATA
 0006:00000208 00000101H .tls$ZZZ                DATA
 0007:00000000 00000104H .00cfg                  DATA
 0008:00000000 000001c0H .rsrc$01                DATA
 0008:000001c0 000006ecH .rsrc$02                DATA

  Address         Publics by Value              Rva+Base       Lib:Object

 0000:00000000       ___volatile_metadata       00000000     <absolute>
 0000:00000000       ___hybrid_code_map         00000000     <absolute>
 0000:00000000       ___guard_iat_count         00000000     <absolute>
 0000:00000000       ___guard_iat_table         00000000     <absolute>
 0000:00000000       ___dynamic_value_reloc_table 00000000     <absolute>
 0000:00000000       ___guard_longjmp_count     00000000     <absolute>
 0000:00000000       ___safe_se_handler_count   00000000     <absolute>
 0000:00000000       ___hybrid_code_map_count   00000000     <absolute>
 0000:00000000       ___enclave_config          00000000     <absolute>
 0000:00000000       ___safe_se_handler_table   00000000     <absolute>
 0000:00000000       ___hybrid_auxiliary_iat    00000000     <absolute>
 0000:00000000       ___guard_longjmp_table     00000000     <absolute>
 0000:00000000       __except_list              00000000     <absolute>
 0000:00000000       ___guard_fids_table        00000000     <absolute>
 0000:00000000       ___guard_fids_count        00000000     <absolute>
 0000:0000002c       __tls_array                0000002c     <absolute>
 0000:00000100       ___guard_flags             00000100     <absolute>
 0000:00009876       __ldused                   00009876     <absolute>
 0000:00000000       ___ImageBase               10000000     <linker-defined>
 0001:00000000       __enc$textbss$begin        10001000     <linker-defined>
 0001:0005556d       __enc$textbss$end          1005656d     <linker-defined>
 0002:0000a070       ??0CBadFilterLoader@@QAE@XZ 10061070 f   BadFilterLoader_MDd:BadFilterLoader.obj
 0002:0000a0d0       ??_GCBadFilterLoader@@UAEPAXI@Z 100610d0 f i BadFilterLoader_MDd:BadFilterLoader.obj
 0002:0000a0d0       ??_ECBadFilterLoader@@UAEPAXI@Z 100610d0 f i BadFilterLoader_MDd:BadFilterLoader.obj
 0002:0000a140       ??1CBadFilterLoader@@UAE@XZ 10061140 f   BadFilterLoader_MDd:BadFilterLoader.obj
 0002:0000a190       ?PreInit@CBadFilterLoader@@IAEXXZ 10061190 f   BadFilterLoader_MDd:BadFilterLoader.obj
 0002:0000a2b0       ?SetLevel@CBadFilterLoader@@QAEXH@Z 100612b0 f   BadFilterLoader_MDd:BadFilterLoader.obj
 0002:0000a320       ?Release@CBadFilterLoader@@IAEXXZ 10061320 f   BadFilterLoader_MDd:BadFilterLoader.obj
 0002:0000a380       ?GetFilter@CBadFilterLoader@@SAPAV1@XZ 10061380 f   BadFilterLoader_MDd:BadFilterLoader.obj
 0002:0000a440       ?SetFilterLevel@@YAXH@Z    10061440 f   BadFilterLoader_MDd:BadFilterLoader.obj
 0002:0000a490       ?SetFilterEnable@@YAXH@Z   10061490 f   BadFilterLoader_MDd:BadFilterLoader.obj
 0002:0000a4e0       ?SetEnable@CBadFilterLoader@@QAEXH@Z 100614e0 f i BadFilterLoader_MDd:BadFilterLoader.obj
 0002:0000a520       ?IsFilterEnable@@YAHXZ     10061520 f   BadFilterLoader_MDd:BadFilterLoader.obj
 0002:0000a570       ?IsEnable@CBadFilterLoader@@QAEHXZ 10061570 f i BadFilterLoader_MDd:BadFilterLoader.obj
 0002:0000a5b0       ?InitFiter@CBadFilterLoader@@QAE?AW4BADFILTER_ERROR@@PAG@Z 100615b0 f   BadFilterLoader_MDd:BadFilterLoader.obj
 0002:0000a7d0       ?SetDllPath@CBadFilterLoader@@QAEXPAG@Z 100617d0 f   BadFilterLoader_MDd:BadFilterLoader.obj
 0002:0000a890       ?SetFilterFile@CBadFilterLoader@@QAEXPAG@Z 10061890 f   BadFilterLoader_MDd:BadFilterLoader.obj
 0002:0000a950       ?IsBad@CBadFilterLoader@@QAEHPAG@Z 10061950 f   BadFilterLoader_MDd:BadFilterLoader.obj
 0002:0000a9c0       ?IsBadToRep@CBadFilterLoader@@QAEHPAG0KG@Z 100619c0 f   BadFilterLoader_MDd:BadFilterLoader.obj
 0002:0000aa90       _InitFilterW               10061a90 f   BadFilterLoader_MDd:BadFilterLoader.obj
 0002:0000aae0       _SetFilterDllPathW         10061ae0 f   BadFilterLoader_MDd:BadFilterLoader.obj
 0002:0000ab30       _SetFilterFileW            10061b30 f   BadFilterLoader_MDd:BadFilterLoader.obj
 0002:0000ab80       _IsBadW                    10061b80 f   BadFilterLoader_MDd:BadFilterLoader.obj
 0002:0000abd0       _IsBadToRepW               10061bd0 f   BadFilterLoader_MDd:BadFilterLoader.obj
 0002:0000ac30       ?InitFiter@CBadFilterLoader@@QAE?AW4BADFILTER_ERROR@@PAD@Z 10061c30 f   BadFilterLoader_MDd:BadFilterLoader.obj
 0002:0000ae30       ?SetDllPath@CBadFilterLoader@@QAEXPAD@Z 10061e30 f   BadFilterLoader_MDd:BadFilterLoader.obj
 0002:0000aee0       ?SetFilterFile@CBadFilterLoader@@QAEXPAD@Z 10061ee0 f   BadFilterLoader_MDd:BadFilterLoader.obj
 0002:0000af90       ?IsBad@CBadFilterLoader@@QAEHPAD@Z 10061f90 f   BadFilterLoader_MDd:BadFilterLoader.obj
 0002:0000b000       ?IsBadToRep@CBadFilterLoader@@QAEHPAD0KD@Z 10062000 f   BadFilterLoader_MDd:BadFilterLoader.obj
 0002:0000b0c0       _InitFilter                100620c0 f   BadFilterLoader_MDd:BadFilterLoader.obj
 0002:0000b110       _SetFilterDllPath          10062110 f   BadFilterLoader_MDd:BadFilterLoader.obj
 0002:0000b160       _SetFilterFile             10062160 f   BadFilterLoader_MDd:BadFilterLoader.obj
 0002:0000b1b0       _IsBad                     100621b0 f   BadFilterLoader_MDd:BadFilterLoader.obj
 0002:0000b200       _IsBadToRep                10062200 f   BadFilterLoader_MDd:BadFilterLoader.obj
 0002:0000b2bb       ?PresetSSOWebBrowserToSharedDll@@YAXH@Z 100622bb f   SSOWebLib_MDd:SSOWebLib.obj
 0002:0000b2d5       ?PresetSSOWebBrowserSetSiteName@@YAXPBD@Z 100622d5 f   SSOWebLib_MDd:SSOWebLib.obj
 0002:0000b2ef       ?PresetSSOWebBrowserBaseFolder@@YAXPBD@Z 100622ef f   SSOWebLib_MDd:SSOWebLib.obj
 0002:0000b309       ?SetSSOWebBrowserDLLFileName@@YAXPBD@Z 10062309 f   SSOWebLib_MDd:SSOWebLib.obj
 0002:0000b3ac       ?InitSSOWebBrowser@@YAHPAUHWND__@@PBD11H@Z 100623ac f   SSOWebLib_MDd:SSOWebLib.obj
 0002:0000b3d6       ?InitSSOWebBrowser2@@YAHPBDPAUHWND__@@000@Z 100623d6 f   SSOWebLib_MDd:SSOWebLib.obj
 0002:0000b426       ?UnInitSSOWebBrowser@@YAHXZ 10062426 f   SSOWebLib_MDd:SSOWebLib.obj
 0002:0000b43c       ?SetHOOKPreTranslateMessage@@YAHH@Z 1006243c f   SSOWebLib_MDd:SSOWebLib.obj
 0002:0000b456       ?PreTranslateForSSOWebBrowser@@YAHPAUtagMSG@@@Z 10062456 f   SSOWebLib_MDd:SSOWebLib.obj
 0002:0000b470       ?GetActCookieURL@@YAPBDXZ  10062470 f   SSOWebLib_MDd:SSOWebLib.obj
 0002:0000b486       ?GetRefreshCookieURL@@YAPBDXZ 10062486 f   SSOWebLib_MDd:SSOWebLib.obj
 0002:0000b49c       ?GetCookieDomain@@YAPBDXZ  1006249c f   SSOWebLib_MDd:SSOWebLib.obj
 0002:0000b4b2       ?GetSSOWebCookieString@@YAHPADK0K0K@Z 100624b2 f   SSOWebLib_MDd:SSOWebLib.obj
 0002:0000b4e0       ?GetSSOWebCookieString@@YAHPAD00@Z 100624e0 f   SSOWebLib_MDd:SSOWebLib.obj
 0002:0000b506       ?GetSSOWebCookieStringLength@@YAHAAK00@Z 10062506 f   SSOWebLib_MDd:SSOWebLib.obj
 0002:0000b528       ?SSOWEBLib_CreateNewIEDispatch@@YAHPAPAUIDispatch@@@Z 10062528 f   SSOWebLib_MDd:SSOWebLib.obj
 0002:0000b542       ?SSOWEBLib_CreateNewIEDispatch2@@YAHPAPAUIDispatch@@PBD@Z 10062542 f   SSOWebLib_MDd:SSOWebLib.obj
 0002:0000b560       ?SSOWEBLib_OpenInternetExplorer@@YAHPBD@Z 10062560 f   SSOWebLib_MDd:SSOWebLib.obj
 0002:0000b57a       ?SSOWebLib_ErrorCode2String@@YAKKPADI@Z 1006257a f   SSOWebLib_MDd:SSOWebLib.obj
 0002:0000b674       ?SSOWebLib_GetLastError@@YAKXZ 10062674 f   SSOWebLib_MDd:SSOWebLib.obj
 0002:0000b685       ?SSOWebLib_GetLastError@@YAKPADI@Z 10062685 f   SSOWebLib_MDd:SSOWebLib.obj
 0002:0000b6a7       ?SSOWebLib_SetHookFuncForNavigate@@YAKP6I_NPBDAAVCSSOWEBURLString@@@Z@Z 100626a7 f   SSOWebLib_MDd:SSOWebLib.obj
 0002:0000b6c1       ??0CSSOWebBrowser@@QAE@XZ  100626c1 f   SSOWebLib_MDd:SSOWebLib.obj
 0002:0000b6fb       ??1CSSOWebBrowser@@QAE@XZ  100626fb f   SSOWebLib_MDd:SSOWebLib.obj
 0002:0000b72c       ?Create@CSSOWebBrowser@@QAAHKAAUtagRECT@@PAUHWND__@@IPAUIDispatch@@@Z 1006272c f   SSOWebLib_MDd:SSOWebLib.obj
 0002:0000b793       ?Destroy@CSSOWebBrowser@@QAAXXZ 10062793 f   SSOWebLib_MDd:SSOWebLib.obj
 0002:0000b7c7       ?SetAutoHide@CSSOWebBrowser@@QAAXH@Z 100627c7 f   SSOWebLib_MDd:SSOWebLib.obj
 0002:0000b7e8       ?SetNavNoHistory@CSSOWebBrowser@@QAAXH@Z 100627e8 f   SSOWebLib_MDd:SSOWebLib.obj
 0002:0000b809       ?SetHideScroll@CSSOWebBrowser@@QAAXH@Z 10062809 f   SSOWebLib_MDd:SSOWebLib.obj
 0002:0000b82a       ?SetHideBorder@CSSOWebBrowser@@QAAXH@Z 1006282a f   SSOWebLib_MDd:SSOWebLib.obj
 0002:0000b84b       ?PutCharSet@CSSOWebBrowser@@QAAHPBD@Z 1006284b f   SSOWebLib_MDd:SSOWebLib.obj
 0002:0000b86c       ?InsertHTML@CSSOWebBrowser@@QAAHPBD@Z 1006286c f   SSOWebLib_MDd:SSOWebLib.obj
 0002:0000b88d       ?ExecJavascript@CSSOWebBrowser@@QAAHPBD@Z 1006288d f   SSOWebLib_MDd:SSOWebLib.obj
 0002:0000b8ae       ?Navigate@CSSOWebBrowser@@QAAHPBD@Z 100628ae f   SSOWebLib_MDd:SSOWebLib.obj
 0002:0000b8cf       ?NavigateFromRes@CSSOWebBrowser@@QAAHIPAUHINSTANCE__@@@Z 100628cf f   SSOWebLib_MDd:SSOWebLib.obj
 0002:0000b8f4       ?NavigateFromRes@CSSOWebBrowser@@QAAHPBDPAUHINSTANCE__@@@Z 100628f4 f   SSOWebLib_MDd:SSOWebLib.obj
 0002:0000b919       ?GetHWND@CSSOWebBrowser@@QAAPAUHWND__@@XZ 10062919 f   SSOWebLib_MDd:SSOWebLib.obj
 0002:0000b924       ?GetParentHWND@CSSOWebBrowser@@QAAPAUHWND__@@XZ 10062924 f   SSOWebLib_MDd:SSOWebLib.obj
 0002:0000b96d       ?MoveWindow@CSSOWebBrowser@@QAAXHHHHH@Z 1006296d f   SSOWebLib_MDd:SSOWebLib.obj
 0002:0000b9ae       ?MoveWindow@CSSOWebBrowser@@QAAXPBUtagRECT@@H@Z 100629ae f   SSOWebLib_MDd:SSOWebLib.obj
 0002:0000b9f4       ?IsWindowVisible@CSSOWebBrowser@@QAAHXZ 100629f4 f   SSOWebLib_MDd:SSOWebLib.obj
 0002:0000ba3d       ?ShowWindow@CSSOWebBrowser@@QAAHH@Z 10062a3d f   SSOWebLib_MDd:SSOWebLib.obj
 0002:0000ba8a       ?GetUserNavigatedCount@CSSOWebBrowser@@QAAHXZ 10062a8a f   SSOWebLib_MDd:SSOWebLib.obj
 0002:0000baa7       ?SetUserNavigatedCount@CSSOWebBrowser@@QAAXH@Z 10062aa7 f   SSOWebLib_MDd:SSOWebLib.obj
 0002:0000bac8       ?ResetUserNavigatedCount@CSSOWebBrowser@@QAAXXZ 10062ac8 f   SSOWebLib_MDd:SSOWebLib.obj
 0002:0000bae5       ?SetCallback_OnBeforeNavigate2@CSSOWebBrowser@@QAAHP6AXPBDK000PAH@Z@Z 10062ae5 f   SSOWebLib_MDd:SSOWebLib.obj
 0002:0000bb06       ?SetCallback_OnNavigateComplete2@CSSOWebBrowser@@QAAHP6AXPBD@Z@Z 10062b06 f   SSOWebLib_MDd:SSOWebLib.obj
 0002:0000bb27       ?SetCallback_OnQuit@CSSOWebBrowser@@QAAHP6AXXZ@Z 10062b27 f   SSOWebLib_MDd:SSOWebLib.obj
 0002:0000bb48       ?QueryInterface@CSSOWebBrowser@@QAAHABU_GUID@@PAPAX@Z 10062b48 f   SSOWebLib_MDd:SSOWebLib.obj
 0002:0000bb6d       ?IsMe@CSSOWebBrowser@@QAAHPAUIDispatch@@@Z 10062b6d f   SSOWebLib_MDd:SSOWebLib.obj
 0002:0000bbf3       ?SSOWebEventQueryInterface@CSSOWebBrowser@@UAGHW4ENUM_EventVer@ISSOWebEventsUnknown@@PAPAX@Z 10062bf3 f   SSOWebLib_MDd:SSOWebLib.obj
 0002:0000bc3b       ?OnSSOWebEventBN2@CSSOWebBrowser@@UAGXPAUIDispatch@@PBDK111PAH@Z 10062c3b f   SSOWebLib_MDd:SSOWebLib.obj
 0002:0000bc42       ?OnSSOWebEventNC2@CSSOWebBrowser@@UAGXPAUIDispatch@@PBD@Z 10062c42 f   SSOWebLib_MDd:SSOWebLib.obj
 0002:0000bc49       ?OnSSOWebEventNW2@CSSOWebBrowser@@UAGXPAPAUIDispatch@@PAH@Z 10062c49 f   SSOWebLib_MDd:SSOWebLib.obj
 0002:0000bc50       ?OnSSOWebEventQuit@CSSOWebBrowser@@UAGXXZ 10062c50 f   SSOWebLib_MDd:SSOWebLib.obj
 0002:0000bc57       ??0CSSOWEBURLString@@QAE@PBD@Z 10062c57 f   SSOWebLib_MDd:SSOWebLib.obj
 0002:0000bc8d       ??1CSSOWEBURLString@@QAE@XZ 10062c8d f   SSOWebLib_MDd:SSOWebLib.obj
 0002:0000bcb1       ?Assign@CSSOWEBURLString@@QAEXPBD@Z 10062cb1 f   SSOWebLib_MDd:SSOWebLib.obj
 0002:0000bcfa       ?Clear@CSSOWEBURLString@@QAEXXZ 10062cfa f   SSOWebLib_MDd:SSOWebLib.obj
 0002:0000bd44       ?GetData@CSSOWEBURLString@@QAEPBDXZ 10062d44 f   SSOWebLib_MDd:SSOWebLib.obj
 0002:0000c050       __tcsrchr                  10063050 f i SSOWebLib_MDd:SSOWebLib.obj
 0002:0000c090       ??B_CNMString@NSSSOWebLibInteral@@QBEPBDXZ 10063090 f i SSOWebLib_MDd:SSOWebLib.obj
 0002:0000c0e0       ??0ISSOWebEventsVer1@@QAE@XZ 100630e0 f i SSOWebLib_MDd:SSOWebLib.obj
 0002:0000c110       ??0ISSOWebEventsUnknown@@QAE@XZ 10063110 f i SSOWebLib_MDd:SSOWebLib.obj
 0002:0000c130       ?SetSSOWebLastError@@YAXJ@Z 10063130 f   SSOWebLib_MDd:SSOWebLibMan.obj
 0002:0000c13d       ?GetSSOWebLastError@@YAJXZ 1006313d f   SSOWebLib_MDd:SSOWebLibMan.obj
 0002:0000c147       ?IsSSOWebNoError@@YAHXZ    10063147 f   SSOWebLib_MDd:SSOWebLibMan.obj
 0002:0000c15d       ??0CSSOWebLibMan@@QAE@XZ   1006315d f   SSOWebLib_MDd:SSOWebLibMan.obj
 0002:0000c213       ??1CSSOWebLibMan@@UAE@XZ   10063213 f   SSOWebLib_MDd:SSOWebLibMan.obj
 0002:0000c296       ?IsInit@CSSOWebLibMan@@QAEHXZ 10063296 f   SSOWebLib_MDd:SSOWebLibMan.obj
 0002:0000c2d6       ?SetBaseFolder@CSSOWebLibMan@@QAEHPBD@Z 100632d6 f   SSOWebLib_MDd:SSOWebLibMan.obj
 0002:0000c32d       ?SetFileName@CSSOWebLibMan@@QAEHPBD@Z 1006332d f   SSOWebLib_MDd:SSOWebLibMan.obj
 0002:0000c399       ?SetSiteName@CSSOWebLibMan@@QAEHPBD@Z 10063399 f   SSOWebLib_MDd:SSOWebLibMan.obj
 0002:0000c403       ?SetSharedDLL@CSSOWebLibMan@@QAEHH@Z 10063403 f   SSOWebLib_MDd:SSOWebLibMan.obj
 0002:0000c433       ?GetDLLFileName@CSSOWebLibMan@@QAEHAAV_CNMString@NSSSOWebLibInteral@@@Z 10063433 f   SSOWebLib_MDd:SSOWebLibMan.obj
 0002:0000c657       ?LoadDLL@CSSOWebLibMan@@QAEHXZ 10063657 f   SSOWebLib_MDd:SSOWebLibMan.obj
 0002:0000c727       ?raw_GetDllProcAddress@CSSOWebLibMan@@IAEJPBDPAP6GHXZ@Z 10063727 f   SSOWebLib_MDd:SSOWebLibMan.obj
 0002:0000c7ab       ?GetDllProcAddress@CSSOWebLibMan@@IAEHPBDPAP6GHXZ@Z 100637ab f   SSOWebLib_MDd:SSOWebLibMan.obj
 0002:0000c7e7       ?Init@CSSOWebLibMan@@QAEHPAUHWND__@@PBD11H@Z 100637e7 f   SSOWebLib_MDd:SSOWebLibMan.obj
 0002:0000c8f3       ?raw_Destroy@CSSOWebLibMan@@IAEJXZ 100638f3 f   SSOWebLib_MDd:SSOWebLibMan.obj
 0002:0000c9b1       ?Destroy@CSSOWebLibMan@@QAEHXZ 100639b1 f   SSOWebLib_MDd:SSOWebLibMan.obj
 0002:0000c9e3       ?SetHOOKPreTranslateMessage@CSSOWebLibMan@@QAEHH@Z 100639e3 f   SSOWebLib_MDd:SSOWebLibMan.obj
 0002:0000ca50       ?PreTranslateMsg@CSSOWebLibMan@@QAEHPAUtagMSG@@@Z 10063a50 f   SSOWebLib_MDd:SSOWebLibMan.obj
 0002:0000cab5       ?GetActCookieURL@CSSOWebLibMan@@QAEPBDXZ 10063ab5 f   SSOWebLib_MDd:SSOWebLibMan.obj
 0002:0000cb13       ?GetRefreshCookieURL@CSSOWebLibMan@@QAEPBDXZ 10063b13 f   SSOWebLib_MDd:SSOWebLibMan.obj
 0002:0000cb71       ?GetCookieDomain@CSSOWebLibMan@@QAEPBDXZ 10063b71 f   SSOWebLib_MDd:SSOWebLibMan.obj
 0002:0000cbcf       ?raw_GetSSOWebCookieString@CSSOWebLibMan@@IAEHPADAAK0101@Z 10063bcf f   SSOWebLib_MDd:SSOWebLibMan.obj
 0002:0000cc48       ?GetSSOWebCookieString@CSSOWebLibMan@@QAEHPADK0K0K@Z 10063c48 f   SSOWebLib_MDd:SSOWebLibMan.obj
 0002:0000cc86       ?GetSSOWebCookieString@CSSOWebLibMan@@QAEHPAD00@Z 10063c86 f   SSOWebLib_MDd:SSOWebLibMan.obj
 0002:0000ccbe       ?GetSSOWebCookieStringLength@CSSOWebLibMan@@QAEHAAK00@Z 10063cbe f   SSOWebLib_MDd:SSOWebLibMan.obj
 0002:0000cd2b       ?CreateNewIEDispatch@CSSOWebLibMan@@QAEHPAPAUIDispatch@@@Z 10063d2b f   SSOWebLib_MDd:SSOWebLibMan.obj
 0002:0000cd8a       ?CreateNewIEDispatch2@CSSOWebLibMan@@QAEHPAPAUIDispatch@@PBD@Z 10063d8a f   SSOWebLib_MDd:SSOWebLibMan.obj
 0002:0000cded       ?OpenInternetExplorer@CSSOWebLibMan@@QAEHPBD@Z 10063ded f   SSOWebLib_MDd:SSOWebLibMan.obj
 0002:0000ce4c       ?CreateWebCtrl@CSSOWebLibMan@@QAEHKAAUtagRECT@@PAUHWND__@@IPAVISSOWebEventsUnknown@@PAUIDispatch@@AAPAU3@@Z 10063e4c f   SSOWebLib_MDd:SSOWebLibMan.obj
 0002:0000cec3       ?ReleaseWebCtrl@CSSOWebLibMan@@QAEHPAUHWND__@@@Z 10063ec3 f   SSOWebLib_MDd:SSOWebLibMan.obj
 0002:0000cf22       ?WebCtrl_SetAutoHide@CSSOWebLibMan@@QAEHPAUHWND__@@H@Z 10063f22 f   SSOWebLib_MDd:SSOWebLibMan.obj
 0002:0000cf9a       ?WebCtrl_SetNavNoHistory@CSSOWebLibMan@@QAEHPAUHWND__@@H@Z 10063f9a f   SSOWebLib_MDd:SSOWebLibMan.obj
 0002:0000d012       ?WebCtrl_SetHideScroll@CSSOWebLibMan@@QAEHPAUHWND__@@H@Z 10064012 f   SSOWebLib_MDd:SSOWebLibMan.obj
 0002:0000d08a       ?WebCtrl_SetHideBorder@CSSOWebLibMan@@QAEHPAUHWND__@@H@Z 1006408a f   SSOWebLib_MDd:SSOWebLibMan.obj
 0002:0000d102       ?WebCtrl_PutCharSet@CSSOWebLibMan@@QAEHPAUHWND__@@PBD@Z 10064102 f   SSOWebLib_MDd:SSOWebLibMan.obj
 0002:0000d17a       ?WebCtrl_InsertHTML@CSSOWebLibMan@@QAEHPAUHWND__@@PBD@Z 1006417a f   SSOWebLib_MDd:SSOWebLibMan.obj
 0002:0000d1f2       ?WebCtrl_ExecJavascript@CSSOWebLibMan@@QAEHPAUHWND__@@PBD@Z 100641f2 f   SSOWebLib_MDd:SSOWebLibMan.obj
 0002:0000d26a       ?WebCtrl_Navigate@CSSOWebLibMan@@QAEHPAUHWND__@@PBD@Z 1006426a f   SSOWebLib_MDd:SSOWebLibMan.obj
 0002:0000d365       ?WebCtrl_NavigateFromRes@CSSOWebLibMan@@QAEHPAUHWND__@@IPAUHINSTANCE__@@@Z 10064365 f   SSOWebLib_MDd:SSOWebLibMan.obj
 0002:0000d3fb       ?WebCtrl_NavigateFromRes@CSSOWebLibMan@@QAEHPAUHWND__@@PBDPAUHINSTANCE__@@@Z 100643fb f   SSOWebLib_MDd:SSOWebLibMan.obj
 0002:0000d491       ?WebCtrl_GetUserNavigatedCount@CSSOWebLibMan@@QAEHPAUHWND__@@@Z 10064491 f   SSOWebLib_MDd:SSOWebLibMan.obj
 0002:0000d515       ?WebCtrl_SetUserNavigatedCount@CSSOWebLibMan@@QAEXPAUHWND__@@H@Z 10064515 f   SSOWebLib_MDd:SSOWebLibMan.obj
 0002:0000d588       ?WebCtrl_ResetUserNavigatedCount@CSSOWebLibMan@@QAEXPAUHWND__@@@Z 10064588 f   SSOWebLib_MDd:SSOWebLibMan.obj
 0002:0000d5f7       ?WebCtrl_SetCallback_OnBeforeNavigate2@CSSOWebLibMan@@QAEHPAUHWND__@@P6AXPBDK111PAH@Z@Z 100645f7 f   SSOWebLib_MDd:SSOWebLibMan.obj
 0002:0000d66f       ?WebCtrl_SetCallback_OnNavigateComplete2@CSSOWebLibMan@@QAEHPAUHWND__@@P6AXPBD@Z@Z 1006466f f   SSOWebLib_MDd:SSOWebLibMan.obj
 0002:0000d6e7       ?WebCtrl_SetCallback_OnQuit@CSSOWebLibMan@@QAEHPAUHWND__@@P6AXXZ@Z 100646e7 f   SSOWebLib_MDd:SSOWebLibMan.obj
 0002:0000d75f       ?WebCtrl_QueryInterface@CSSOWebLibMan@@QAEHPAUHWND__@@ABU_GUID@@PAPAX@Z 1006475f f   SSOWebLib_MDd:SSOWebLibMan.obj
 0002:0000d7db       ?ErrorCode2StringFromDLL@CSSOWebLibMan@@QAEPBDJ@Z 100647db f   SSOWebLib_MDd:SSOWebLibMan.obj
 0002:0000d83d       ?SetHookFuncForNavigate@CSSOWebLibMan@@QAEKP6I_NPBDAAVCSSOWEBURLString@@@Z@Z 1006483d f   SSOWebLib_MDd:SSOWebLibMan.obj
 0002:0000de30       ??_GCSSOWebLibMan@@UAEPAXI@Z 10064e30 f i SSOWebLib_MDd:SSOWebLibMan.obj
 0002:0000de30       ??_ECSSOWebLibMan@@UAEPAXI@Z 10064e30 f i SSOWebLib_MDd:SSOWebLibMan.obj
 0002:0000de80       ??4_CNMString@NSSSOWebLibInteral@@QAEABV01@PBD@Z 10064e80 f i SSOWebLib_MDd:SSOWebLibMan.obj
 0002:0000dec0       ??Y_CNMString@NSSSOWebLibInteral@@QAEABV01@PBD@Z 10064ec0 f i SSOWebLib_MDd:SSOWebLibMan.obj
 0002:0000df00       ??0_CNMString@NSSSOWebLibInteral@@QAE@PBD@Z 10064f00 f   SSOWebLib_MDd:NMAtlString.obj
 0002:0000df44       ??0_CNMString@NSSSOWebLibInteral@@QAE@ABV01@@Z 10064f44 f   SSOWebLib_MDd:NMAtlString.obj
 0002:0000df87       ??1_CNMString@NSSSOWebLibInteral@@QAE@XZ 10064f87 f   SSOWebLib_MDd:NMAtlString.obj
 0002:0000dfab       ?IsEmpty@_CNMString@NSSSOWebLibInteral@@QAEHXZ 10064fab f   SSOWebLib_MDd:NMAtlString.obj
 0002:0000dfed       ?AllocBuffer@_CNMString@NSSSOWebLibInteral@@IAEHI@Z 10064fed f   SSOWebLib_MDd:NMAtlString.obj
 0002:0000e068       ?DetatchData@_CNMString@NSSSOWebLibInteral@@IAEPADXZ 10065068 f   SSOWebLib_MDd:NMAtlString.obj
 0002:0000e0a9       ?Empty@_CNMString@NSSSOWebLibInteral@@QAEXXZ 100650a9 f   SSOWebLib_MDd:NMAtlString.obj
 0002:0000e118       ?GetLength@_CNMString@NSSSOWebLibInteral@@QAEHXZ 10065118 f   SSOWebLib_MDd:NMAtlString.obj
 0002:0000e162       ?FormatV@_CNMString@NSSSOWebLibInteral@@QAEHPBDPAD@Z 10065162 f   SSOWebLib_MDd:NMAtlString.obj
 0002:0000e1ff       ?GetBuffer@_CNMString@NSSSOWebLibInteral@@QAEPADK@Z 100651ff f   SSOWebLib_MDd:NMAtlString.obj
 0002:0000e231       ?ReleaseBuffer@_CNMString@NSSSOWebLibInteral@@QAEXXZ 10065231 f   SSOWebLib_MDd:NMAtlString.obj
 0002:0000e243       ?Format@_CNMString@NSSSOWebLibInteral@@QAAHPBDZZ 10065243 f   SSOWebLib_MDd:NMAtlString.obj
 0002:0000e288       ?AddFormatedStringV@_CNMString@NSSSOWebLibInteral@@QAEHPBDPAD@Z 10065288 f   SSOWebLib_MDd:NMAtlString.obj
 0002:0000e331       ?AddFormatedString@_CNMString@NSSSOWebLibInteral@@QAAHPBDZZ 10065331 f   SSOWebLib_MDd:NMAtlString.obj
 0002:0000e385       ?Assign@_CNMString@NSSSOWebLibInteral@@IAEXPBD@Z 10065385 f   SSOWebLib_MDd:NMAtlString.obj
 0002:0000e3c6       ?Assign@_CNMString@NSSSOWebLibInteral@@IAEXD@Z 100653c6 f   SSOWebLib_MDd:NMAtlString.obj
 0002:0000e40a       ?Concat@_CNMString@NSSSOWebLibInteral@@IAEXPBD@Z 1006540a f   SSOWebLib_MDd:NMAtlString.obj
 0002:0000e487       ?Concat@_CNMString@NSSSOWebLibInteral@@IAEXD@Z 10065487 f   SSOWebLib_MDd:NMAtlString.obj
 0002:0000e4fd       ?RemoveMultiChar@_CNMString@NSSSOWebLibInteral@@QAEXD@Z 100654fd f   SSOWebLib_MDd:NMAtlString.obj
 0002:0000e5ec       ?TrimLeft@_CNMString@NSSSOWebLibInteral@@QAEXD@Z 100655ec f   SSOWebLib_MDd:NMAtlString.obj
 0002:0000e688       ?TrimRight@_CNMString@NSSSOWebLibInteral@@QAEXD@Z 10065688 f   SSOWebLib_MDd:NMAtlString.obj
 0002:0000e708       ?Remove@_CNMString@NSSSOWebLibInteral@@QAEXD@Z 10065708 f   SSOWebLib_MDd:NMAtlString.obj
 0002:0000e7d2       ?Remove@_CNMString@NSSSOWebLibInteral@@QAEXPBD@Z 100657d2 f   SSOWebLib_MDd:NMAtlString.obj
 0002:0000eac0       __tcsstr                   10065ac0 f i SSOWebLib_MDd:NMAtlString.obj
 0002:0000eb00       ?SSOWebErrorCode2String@@YAPBDK@Z 10065b00 f   SSOWebLib_MDd:SSOWebAPI.obj
 0002:0000ef10       ?ConvertNMSiteCode@@YA?AW4NMSNO_CODE@@PBD@Z 10065f10 f   SSOWebLib_MDd:SiteSetting.obj
 0002:0000f01d       ?GetNMSiteInfo@@YAXW4NMSNO_CODE@@AAUSTD_NMSITEINFO@@@Z 1006601d f   SSOWebLib_MDd:SiteSetting.obj
 0002:0000f31d       ?GetNMSiteInfo@@YAXPBDAAUSTD_NMSITEINFO@@@Z 1006631d f   SSOWebLib_MDd:SiteSetting.obj
 0002:0000f450       __tcsicmp                  10066450 f i SSOWebLib_MDd:SiteSetting.obj
 0002:0000f490       ?NMvsPrintf@@YAHPADPBD0@Z  10066490 f   SSOWebLib_MDd:NMvsPrintf.obj
 0002:0000fa19       ?NMvsnPrintf@@YAHPADHPBD0@Z 10066a19 f   SSOWebLib_MDd:NMvsPrintf.obj
 0002:0000fa3d       ?NMvsCalcLen@@YAHPBDPAD@Z  10066a3d f   SSOWebLib_MDd:NMvsPrintf.obj
 0002:0000fbd0       __tcsncmp                  10066bd0 f i SSOWebLib_MDd:NMvsPrintf.obj
 0002:0000fd20       ?SetDLLFileName@NMRUNPARAMAPIFUNC@@YAKPBD@Z 10066d20 f   NMRunParamLib_MDd:NMRunParamLib.obj
 0002:0000fd70       ?ConvertRetCode2String@NMRUNPARAMAPIFUNC@@YAPBDK@Z 10066d70 f   NMRunParamLib_MDd:NMRunParamLib.obj
 0002:0000fdc0       ??0CNMRunParam@@QAE@XZ     10066dc0 f   NMRunParamLib_MDd:NMRunParamLib.obj
 0002:0000fe20       ??_GCNMRunParam@@UAEPAXI@Z 10066e20 f i NMRunParamLib_MDd:NMRunParamLib.obj
 0002:0000fe20       ??_ECNMRunParam@@UAEPAXI@Z 10066e20 f i NMRunParamLib_MDd:NMRunParamLib.obj
 0002:0000fe90       ??1CNMRunParam@@UAE@XZ     10066e90 f   NMRunParamLib_MDd:NMRunParamLib.obj
 0002:0000fef0       ?Load@CNMRunParam@@QAEKPBD_N@Z 10066ef0 f   NMRunParamLib_MDd:NMRunParamLib.obj
 0002:0000ffc0       ?Save@CNMRunParam@@QAEKPBD@Z 10066fc0 f   NMRunParamLib_MDd:NMRunParamLib.obj
 0002:00010050       ?RunProgram@CNMRunParam@@QAEKPBDPAI0@Z 10067050 f   NMRunParamLib_MDd:NMRunParamLib.obj
 0002:000100e0       ?ExistsParam@CNMRunParam@@QAE_NPBD@Z 100670e0 f   NMRunParamLib_MDd:NMRunParamLib.obj
 0002:00010170       ?GetParam@CNMRunParam@@QAEPBDPBD@Z 10067170 f   NMRunParamLib_MDd:NMRunParamLib.obj
 0002:00010210       ?SetParam@CNMRunParam@@QAEKPBD0@Z 10067210 f   NMRunParamLib_MDd:NMRunParamLib.obj
 0002:000102a0       ?RemoveParam@CNMRunParam@@QAEKPBD@Z 100672a0 f   NMRunParamLib_MDd:NMRunParamLib.obj
 0002:00010330       ?GetParamCount@CNMRunParam@@QAEKXZ 10067330 f   NMRunParamLib_MDd:NMRunParamLib.obj
 0002:000103d0       ?GetParamName@CNMRunParam@@QAEPBDK@Z 100673d0 f   NMRunParamLib_MDd:NMRunParamLib.obj
 0002:00010470       ?GetData@NMRUNPARAM_CMDLINEPARAM@@YA?AW4ERROR_NMRUNPARAM@@HAAPBDAAK@Z 10067470 f   NMRunParamLib_MDd:NMRunParamModuleLib_Function.obj
 0002:000105c0       ?GetDataLength@NMRUNPARAM_CMDLINEPARAM@@YAKH@Z 100675c0 f   NMRunParamLib_MDd:NMRunParamModuleLib_Function.obj
 0002:00010640       ?CopyData@NMRUNPARAM_CMDLINEPARAM@@YA?AW4ERROR_NMRUNPARAM@@HPADK@Z 10067640 f   NMRunParamLib_MDd:NMRunParamModuleLib_Function.obj
 0002:00010700       ?SetCurPathByProgPath@NMRUNPARAM_CMDLINEPARAM@@YA?AW4ERROR_NMRUNPARAM@@XZ 10067700 f   NMRunParamLib_MDd:NMRunParamModuleLib_Function.obj
 0002:00010810       ?GetCount@NMRUNPARAMAPIFUNC_CMDARG@@YAKXZ 10067810 f   NMRunParamLib_MDd:NMRunParamModuleLib_Function.obj
 0002:00010850       ?GetArg@NMRUNPARAMAPIFUNC_CMDARG@@YAKGPADK@Z 10067850 f   NMRunParamLib_MDd:NMRunParamModuleLib_Function.obj
 0002:000108b0       ?GetArgLength@NMRUNPARAMAPIFUNC_CMDARG@@YAKG@Z 100678b0 f   NMRunParamLib_MDd:NMRunParamModuleLib_Function.obj
 0002:00010900       ?GetRunFilePath@NMRUNPARAMAPIFUNC_CMDARG@@YAPBDXZ 10067900 f   NMRunParamLib_MDd:NMRunParamModuleLib_Function.obj
 0002:00010a70       ?raw_CopyArgData@@YAKFAAV_CNMString@NS_NMRunParamLib@@@Z 10067a70 f i NMRunParamLib_MDd:NMRunParamModuleLib_Function.obj
 0002:00010b50       ?GetRunParamKey@NMRUNPARAMAPIFUNC_CMDARG@@YAPBDXZ 10067b50 f   NMRunParamLib_MDd:NMRunParamModuleLib_Function.obj
 0002:00010d10       ?SetCurPathToRunFilePath@NMRUNPARAMAPIFUNC_CMDARG@@YAKXZ 10067d10 f   NMRunParamLib_MDd:NMRunParamModuleLib_Function.obj
 0002:00010d50       ?Create@NMRUNPARAMAPIFUNC_RUNPARAMKEY@@YAKPADK@Z 10067d50 f   NMRunParamLib_MDd:NMRunParamModuleLib_Function.obj
 0002:00010e30       ?GetNeedLength@NMRUNPARAMAPIFUNC_RUNPARAMKEY@@YAKXZ 10067e30 f   NMRunParamLib_MDd:NMRunParamModuleLib_Function.obj
 0002:00010e60       ?GetEnvName@NMRUNPARAMAPIFUNC_ENVVAR@@YAPBDW4ENVVARNAME@1@@Z 10067e60 f   NMRunParamLib_MDd:NMRunParamModuleLib_Function.obj
 0002:00010ed0       ?GetEnvVarLength@NMRUNPARAMAPIFUNC_ENVVAR@@YAKPBD@Z 10067ed0 f   NMRunParamLib_MDd:NMRunParamModuleLib_Function.obj
 0002:00010f50       ?GetEnvVarLength@NMRUNPARAMAPIFUNC_ENVVAR@@YAKW4ENVVARNAME@1@@Z 10067f50 f   NMRunParamLib_MDd:NMRunParamModuleLib_Function.obj
 0002:00010fa0       ?GetEnvVar@NMRUNPARAMAPIFUNC_ENVVAR@@YAKPBDPADK@Z 10067fa0 f   NMRunParamLib_MDd:NMRunParamModuleLib_Function.obj
 0002:00011080       ?GetEnvVar@NMRUNPARAMAPIFUNC_ENVVAR@@YAKW4ENVVARNAME@1@PADK@Z 10068080 f   NMRunParamLib_MDd:NMRunParamModuleLib_Function.obj
 0002:000110e0       ?SetEnvVar@NMRUNPARAMAPIFUNC_ENVVAR@@YAKPBD0@Z 100680e0 f   NMRunParamLib_MDd:NMRunParamModuleLib_Function.obj
 0002:00011160       ?SetEnvVar@NMRUNPARAMAPIFUNC_ENVVAR@@YAKW4ENVVARNAME@1@PBD@Z 10068160 f   NMRunParamLib_MDd:NMRunParamModuleLib_Function.obj
 0002:000111c0       ?GetSiteName@NMRUNPARAMAPIFUNC_ENVVAR@@YAPBDXZ 100681c0 f   NMRunParamLib_MDd:NMRunParamModuleLib_Function.obj
 0002:00011280       ?raw_GetEnvVar@@YAKW4ENVVARNAME@NMRUNPARAMAPIFUNC_ENVVAR@@AAV_CNMString@NS_NMRunParamLib@@@Z 10068280 f i NMRunParamLib_MDd:NMRunParamModuleLib_Function.obj
 0002:00011380       ?SetSiteName@NMRUNPARAMAPIFUNC_ENVVAR@@YAKPBD@Z 10068380 f   NMRunParamLib_MDd:NMRunParamModuleLib_Function.obj
 0002:000113d0       ?GetCommonPath@NMRUNPARAMAPIFUNC_ENVVAR@@YAPBDXZ 100683d0 f   NMRunParamLib_MDd:NMRunParamModuleLib_Function.obj
 0002:000114d0       ?SetCommonPath@NMRUNPARAMAPIFUNC_ENVVAR@@YAKPBD@Z 100684d0 f   NMRunParamLib_MDd:NMRunParamModuleLib_Function.obj
 0002:00011520       ?_FileExists@@YAHPBD@Z     10068520 f   NMRunParamLib_MDd:NMRunParamMan.obj
 0002:00011630       ??0CNMRunParamMan@@QAE@XZ  10068630 f   NMRunParamLib_MDd:NMRunParamMan.obj
 0002:000116d0       ??_GCNMRunParamMan@@UAEPAXI@Z 100686d0 f i NMRunParamLib_MDd:NMRunParamMan.obj
 0002:000116d0       ??_ECNMRunParamMan@@UAEPAXI@Z 100686d0 f i NMRunParamLib_MDd:NMRunParamMan.obj
 0002:00011740       ??1CNMRunParamMan@@UAE@XZ  10068740 f   NMRunParamLib_MDd:NMRunParamMan.obj
 0002:000117e0       ?SetDLLFileName@CNMRunParamMan@@QAEKPBD@Z 100687e0 f   NMRunParamLib_MDd:NMRunParamMan.obj
 0002:00011860       ?AutoLoadRunParamDLL@CNMRunParamMan@@IAEKXZ 10068860 f   NMRunParamLib_MDd:NMRunParamMan.obj
 0002:000119d0       ?GetDLLProc@CNMRunParamMan@@QAEKPBDPAP6GHXZ@Z 100689d0 f   NMRunParamLib_MDd:NMRunParamMan.obj
 0002:00011a80       ?CreateData@CNMRunParamMan@@QAEKPAX@Z 10068a80 f   NMRunParamLib_MDd:NMRunParamMan.obj
 0002:00011b30       ?DeleteData@CNMRunParamMan@@QAEKPAX@Z 10068b30 f   NMRunParamLib_MDd:NMRunParamMan.obj
 0002:00011bb0       ?ConvertRetCode2String@CNMRunParamMan@@QAEPBDK@Z 10068bb0 f   NMRunParamLib_MDd:NMRunParamMan.obj
 0002:00011c60       ??0CNMCallDLLFunc@@QAE@XZ  10068c60 f   NMRunParamLib_MDd:NMCallDLLFunc.obj
 0002:00011cb0       ??_GCNMCallDLLFunc@@UAEPAXI@Z 10068cb0 f i NMRunParamLib_MDd:NMCallDLLFunc.obj
 0002:00011cb0       ??_ECNMCallDLLFunc@@UAEPAXI@Z 10068cb0 f i NMRunParamLib_MDd:NMCallDLLFunc.obj
 0002:00011d20       ??1CNMCallDLLFunc@@UAE@XZ  10068d20 f   NMRunParamLib_MDd:NMCallDLLFunc.obj
 0002:00011d70       ?Destroy@CNMCallDLLFunc@@QAEXXZ 10068d70 f   NMRunParamLib_MDd:NMCallDLLFunc.obj
 0002:00011de0       ?IsLoaded@CNMCallDLLFunc@@QAEHXZ 10068de0 f   NMRunParamLib_MDd:NMCallDLLFunc.obj
 0002:00011e20       ?Load@CNMCallDLLFunc@@QAEHPBD@Z 10068e20 f   NMRunParamLib_MDd:NMCallDLLFunc.obj
 0002:00011e90       ?GetProcAddress@CNMCallDLLFunc@@QAEHPBDPAP6GHXZ@Z 10068e90 f   NMRunParamLib_MDd:NMCallDLLFunc.obj
 0002:00011f30       ?GetCount@NMCMDLINEFUNC@@YAKXZ 10068f30 f   NMRunParamLib_MDd:NMCmdLine.obj
 0002:00012040       ?GetParamData@NMCMDLINEFUNC@@YAHKAAPBDAAK@Z 10069040 f   NMRunParamLib_MDd:NMCmdLine.obj
 0002:000121b0       ?GetParamDataLength@NMCMDLINEFUNC@@YAHKAAK@Z 100691b0 f   NMRunParamLib_MDd:NMCmdLine.obj
 0002:00012200       ??0CNMATLStringBuffer@_CNMString@NS_NMRunParamLib@@QAE@XZ 10069200 f   NMRunParamLib_MDd:NMAtlString.obj
 0002:00012250       ??1CNMATLStringBuffer@_CNMString@NS_NMRunParamLib@@QAE@XZ 10069250 f   NMRunParamLib_MDd:NMAtlString.obj
 0002:000122a0       ?ClearData@CNMATLStringBuffer@_CNMString@NS_NMRunParamLib@@IAEXXZ 100692a0 f   NMRunParamLib_MDd:NMAtlString.obj
 0002:00012300       ?Destroy@CNMATLStringBuffer@_CNMString@NS_NMRunParamLib@@QAEXXZ 10069300 f   NMRunParamLib_MDd:NMAtlString.obj
 0002:00012370       ??ECNMATLStringBuffer@_CNMString@NS_NMRunParamLib@@QAEABV012@XZ 10069370 f   NMRunParamLib_MDd:NMAtlString.obj
 0002:000123c0       ??YCNMATLStringBuffer@_CNMString@NS_NMRunParamLib@@QAEABV012@K@Z 100693c0 f   NMRunParamLib_MDd:NMAtlString.obj
 0002:00012410       ?_MoveOffset@CNMATLStringBuffer@_CNMString@NS_NMRunParamLib@@IAEABV123@K@Z 10069410 f   NMRunParamLib_MDd:NMAtlString.obj
 0002:00012460       ?AttachData@CNMATLStringBuffer@_CNMString@NS_NMRunParamLib@@QAEHPAV123@@Z 10069460 f   NMRunParamLib_MDd:NMAtlString.obj
 0002:000124f0       ?MoveOffset@CNMATLStringBuffer@_CNMString@NS_NMRunParamLib@@QAEHK@Z 100694f0 f   NMRunParamLib_MDd:NMAtlString.obj
 0002:000125b0       ?Alloc@CNMATLStringBuffer@_CNMString@NS_NMRunParamLib@@QAEPADK@Z 100695b0 f   NMRunParamLib_MDd:NMAtlString.obj
 0002:000126e0       ?GetData@CNMATLStringBuffer@_CNMString@NS_NMRunParamLib@@QBEPADK@Z 100696e0 f   NMRunParamLib_MDd:NMAtlString.obj
 0002:00012760       ??0_CNMString@NS_NMRunParamLib@@QAE@PBD@Z 10069760 f   NMRunParamLib_MDd:NMAtlString.obj
 0002:00012810       ??0_CNMString@NS_NMRunParamLib@@QAE@ABV01@@Z 10069810 f   NMRunParamLib_MDd:NMAtlString.obj
 0002:000128c0       ??1_CNMString@NS_NMRunParamLib@@QAE@XZ 100698c0 f   NMRunParamLib_MDd:NMAtlString.obj
 0002:00012950       ??B_CNMString@NS_NMRunParamLib@@QBEPBDXZ 10069950 f   NMRunParamLib_MDd:NMAtlString.obj
 0002:000129a0       ??4_CNMString@NS_NMRunParamLib@@QAEABV01@ABV01@@Z 100699a0 f   NMRunParamLib_MDd:NMAtlString.obj
 0002:00012a00       ??4_CNMString@NS_NMRunParamLib@@QAEABV01@PBD@Z 10069a00 f   NMRunParamLib_MDd:NMAtlString.obj
 0002:00012a50       ??4_CNMString@NS_NMRunParamLib@@QAEABV01@D@Z 10069a50 f   NMRunParamLib_MDd:NMAtlString.obj
 0002:00012aa0       ??Y_CNMString@NS_NMRunParamLib@@QAEABV01@PBD@Z 10069aa0 f   NMRunParamLib_MDd:NMAtlString.obj
 0002:00012af0       ??Y_CNMString@NS_NMRunParamLib@@QAEABV01@D@Z 10069af0 f   NMRunParamLib_MDd:NMAtlString.obj
 0002:00012b40       ?GetData@_CNMString@NS_NMRunParamLib@@QBEPBDXZ 10069b40 f   NMRunParamLib_MDd:NMAtlString.obj
 0002:00012b90       ?IsEmpty@_CNMString@NS_NMRunParamLib@@QAEHXZ 10069b90 f   NMRunParamLib_MDd:NMAtlString.obj
 0002:00012c10       ?Empty@_CNMString@NS_NMRunParamLib@@QAEXXZ 10069c10 f   NMRunParamLib_MDd:NMAtlString.obj
 0002:00012c70       ?_SetLength@_CNMString@NS_NMRunParamLib@@IAEXH@Z 10069c70 f   NMRunParamLib_MDd:NMAtlString.obj
 0002:00012cc0       ?_SetEOS@_CNMString@NS_NMRunParamLib@@IAEXH@Z 10069cc0 f   NMRunParamLib_MDd:NMAtlString.obj
 0002:00012d30       ?GetLength@_CNMString@NS_NMRunParamLib@@QAEKXZ 10069d30 f   NMRunParamLib_MDd:NMAtlString.obj
 0002:00012dc0       ?SetAt@_CNMString@NS_NMRunParamLib@@QAEXHD@Z 10069dc0 f   NMRunParamLib_MDd:NMAtlString.obj
 0002:00012e20       ?GetBuffer@_CNMString@NS_NMRunParamLib@@QAEPADK@Z 10069e20 f   NMRunParamLib_MDd:NMAtlString.obj
 0002:00012e70       ?ReleaseBuffer@_CNMString@NS_NMRunParamLib@@QAEXXZ 10069e70 f   NMRunParamLib_MDd:NMAtlString.obj
 0002:00012ea0       ?FormatV@_CNMString@NS_NMRunParamLib@@QAEHPBDPAD@Z 10069ea0 f   NMRunParamLib_MDd:NMAtlString.obj
 0002:00012ff0       ?Format@_CNMString@NS_NMRunParamLib@@QAAHPBDZZ 10069ff0 f   NMRunParamLib_MDd:NMAtlString.obj
 0002:00013050       ?AddFormatedStringV@_CNMString@NS_NMRunParamLib@@QAEHPBDPAD@Z 1006a050 f   NMRunParamLib_MDd:NMAtlString.obj
 0002:00013130       ?AddFormatedString@_CNMString@NS_NMRunParamLib@@QAAHPBDZZ 1006a130 f   NMRunParamLib_MDd:NMAtlString.obj
 0002:000131b0       ?Assign@_CNMString@NS_NMRunParamLib@@IAEXPBD@Z 1006a1b0 f   NMRunParamLib_MDd:NMAtlString.obj
 0002:00013220       ?Assign@_CNMString@NS_NMRunParamLib@@IAEXD@Z 1006a220 f   NMRunParamLib_MDd:NMAtlString.obj
 0002:00013290       ?Concat@_CNMString@NS_NMRunParamLib@@IAEXPBD@Z 1006a290 f   NMRunParamLib_MDd:NMAtlString.obj
 0002:00013360       ?Concat@_CNMString@NS_NMRunParamLib@@IAEXD@Z 1006a360 f   NMRunParamLib_MDd:NMAtlString.obj
 0002:00013400       ?Trim@_CNMString@NS_NMRunParamLib@@QAEXD@Z 1006a400 f   NMRunParamLib_MDd:NMAtlString.obj
 0002:00013460       ?TrimLeft@_CNMString@NS_NMRunParamLib@@QAEXD@Z 1006a460 f   NMRunParamLib_MDd:NMAtlString.obj
 0002:00013520       ?TrimRight@_CNMString@NS_NMRunParamLib@@QAEXD@Z 1006a520 f   NMRunParamLib_MDd:NMAtlString.obj
 0002:000135e0       ?RemoveMultiChar@_CNMString@NS_NMRunParamLib@@QAEXD@Z 1006a5e0 f   NMRunParamLib_MDd:NMAtlString.obj
 0002:00013710       ?Remove@_CNMString@NS_NMRunParamLib@@QAEXD@Z 1006a710 f   NMRunParamLib_MDd:NMAtlString.obj
 0002:00013810       ?Remove@_CNMString@NS_NMRunParamLib@@QAEXPBD@Z 1006a810 f   NMRunParamLib_MDd:NMAtlString.obj
 0002:00013a90       ?Find@_CNMString@NS_NMRunParamLib@@QAEHDK@Z 1006aa90 f   NMRunParamLib_MDd:NMAtlString.obj
 0002:00013b50       ?Find@_CNMString@NS_NMRunParamLib@@QAEHPBDK@Z 1006ab50 f   NMRunParamLib_MDd:NMAtlString.obj
 0002:00013c20       ?ReverseFind@_CNMString@NS_NMRunParamLib@@QAEHD@Z 1006ac20 f   NMRunParamLib_MDd:NMAtlString.obj
 0002:00013cd0       ?Left@_CNMString@NS_NMRunParamLib@@QAE?AV12@H@Z 1006acd0 f   NMRunParamLib_MDd:NMAtlString.obj
 0002:00013e20       ?Mid@_CNMString@NS_NMRunParamLib@@QAE?AV12@KK@Z 1006ae20 f   NMRunParamLib_MDd:NMAtlString.obj
 0002:00013fc0       ?Right@_CNMString@NS_NMRunParamLib@@QAE?AV12@H@Z 1006afc0 f   NMRunParamLib_MDd:NMAtlString.obj
 0002:00014090       ??0?$list@KV?$allocator@K@std@@@std@@QAE@ABV?$allocator@K@1@@Z 1006b090 f i NMRunParamLib_MDd:NMAtlString.obj
 0002:00014100       ??1?$list@KV?$allocator@K@std@@@std@@QAE@XZ 1006b100 f i NMRunParamLib_MDd:NMAtlString.obj
 0002:000141a0       ?empty@?$list@KV?$allocator@K@std@@@std@@QBE_NXZ 1006b1a0 f i NMRunParamLib_MDd:NMAtlString.obj
 0002:000141f0       ?front@?$list@KV?$allocator@K@std@@@std@@QAEAAKXZ 1006b1f0 f i NMRunParamLib_MDd:NMAtlString.obj
 0002:00014250       ?pop_front@?$list@KV?$allocator@K@std@@@std@@QAEXXZ 1006b250 f i NMRunParamLib_MDd:NMAtlString.obj
 0002:000142b0       ?push_back@?$list@KV?$allocator@K@std@@@std@@QAEXABK@Z 1006b2b0 f i NMRunParamLib_MDd:NMAtlString.obj
 0002:00014320       ?begin@?$list@KV?$allocator@K@std@@@std@@QAE?AViterator@12@XZ 1006b320 f i NMRunParamLib_MDd:NMAtlString.obj
 0002:00014380       ?end@?$list@KV?$allocator@K@std@@@std@@QAE?AViterator@12@XZ 1006b380 f i NMRunParamLib_MDd:NMAtlString.obj
 0002:000143e0       ?size@?$list@KV?$allocator@K@std@@@std@@QBEIXZ 1006b3e0 f i NMRunParamLib_MDd:NMAtlString.obj
 0002:00014420       ?insert@?$list@KV?$allocator@K@std@@@std@@QAE?AViterator@12@V312@ABK@Z 1006b420 f i NMRunParamLib_MDd:NMAtlString.obj
 0002:00014520       ?erase@?$list@KV?$allocator@K@std@@@std@@QAE?AViterator@12@V312@@Z 1006b520 f i NMRunParamLib_MDd:NMAtlString.obj
 0002:00014630       ?erase@?$list@KV?$allocator@K@std@@@std@@QAE?AViterator@12@V312@0@Z 1006b630 f i NMRunParamLib_MDd:NMAtlString.obj
 0002:000146c0       ?_Buynode@?$list@KV?$allocator@K@std@@@std@@IAEPAU_Node@12@PAU312@0@Z 1006b6c0 f i NMRunParamLib_MDd:NMAtlString.obj
 0002:00014770       ?_Freenode@?$list@KV?$allocator@K@std@@@std@@IAEXPAU_Node@12@@Z 1006b770 f i NMRunParamLib_MDd:NMAtlString.obj
 0002:000147c0       ??Diterator@?$list@KV?$allocator@K@std@@@std@@QBEAAKXZ 1006b7c0 f i NMRunParamLib_MDd:NMAtlString.obj
 0002:00014810       ?_Next@_Acc@?$list@KV?$allocator@K@std@@@std@@SAAAPAU_Node@23@PAU423@@Z 1006b810 f i NMRunParamLib_MDd:NMAtlString.obj
 0002:00014840       ?_Prev@_Acc@?$list@KV?$allocator@K@std@@@std@@SAAAPAU_Node@23@PAU423@@Z 1006b840 f i NMRunParamLib_MDd:NMAtlString.obj
 0002:00014870       ?_Value@_Acc@?$list@KV?$allocator@K@std@@@std@@SAAAKPAU_Node@23@@Z 1006b870 f i NMRunParamLib_MDd:NMAtlString.obj
 0002:000148a0       ?_Charalloc@?$allocator@K@std@@QAEPADI@Z 1006b8a0 f i NMRunParamLib_MDd:NMAtlString.obj
 0002:000148f0       ?deallocate@?$allocator@K@std@@QAEXPAXI@Z 1006b8f0 f i NMRunParamLib_MDd:NMAtlString.obj
 0002:00014940       ?construct@?$allocator@K@std@@QAEXPAKABK@Z 1006b940 f i NMRunParamLib_MDd:NMAtlString.obj
 0002:00014990       ?destroy@?$allocator@K@std@@QAEXPAK@Z 1006b990 f i NMRunParamLib_MDd:NMAtlString.obj
 0002:000149e0       ?_Mynode@const_iterator@?$list@KV?$allocator@K@std@@@std@@QBEPAU_Node@23@XZ 1006b9e0 f i NMRunParamLib_MDd:NMAtlString.obj
 0002:00014a20       ??0iterator@?$list@KV?$allocator@K@std@@@std@@QAE@PAU_Node@12@@Z 1006ba20 f i NMRunParamLib_MDd:NMAtlString.obj
 0002:00014a70       ??Eiterator@?$list@KV?$allocator@K@std@@@std@@QAE?AV012@H@Z 1006ba70 f i NMRunParamLib_MDd:NMAtlString.obj
 0002:00014ad0       ??9iterator@?$list@KV?$allocator@K@std@@@std@@QBE_NABV012@@Z 1006bad0 f i NMRunParamLib_MDd:NMAtlString.obj
 0002:00014b30       ??0const_iterator@?$list@KV?$allocator@K@std@@@std@@QAE@PAU_Node@12@@Z 1006bb30 f i NMRunParamLib_MDd:NMAtlString.obj
 0002:00014b70       ??Eiterator@?$list@KV?$allocator@K@std@@@std@@QAEAAV012@XZ 1006bb70 f i NMRunParamLib_MDd:NMAtlString.obj
 0002:00014bd0       ??8iterator@?$list@KV?$allocator@K@std@@@std@@QBE_NABV012@@Z 1006bbd0 f i NMRunParamLib_MDd:NMAtlString.obj
 0002:00014c20       ?_Allocate@std@@YAPADHPAD@Z 1006bc20 f i NMRunParamLib_MDd:NMAtlString.obj
 0002:00014c80       ?_Construct@std@@YAXPAKABK@Z 1006bc80 f i NMRunParamLib_MDd:NMAtlString.obj
 0002:00014cf0       ?_Destroy@std@@YAXPAK@Z    1006bcf0 f i NMRunParamLib_MDd:NMAtlString.obj
 0002:00014d20       ?ConvertRunparamRetCode2String@@YAPBDK@Z 1006bd20 f   NMRunParamLib_MDd:NMRunParamModuleLib_ErrCodeString.obj
 0002:0001d220       ?_AfxInitManaged@@YAHXZ    10074220 f i dllmain.obj
 0002:0001d250       _ExtRawDllMain@12          10074250 f   dllmain.obj
 0002:0001d2f0       ??$AtlAdd@H@ATL@@YAJPAHHH@Z 100742f0 f i dllmain.obj
 0002:0001d370       ??$AtlAdd@I@ATL@@YAJPAIII@Z 10074370 f i dllmain.obj
 0002:0001d3e0       ??$AtlAdd@K@ATL@@YAJPAKKK@Z 100743e0 f i dllmain.obj
 0002:0001d450       ??$AtlAlignUp@H@ATL@@YGHHK@Z 10074450 f i dllmain.obj
 0002:0001d4a0       ??$AtlMultiply@I@ATL@@YAJPAIII@Z 100744a0 f i dllmain.obj
 0002:0001d520       ??$AtlMultiply@K@ATL@@YAJPAKKK@Z 10074520 f i dllmain.obj
 0002:0001d5a0       ??0?$CHeapPtr@DVCCRTAllocator@ATL@@@ATL@@QAE@XZ 100745a0 f i dllmain.obj
 0002:0001d600       ??0?$CHeapPtr@GVCCRTAllocator@ATL@@@ATL@@QAE@XZ 10074600 f i dllmain.obj
 0002:0001d660       ??0?$CHeapPtrBase@DVCCRTAllocator@ATL@@@ATL@@IAE@XZ 10074660 f i dllmain.obj
 0002:0001d6b0       ??0?$CHeapPtrBase@GVCCRTAllocator@ATL@@@ATL@@IAE@XZ 100746b0 f i dllmain.obj
 0002:0001d700       ??0?$CSimpleArray@GV?$CSimpleArrayEqualHelper@G@ATL@@@ATL@@QAE@XZ 10074700 f i dllmain.obj
 0002:0001d760       ??0?$CTraceCategoryEx@$00$0A@@ATL@@QAE@PBD@Z 10074760 f i dllmain.obj
 0002:0001d7c0       ??0?$CTraceCategoryEx@$01$0A@@ATL@@QAE@PBD@Z 100747c0 f i dllmain.obj
 0002:0001d820       ??0?$CTraceCategoryEx@$03$0A@@ATL@@QAE@PBD@Z 10074820 f i dllmain.obj
 0002:0001d880       ??0?$CTraceCategoryEx@$07$0A@@ATL@@QAE@PBD@Z 10074880 f i dllmain.obj
 0002:0001d8e0       ??0?$CTraceCategoryEx@$0BA@$0A@@ATL@@QAE@PBD@Z 100748e0 f i dllmain.obj
 0002:0001d940       ??0?$CTraceCategoryEx@$0BAA@$0A@@ATL@@QAE@PBD@Z 10074940 f i dllmain.obj
 0002:0001d9a0       ??0?$CTraceCategoryEx@$0BAAA@$0A@@ATL@@QAE@PBD@Z 100749a0 f i dllmain.obj
 0002:0001da00       ??0?$CTraceCategoryEx@$0BAAAA@$0A@@ATL@@QAE@PBD@Z 10074a00 f i dllmain.obj
 0002:0001da60       ??0?$CTraceCategoryEx@$0BAAAAA@$0A@@ATL@@QAE@PBD@Z 10074a60 f i dllmain.obj
 0002:0001dac0       ??0?$CTraceCategoryEx@$0CA@$0A@@ATL@@QAE@PBD@Z 10074ac0 f i dllmain.obj
 0002:0001db20       ??0?$CTraceCategoryEx@$0CAA@$0A@@ATL@@QAE@PBD@Z 10074b20 f i dllmain.obj
 0002:0001db80       ??0?$CTraceCategoryEx@$0CAAA@$0A@@ATL@@QAE@PBD@Z 10074b80 f i dllmain.obj
 0002:0001dbe0       ??0?$CTraceCategoryEx@$0CAAAA@$0A@@ATL@@QAE@PBD@Z 10074be0 f i dllmain.obj
 0002:0001dc40       ??0?$CTraceCategoryEx@$0CAAAAA@$0A@@ATL@@QAE@PBD@Z 10074c40 f i dllmain.obj
 0002:0001dca0       ??0?$CTraceCategoryEx@$0EA@$0A@@ATL@@QAE@PBD@Z 10074ca0 f i dllmain.obj
 0002:0001dd00       ??0?$CTraceCategoryEx@$0EAA@$0A@@ATL@@QAE@PBD@Z 10074d00 f i dllmain.obj
 0002:0001dd60       ??0?$CTraceCategoryEx@$0EAAA@$0A@@ATL@@QAE@PBD@Z 10074d60 f i dllmain.obj
 0002:0001ddc0       ??0?$CTraceCategoryEx@$0EAAAA@$0A@@ATL@@QAE@PBD@Z 10074dc0 f i dllmain.obj
 0002:0001de20       ??0?$CTraceCategoryEx@$0EAAAAA@$0A@@ATL@@QAE@PBD@Z 10074e20 f i dllmain.obj
 0002:0001de80       ??0?$CTraceCategoryEx@$0IA@$0A@@ATL@@QAE@PBD@Z 10074e80 f i dllmain.obj
 0002:0001dee0       ??0?$CTraceCategoryEx@$0IAA@$0A@@ATL@@QAE@PBD@Z 10074ee0 f i dllmain.obj
 0002:0001df40       ??0?$CTraceCategoryEx@$0IAAA@$0A@@ATL@@QAE@PBD@Z 10074f40 f i dllmain.obj
 0002:0001dfa0       ??0?$CTraceCategoryEx@$0IAAAA@$0A@@ATL@@QAE@PBD@Z 10074fa0 f i dllmain.obj
 0002:0001e000       ??0CAtlComModule@ATL@@QAE@XZ 10075000 f i dllmain.obj
 0002:0001e130       ??0CAtlStringMgr@ATL@@QAE@PAUIAtlMemMgr@1@@Z 10075130 f i dllmain.obj
 0002:0001e1c0       ??0CAtlStringMgrStaticInitializer@ATLImplementationDetails@ATL@@QAE@XZ 100751c0 f i dllmain.obj
 0002:0001e210       ??0CAtlWinModule@ATL@@QAE@XZ 10075210 f i dllmain.obj
 0002:0001e2e0       ??0CComCriticalSection@ATL@@QAE@XZ 100752e0 f i dllmain.obj
 0002:0001e340       ??0CNilStringData@ATL@@QAE@XZ 10075340 f i dllmain.obj
 0002:0001e3e0       ??0CPreserveLastError@ATL@@QAE@XZ 100753e0 f i dllmain.obj
 0002:0001e450       ??0CTraceFileAndLineInfo@ATL@@QAE@PBDH@Z 10075450 f i dllmain.obj
 0002:0001e4a0       ??0CWin32Heap@ATL@@QAE@PAX@Z 100754a0 f i dllmain.obj
 0002:0001e550       ??0_ATL_COM_MODULE70@ATL@@QAE@XZ 10075550 f i dllmain.obj
 0002:0001e5b0       ??0_ATL_WIN_MODULE70@ATL@@QAE@XZ 100755b0 f i dllmain.obj
 0002:0001e660       ??1?$CHeapPtr@DVCCRTAllocator@ATL@@@ATL@@QAE@XZ 10075660 f i dllmain.obj
 0002:0001e6b0       ??1?$CHeapPtr@GVCCRTAllocator@ATL@@@ATL@@QAE@XZ 100756b0 f i dllmain.obj
 0002:0001e700       ??1?$CHeapPtrBase@DVCCRTAllocator@ATL@@@ATL@@QAE@XZ 10075700 f i dllmain.obj
 0002:0001e750       ??1?$CHeapPtrBase@GVCCRTAllocator@ATL@@@ATL@@QAE@XZ 10075750 f i dllmain.obj
 0002:0001e7a0       ??1?$CSimpleArray@GV?$CSimpleArrayEqualHelper@G@ATL@@@ATL@@QAE@XZ 100757a0 f i dllmain.obj
 0002:0001e830       ??1CAtlComModule@ATL@@QAE@XZ 10075830 f i dllmain.obj
 0002:0001e8c0       ??1CAtlStringMgr@ATL@@UAE@XZ 100758c0 f i dllmain.obj
 0002:0001e900       ??1CAtlWinModule@ATL@@QAE@XZ 10075900 f i dllmain.obj
 0002:0001e990       ??1CComCriticalSection@ATL@@QAE@XZ 10075990 f i dllmain.obj
 0002:0001e9d0       ??1CPreserveLastError@ATL@@QAE@XZ 100759d0 f i dllmain.obj
 0002:0001ea30       ??1CWin32Heap@ATL@@UAE@XZ  10075a30 f i dllmain.obj
 0002:0001eb00       ??1_ATL_COM_MODULE70@ATL@@QAE@XZ 10075b00 f i dllmain.obj
 0002:0001eb60       ??1_ATL_WIN_MODULE70@ATL@@QAE@XZ 10075b60 f i dllmain.obj
 0002:0001ebc0       ??A?$CSimpleArray@GV?$CSimpleArrayEqualHelper@G@ATL@@@ATL@@QAEAAGH@Z 10075bc0 f i dllmain.obj
 0002:0001ec90       ??B?$CHeapPtrBase@DVCCRTAllocator@ATL@@@ATL@@QBEPADXZ 10075c90 f i dllmain.obj
 0002:0001ecd0       ??B?$CHeapPtrBase@GVCCRTAllocator@ATL@@@ATL@@QBEPAGXZ 10075cd0 f i dllmain.obj
 0002:0001ed10       ??B?$CTraceCategoryEx@$00$0A@@ATL@@QAEIXZ 10075d10 f i dllmain.obj
 0002:0001ed50       ??B?$CTraceCategoryEx@$01$0A@@ATL@@QAEIXZ 10075d50 f i dllmain.obj
 0002:0001ed90       ??B?$CTraceCategoryEx@$0CA@$0A@@ATL@@QAEIXZ 10075d90 f i dllmain.obj
 0002:0001edd0       ??B?$CTypedSimpleList@PAUCRuntimeClass@@@@QAEPAUCRuntimeClass@@XZ 10075dd0 f i dllmain.obj
 0002:0001ee20       ??B?$CTypedSimpleList@PAVCOleObjectFactory@@@@QAEPAVCOleObjectFactory@@XZ 10075e20 f i dllmain.obj
 0002:0001ee70       ??RCTraceFileAndLineInfo@ATL@@QBAXHIPBDZZ 10075e70 f i dllmain.obj
 0002:0001ef80       ??RCTraceFileAndLineInfo@ATL@@QBAXPBDZZ 10075f80 f i dllmain.obj
 0002:0001f0a0       ??_ECAtlStringMgr@ATL@@UAEPAXI@Z 100760a0 f i dllmain.obj
 0002:0001f0a0       ??_GCAtlStringMgr@ATL@@UAEPAXI@Z 100760a0 f i dllmain.obj
 0002:0001f110       ??_GCWin32Heap@ATL@@UAEPAXI@Z 10076110 f i dllmain.obj
 0002:0001f110       ??_ECWin32Heap@ATL@@UAEPAXI@Z 10076110 f i dllmain.obj
 0002:0001f180       ??_H@YGXPAXIIP6EPAX0@Z@Z   10076180 f i dllmain.obj
 0002:0001f230       ?AddRef@CStringData@ATL@@QAEXXZ 10076230 f i dllmain.obj
 0002:0001f2d0       ?Allocate@?$CHeapPtr@DVCCRTAllocator@ATL@@@ATL@@QAE_NI@Z 100762d0 f i dllmain.obj
 0002:0001f390       ?Allocate@?$CHeapPtr@GVCCRTAllocator@ATL@@@ATL@@QAE_NI@Z 10076390 f i dllmain.obj
 0002:0001f450       ?Allocate@CAtlStringMgr@ATL@@UAEPAUCStringData@2@HH@Z 10076450 f i dllmain.obj
 0002:0001f660       ?GetString@Data_t@_bstr_t@@QBEPBDXZ 10076660 f i ShellMan.obj
 0002:0001f6e0       ?Allocate@CCRTAllocator@ATL@@SAPAXI@Z 100766e0 f i dllmain.obj
 0002:0001f740       ?Allocate@CWin32Heap@ATL@@UAEPAXI@Z 10076740 f i dllmain.obj
 0002:0001f7b0       ?AllocateBytes@?$CHeapPtrBase@DVCCRTAllocator@ATL@@@ATL@@QAE_NI@Z 100767b0 f i dllmain.obj
 0002:0001f870       ?AllocateBytes@?$CHeapPtrBase@GVCCRTAllocator@ATL@@@ATL@@QAE_NI@Z 10076870 f i dllmain.obj
 0002:0001f930       ?AtlWinModuleInit@ATL@@YGJPAU_ATL_WIN_MODULE70@1@@Z 10076930 f i dllmain.obj
 0002:0001fa50       ?AtlWinModuleTerm@ATL@@YGJPAU_ATL_WIN_MODULE70@1@PAUHINSTANCE__@@@Z 10076a50 f i dllmain.obj
 0002:0001fb50       ?Clone@CAtlStringMgr@ATL@@UAEPAUIAtlStringMgr@2@XZ 10076b50 f i dllmain.obj
 0002:0001fb90       ?Free@?$CHeapPtrBase@DVCCRTAllocator@ATL@@@ATL@@QAEXXZ 10076b90 f i dllmain.obj
 0002:0001fc00       ?Free@?$CHeapPtrBase@GVCCRTAllocator@ATL@@@ATL@@QAEXXZ 10076c00 f i dllmain.obj
 0002:0001fc70       ?Free@CAtlStringMgr@ATL@@UAEXPAUCStringData@2@@Z 10076c70 f i dllmain.obj
 0002:0001fd70       ?Free@CCRTAllocator@ATL@@SAXPAX@Z 10076d70 f i dllmain.obj
 0002:0001fdd0       ?Free@CWin32Heap@ATL@@UAEXPAX@Z 10076dd0 f i dllmain.obj
 0002:0001fe90       ?GetCategoryName@CTrace@ATL@@CAPAGI@Z 10076e90 f i dllmain.obj
 0002:0001ff10       ?GetHead@CSimpleList@@QBEPAXXZ 10076f10 f i dllmain.obj
 0002:0001ff50       ?GetInstance@CAtlStringMgr@ATL@@SAPAUIAtlStringMgr@2@XZ 10076f50 f i dllmain.obj
 0002:00020090       ?GetModuleInstance@CAtlBaseModule@ATL@@QAEPAUHINSTANCE__@@XZ 10077090 f i dllmain.obj
 0002:000200d0       ?GetNilString@CAtlStringMgr@ATL@@UAEPAUCStringData@2@XZ 100770d0 f i dllmain.obj
 0002:00020130       ?GetSize@?$CSimpleArray@GV?$CSimpleArrayEqualHelper@G@ATL@@@ATL@@QBEHXZ 10077130 f i dllmain.obj
 0002:00020170       ?GetSize@CWin32Heap@ATL@@UAEIPAX@Z 10077170 f i dllmain.obj
 0002:000201e0       ?Init@CComCriticalSection@ATL@@QAEJXZ 100771e0 f i dllmain.obj
 0002:00020270       ?Reallocate@CAtlStringMgr@ATL@@UAEPAUCStringData@2@PAU32@HH@Z 10077270 f i dllmain.obj
 0002:000204a0       ?_AddRef@?$_com_ptr_t@V?$_com_IIID@UIWebBrowser2@@$1?_GUID_d30c1661_cdaf_11d0_8a3e_00c04fc9e26e@@3U__s_GUID@@B@@@@AAEXXZ 100774a0 f i ShellMan.obj
 0002:00020520       ?Reallocate@CWin32Heap@ATL@@UAEPAXPAXI@Z 10077520 f i dllmain.obj
 0002:000205f0       ?RegisterCategory@CTrace@ATL@@SAXPBDI@Z 100775f0 f i dllmain.obj
 0002:00020730       ?strstr@@YAPADQADQBD@Z     10077730 f i ShellMan.obj
 0002:00020780       ?RemoveAll@?$CSimpleArray@GV?$CSimpleArrayEqualHelper@G@ATL@@@ATL@@QAEXXZ 10077780 f i dllmain.obj
 0002:00020840       ?SetManager@CNilStringData@ATL@@QAEXPAUIAtlStringMgr@2@@Z 10077840 f i dllmain.obj
 0002:000208e0       ?Term@CAtlComModule@ATL@@QAEXXZ 100778e0 f i dllmain.obj
 0002:000209f0       ?Term@CAtlWinModule@ATL@@QAEXXZ 100779f0 f i dllmain.obj
 0002:00020a50       ?Term@CComCriticalSection@ATL@@QAEJXZ 10077a50 f i dllmain.obj
 0002:00020ab0       ?TraceV@CTrace@ATL@@CAXPBDHIIPBG@Z 10077ab0 f i dllmain.obj
 0002:00020d50       ?_Free@Data_t@_bstr_t@@AAEXXZ 10077d50 f i ShellMan.obj
 0002:00020df0       ?TraceV@CTrace@ATL@@SAXPBDHII0PAD@Z 10077df0 f i dllmain.obj
 0002:000210a0       ?_AtlInitializeCriticalSectionEx@ATL@@YAHPAU_RTL_CRITICAL_SECTION@@KK@Z 100780a0 f i dllmain.obj
 0002:00021100       ?_AtlRaiseException@ATL@@YAXKK@Z 10078100 f i dllmain.obj
 0002:00021160       ?__empty_global_delete@@YAXPAX@Z 10078160 f i dllmain.obj
 0002:00021190       ?__empty_global_delete@@YAXPAXI@Z 10078190 f i dllmain.obj
 0002:000211c0       _DllMain@12                100781c0 f   dllmain.obj
 0002:00021330       _HRESULT_FROM_WIN32        10078330 f i dllmain.obj
 0002:000213a0       ___local_stdio_printf_options 100783a0 f i dllmain.obj
 0002:000213e0       __vscprintf                100783e0 f i dllmain.obj
 0002:00021440       __vscprintf_l              10078440 f i dllmain.obj
 0002:000214f0       __vsnprintf_s              100784f0 f i dllmain.obj
 0002:00021560       __vsnprintf_s_l            10078560 f i dllmain.obj
 0002:00021610       __vswprintf_s_l            10078610 f i dllmain.obj
 0002:000216c0       _swprintf_s                100786c0 f i dllmain.obj
 0002:00021740       ?NMInitFilter@UTIL@NMBASE@@YA?AW4BADFILTER_ERROR@@PAD@Z 10078740 f   BadFilter.obj
 0002:00021790       ?NMInitFilterW@UTIL@NMBASE@@YA?AW4BADFILTER_ERROR@@PAG@Z 10078790 f   BadFilter.obj
 0002:000217e0       ?NMIsBad@UTIL@NMBASE@@YAHPAD@Z 100787e0 f   BadFilter.obj
 0002:00021830       ?NMIsBadToRep@UTIL@NMBASE@@YAHPAD0KD@Z 10078830 f   BadFilter.obj
 0002:00021890       ?NMIsBadToRepW@UTIL@NMBASE@@YAHPAG0KG@Z 10078890 f   BadFilter.obj
 0002:000218f0       ?NMIsBadW@UTIL@NMBASE@@YAHPAG@Z 100788f0 f   BadFilter.obj
 0002:00021940       ?NMIsFilterEnable@UTIL@NMBASE@@YAHXZ 10078940 f   BadFilter.obj
 0002:00021990       ?NMSetFilterDllPath@UTIL@NMBASE@@YAXPAD@Z 10078990 f   BadFilter.obj
 0002:000219e0       ?NMSetFilterDllPathW@UTIL@NMBASE@@YAXPAG@Z 100789e0 f   BadFilter.obj
 0002:00021a30       ?NMSetFilterEnable@UTIL@NMBASE@@YAXH@Z 10078a30 f   BadFilter.obj
 0002:00021a80       ?NMSetFilterFile@UTIL@NMBASE@@YAXPAD@Z 10078a80 f   BadFilter.obj
 0002:00021ad0       ?NMSetFilterFileW@UTIL@NMBASE@@YAXPAG@Z 10078ad0 f   BadFilter.obj
 0002:00021b20       ?NMSetFilterLevel@UTIL@NMBASE@@YAXH@Z 10078b20 f   BadFilter.obj
 0002:00021b70       ??$?0$$V@?$_Compressed_pair@V?$allocator@D@std@@V?$_String_val@U?$_Simple_types@D@std@@@2@$00@std@@QAE@U_Zero_then_variadic_args_t@1@@Z 10078b70 f i BugSplatWrapper.obj
 0002:00021bd0       ??$?0$$V@?$_Compressed_pair@V?$allocator@U?$_List_node@V?$CStringT@DV?$StrTraitMFC_DLL@DV?$ChTraitsCRT@D@ATL@@@@@ATL@@PAX@std@@@std@@V?$_List_val@U?$_List_simple_types@V?$CStringT@DV?$StrTraitMFC_DLL@DV?$ChTraitsCRT@D@ATL@@@@@ATL@@@std@@@2@$00@std@@QAE@U_Zero_then_variadic_args_t@1@@Z 10078bd0 f i BugSplatWrapper.obj
 0002:00021c30       ??$?0D@?$allocator@U_Container_proxy@std@@@std@@QAE@ABV?$allocator@D@1@@Z 10078c30 f i BugSplatWrapper.obj
 0002:00021c70       ??$?0U?$_List_node@V?$CStringT@DV?$StrTraitMFC_DLL@DV?$ChTraitsCRT@D@ATL@@@@@ATL@@PAX@std@@@?$allocator@U_Container_proxy@std@@@std@@QAE@ABV?$allocator@U?$_List_node@V?$CStringT@DV?$StrTraitMFC_DLL@DV?$ChTraitsCRT@D@ATL@@@@@ATL@@PAX@std@@@1@@Z 10078c70 f i BugSplatWrapper.obj
 0002:00021cb0       ??$?0V?$allocator@U?$_List_node@V?$CStringT@DV?$StrTraitMFC_DLL@DV?$ChTraitsCRT@D@ATL@@@@@ATL@@PAX@std@@@std@@$$V@?$_Compressed_pair@V?$allocator@U?$_List_node@V?$CStringT@DV?$StrTraitMFC_DLL@DV?$ChTraitsCRT@D@ATL@@@@@ATL@@PAX@std@@@std@@V?$_List_val@U?$_List_simple_types@V?$CStringT@DV?$StrTraitMFC_DLL@DV?$ChTraitsCRT@D@ATL@@@@@ATL@@@std@@@2@$00@std@@QAE@U_One_then_variadic_args_t@1@$$QAV?$allocator@U?$_List_node@V?$CStringT@DV?$StrTraitMFC_DLL@DV?$ChTraitsCRT@D@ATL@@@@@ATL@@PAX@std@@@1@@Z 10078cb0 f i BugSplatWrapper.obj
 0002:00021d20       ??$?0V?$allocator@U?$_List_node@V?$CStringT@DV?$StrTraitMFC_DLL@DV?$ChTraitsCRT@D@ATL@@@@@ATL@@PAX@std@@@std@@X@?$_List_alloc@U?$_List_base_types@V?$CStringT@DV?$StrTraitMFC_DLL@DV?$ChTraitsCRT@D@ATL@@@@@ATL@@V?$allocator@V?$CStringT@DV?$StrTraitMFC_DLL@DV?$ChTraitsCRT@D@ATL@@@@@ATL@@@std@@@std@@@std@@QAE@$$QAV?$allocator@U?$_List_node@V?$CStringT@DV?$StrTraitMFC_DLL@DV?$ChTraitsCRT@D@ATL@@@@@ATL@@PAX@std@@@1@@Z 10078d20 f i BugSplatWrapper.obj
 0002:00021e40       ??$?0V?$allocator@U?$_List_node@V?$CStringT@DV?$StrTraitMFC_DLL@DV?$ChTraitsCRT@D@ATL@@@@@ATL@@PAX@std@@@std@@X@?$_List_buy@V?$CStringT@DV?$StrTraitMFC_DLL@DV?$ChTraitsCRT@D@ATL@@@@@ATL@@V?$allocator@V?$CStringT@DV?$StrTraitMFC_DLL@DV?$ChTraitsCRT@D@ATL@@@@@ATL@@@std@@@std@@QAE@$$QAV?$allocator@U?$_List_node@V?$CStringT@DV?$StrTraitMFC_DLL@DV?$ChTraitsCRT@D@ATL@@@@@ATL@@PAX@std@@@1@@Z 10078e40 f i BugSplatWrapper.obj
 0002:00021eb0       ??$?9U?$_List_node@V?$CStringT@DV?$StrTraitMFC_DLL@DV?$ChTraitsCRT@D@ATL@@@@@ATL@@PAX@std@@U01@@std@@YA_NABV?$allocator@U?$_List_node@V?$CStringT@DV?$StrTraitMFC_DLL@DV?$ChTraitsCRT@D@ATL@@@@@ATL@@PAX@std@@@0@0@Z 10078eb0 f i BugSplatWrapper.obj
 0002:00021ee0       ??$_Adl_verify_range1@V?$_List_const_iterator@V?$_List_val@U?$_List_simple_types@V?$CStringT@DV?$StrTraitMFC_DLL@DV?$ChTraitsCRT@D@ATL@@@@@ATL@@@std@@@std@@@std@@V12@@std@@YAXABV?$_List_const_iterator@V?$_List_val@U?$_List_simple_types@V?$CStringT@DV?$StrTraitMFC_DLL@DV?$ChTraitsCRT@D@ATL@@@@@ATL@@@std@@@std@@@0@0U?$integral_constant@_N$00@0@@Z 10078ee0 f i BugSplatWrapper.obj
 0002:00021f40       ??$_Adl_verify_range@V?$_List_const_iterator@V?$_List_val@U?$_List_simple_types@V?$CStringT@DV?$StrTraitMFC_DLL@DV?$ChTraitsCRT@D@ATL@@@@@ATL@@@std@@@std@@@std@@V12@@std@@YAXABV?$_List_const_iterator@V?$_List_val@U?$_List_simple_types@V?$CStringT@DV?$StrTraitMFC_DLL@DV?$ChTraitsCRT@D@ATL@@@@@ATL@@@std@@@std@@@0@0@Z 10078f40 f i BugSplatWrapper.obj
 0002:00021fb0       ??$_Allocate@$07U_Default_allocate_traits@std@@$0A@@std@@YAPAXI@Z 10078fb0 f i BugSplatWrapper.obj
 0002:00022030       ??$_Allocate_manually_vector_aligned@U_Default_allocate_traits@std@@@std@@YAPAXI@Z 10079030 f i BugSplatWrapper.obj
 0002:00022160       ??$_Buynode@ABV?$CStringT@DV?$StrTraitMFC_DLL@DV?$ChTraitsCRT@D@ATL@@@@@ATL@@@?$_List_buy@V?$CStringT@DV?$StrTraitMFC_DLL@DV?$ChTraitsCRT@D@ATL@@@@@ATL@@V?$allocator@V?$CStringT@DV?$StrTraitMFC_DLL@DV?$ChTraitsCRT@D@ATL@@@@@ATL@@@std@@@std@@QAEPAU?$_List_node@V?$CStringT@DV?$StrTraitMFC_DLL@DV?$ChTraitsCRT@D@ATL@@@@@ATL@@PAX@1@PAU21@0ABV?$CStringT@DV?$StrTraitMFC_DLL@DV?$ChTraitsCRT@D@ATL@@@@@ATL@@@Z 10079160 f i BugSplatWrapper.obj
 0002:00022280       ??$_Convert_size@I@std@@YAII@Z 10079280 f i BugSplatWrapper.obj
 0002:000222c0       ??$_Deallocate@$07$0A@@std@@YAXPAXI@Z 100792c0 f i BugSplatWrapper.obj
 0002:00022340       ??$_Deallocate_plain@V?$allocator@U_Container_proxy@std@@@std@@$0A@@std@@YAXAAV?$allocator@U_Container_proxy@std@@@0@QAU_Container_proxy@0@@Z 10079340 f i BugSplatWrapper.obj
 0002:000223a0       ??$_Freenode0@V?$allocator@U?$_List_node@V?$CStringT@DV?$StrTraitMFC_DLL@DV?$ChTraitsCRT@D@ATL@@@@@ATL@@PAX@std@@@std@@@?$_List_node@V?$CStringT@DV?$StrTraitMFC_DLL@DV?$ChTraitsCRT@D@ATL@@@@@ATL@@PAX@std@@SAXAAV?$allocator@U?$_List_node@V?$CStringT@DV?$StrTraitMFC_DLL@DV?$ChTraitsCRT@D@ATL@@@@@ATL@@PAX@std@@@1@PAU01@@Z 100793a0 f i BugSplatWrapper.obj
 0002:000224b0       ??$_Get_size_of_n@$00@std@@YAII@Z 100794b0 f i BugSplatWrapper.obj
 0002:000224f0       ??$_Get_size_of_n@$07@std@@YAII@Z 100794f0 f i BugSplatWrapper.obj
 0002:00022550       ??$_Get_size_of_n@$0M@@std@@YAII@Z 10079550 f i BugSplatWrapper.obj
 0002:000225b0       ??$_Get_unwrapped@V?$_List_const_iterator@V?$_List_val@U?$_List_simple_types@V?$CStringT@DV?$StrTraitMFC_DLL@DV?$ChTraitsCRT@D@ATL@@@@@ATL@@@std@@@std@@@std@@$0A@@std@@YA@ABV?$_List_const_iterator@V?$_List_val@U?$_List_simple_types@V?$CStringT@DV?$StrTraitMFC_DLL@DV?$ChTraitsCRT@D@ATL@@@@@ATL@@@std@@@std@@@0@@Z 100795b0 f i BugSplatWrapper.obj
 0002:00022610       ??$_Insert@ABV?$CStringT@DV?$StrTraitMFC_DLL@DV?$ChTraitsCRT@D@ATL@@@@@ATL@@@?$list@V?$CStringT@DV?$StrTraitMFC_DLL@DV?$ChTraitsCRT@D@ATL@@@@@ATL@@V?$allocator@V?$CStringT@DV?$StrTraitMFC_DLL@DV?$ChTraitsCRT@D@ATL@@@@@ATL@@@std@@@std@@QAEXV?$_List_unchecked_const_iterator@V?$_List_val@U?$_List_simple_types@V?$CStringT@DV?$StrTraitMFC_DLL@DV?$ChTraitsCRT@D@ATL@@@@@ATL@@@std@@@std@@U_Iterator_base0@2@@1@ABV?$CStringT@DV?$StrTraitMFC_DLL@DV?$ChTraitsCRT@D@ATL@@@@@ATL@@@Z 10079610 f i BugSplatWrapper.obj
 0002:000226c0       ??$_Insert_range@V?$_List_const_iterator@V?$_List_val@U?$_List_simple_types@V?$CStringT@DV?$StrTraitMFC_DLL@DV?$ChTraitsCRT@D@ATL@@@@@ATL@@@std@@@std@@@std@@@?$list@V?$CStringT@DV?$StrTraitMFC_DLL@DV?$ChTraitsCRT@D@ATL@@@@@ATL@@V?$allocator@V?$CStringT@DV?$StrTraitMFC_DLL@DV?$ChTraitsCRT@D@ATL@@@@@ATL@@@std@@@std@@QAEXV?$_List_unchecked_const_iterator@V?$_List_val@U?$_List_simple_types@V?$CStringT@DV?$StrTraitMFC_DLL@DV?$ChTraitsCRT@D@ATL@@@@@ATL@@@std@@@std@@U_Iterator_base0@2@@1@V?$_List_const_iterator@V?$_List_val@U?$_List_simple_types@V?$CStringT@DV?$StrTraitMFC_DLL@DV?$ChTraitsCRT@D@ATL@@@@@ATL@@@std@@@std@@@1@1Uforward_iterator_tag@1@@Z 100796c0 f i BugSplatWrapper.obj
 0002:00022910       ??$_Max_value@I@std@@YAABIABI0@Z 10079910 f i BugSplatWrapper.obj
 0002:00022980       ??$_Min_value@I@std@@YAABIABI0@Z 10079980 f i BugSplatWrapper.obj
 0002:000229f0       ??$_Pocca@V?$allocator@U?$_List_node@V?$CStringT@DV?$StrTraitMFC_DLL@DV?$ChTraitsCRT@D@ATL@@@@@ATL@@PAX@std@@@std@@@std@@YAXAAV?$allocator@U?$_List_node@V?$CStringT@DV?$StrTraitMFC_DLL@DV?$ChTraitsCRT@D@ATL@@@@@ATL@@PAX@std@@@0@ABV10@@Z 100799f0 f i BugSplatWrapper.obj
 0002:00022a80       ??$_Pocca@V?$allocator@U?$_List_node@V?$CStringT@DV?$StrTraitMFC_DLL@DV?$ChTraitsCRT@D@ATL@@@@@ATL@@PAX@std@@@std@@@std@@YAXAAV?$allocator@U?$_List_node@V?$CStringT@DV?$StrTraitMFC_DLL@DV?$ChTraitsCRT@D@ATL@@@@@ATL@@PAX@std@@@0@ABV10@U?$integral_constant@_N$0A@@0@@Z 10079a80 f i BugSplatWrapper.obj
 0002:00022ab0       ??$_Pocma@V?$allocator@U?$_List_node@V?$CStringT@DV?$StrTraitMFC_DLL@DV?$ChTraitsCRT@D@ATL@@@@@ATL@@PAX@std@@@std@@@std@@YAXAAV?$allocator@U?$_List_node@V?$CStringT@DV?$StrTraitMFC_DLL@DV?$ChTraitsCRT@D@ATL@@@@@ATL@@PAX@std@@@0@0@Z 10079ab0 f i BugSplatWrapper.obj
 0002:00022b40       ??$_Pocma@V?$allocator@U?$_List_node@V?$CStringT@DV?$StrTraitMFC_DLL@DV?$ChTraitsCRT@D@ATL@@@@@ATL@@PAX@std@@@std@@@std@@YAXAAV?$allocator@U?$_List_node@V?$CStringT@DV?$StrTraitMFC_DLL@DV?$ChTraitsCRT@D@ATL@@@@@ATL@@PAX@std@@@0@0U?$integral_constant@_N$00@0@@Z 10079b40 f i BugSplatWrapper.obj
 0002:00022b90       ??$_Reallocate_for@V<lambda_9366063389c5f42a00a5088cf24e69de>@@PBD@?$basic_string@DU?$char_traits@D@std@@V?$allocator@D@2@@std@@QAEAAV01@IV<lambda_9366063389c5f42a00a5088cf24e69de>@@PBD@Z 10079b90 f i BugSplatWrapper.obj
 0002:00022d20       ??$_Reusenode@ABV?$CStringT@DV?$StrTraitMFC_DLL@DV?$ChTraitsCRT@D@ATL@@@@@ATL@@@?$list@V?$CStringT@DV?$StrTraitMFC_DLL@DV?$ChTraitsCRT@D@ATL@@@@@ATL@@V?$allocator@V?$CStringT@DV?$StrTraitMFC_DLL@DV?$ChTraitsCRT@D@ATL@@@@@ATL@@@std@@@std@@QAEXV?$_List_iterator@V?$_List_val@U?$_List_simple_types@V?$CStringT@DV?$StrTraitMFC_DLL@DV?$ChTraitsCRT@D@ATL@@@@@ATL@@@std@@@std@@@1@ABV?$CStringT@DV?$StrTraitMFC_DLL@DV?$ChTraitsCRT@D@ATL@@@@@ATL@@@Z 10079d20 f i BugSplatWrapper.obj
 0002:00022e90       ??$_Swap_adl@PAU?$_List_node@V?$CStringT@DV?$StrTraitMFC_DLL@DV?$ChTraitsCRT@D@ATL@@@@@ATL@@PAX@std@@@std@@YAXAAPAU?$_List_node@V?$CStringT@DV?$StrTraitMFC_DLL@DV?$ChTraitsCRT@D@ATL@@@@@ATL@@PAX@0@0@Z 10079e90 f i BugSplatWrapper.obj
 0002:00022ef0       ??$_Unfancy@D@std@@YAPADPAD@Z 10079ef0 f i BugSplatWrapper.obj
 0002:00022f30       ??$_Unfancy@U_Container_proxy@std@@@std@@YAPAU_Container_proxy@0@PAU10@@Z 10079f30 f i BugSplatWrapper.obj
 0002:00022f70       ??$addressof@$$CBV?$_List_val@U?$_List_simple_types@V?$CStringT@DV?$StrTraitMFC_DLL@DV?$ChTraitsCRT@D@ATL@@@@@ATL@@@std@@@std@@@std@@YAPBV?$_List_val@U?$_List_simple_types@V?$CStringT@DV?$StrTraitMFC_DLL@DV?$ChTraitsCRT@D@ATL@@@@@ATL@@@std@@@0@ABV10@@Z 10079f70 f i BugSplatWrapper.obj
 0002:00022fb0       ??$addressof@$$CBV?$list@V?$CStringT@DV?$StrTraitMFC_DLL@DV?$ChTraitsCRT@D@ATL@@@@@ATL@@V?$allocator@V?$CStringT@DV?$StrTraitMFC_DLL@DV?$ChTraitsCRT@D@ATL@@@@@ATL@@@std@@@std@@@std@@YAPBV?$list@V?$CStringT@DV?$StrTraitMFC_DLL@DV?$ChTraitsCRT@D@ATL@@@@@ATL@@V?$allocator@V?$CStringT@DV?$StrTraitMFC_DLL@DV?$ChTraitsCRT@D@ATL@@@@@ATL@@@std@@@0@ABV10@@Z 10079fb0 f i BugSplatWrapper.obj
 0002:00022ff0       ??$addressof@PAD@std@@YAPAPADAAPAD@Z 10079ff0 f i BugSplatWrapper.obj
 0002:00023030       ??$addressof@PAU?$_List_node@V?$CStringT@DV?$StrTraitMFC_DLL@DV?$ChTraitsCRT@D@ATL@@@@@ATL@@PAX@std@@@std@@YAPAPAU?$_List_node@V?$CStringT@DV?$StrTraitMFC_DLL@DV?$ChTraitsCRT@D@ATL@@@@@ATL@@PAX@0@AAPAU10@@Z 1007a030 f i BugSplatWrapper.obj
 0002:00023070       ??$addressof@V?$CStringT@DV?$StrTraitMFC_DLL@DV?$ChTraitsCRT@D@ATL@@@@@ATL@@@std@@YAPAV?$CStringT@DV?$StrTraitMFC_DLL@DV?$ChTraitsCRT@D@ATL@@@@@ATL@@AAV12@@Z 1007a070 f i BugSplatWrapper.obj
 0002:000230b0       ??$addressof@V?$_List_val@U?$_List_simple_types@V?$CStringT@DV?$StrTraitMFC_DLL@DV?$ChTraitsCRT@D@ATL@@@@@ATL@@@std@@@std@@@std@@YAPAV?$_List_val@U?$_List_simple_types@V?$CStringT@DV?$StrTraitMFC_DLL@DV?$ChTraitsCRT@D@ATL@@@@@ATL@@@std@@@0@AAV10@@Z 1007a0b0 f i BugSplatWrapper.obj
 0002:000230f0       ??$addressof@V?$_String_val@U?$_Simple_types@D@std@@@std@@@std@@YAPAV?$_String_val@U?$_Simple_types@D@std@@@0@AAV10@@Z 1007a0f0 f i BugSplatWrapper.obj
 0002:00023130       ??$addressof@V?$list@V?$CStringT@DV?$StrTraitMFC_DLL@DV?$ChTraitsCRT@D@ATL@@@@@ATL@@V?$allocator@V?$CStringT@DV?$StrTraitMFC_DLL@DV?$ChTraitsCRT@D@ATL@@@@@ATL@@@std@@@std@@@std@@YAPAV?$list@V?$CStringT@DV?$StrTraitMFC_DLL@DV?$ChTraitsCRT@D@ATL@@@@@ATL@@V?$allocator@V?$CStringT@DV?$StrTraitMFC_DLL@DV?$ChTraitsCRT@D@ATL@@@@@ATL@@@std@@@0@AAV10@@Z 1007a130 f i BugSplatWrapper.obj
 0002:00023170       ??$assign@V?$_List_const_iterator@V?$_List_val@U?$_List_simple_types@V?$CStringT@DV?$StrTraitMFC_DLL@DV?$ChTraitsCRT@D@ATL@@@@@ATL@@@std@@@std@@@std@@X@?$list@V?$CStringT@DV?$StrTraitMFC_DLL@DV?$ChTraitsCRT@D@ATL@@@@@ATL@@V?$allocator@V?$CStringT@DV?$StrTraitMFC_DLL@DV?$ChTraitsCRT@D@ATL@@@@@ATL@@@std@@@std@@QAEXV?$_List_const_iterator@V?$_List_val@U?$_List_simple_types@V?$CStringT@DV?$StrTraitMFC_DLL@DV?$ChTraitsCRT@D@ATL@@@@@ATL@@@std@@@std@@@1@0@Z 1007a170 f i BugSplatWrapper.obj
 0002:00023480       ?GetCount@IShellWindows@SHDocVw@@QAEJXZ 1007a480 f i ShellMan.obj
 0002:00023540       ??$construct@PADABQAD@?$_Default_allocator_traits@V?$allocator@D@std@@@std@@SAXAAV?$allocator@D@1@QAPADABQAD@Z 1007a540 f i BugSplatWrapper.obj
 0002:000235c0       ??$construct@PAU?$_List_node@V?$CStringT@DV?$StrTraitMFC_DLL@DV?$ChTraitsCRT@D@ATL@@@@@ATL@@PAX@std@@AAPAU12@@?$_Default_allocator_traits@V?$allocator@U?$_List_node@V?$CStringT@DV?$StrTraitMFC_DLL@DV?$ChTraitsCRT@D@ATL@@@@@ATL@@PAX@std@@@std@@@std@@SAXAAV?$allocator@U?$_List_node@V?$CStringT@DV?$StrTraitMFC_DLL@DV?$ChTraitsCRT@D@ATL@@@@@ATL@@PAX@std@@@1@QAPAU?$_List_node@V?$CStringT@DV?$StrTraitMFC_DLL@DV?$ChTraitsCRT@D@ATL@@@@@ATL@@PAX@1@AAPAU31@@Z 1007a5c0 f i BugSplatWrapper.obj
 0002:00023640       ??$construct@U_Container_proxy@std@@U12@@?$_Default_allocator_traits@V?$allocator@U_Container_proxy@std@@@std@@@std@@SAXAAV?$allocator@U_Container_proxy@std@@@1@QAU_Container_proxy@1@$$QAU31@@Z 1007a640 f i BugSplatWrapper.obj
 0002:000236c0       ??$construct@V?$CStringT@DV?$StrTraitMFC_DLL@DV?$ChTraitsCRT@D@ATL@@@@@ATL@@ABV12@@?$_Default_allocator_traits@V?$allocator@U?$_List_node@V?$CStringT@DV?$StrTraitMFC_DLL@DV?$ChTraitsCRT@D@ATL@@@@@ATL@@PAX@std@@@std@@@std@@SAXAAV?$allocator@U?$_List_node@V?$CStringT@DV?$StrTraitMFC_DLL@DV?$ChTraitsCRT@D@ATL@@@@@ATL@@PAX@std@@@1@QAV?$CStringT@DV?$StrTraitMFC_DLL@DV?$ChTraitsCRT@D@ATL@@@@@ATL@@ABV34@@Z 1007a6c0 f i BugSplatWrapper.obj
 0002:00023750       ??$destroy@PAD@?$_Default_allocator_traits@V?$allocator@D@std@@@std@@SAXAAV?$allocator@D@1@QAPAD@Z 1007a750 f i BugSplatWrapper.obj
 0002:00023780       ??$destroy@PAU?$_List_node@V?$CStringT@DV?$StrTraitMFC_DLL@DV?$ChTraitsCRT@D@ATL@@@@@ATL@@PAX@std@@@?$_Default_allocator_traits@V?$allocator@U?$_List_node@V?$CStringT@DV?$StrTraitMFC_DLL@DV?$ChTraitsCRT@D@ATL@@@@@ATL@@PAX@std@@@std@@@std@@SAXAAV?$allocator@U?$_List_node@V?$CStringT@DV?$StrTraitMFC_DLL@DV?$ChTraitsCRT@D@ATL@@@@@ATL@@PAX@std@@@1@QAPAU?$_List_node@V?$CStringT@DV?$StrTraitMFC_DLL@DV?$ChTraitsCRT@D@ATL@@@@@ATL@@PAX@1@@Z 1007a780 f i BugSplatWrapper.obj
 0002:000237b0       ??$destroy@U_Container_proxy@std@@@?$_Default_allocator_traits@V?$allocator@U_Container_proxy@std@@@std@@@std@@SAXAAV?$allocator@U_Container_proxy@std@@@1@QAU_Container_proxy@1@@Z 1007a7b0 f i BugSplatWrapper.obj
 0002:000237e0       ??$destroy@V?$CStringT@DV?$StrTraitMFC_DLL@DV?$ChTraitsCRT@D@ATL@@@@@ATL@@@?$_Default_allocator_traits@V?$allocator@U?$_List_node@V?$CStringT@DV?$StrTraitMFC_DLL@DV?$ChTraitsCRT@D@ATL@@@@@ATL@@PAX@std@@@std@@@std@@SAXAAV?$allocator@U?$_List_node@V?$CStringT@DV?$StrTraitMFC_DLL@DV?$ChTraitsCRT@D@ATL@@@@@ATL@@PAX@std@@@1@QAV?$CStringT@DV?$StrTraitMFC_DLL@DV?$ChTraitsCRT@D@ATL@@@@@ATL@@@Z 1007a7e0 f i BugSplatWrapper.obj
 0002:00023830       ??$forward@AAPAU?$_List_node@V?$CStringT@DV?$StrTraitMFC_DLL@DV?$ChTraitsCRT@D@ATL@@@@@ATL@@PAX@std@@@std@@YAAAPAU?$_List_node@V?$CStringT@DV?$StrTraitMFC_DLL@DV?$ChTraitsCRT@D@ATL@@@@@ATL@@PAX@0@AAPAU10@@Z 1007a830 f i BugSplatWrapper.obj
 0002:00023870       ??$forward@ABQAD@std@@YAABQADABQAD@Z 1007a870 f i BugSplatWrapper.obj
 0002:000238b0       ??$forward@ABV?$CStringT@DV?$StrTraitMFC_DLL@DV?$ChTraitsCRT@D@ATL@@@@@ATL@@@std@@YAABV?$CStringT@DV?$StrTraitMFC_DLL@DV?$ChTraitsCRT@D@ATL@@@@@ATL@@ABV12@@Z 1007a8b0 f i BugSplatWrapper.obj
 0002:000238f0       ??$forward@U_Container_proxy@std@@@std@@YA$$QAU_Container_proxy@0@AAU10@@Z 1007a8f0 f i BugSplatWrapper.obj
 0002:00023930       ??$forward@V?$allocator@U?$_List_node@V?$CStringT@DV?$StrTraitMFC_DLL@DV?$ChTraitsCRT@D@ATL@@@@@ATL@@PAX@std@@@std@@@std@@YA$$QAV?$allocator@U?$_List_node@V?$CStringT@DV?$StrTraitMFC_DLL@DV?$ChTraitsCRT@D@ATL@@@@@ATL@@PAX@std@@@0@AAV10@@Z 1007a930 f i BugSplatWrapper.obj
 0002:00023970       ??$insert@V?$_List_const_iterator@V?$_List_val@U?$_List_simple_types@V?$CStringT@DV?$StrTraitMFC_DLL@DV?$ChTraitsCRT@D@ATL@@@@@ATL@@@std@@@std@@@std@@X@?$list@V?$CStringT@DV?$StrTraitMFC_DLL@DV?$ChTraitsCRT@D@ATL@@@@@ATL@@V?$allocator@V?$CStringT@DV?$StrTraitMFC_DLL@DV?$ChTraitsCRT@D@ATL@@@@@ATL@@@std@@@std@@QAE?AV?$_List_iterator@V?$_List_val@U?$_List_simple_types@V?$CStringT@DV?$StrTraitMFC_DLL@DV?$ChTraitsCRT@D@ATL@@@@@ATL@@@std@@@std@@@1@V?$_List_const_iterator@V?$_List_val@U?$_List_simple_types@V?$CStringT@DV?$StrTraitMFC_DLL@DV?$ChTraitsCRT@D@ATL@@@@@ATL@@@std@@@std@@@1@00@Z 1007a970 f i BugSplatWrapper.obj
 0002:00023cd0       ??_ECFileMapping@UTIL@NMBASE@@UAEPAXI@Z 1007acd0 f i ShellMan.obj
 0002:00023da0       ??$move@AAI@std@@YA$$QAIAAI@Z 1007ada0 f i BugSplatWrapper.obj
 0002:00023de0       ??$move@AAPAU?$_List_node@V?$CStringT@DV?$StrTraitMFC_DLL@DV?$ChTraitsCRT@D@ATL@@@@@ATL@@PAX@std@@@std@@YA$$QAPAU?$_List_node@V?$CStringT@DV?$StrTraitMFC_DLL@DV?$ChTraitsCRT@D@ATL@@@@@ATL@@PAX@0@AAPAU10@@Z 1007ade0 f i BugSplatWrapper.obj
 0002:00023e20       ??$move@AAV?$allocator@U?$_List_node@V?$CStringT@DV?$StrTraitMFC_DLL@DV?$ChTraitsCRT@D@ATL@@@@@ATL@@PAX@std@@@std@@@std@@YA$$QAV?$allocator@U?$_List_node@V?$CStringT@DV?$StrTraitMFC_DLL@DV?$ChTraitsCRT@D@ATL@@@@@ATL@@PAX@std@@@0@AAV10@@Z 1007ae20 f i BugSplatWrapper.obj
 0002:00023e60       ??$move@AAV?$list@V?$CStringT@DV?$StrTraitMFC_DLL@DV?$ChTraitsCRT@D@ATL@@@@@ATL@@V?$allocator@V?$CStringT@DV?$StrTraitMFC_DLL@DV?$ChTraitsCRT@D@ATL@@@@@ATL@@@std@@@std@@@std@@YA$$QAV?$list@V?$CStringT@DV?$StrTraitMFC_DLL@DV?$ChTraitsCRT@D@ATL@@@@@ATL@@V?$allocator@V?$CStringT@DV?$StrTraitMFC_DLL@DV?$ChTraitsCRT@D@ATL@@@@@ATL@@@std@@@0@AAV10@@Z 1007ae60 f i BugSplatWrapper.obj
 0002:00023ea0       ??$swap@IX@std@@YAXAAI0@Z  1007aea0 f i BugSplatWrapper.obj
 0002:00023f60       ??$swap@PAU?$_List_node@V?$CStringT@DV?$StrTraitMFC_DLL@DV?$ChTraitsCRT@D@ATL@@@@@ATL@@PAX@std@@X@std@@YAXAAPAU?$_List_node@V?$CStringT@DV?$StrTraitMFC_DLL@DV?$ChTraitsCRT@D@ATL@@@@@ATL@@PAX@0@0@Z 1007af60 f i BugSplatWrapper.obj
 0002:00024020       ??0?$_List_alloc@U?$_List_base_types@V?$CStringT@DV?$StrTraitMFC_DLL@DV?$ChTraitsCRT@D@ATL@@@@@ATL@@V?$allocator@V?$CStringT@DV?$StrTraitMFC_DLL@DV?$ChTraitsCRT@D@ATL@@@@@ATL@@@std@@@std@@@std@@QAE@XZ 1007b020 f i BugSplatWrapper.obj
 0002:00024130       ??0?$_List_buy@V?$CStringT@DV?$StrTraitMFC_DLL@DV?$ChTraitsCRT@D@ATL@@@@@ATL@@V?$allocator@V?$CStringT@DV?$StrTraitMFC_DLL@DV?$ChTraitsCRT@D@ATL@@@@@ATL@@@std@@@std@@QAE@XZ 1007b130 f i BugSplatWrapper.obj
 0002:00024190       ??0?$_List_const_iterator@V?$_List_val@U?$_List_simple_types@V?$CStringT@DV?$StrTraitMFC_DLL@DV?$ChTraitsCRT@D@ATL@@@@@ATL@@@std@@@std@@@std@@QAE@$$QAV01@@Z 1007b190 f i BugSplatWrapper.obj
 0002:000241f0       ??0?$_List_const_iterator@V?$_List_val@U?$_List_simple_types@V?$CStringT@DV?$StrTraitMFC_DLL@DV?$ChTraitsCRT@D@ATL@@@@@ATL@@@std@@@std@@@std@@QAE@ABV01@@Z 1007b1f0 f i BugSplatWrapper.obj
 0002:00024250       ??0?$_List_const_iterator@V?$_List_val@U?$_List_simple_types@V?$CStringT@DV?$StrTraitMFC_DLL@DV?$ChTraitsCRT@D@ATL@@@@@ATL@@@std@@@std@@@std@@QAE@PAU?$_List_node@V?$CStringT@DV?$StrTraitMFC_DLL@DV?$ChTraitsCRT@D@ATL@@@@@ATL@@PAX@1@PBV?$_List_val@U?$_List_simple_types@V?$CStringT@DV?$StrTraitMFC_DLL@DV?$ChTraitsCRT@D@ATL@@@@@ATL@@@std@@@1@@Z 1007b250 f i BugSplatWrapper.obj
 0002:000242b0       ??0?$_List_iterator@V?$_List_val@U?$_List_simple_types@V?$CStringT@DV?$StrTraitMFC_DLL@DV?$ChTraitsCRT@D@ATL@@@@@ATL@@@std@@@std@@@std@@QAE@ABV01@@Z 1007b2b0 f i BugSplatWrapper.obj
 0002:00024310       ??0?$_List_iterator@V?$_List_val@U?$_List_simple_types@V?$CStringT@DV?$StrTraitMFC_DLL@DV?$ChTraitsCRT@D@ATL@@@@@ATL@@@std@@@std@@@std@@QAE@PAU?$_List_node@V?$CStringT@DV?$StrTraitMFC_DLL@DV?$ChTraitsCRT@D@ATL@@@@@ATL@@PAX@1@PBV?$_List_val@U?$_List_simple_types@V?$CStringT@DV?$StrTraitMFC_DLL@DV?$ChTraitsCRT@D@ATL@@@@@ATL@@@std@@@1@@Z 1007b310 f i BugSplatWrapper.obj
 0002:00024370       ??0?$_List_unchecked_const_iterator@V?$_List_val@U?$_List_simple_types@V?$CStringT@DV?$StrTraitMFC_DLL@DV?$ChTraitsCRT@D@ATL@@@@@ATL@@@std@@@std@@U_Iterator_base0@2@@std@@QAE@PAU?$_List_node@V?$CStringT@DV?$StrTraitMFC_DLL@DV?$ChTraitsCRT@D@ATL@@@@@ATL@@PAX@1@PBV?$_List_val@U?$_List_simple_types@V?$CStringT@DV?$StrTraitMFC_DLL@DV?$ChTraitsCRT@D@ATL@@@@@ATL@@@std@@@1@@Z 1007b370 f i BugSplatWrapper.obj
 0002:000243e0       ??0?$_List_unchecked_const_iterator@V?$_List_val@U?$_List_simple_types@V?$CStringT@DV?$StrTraitMFC_DLL@DV?$ChTraitsCRT@D@ATL@@@@@ATL@@@std@@@std@@U_Iterator_base12@2@@std@@QAE@$$QAV01@@Z 1007b3e0 f i BugSplatWrapper.obj
 0002:00024450       ??0?$_List_unchecked_const_iterator@V?$_List_val@U?$_List_simple_types@V?$CStringT@DV?$StrTraitMFC_DLL@DV?$ChTraitsCRT@D@ATL@@@@@ATL@@@std@@@std@@U_Iterator_base12@2@@std@@QAE@ABV01@@Z 1007b450 f i BugSplatWrapper.obj
 0002:000244c0       ??0?$_List_unchecked_const_iterator@V?$_List_val@U?$_List_simple_types@V?$CStringT@DV?$StrTraitMFC_DLL@DV?$ChTraitsCRT@D@ATL@@@@@ATL@@@std@@@std@@U_Iterator_base12@2@@std@@QAE@PAU?$_List_node@V?$CStringT@DV?$StrTraitMFC_DLL@DV?$ChTraitsCRT@D@ATL@@@@@ATL@@PAX@1@PBV?$_List_val@U?$_List_simple_types@V?$CStringT@DV?$StrTraitMFC_DLL@DV?$ChTraitsCRT@D@ATL@@@@@ATL@@@std@@@1@@Z 1007b4c0 f i BugSplatWrapper.obj
 0002:00024530       ??0?$_List_unchecked_iterator@V?$_List_val@U?$_List_simple_types@V?$CStringT@DV?$StrTraitMFC_DLL@DV?$ChTraitsCRT@D@ATL@@@@@ATL@@@std@@@std@@@std@@QAE@PAU?$_List_node@V?$CStringT@DV?$StrTraitMFC_DLL@DV?$ChTraitsCRT@D@ATL@@@@@ATL@@PAX@1@PBV?$_List_val@U?$_List_simple_types@V?$CStringT@DV?$StrTraitMFC_DLL@DV?$ChTraitsCRT@D@ATL@@@@@ATL@@@std@@@1@@Z 1007b530 f i BugSplatWrapper.obj
 0002:00024590       ??0?$_List_val@U?$_List_simple_types@V?$CStringT@DV?$StrTraitMFC_DLL@DV?$ChTraitsCRT@D@ATL@@@@@ATL@@@std@@@std@@QAE@XZ 1007b590 f i BugSplatWrapper.obj
 0002:00024600       ??0?$_String_alloc@U?$_String_base_types@DV?$allocator@D@std@@@std@@@std@@QAE@XZ 1007b600 f i BugSplatWrapper.obj
 0002:000246b0       ??0?$_String_val@U?$_Simple_types@D@std@@@std@@QAE@XZ 1007b6b0 f i BugSplatWrapper.obj
 0002:00024730       ??0?$allocator@D@std@@QAE@XZ 1007b730 f i BugSplatWrapper.obj
 0002:00024770       ??0?$allocator@U?$_List_node@V?$CStringT@DV?$StrTraitMFC_DLL@DV?$ChTraitsCRT@D@ATL@@@@@ATL@@PAX@std@@@std@@QAE@XZ 1007b770 f i BugSplatWrapper.obj
 0002:000247b0       ??0?$basic_string@DU?$char_traits@D@std@@V?$allocator@D@2@@std@@QAE@QBD@Z 1007b7b0 f i BugSplatWrapper.obj
 0002:00024870       ??0?$list@V?$CStringT@DV?$StrTraitMFC_DLL@DV?$ChTraitsCRT@D@ATL@@@@@ATL@@V?$allocator@V?$CStringT@DV?$StrTraitMFC_DLL@DV?$ChTraitsCRT@D@ATL@@@@@ATL@@@std@@@std@@QAE@$$QAV01@@Z 1007b870 f i BugSplatWrapper.obj
 0002:00024900       ??0?$list@V?$CStringT@DV?$StrTraitMFC_DLL@DV?$ChTraitsCRT@D@ATL@@@@@ATL@@V?$allocator@V?$CStringT@DV?$StrTraitMFC_DLL@DV?$ChTraitsCRT@D@ATL@@@@@ATL@@@std@@@std@@QAE@ABV01@@Z 1007b900 f i BugSplatWrapper.obj
 0002:00024ab0       ??0?$list@V?$CStringT@DV?$StrTraitMFC_DLL@DV?$ChTraitsCRT@D@ATL@@@@@ATL@@V?$allocator@V?$CStringT@DV?$StrTraitMFC_DLL@DV?$ChTraitsCRT@D@ATL@@@@@ATL@@@std@@@std@@QAE@XZ 1007bab0 f i BugSplatWrapper.obj
 0002:00024b10       ??0BugSplatWrapper@UTIL@NMBASE@@QAE@$$QAV012@@Z 1007bb10 f i BugSplatWrapper.obj
 0002:00024b80       ??0BugSplatWrapper@UTIL@NMBASE@@QAE@ABV012@@Z 1007bb80 f i BugSplatWrapper.obj
 0002:00024bf0       ??0BugSplatWrapper@UTIL@NMBASE@@QAE@XZ 1007bbf0 f i BugSplatWrapper.obj
 0002:00024c50       ??0_Bxty@?$_String_val@U?$_Simple_types@D@std@@@std@@QAE@XZ 1007bc50 f i BugSplatWrapper.obj
 0002:00024c90       ??0_Container_base12@std@@QAE@XZ 1007bc90 f i BugSplatWrapper.obj
 0002:00024ce0       ??0_Container_proxy@std@@QAE@XZ 1007bce0 f i BugSplatWrapper.obj
 0002:00024d30       ??0_Iterator_base12@std@@QAE@ABU01@@Z 1007bd30 f i BugSplatWrapper.obj
 0002:00024db0       ??0_Iterator_base12@std@@QAE@XZ 1007bdb0 f i BugSplatWrapper.obj
 0002:00024e00       ??0locale@std@@QAE@PBDH@Z  1007be00 f i BugSplatWrapper.obj
 0002:00024f10       ??1?$_Compressed_pair@V?$allocator@D@std@@V?$_String_val@U?$_Simple_types@D@std@@@2@$00@std@@QAE@XZ 1007bf10 f i BugSplatWrapper.obj
 0002:00024f60       ??1?$_List_alloc@U?$_List_base_types@V?$CStringT@DV?$StrTraitMFC_DLL@DV?$ChTraitsCRT@D@ATL@@@@@ATL@@V?$allocator@V?$CStringT@DV?$StrTraitMFC_DLL@DV?$ChTraitsCRT@D@ATL@@@@@ATL@@@std@@@std@@@std@@QAE@XZ 1007bf60 f i BugSplatWrapper.obj
 0002:00025000       ??1?$_List_buy@V?$CStringT@DV?$StrTraitMFC_DLL@DV?$ChTraitsCRT@D@ATL@@@@@ATL@@V?$allocator@V?$CStringT@DV?$StrTraitMFC_DLL@DV?$ChTraitsCRT@D@ATL@@@@@ATL@@@std@@@std@@QAE@XZ 1007c000 f i BugSplatWrapper.obj
 0002:00025050       ??1?$_List_const_iterator@V?$_List_val@U?$_List_simple_types@V?$CStringT@DV?$StrTraitMFC_DLL@DV?$ChTraitsCRT@D@ATL@@@@@ATL@@@std@@@std@@@std@@QAE@XZ 1007c050 f i BugSplatWrapper.obj
 0002:000250a0       ??1?$_List_iterator@V?$_List_val@U?$_List_simple_types@V?$CStringT@DV?$StrTraitMFC_DLL@DV?$ChTraitsCRT@D@ATL@@@@@ATL@@@std@@@std@@@std@@QAE@XZ 1007c0a0 f i BugSplatWrapper.obj
 0002:000250f0       ??1?$_List_unchecked_const_iterator@V?$_List_val@U?$_List_simple_types@V?$CStringT@DV?$StrTraitMFC_DLL@DV?$ChTraitsCRT@D@ATL@@@@@ATL@@@std@@@std@@U_Iterator_base12@2@@std@@QAE@XZ 1007c0f0 f i BugSplatWrapper.obj
 0002:00025140       ??1?$_String_alloc@U?$_String_base_types@DV?$allocator@D@std@@@std@@@std@@QAE@XZ 1007c140 f i BugSplatWrapper.obj
 0002:000251d0       ??1?$_String_val@U?$_Simple_types@D@std@@@std@@QAE@XZ 1007c1d0 f i BugSplatWrapper.obj
 0002:00025230       ??1?$basic_string@DU?$char_traits@D@std@@V?$allocator@D@2@@std@@QAE@XZ 1007c230 f i BugSplatWrapper.obj
 0002:000252c0       ??1?$list@V?$CStringT@DV?$StrTraitMFC_DLL@DV?$ChTraitsCRT@D@ATL@@@@@ATL@@V?$allocator@V?$CStringT@DV?$StrTraitMFC_DLL@DV?$ChTraitsCRT@D@ATL@@@@@ATL@@@std@@@std@@QAE@XZ 1007c2c0 f i BugSplatWrapper.obj
 0002:00025350       ??1BugSplatWrapper@UTIL@NMBASE@@QAE@XZ 1007c350 f i BugSplatWrapper.obj
 0002:000253b0       ??1_Bxty@?$_String_val@U?$_Simple_types@D@std@@@std@@QAE@XZ 1007c3b0 f i BugSplatWrapper.obj
 0002:000253f0       ??1_Iterator_base12@std@@QAE@XZ 1007c3f0 f i BugSplatWrapper.obj
 0002:000254e0       ??1locale@std@@QAE@XZ      1007c4e0 f i BugSplatWrapper.obj
 0002:000255f0       ??2@YAPAXIPAX@Z            1007c5f0 f i BugSplatWrapper.obj
 0002:00025630       ??4?$_List_const_iterator@V?$_List_val@U?$_List_simple_types@V?$CStringT@DV?$StrTraitMFC_DLL@DV?$ChTraitsCRT@D@ATL@@@@@ATL@@@std@@@std@@@std@@QAEAAV01@$$QAV01@@Z 1007c630 f i BugSplatWrapper.obj
 0002:00025690       ??4?$_List_unchecked_const_iterator@V?$_List_val@U?$_List_simple_types@V?$CStringT@DV?$StrTraitMFC_DLL@DV?$ChTraitsCRT@D@ATL@@@@@ATL@@@std@@@std@@U_Iterator_base12@2@@std@@QAEAAV01@$$QAV01@@Z 1007c690 f i BugSplatWrapper.obj
 0002:00025700       ??4?$list@V?$CStringT@DV?$StrTraitMFC_DLL@DV?$ChTraitsCRT@D@ATL@@@@@ATL@@V?$allocator@V?$CStringT@DV?$StrTraitMFC_DLL@DV?$ChTraitsCRT@D@ATL@@@@@ATL@@@std@@@std@@QAEAAV01@$$QAV01@@Z 1007c700 f i BugSplatWrapper.obj
 0002:000257f0       ??4?$list@V?$CStringT@DV?$StrTraitMFC_DLL@DV?$ChTraitsCRT@D@ATL@@@@@ATL@@V?$allocator@V?$CStringT@DV?$StrTraitMFC_DLL@DV?$ChTraitsCRT@D@ATL@@@@@ATL@@@std@@@std@@QAEAAV01@ABV01@@Z 1007c7f0 f i BugSplatWrapper.obj
 0002:000258b0       ??4BugSplatWrapper@UTIL@NMBASE@@QAEAAV012@$$QAV012@@Z 1007c8b0 f i BugSplatWrapper.obj
 0002:00025920       ??4BugSplatWrapper@UTIL@NMBASE@@QAEAAV012@ABV012@@Z 1007c920 f i BugSplatWrapper.obj
 0002:00025990       ??4_Iterator_base12@std@@QAEAAU01@ABU01@@Z 1007c990 f i BugSplatWrapper.obj
 0002:00025ab0       ??8?$_List_const_iterator@V?$_List_val@U?$_List_simple_types@V?$CStringT@DV?$StrTraitMFC_DLL@DV?$ChTraitsCRT@D@ATL@@@@@ATL@@@std@@@std@@@std@@QBE_NABV01@@Z 1007cab0 f i BugSplatWrapper.obj
 0002:00025bd0       ??8?$_List_unchecked_const_iterator@V?$_List_val@U?$_List_simple_types@V?$CStringT@DV?$StrTraitMFC_DLL@DV?$ChTraitsCRT@D@ATL@@@@@ATL@@@std@@@std@@U_Iterator_base0@2@@std@@QBE_NABV01@@Z 1007cbd0 f i BugSplatWrapper.obj
 0002:00025c40       ??9?$_List_const_iterator@V?$_List_val@U?$_List_simple_types@V?$CStringT@DV?$StrTraitMFC_DLL@DV?$ChTraitsCRT@D@ATL@@@@@ATL@@@std@@@std@@@std@@QBE_NABV01@@Z 1007cc40 f i BugSplatWrapper.obj
 0002:00025cd0       ??9?$_List_unchecked_const_iterator@V?$_List_val@U?$_List_simple_types@V?$CStringT@DV?$StrTraitMFC_DLL@DV?$ChTraitsCRT@D@ATL@@@@@ATL@@@std@@@std@@U_Iterator_base0@2@@std@@QBE_NABV01@@Z 1007ccd0 f i BugSplatWrapper.obj
 0002:00025d60       ??D?$_List_const_iterator@V?$_List_val@U?$_List_simple_types@V?$CStringT@DV?$StrTraitMFC_DLL@DV?$ChTraitsCRT@D@ATL@@@@@ATL@@@std@@@std@@@std@@QBEABV?$CStringT@DV?$StrTraitMFC_DLL@DV?$ChTraitsCRT@D@ATL@@@@@ATL@@XZ 1007cd60 f i BugSplatWrapper.obj
 0002:00025ed0       ??D?$_List_unchecked_const_iterator@V?$_List_val@U?$_List_simple_types@V?$CStringT@DV?$StrTraitMFC_DLL@DV?$ChTraitsCRT@D@ATL@@@@@ATL@@@std@@@std@@U_Iterator_base0@2@@std@@QBEABV?$CStringT@DV?$StrTraitMFC_DLL@DV?$ChTraitsCRT@D@ATL@@@@@ATL@@XZ 1007ced0 f i BugSplatWrapper.obj
 0002:00025f10       ??E?$_List_const_iterator@V?$_List_val@U?$_List_simple_types@V?$CStringT@DV?$StrTraitMFC_DLL@DV?$ChTraitsCRT@D@ATL@@@@@ATL@@@std@@@std@@@std@@QAE?AV01@H@Z 1007cf10 f i BugSplatWrapper.obj
 0002:00026030       ??E?$_List_const_iterator@V?$_List_val@U?$_List_simple_types@V?$CStringT@DV?$StrTraitMFC_DLL@DV?$ChTraitsCRT@D@ATL@@@@@ATL@@@std@@@std@@@std@@QAEAAV01@XZ 1007d030 f i BugSplatWrapper.obj
 0002:000261b0       ??E?$_List_iterator@V?$_List_val@U?$_List_simple_types@V?$CStringT@DV?$StrTraitMFC_DLL@DV?$ChTraitsCRT@D@ATL@@@@@ATL@@@std@@@std@@@std@@QAEAAV01@XZ 1007d1b0 f i BugSplatWrapper.obj
 0002:00026210       ??E?$_List_unchecked_const_iterator@V?$_List_val@U?$_List_simple_types@V?$CStringT@DV?$StrTraitMFC_DLL@DV?$ChTraitsCRT@D@ATL@@@@@ATL@@@std@@@std@@U_Iterator_base0@2@@std@@QAEAAV01@XZ 1007d210 f i BugSplatWrapper.obj
 0002:00026260       ??F?$_List_const_iterator@V?$_List_val@U?$_List_simple_types@V?$CStringT@DV?$StrTraitMFC_DLL@DV?$ChTraitsCRT@D@ATL@@@@@ATL@@@std@@@std@@@std@@QAEAAV01@XZ 1007d260 f i BugSplatWrapper.obj
 0002:000263e0       ??F?$_List_iterator@V?$_List_val@U?$_List_simple_types@V?$CStringT@DV?$StrTraitMFC_DLL@DV?$ChTraitsCRT@D@ATL@@@@@ATL@@@std@@@std@@@std@@QAEAAV01@XZ 1007d3e0 f i BugSplatWrapper.obj
 0002:00026440       ??F?$_List_unchecked_const_iterator@V?$_List_val@U?$_List_simple_types@V?$CStringT@DV?$StrTraitMFC_DLL@DV?$ChTraitsCRT@D@ATL@@@@@ATL@@@std@@@std@@U_Iterator_base0@2@@std@@QAEAAV01@XZ 1007d440 f i BugSplatWrapper.obj
 0002:00026490       ??R<lambda_9366063389c5f42a00a5088cf24e69de>@@QBEXQADIQBD@Z 1007d490 f i BugSplatWrapper.obj
 0002:00026520       ??_G?$CStringT@DV?$StrTraitMFC_DLL@DV?$ChTraitsCRT@D@ATL@@@@@ATL@@QAEPAXI@Z 1007d520 f i BugSplatWrapper.obj
 0002:000265a0       ??_GMiniDmpSender@@UAEPAXI@Z 1007d5a0 f i BugSplatWrapper.obj
 0002:000265a0       ??_EMiniDmpSender@@UAEPAXI@Z 1007d5a0 f i BugSplatWrapper.obj
 0002:00026620       ?AddMemLog@BugSplatWrapper@UTIL@NMBASE@@QAEXV?$CStringT@DV?$StrTraitMFC_DLL@DV?$ChTraitsCRT@D@ATL@@@@@ATL@@@Z 1007d620 f   BugSplatWrapper.obj
 0002:000266e0       ?ClearMemLog@BugSplatWrapper@UTIL@NMBASE@@QAEXXZ 1007d6e0 f   BugSplatWrapper.obj
 0002:00026740       ?ConvMultiByteToUnicode@BugSplatWrapper@UTIL@NMBASE@@SAPAGPAD@Z 1007d740 f   BugSplatWrapper.obj
 0002:000268f0       ?ConvUnicodeToMultiByte@BugSplatWrapper@UTIL@NMBASE@@SAPADPAG@Z 1007d8f0 f   BugSplatWrapper.obj
 0002:00026a80       ?GetInstance@BugSplatWrapper@UTIL@NMBASE@@SAAAV123@XZ 1007da80 f   BugSplatWrapper.obj
 0002:00026b80       ?Init@BugSplatWrapper@UTIL@NMBASE@@QAEXPAD00@Z 1007db80 f   BugSplatWrapper.obj
 0002:00026dd0       ?SendAdditionFile@BugSplatWrapper@UTIL@NMBASE@@QAEXPB_W@Z 1007ddd0 f   BugSplatWrapper.obj
 0002:00026e40       ?SetCallBack@BugSplatWrapper@UTIL@NMBASE@@QAEXXZ 1007de40 f   BugSplatWrapper.obj
 0002:00026e80       ?_Adjust_manually_vector_aligned@std@@YAXAAPAXAAI@Z 1007de80 f i BugSplatWrapper.obj
 0002:00027040       ?_Adopt@_Iterator_base0@std@@QAEXPBX@Z 1007e040 f i BugSplatWrapper.obj
 0002:00027080       ?_Adopt@_Iterator_base12@std@@QAEXPBU_Container_base12@2@@Z 1007e080 f i BugSplatWrapper.obj
 0002:00027210       ?_Alloc_proxy@?$_List_alloc@U?$_List_base_types@V?$CStringT@DV?$StrTraitMFC_DLL@DV?$ChTraitsCRT@D@ATL@@@@@ATL@@V?$allocator@V?$CStringT@DV?$StrTraitMFC_DLL@DV?$ChTraitsCRT@D@ATL@@@@@ATL@@@std@@@std@@@std@@QAEXXZ 1007e210 f i BugSplatWrapper.obj
 0002:00027330       ?_Alloc_proxy@?$_String_alloc@U?$_String_base_types@DV?$allocator@D@std@@@std@@@std@@QAEXXZ 1007e330 f i BugSplatWrapper.obj
 0002:00027450       ?_Allocate@_Default_allocate_traits@std@@SAPAXI@Z 1007e450 f i BugSplatWrapper.obj
 0002:000274a0       ?_Assign_rv@?$list@V?$CStringT@DV?$StrTraitMFC_DLL@DV?$ChTraitsCRT@D@ATL@@@@@ATL@@V?$allocator@V?$CStringT@DV?$StrTraitMFC_DLL@DV?$ChTraitsCRT@D@ATL@@@@@ATL@@@std@@@std@@QAEX$$QAV12@U?$integral_constant@_N$00@2@@Z 1007e4a0 f i BugSplatWrapper.obj
 0002:00027570       ?_Badname@locale@std@@AAE_NABV_Locinfo@2@@Z 1007e570 f i BugSplatWrapper.obj
 0002:00027610       ?_Buyheadnode@?$_List_alloc@U?$_List_base_types@V?$CStringT@DV?$StrTraitMFC_DLL@DV?$ChTraitsCRT@D@ATL@@@@@ATL@@V?$allocator@V?$CStringT@DV?$StrTraitMFC_DLL@DV?$ChTraitsCRT@D@ATL@@@@@ATL@@@std@@@std@@@std@@QAEPAU?$_List_node@V?$CStringT@DV?$StrTraitMFC_DLL@DV?$ChTraitsCRT@D@ATL@@@@@ATL@@PAX@2@XZ 1007e610 f i BugSplatWrapper.obj
 0002:00027670       ?_Buynode0@?$_List_alloc@U?$_List_base_types@V?$CStringT@DV?$StrTraitMFC_DLL@DV?$ChTraitsCRT@D@ATL@@@@@ATL@@V?$allocator@V?$CStringT@DV?$StrTraitMFC_DLL@DV?$ChTraitsCRT@D@ATL@@@@@ATL@@@std@@@std@@@std@@QAEPAU?$_List_node@V?$CStringT@DV?$StrTraitMFC_DLL@DV?$ChTraitsCRT@D@ATL@@@@@ATL@@PAX@2@PAU32@0@Z 1007e670 f i BugSplatWrapper.obj
 0002:000277d0       ?_Calculate_growth@?$basic_string@DU?$char_traits@D@std@@V?$allocator@D@2@@std@@QBEII@Z 1007e7d0 f i BugSplatWrapper.obj
 0002:000278e0       ?_Clrcont@_Iterator_base12@std@@QAEXXZ 1007e8e0 f i BugSplatWrapper.obj
 0002:00027920       ?_Construct@locale@std@@AAEXABV?$basic_string@DU?$char_traits@D@std@@V?$allocator@D@2@@2@H@Z 1007e920 f i BugSplatWrapper.obj
 0002:00027c20       ?_Copy_alloc@?$_List_alloc@U?$_List_base_types@V?$CStringT@DV?$StrTraitMFC_DLL@DV?$ChTraitsCRT@D@ATL@@@@@ATL@@V?$allocator@V?$CStringT@DV?$StrTraitMFC_DLL@DV?$ChTraitsCRT@D@ATL@@@@@ATL@@@std@@@std@@@std@@QAEXABV?$allocator@U?$_List_node@V?$CStringT@DV?$StrTraitMFC_DLL@DV?$ChTraitsCRT@D@ATL@@@@@ATL@@PAX@std@@@2@@Z 1007ec20 f i BugSplatWrapper.obj
 0002:00027ce0       ?_Free_proxy@?$_List_alloc@U?$_List_base_types@V?$CStringT@DV?$StrTraitMFC_DLL@DV?$ChTraitsCRT@D@ATL@@@@@ATL@@V?$allocator@V?$CStringT@DV?$StrTraitMFC_DLL@DV?$ChTraitsCRT@D@ATL@@@@@ATL@@@std@@@std@@@std@@QAEXXZ 1007ece0 f i BugSplatWrapper.obj
 0002:00027de0       ?_Free_proxy@?$_String_alloc@U?$_String_base_types@DV?$allocator@D@std@@@std@@@std@@QAEXXZ 1007ede0 f i BugSplatWrapper.obj
 0002:00027ee0       ?_Freeheadnode@?$_List_alloc@U?$_List_base_types@V?$CStringT@DV?$StrTraitMFC_DLL@DV?$ChTraitsCRT@D@ATL@@@@@ATL@@V?$allocator@V?$CStringT@DV?$StrTraitMFC_DLL@DV?$ChTraitsCRT@D@ATL@@@@@ATL@@@std@@@std@@@std@@QAEXPAU?$_List_node@V?$CStringT@DV?$StrTraitMFC_DLL@DV?$ChTraitsCRT@D@ATL@@@@@ATL@@PAX@2@@Z 1007eee0 f i BugSplatWrapper.obj
 0002:00027f50       ?_Freenode@?$_List_buy@V?$CStringT@DV?$StrTraitMFC_DLL@DV?$ChTraitsCRT@D@ATL@@@@@ATL@@V?$allocator@V?$CStringT@DV?$StrTraitMFC_DLL@DV?$ChTraitsCRT@D@ATL@@@@@ATL@@@std@@@std@@QAEXPAU?$_List_node@V?$CStringT@DV?$StrTraitMFC_DLL@DV?$ChTraitsCRT@D@ATL@@@@@ATL@@PAX@2@@Z 1007ef50 f i BugSplatWrapper.obj
 0002:00027fe0       ?_Get_data@?$_List_alloc@U?$_List_base_types@V?$CStringT@DV?$StrTraitMFC_DLL@DV?$ChTraitsCRT@D@ATL@@@@@ATL@@V?$allocator@V?$CStringT@DV?$StrTraitMFC_DLL@DV?$ChTraitsCRT@D@ATL@@@@@ATL@@@std@@@std@@@std@@QAEAAV?$_List_val@U?$_List_simple_types@V?$CStringT@DV?$StrTraitMFC_DLL@DV?$ChTraitsCRT@D@ATL@@@@@ATL@@@std@@@2@XZ 1007efe0 f i BugSplatWrapper.obj
 0002:00028030       ?_Get_data@?$_List_alloc@U?$_List_base_types@V?$CStringT@DV?$StrTraitMFC_DLL@DV?$ChTraitsCRT@D@ATL@@@@@ATL@@V?$allocator@V?$CStringT@DV?$StrTraitMFC_DLL@DV?$ChTraitsCRT@D@ATL@@@@@ATL@@@std@@@std@@@std@@QBEABV?$_List_val@U?$_List_simple_types@V?$CStringT@DV?$StrTraitMFC_DLL@DV?$ChTraitsCRT@D@ATL@@@@@ATL@@@std@@@2@XZ 1007f030 f i BugSplatWrapper.obj
 0002:00028080       ?_Get_data@?$_String_alloc@U?$_String_base_types@DV?$allocator@D@std@@@std@@@std@@QAEAAV?$_String_val@U?$_Simple_types@D@std@@@2@XZ 1007f080 f i BugSplatWrapper.obj
 0002:000280d0       ?_Get_data@?$_String_alloc@U?$_String_base_types@DV?$allocator@D@std@@@std@@@std@@QBEABV?$_String_val@U?$_Simple_types@D@std@@@2@XZ 1007f0d0 f i BugSplatWrapper.obj
 0002:00028120       ?_Get_first@?$_Compressed_pair@V?$allocator@D@std@@V?$_String_val@U?$_Simple_types@D@std@@@2@$00@std@@QAEAAV?$allocator@D@2@XZ 1007f120 f i BugSplatWrapper.obj
 0002:00028160       ?_Get_first@?$_Compressed_pair@V?$allocator@D@std@@V?$_String_val@U?$_Simple_types@D@std@@@2@$00@std@@QBEABV?$allocator@D@2@XZ 1007f160 f i BugSplatWrapper.obj
 0002:000281a0       ?_Get_first@?$_Compressed_pair@V?$allocator@U?$_List_node@V?$CStringT@DV?$StrTraitMFC_DLL@DV?$ChTraitsCRT@D@ATL@@@@@ATL@@PAX@std@@@std@@V?$_List_val@U?$_List_simple_types@V?$CStringT@DV?$StrTraitMFC_DLL@DV?$ChTraitsCRT@D@ATL@@@@@ATL@@@std@@@2@$00@std@@QAEAAV?$allocator@U?$_List_node@V?$CStringT@DV?$StrTraitMFC_DLL@DV?$ChTraitsCRT@D@ATL@@@@@ATL@@PAX@std@@@2@XZ 1007f1a0 f i BugSplatWrapper.obj
 0002:000281e0       ?_Get_first@?$_Compressed_pair@V?$allocator@U?$_List_node@V?$CStringT@DV?$StrTraitMFC_DLL@DV?$ChTraitsCRT@D@ATL@@@@@ATL@@PAX@std@@@std@@V?$_List_val@U?$_List_simple_types@V?$CStringT@DV?$StrTraitMFC_DLL@DV?$ChTraitsCRT@D@ATL@@@@@ATL@@@std@@@2@$00@std@@QBEABV?$allocator@U?$_List_node@V?$CStringT@DV?$StrTraitMFC_DLL@DV?$ChTraitsCRT@D@ATL@@@@@ATL@@PAX@std@@@2@XZ 1007f1e0 f i BugSplatWrapper.obj
 0002:00028220       ?_Get_second@?$_Compressed_pair@V?$allocator@D@std@@V?$_String_val@U?$_Simple_types@D@std@@@2@$00@std@@QAEAAV?$_String_val@U?$_Simple_types@D@std@@@2@XZ 1007f220 f i BugSplatWrapper.obj
 0002:00028260       ?_Get_second@?$_Compressed_pair@V?$allocator@D@std@@V?$_String_val@U?$_Simple_types@D@std@@@2@$00@std@@QBEABV?$_String_val@U?$_Simple_types@D@std@@@2@XZ 1007f260 f i BugSplatWrapper.obj
 0002:000282a0       ?_Get_second@?$_Compressed_pair@V?$allocator@U?$_List_node@V?$CStringT@DV?$StrTraitMFC_DLL@DV?$ChTraitsCRT@D@ATL@@@@@ATL@@PAX@std@@@std@@V?$_List_val@U?$_List_simple_types@V?$CStringT@DV?$StrTraitMFC_DLL@DV?$ChTraitsCRT@D@ATL@@@@@ATL@@@std@@@2@$00@std@@QAEAAV?$_List_val@U?$_List_simple_types@V?$CStringT@DV?$StrTraitMFC_DLL@DV?$ChTraitsCRT@D@ATL@@@@@ATL@@@std@@@2@XZ 1007f2a0 f i BugSplatWrapper.obj
 0002:000282e0       ?_Get_second@?$_Compressed_pair@V?$allocator@U?$_List_node@V?$CStringT@DV?$StrTraitMFC_DLL@DV?$ChTraitsCRT@D@ATL@@@@@ATL@@PAX@std@@@std@@V?$_List_val@U?$_List_simple_types@V?$CStringT@DV?$StrTraitMFC_DLL@DV?$ChTraitsCRT@D@ATL@@@@@ATL@@@std@@@2@$00@std@@QBEABV?$_List_val@U?$_List_simple_types@V?$CStringT@DV?$StrTraitMFC_DLL@DV?$ChTraitsCRT@D@ATL@@@@@ATL@@@std@@@2@XZ 1007f2e0 f i BugSplatWrapper.obj
 0002:00028320       ?_Getal@?$_List_alloc@U?$_List_base_types@V?$CStringT@DV?$StrTraitMFC_DLL@DV?$ChTraitsCRT@D@ATL@@@@@ATL@@V?$allocator@V?$CStringT@DV?$StrTraitMFC_DLL@DV?$ChTraitsCRT@D@ATL@@@@@ATL@@@std@@@std@@@std@@QAEAAV?$allocator@U?$_List_node@V?$CStringT@DV?$StrTraitMFC_DLL@DV?$ChTraitsCRT@D@ATL@@@@@ATL@@PAX@std@@@2@XZ 1007f320 f i BugSplatWrapper.obj
 0002:00028370       ?_Getal@?$_List_alloc@U?$_List_base_types@V?$CStringT@DV?$StrTraitMFC_DLL@DV?$ChTraitsCRT@D@ATL@@@@@ATL@@V?$allocator@V?$CStringT@DV?$StrTraitMFC_DLL@DV?$ChTraitsCRT@D@ATL@@@@@ATL@@@std@@@std@@@std@@QBEABV?$allocator@U?$_List_node@V?$CStringT@DV?$StrTraitMFC_DLL@DV?$ChTraitsCRT@D@ATL@@@@@ATL@@PAX@std@@@2@XZ 1007f370 f i BugSplatWrapper.obj
 0002:000283c0       ?_Getal@?$_String_alloc@U?$_String_base_types@DV?$allocator@D@std@@@std@@@std@@QAEAAV?$allocator@D@2@XZ 1007f3c0 f i BugSplatWrapper.obj
 0002:00028410       ?_Getal@?$_String_alloc@U?$_String_base_types@DV?$allocator@D@std@@@std@@@std@@QBEABV?$allocator@D@2@XZ 1007f410 f i BugSplatWrapper.obj
 0002:00028460       ?_Getcont@_Iterator_base12@std@@QBEPBU_Container_base12@2@XZ 1007f460 f i BugSplatWrapper.obj
 0002:000284d0       ?_Getpfirst@?$_List_alloc@U?$_List_base_types@V?$CStringT@DV?$StrTraitMFC_DLL@DV?$ChTraitsCRT@D@ATL@@@@@ATL@@V?$allocator@V?$CStringT@DV?$StrTraitMFC_DLL@DV?$ChTraitsCRT@D@ATL@@@@@ATL@@@std@@@std@@@std@@QBEPAPAU_Iterator_base12@2@XZ 1007f4d0 f i BugSplatWrapper.obj
 0002:00028530       ?_Getpfirst@_Container_base12@std@@QBEPAPAU_Iterator_base12@2@XZ 1007f530 f i BugSplatWrapper.obj
 0002:000285a0       ?_Getpnext@_Iterator_base12@std@@QAEPAPAU12@XZ 1007f5a0 f i BugSplatWrapper.obj
 0002:000285e0       ?_Incsize@?$list@V?$CStringT@DV?$StrTraitMFC_DLL@DV?$ChTraitsCRT@D@ATL@@@@@ATL@@V?$allocator@V?$CStringT@DV?$StrTraitMFC_DLL@DV?$ChTraitsCRT@D@ATL@@@@@ATL@@@std@@@std@@QAEXI@Z 1007f5e0 f i BugSplatWrapper.obj
 0002:00028680       ?_Large_string_engaged@?$_String_val@U?$_Simple_types@D@std@@@std@@QBE_NXZ 1007f680 f i BugSplatWrapper.obj
 0002:000286f0       ?_Make_iter@?$list@V?$CStringT@DV?$StrTraitMFC_DLL@DV?$ChTraitsCRT@D@ATL@@@@@ATL@@V?$allocator@V?$CStringT@DV?$StrTraitMFC_DLL@DV?$ChTraitsCRT@D@ATL@@@@@ATL@@@std@@@std@@QBE?AV?$_List_iterator@V?$_List_val@U?$_List_simple_types@V?$CStringT@DV?$StrTraitMFC_DLL@DV?$ChTraitsCRT@D@ATL@@@@@ATL@@@std@@@std@@@2@V?$_List_const_iterator@V?$_List_val@U?$_List_simple_types@V?$CStringT@DV?$StrTraitMFC_DLL@DV?$ChTraitsCRT@D@ATL@@@@@ATL@@@std@@@std@@@2@@Z 1007f6f0 f i BugSplatWrapper.obj
 0002:000287a0       ?_Move_alloc@?$_List_alloc@U?$_List_base_types@V?$CStringT@DV?$StrTraitMFC_DLL@DV?$ChTraitsCRT@D@ATL@@@@@ATL@@V?$allocator@V?$CStringT@DV?$StrTraitMFC_DLL@DV?$ChTraitsCRT@D@ATL@@@@@ATL@@@std@@@std@@@std@@QAEXAAV?$allocator@U?$_List_node@V?$CStringT@DV?$StrTraitMFC_DLL@DV?$ChTraitsCRT@D@ATL@@@@@ATL@@PAX@std@@@2@@Z 1007f7a0 f i BugSplatWrapper.obj
 0002:000288b0       ?_Myhead@?$_List_alloc@U?$_List_base_types@V?$CStringT@DV?$StrTraitMFC_DLL@DV?$ChTraitsCRT@D@ATL@@@@@ATL@@V?$allocator@V?$CStringT@DV?$StrTraitMFC_DLL@DV?$ChTraitsCRT@D@ATL@@@@@ATL@@@std@@@std@@@std@@QAEAAPAU?$_List_node@V?$CStringT@DV?$StrTraitMFC_DLL@DV?$ChTraitsCRT@D@ATL@@@@@ATL@@PAX@2@XZ 1007f8b0 f i BugSplatWrapper.obj
 0002:00028910       ?_Myhead@?$_List_alloc@U?$_List_base_types@V?$CStringT@DV?$StrTraitMFC_DLL@DV?$ChTraitsCRT@D@ATL@@@@@ATL@@V?$allocator@V?$CStringT@DV?$StrTraitMFC_DLL@DV?$ChTraitsCRT@D@ATL@@@@@ATL@@@std@@@std@@@std@@QBEABQAU?$_List_node@V?$CStringT@DV?$StrTraitMFC_DLL@DV?$ChTraitsCRT@D@ATL@@@@@ATL@@PAX@2@XZ 1007f910 f i BugSplatWrapper.obj
 0002:00028970       ?_Myproxy@?$_List_alloc@U?$_List_base_types@V?$CStringT@DV?$StrTraitMFC_DLL@DV?$ChTraitsCRT@D@ATL@@@@@ATL@@V?$allocator@V?$CStringT@DV?$StrTraitMFC_DLL@DV?$ChTraitsCRT@D@ATL@@@@@ATL@@@std@@@std@@@std@@QAEAAPAU_Container_proxy@2@XZ 1007f970 f i BugSplatWrapper.obj
 0002:000289c0       ?_Myproxy@?$_String_alloc@U?$_String_base_types@DV?$allocator@D@std@@@std@@@std@@QAEAAPAU_Container_proxy@2@XZ 1007f9c0 f i BugSplatWrapper.obj
 0002:00028a10       ?_Myptr@?$_String_val@U?$_Simple_types@D@std@@@std@@QAEPADXZ 1007fa10 f i BugSplatWrapper.obj
 0002:00028a90       ?_Myptr@?$_String_val@U?$_Simple_types@D@std@@@std@@QBEPBDXZ 1007fa90 f i BugSplatWrapper.obj
 0002:00028b10       ?_Mysize@?$_List_alloc@U?$_List_base_types@V?$CStringT@DV?$StrTraitMFC_DLL@DV?$ChTraitsCRT@D@ATL@@@@@ATL@@V?$allocator@V?$CStringT@DV?$StrTraitMFC_DLL@DV?$ChTraitsCRT@D@ATL@@@@@ATL@@@std@@@std@@@std@@QAEAAIXZ 1007fb10 f i BugSplatWrapper.obj
 0002:00028b70       ?_Orphan_all@?$_List_alloc@U?$_List_base_types@V?$CStringT@DV?$StrTraitMFC_DLL@DV?$ChTraitsCRT@D@ATL@@@@@ATL@@V?$allocator@V?$CStringT@DV?$StrTraitMFC_DLL@DV?$ChTraitsCRT@D@ATL@@@@@ATL@@@std@@@std@@@std@@QAEXXZ 1007fb70 f i BugSplatWrapper.obj
 0002:00028bd0       ?_Orphan_all@?$_String_alloc@U?$_String_base_types@DV?$allocator@D@std@@@std@@@std@@QAEXXZ 1007fbd0 f i BugSplatWrapper.obj
 0002:00028c30       ?_Orphan_all@_Container_base12@std@@QAEXXZ 1007fc30 f i BugSplatWrapper.obj
 0002:00028d70       ?_Orphan_me@_Iterator_base12@std@@QAEXXZ 1007fd70 f i BugSplatWrapper.obj
 0002:00028ea0       ?_Orphan_ptr@?$list@V?$CStringT@DV?$StrTraitMFC_DLL@DV?$ChTraitsCRT@D@ATL@@@@@ATL@@V?$allocator@V?$CStringT@DV?$StrTraitMFC_DLL@DV?$ChTraitsCRT@D@ATL@@@@@ATL@@@std@@@std@@QAEXPAU?$_List_node@V?$CStringT@DV?$StrTraitMFC_DLL@DV?$ChTraitsCRT@D@ATL@@@@@ATL@@PAX@2@@Z 1007fea0 f i BugSplatWrapper.obj
 0002:00029020       ?_Swap_all@?$_List_alloc@U?$_List_base_types@V?$CStringT@DV?$StrTraitMFC_DLL@DV?$ChTraitsCRT@D@ATL@@@@@ATL@@V?$allocator@V?$CStringT@DV?$StrTraitMFC_DLL@DV?$ChTraitsCRT@D@ATL@@@@@ATL@@@std@@@std@@@std@@QAEXAAV12@@Z 10080020 f i BugSplatWrapper.obj
 0002:00029090       ?_Swap_all@_Container_base12@std@@QAEXAAU12@@Z 10080090 f i BugSplatWrapper.obj
 0002:000291c0       ?_Tidy@?$list@V?$CStringT@DV?$StrTraitMFC_DLL@DV?$ChTraitsCRT@D@ATL@@@@@ATL@@V?$allocator@V?$CStringT@DV?$StrTraitMFC_DLL@DV?$ChTraitsCRT@D@ATL@@@@@ATL@@@std@@@std@@QAEXXZ 100801c0 f i BugSplatWrapper.obj
 0002:00029210       ?_Tidy_deallocate@?$basic_string@DU?$char_traits@D@std@@V?$allocator@D@2@@std@@QAEXXZ 10080210 f i BugSplatWrapper.obj
 0002:00029320       ?_Tidy_init@?$basic_string@DU?$char_traits@D@std@@V?$allocator@D@2@@std@@QAEXXZ 10080320 f i BugSplatWrapper.obj
 0002:000293c0       ?_Unchecked_end@?$list@V?$CStringT@DV?$StrTraitMFC_DLL@DV?$ChTraitsCRT@D@ATL@@@@@ATL@@V?$allocator@V?$CStringT@DV?$StrTraitMFC_DLL@DV?$ChTraitsCRT@D@ATL@@@@@ATL@@@std@@@std@@QAE?AV?$_List_unchecked_iterator@V?$_List_val@U?$_List_simple_types@V?$CStringT@DV?$StrTraitMFC_DLL@DV?$ChTraitsCRT@D@ATL@@@@@ATL@@@std@@@std@@@2@XZ 100803c0 f i BugSplatWrapper.obj
 0002:00029430       ?_Unchecked_erase@?$list@V?$CStringT@DV?$StrTraitMFC_DLL@DV?$ChTraitsCRT@D@ATL@@@@@ATL@@V?$allocator@V?$CStringT@DV?$StrTraitMFC_DLL@DV?$ChTraitsCRT@D@ATL@@@@@ATL@@@std@@@std@@QAEXV?$_List_unchecked_const_iterator@V?$_List_val@U?$_List_simple_types@V?$CStringT@DV?$StrTraitMFC_DLL@DV?$ChTraitsCRT@D@ATL@@@@@ATL@@@std@@@std@@U_Iterator_base0@2@@2@@Z 10080430 f i BugSplatWrapper.obj
 0002:000294e0       ?_Unlinknode@?$list@V?$CStringT@DV?$StrTraitMFC_DLL@DV?$ChTraitsCRT@D@ATL@@@@@ATL@@V?$allocator@V?$CStringT@DV?$StrTraitMFC_DLL@DV?$ChTraitsCRT@D@ATL@@@@@ATL@@@std@@@std@@QAEPAU?$_List_node@V?$CStringT@DV?$StrTraitMFC_DLL@DV?$ChTraitsCRT@D@ATL@@@@@ATL@@PAX@2@V?$_List_const_iterator@V?$_List_val@U?$_List_simple_types@V?$CStringT@DV?$StrTraitMFC_DLL@DV?$ChTraitsCRT@D@ATL@@@@@ATL@@@std@@@std@@@2@@Z 100804e0 f i BugSplatWrapper.obj
 0002:000296a0       ?_Unwrapped@?$_List_const_iterator@V?$_List_val@U?$_List_simple_types@V?$CStringT@DV?$StrTraitMFC_DLL@DV?$ChTraitsCRT@D@ATL@@@@@ATL@@@std@@@std@@@std@@QBE?AV?$_List_unchecked_const_iterator@V?$_List_val@U?$_List_simple_types@V?$CStringT@DV?$StrTraitMFC_DLL@DV?$ChTraitsCRT@D@ATL@@@@@ATL@@@std@@@std@@U_Iterator_base0@2@@2@XZ 100806a0 f i BugSplatWrapper.obj
 0002:00029710       ?_Verify_range@std@@YAXABV?$_List_const_iterator@V?$_List_val@U?$_List_simple_types@V?$CStringT@DV?$StrTraitMFC_DLL@DV?$ChTraitsCRT@D@ATL@@@@@ATL@@@std@@@std@@@1@0@Z 10080710 f i BugSplatWrapper.obj
 0002:000297f0       ?_Xlen@?$basic_string@DU?$char_traits@D@std@@V?$allocator@D@2@@std@@SAXXZ 100807f0 f i BugSplatWrapper.obj
 0002:00029840       ?allocate@?$allocator@D@std@@QAEPADI@Z 10080840 f i BugSplatWrapper.obj
 0002:000298b0       ?allocate@?$allocator@U?$_List_node@V?$CStringT@DV?$StrTraitMFC_DLL@DV?$ChTraitsCRT@D@ATL@@@@@ATL@@PAX@std@@@std@@QAEPAU?$_List_node@V?$CStringT@DV?$StrTraitMFC_DLL@DV?$ChTraitsCRT@D@ATL@@@@@ATL@@PAX@2@I@Z 100808b0 f i BugSplatWrapper.obj
 0002:00029920       ?allocate@?$allocator@U_Container_proxy@std@@@std@@QAEPAU_Container_proxy@2@I@Z 10080920 f i BugSplatWrapper.obj
 0002:00029990       ?assign@?$basic_string@DU?$char_traits@D@std@@V?$allocator@D@2@@std@@QAEAAV12@QBD@Z 10080990 f i BugSplatWrapper.obj
 0002:00029a10       ?assign@?$basic_string@DU?$char_traits@D@std@@V?$allocator@D@2@@std@@QAEAAV12@QBDI@Z 10080a10 f i BugSplatWrapper.obj
 0002:00029b00       ?assign@?$char_traits@D@std@@SAXAADABD@Z 10080b00 f i BugSplatWrapper.obj
 0002:00029b40       ?begin@?$list@V?$CStringT@DV?$StrTraitMFC_DLL@DV?$ChTraitsCRT@D@ATL@@@@@ATL@@V?$allocator@V?$CStringT@DV?$StrTraitMFC_DLL@DV?$ChTraitsCRT@D@ATL@@@@@ATL@@@std@@@std@@QAE?AV?$_List_iterator@V?$_List_val@U?$_List_simple_types@V?$CStringT@DV?$StrTraitMFC_DLL@DV?$ChTraitsCRT@D@ATL@@@@@ATL@@@std@@@std@@@2@XZ 10080b40 f i BugSplatWrapper.obj
 0002:00029bf0       ?begin@?$list@V?$CStringT@DV?$StrTraitMFC_DLL@DV?$ChTraitsCRT@D@ATL@@@@@ATL@@V?$allocator@V?$CStringT@DV?$StrTraitMFC_DLL@DV?$ChTraitsCRT@D@ATL@@@@@ATL@@@std@@@std@@QBE?AV?$_List_const_iterator@V?$_List_val@U?$_List_simple_types@V?$CStringT@DV?$StrTraitMFC_DLL@DV?$ChTraitsCRT@D@ATL@@@@@ATL@@@std@@@std@@@2@XZ 10080bf0 f i BugSplatWrapper.obj
 0002:00029ca0       ?c_str@?$basic_string@DU?$char_traits@D@std@@V?$allocator@D@2@@std@@QBEPBDXZ 10080ca0 f i BugSplatWrapper.obj
 0002:00029d30       ?clear@?$list@V?$CStringT@DV?$StrTraitMFC_DLL@DV?$ChTraitsCRT@D@ATL@@@@@ATL@@V?$allocator@V?$CStringT@DV?$StrTraitMFC_DLL@DV?$ChTraitsCRT@D@ATL@@@@@ATL@@@std@@@std@@QAEXXZ 10080d30 f i BugSplatWrapper.obj
 0002:00029e50       ?copy@?$char_traits@D@std@@SAPADQADQBDI@Z 10080e50 f i BugSplatWrapper.obj
 0002:00029eb0       ?deallocate@?$_Default_allocator_traits@V?$allocator@U?$_List_node@V?$CStringT@DV?$StrTraitMFC_DLL@DV?$ChTraitsCRT@D@ATL@@@@@ATL@@PAX@std@@@std@@@std@@SAXAAV?$allocator@U?$_List_node@V?$CStringT@DV?$StrTraitMFC_DLL@DV?$ChTraitsCRT@D@ATL@@@@@ATL@@PAX@std@@@2@QAU?$_List_node@V?$CStringT@DV?$StrTraitMFC_DLL@DV?$ChTraitsCRT@D@ATL@@@@@ATL@@PAX@2@I@Z 10080eb0 f i BugSplatWrapper.obj
 0002:00029f10       ?deallocate@?$_Default_allocator_traits@V?$allocator@U_Container_proxy@std@@@std@@@std@@SAXAAV?$allocator@U_Container_proxy@std@@@2@QAU_Container_proxy@2@I@Z 10080f10 f i BugSplatWrapper.obj
 0002:00029f70       ?deallocate@?$allocator@D@std@@QAEXQADI@Z 10080f70 f i BugSplatWrapper.obj
 0002:00029fd0       ?deallocate@?$allocator@U?$_List_node@V?$CStringT@DV?$StrTraitMFC_DLL@DV?$ChTraitsCRT@D@ATL@@@@@ATL@@PAX@std@@@std@@QAEXQAU?$_List_node@V?$CStringT@DV?$StrTraitMFC_DLL@DV?$ChTraitsCRT@D@ATL@@@@@ATL@@PAX@2@I@Z 10080fd0 f i BugSplatWrapper.obj
 0002:0002a030       ?end@?$list@V?$CStringT@DV?$StrTraitMFC_DLL@DV?$ChTraitsCRT@D@ATL@@@@@ATL@@V?$allocator@V?$CStringT@DV?$StrTraitMFC_DLL@DV?$ChTraitsCRT@D@ATL@@@@@ATL@@@std@@@std@@QAE?AV?$_List_iterator@V?$_List_val@U?$_List_simple_types@V?$CStringT@DV?$StrTraitMFC_DLL@DV?$ChTraitsCRT@D@ATL@@@@@ATL@@@std@@@std@@@2@XZ 10081030 f i BugSplatWrapper.obj
 0002:0002a0e0       ?end@?$list@V?$CStringT@DV?$StrTraitMFC_DLL@DV?$ChTraitsCRT@D@ATL@@@@@ATL@@V?$allocator@V?$CStringT@DV?$StrTraitMFC_DLL@DV?$ChTraitsCRT@D@ATL@@@@@ATL@@@std@@@std@@QBE?AV?$_List_const_iterator@V?$_List_val@U?$_List_simple_types@V?$CStringT@DV?$StrTraitMFC_DLL@DV?$ChTraitsCRT@D@ATL@@@@@ATL@@@std@@@std@@@2@XZ 100810e0 f i BugSplatWrapper.obj
 0002:0002a190       ?erase@?$list@V?$CStringT@DV?$StrTraitMFC_DLL@DV?$ChTraitsCRT@D@ATL@@@@@ATL@@V?$allocator@V?$CStringT@DV?$StrTraitMFC_DLL@DV?$ChTraitsCRT@D@ATL@@@@@ATL@@@std@@@std@@QAE?AV?$_List_iterator@V?$_List_val@U?$_List_simple_types@V?$CStringT@DV?$StrTraitMFC_DLL@DV?$ChTraitsCRT@D@ATL@@@@@ATL@@@std@@@std@@@2@V?$_List_const_iterator@V?$_List_val@U?$_List_simple_types@V?$CStringT@DV?$StrTraitMFC_DLL@DV?$ChTraitsCRT@D@ATL@@@@@ATL@@@std@@@std@@@2@0@Z 10081190 f i BugSplatWrapper.obj
 0002:0002a430       ?SetCookie@CShellMan@UTIL@NMBASE@@QAEXPBD00@Z 10081430 f   ShellMan.obj
 0002:0002a4e0       ?erase@?$list@V?$CStringT@DV?$StrTraitMFC_DLL@DV?$ChTraitsCRT@D@ATL@@@@@ATL@@V?$allocator@V?$CStringT@DV?$StrTraitMFC_DLL@DV?$ChTraitsCRT@D@ATL@@@@@ATL@@@std@@@std@@QAE?AV?$_List_iterator@V?$_List_val@U?$_List_simple_types@V?$CStringT@DV?$StrTraitMFC_DLL@DV?$ChTraitsCRT@D@ATL@@@@@ATL@@@std@@@std@@@2@V?$_List_const_iterator@V?$_List_val@U?$_List_simple_types@V?$CStringT@DV?$StrTraitMFC_DLL@DV?$ChTraitsCRT@D@ATL@@@@@ATL@@@std@@@std@@@2@@Z 100814e0 f i BugSplatWrapper.obj
 0002:0002a620       ?length@?$char_traits@D@std@@SAIQBD@Z 10081620 f i BugSplatWrapper.obj
 0002:0002a670       ?max@?$numeric_limits@H@std@@SAHXZ 10081670 f i BugSplatWrapper.obj
 0002:0002a6b0       ?max_size@?$_Default_allocator_traits@V?$allocator@D@std@@@std@@SAIABV?$allocator@D@2@@Z 100816b0 f i BugSplatWrapper.obj
 0002:0002a6f0       ?max_size@?$_Default_allocator_traits@V?$allocator@U?$_List_node@V?$CStringT@DV?$StrTraitMFC_DLL@DV?$ChTraitsCRT@D@ATL@@@@@ATL@@PAX@std@@@std@@@std@@SAIABV?$allocator@U?$_List_node@V?$CStringT@DV?$StrTraitMFC_DLL@DV?$ChTraitsCRT@D@ATL@@@@@ATL@@PAX@std@@@2@@Z 100816f0 f i BugSplatWrapper.obj
 0002:0002a730       ?max_size@?$basic_string@DU?$char_traits@D@std@@V?$allocator@D@2@@std@@QBEIXZ 10081730 f i BugSplatWrapper.obj
 0002:0002a840       ?max_size@?$list@V?$CStringT@DV?$StrTraitMFC_DLL@DV?$ChTraitsCRT@D@ATL@@@@@ATL@@V?$allocator@V?$CStringT@DV?$StrTraitMFC_DLL@DV?$ChTraitsCRT@D@ATL@@@@@ATL@@@std@@@std@@QBEIXZ 10081840 f i BugSplatWrapper.obj
 0002:0002a8a0       ?move@?$char_traits@D@std@@SAPADQADQBDI@Z 100818a0 f i BugSplatWrapper.obj
 0002:0002a900       ?push_back@?$list@V?$CStringT@DV?$StrTraitMFC_DLL@DV?$ChTraitsCRT@D@ATL@@@@@ATL@@V?$allocator@V?$CStringT@DV?$StrTraitMFC_DLL@DV?$ChTraitsCRT@D@ATL@@@@@ATL@@@std@@@std@@QAEXABV?$CStringT@DV?$StrTraitMFC_DLL@DV?$ChTraitsCRT@D@ATL@@@@@ATL@@@Z 10081900 f i BugSplatWrapper.obj
 0002:0002a980       ?select_on_container_copy_construction@?$_Default_allocator_traits@V?$allocator@U?$_List_node@V?$CStringT@DV?$StrTraitMFC_DLL@DV?$ChTraitsCRT@D@ATL@@@@@ATL@@PAX@std@@@std@@@std@@SA?AV?$allocator@U?$_List_node@V?$CStringT@DV?$StrTraitMFC_DLL@DV?$ChTraitsCRT@D@ATL@@@@@ATL@@PAX@std@@@2@ABV32@@Z 10081980 f i BugSplatWrapper.obj
 0002:0002a9c0       ??$?0$$V@?$_Compressed_pair@V?$allocator@U?$_Tree_node@U?$pair@$$CBV?$basic_string@DU?$char_traits@D@std@@V?$allocator@D@2@@std@@VCDATA@CDataManager@UTIL@NMBASE@@@std@@PAX@std@@@std@@V?$_Tree_val@U?$_Tree_simple_types@U?$pair@$$CBV?$basic_string@DU?$char_traits@D@std@@V?$allocator@D@2@@std@@VCDATA@CDataManager@UTIL@NMBASE@@@std@@@std@@@2@$00@std@@QAE@U_Zero_then_variadic_args_t@1@@Z 100819c0 f i DataManager.obj
 0002:0002aa20       ??$?0AAV?$_Tree_iterator@V?$_Tree_val@U?$_Tree_simple_types@U?$pair@$$CBV?$basic_string@DU?$char_traits@D@std@@V?$allocator@D@2@@std@@VCDATA@CDataManager@UTIL@NMBASE@@@std@@@std@@@std@@@std@@_N$0A@@?$pair@V?$_Tree_iterator@V?$_Tree_val@U?$_Tree_simple_types@U?$pair@$$CBV?$basic_string@DU?$char_traits@D@std@@V?$allocator@D@2@@std@@VCDATA@CDataManager@UTIL@NMBASE@@@std@@@std@@@std@@@std@@_N@std@@QAE@AAV?$_Tree_iterator@V?$_Tree_val@U?$_Tree_simple_types@U?$pair@$$CBV?$basic_string@DU?$char_traits@D@std@@V?$allocator@D@2@@std@@VCDATA@CDataManager@UTIL@NMBASE@@@std@@@std@@@std@@@1@$$QA_N@Z 10081a20 f i DataManager.obj
 0002:0002aaa0       ??$?0ABU?$less@V?$basic_string@DU?$char_traits@D@std@@V?$allocator@D@2@@std@@@std@@U_One_then_variadic_args_t@1@V?$allocator@U?$_Tree_node@U?$pair@$$CBV?$basic_string@DU?$char_traits@D@std@@V?$allocator@D@2@@std@@VCDATA@CDataManager@UTIL@NMBASE@@@std@@PAX@std@@@1@@?$_Compressed_pair@U?$less@V?$basic_string@DU?$char_traits@D@std@@V?$allocator@D@2@@std@@@std@@V?$_Compressed_pair@V?$allocator@U?$_Tree_node@U?$pair@$$CBV?$basic_string@DU?$char_traits@D@std@@V?$allocator@D@2@@std@@VCDATA@CDataManager@UTIL@NMBASE@@@std@@PAX@std@@@std@@V?$_Tree_val@U?$_Tree_simple_types@U?$pair@$$CBV?$basic_string@DU?$char_traits@D@std@@V?$allocator@D@2@@std@@VCDATA@CDataManager@UTIL@NMBASE@@@std@@@std@@@2@$00@2@$00@std@@QAE@U_One_then_variadic_args_t@1@ABU?$less@V?$basic_string@DU?$char_traits@D@std@@V?$allocator@D@2@@std@@@1@$$QAU21@$$QAV?$allocator@U?$_Tree_node@U?$pair@$$CBV?$basic_string@DU?$char_traits@D@std@@V?$allocator@D@2@@std@@VCDATA@CDataManager@UTIL@NMBASE@@@std@@PAX@std@@@1@@Z 10081aa0 f i DataManager.obj
 0002:0002ab30       ??$?0ABU?$less@V?$basic_string@DU?$char_traits@D@std@@V?$allocator@D@2@@std@@@std@@U_Zero_then_variadic_args_t@1@@?$_Compressed_pair@U?$less@V?$basic_string@DU?$char_traits@D@std@@V?$allocator@D@2@@std@@@std@@V?$_Compressed_pair@V?$allocator@U?$_Tree_node@U?$pair@$$CBV?$basic_string@DU?$char_traits@D@std@@V?$allocator@D@2@@std@@VCDATA@CDataManager@UTIL@NMBASE@@@std@@PAX@std@@@std@@V?$_Tree_val@U?$_Tree_simple_types@U?$pair@$$CBV?$basic_string@DU?$char_traits@D@std@@V?$allocator@D@2@@std@@VCDATA@CDataManager@UTIL@NMBASE@@@std@@@std@@@2@$00@2@$00@std@@QAE@U_One_then_variadic_args_t@1@ABU?$less@V?$basic_string@DU?$char_traits@D@std@@V?$allocator@D@2@@std@@@1@$$QAU_Zero_then_variadic_args_t@1@@Z 10081b30 f i DataManager.obj
 0002:0002abb0       ??$?0ABV?$basic_string@DU?$char_traits@D@std@@V?$allocator@D@2@@std@@$$Z$$V@?$pair@$$CBV?$basic_string@DU?$char_traits@D@std@@V?$allocator@D@2@@std@@VCDATA@CDataManager@UTIL@NMBASE@@@std@@QAE@Upiecewise_construct_t@1@V?$tuple@ABV?$basic_string@DU?$char_traits@D@std@@V?$allocator@D@2@@std@@@1@V?$tuple@$$V@1@@Z 10081bb0 f i DataManager.obj
 0002:0002ac30       ??$?0ABV?$basic_string@DU?$char_traits@D@std@@V?$allocator@D@2@@std@@$0A@@?$tuple@ABV?$basic_string@DU?$char_traits@D@std@@V?$allocator@D@2@@std@@@std@@QAE@ABV?$basic_string@DU?$char_traits@D@std@@V?$allocator@D@2@@1@@Z 10081c30 f i DataManager.obj
 0002:0002ace0       ??$?0ABV?$basic_string@DU?$char_traits@D@std@@V?$allocator@D@2@@std@@@?$_Tuple_val@ABV?$basic_string@DU?$char_traits@D@std@@V?$allocator@D@2@@std@@@std@@QAE@ABV?$basic_string@DU?$char_traits@D@std@@V?$allocator@D@2@@1@@Z 10081ce0 f i DataManager.obj
 0002:0002ad40       ??$?0U?$_Tree_node@U?$pair@$$CBV?$basic_string@DU?$char_traits@D@std@@V?$allocator@D@2@@std@@VCDATA@CDataManager@UTIL@NMBASE@@@std@@PAX@std@@@?$allocator@U_Container_proxy@std@@@std@@QAE@ABV?$allocator@U?$_Tree_node@U?$pair@$$CBV?$basic_string@DU?$char_traits@D@std@@V?$allocator@D@2@@std@@VCDATA@CDataManager@UTIL@NMBASE@@@std@@PAX@std@@@1@@Z 10081d40 f i DataManager.obj
 0002:0002ad80       ??$?0U_Exact_args_t@std@@$0A@@?$tuple@$$V@std@@QAE@U_Exact_args_t@1@@Z 10081d80 f i DataManager.obj
 0002:0002adc0       ??$?0U_Exact_args_t@std@@ABV?$basic_string@DU?$char_traits@D@std@@V?$allocator@D@2@@1@$$V$0A@@?$tuple@ABV?$basic_string@DU?$char_traits@D@std@@V?$allocator@D@2@@std@@@std@@QAE@U_Exact_args_t@1@ABV?$basic_string@DU?$char_traits@D@std@@V?$allocator@D@2@@1@@Z 10081dc0 f i DataManager.obj
 0002:0002ae50       ??$?0V?$_Tree_iterator@V?$_Tree_val@U?$_Tree_simple_types@U?$pair@$$CBV?$basic_string@DU?$char_traits@D@std@@V?$allocator@D@2@@std@@VCDATA@CDataManager@UTIL@NMBASE@@@std@@@std@@@std@@@std@@_N$0A@@?$pair@V?$_Tree_iterator@V?$_Tree_val@U?$_Tree_simple_types@U?$pair@$$CBV?$basic_string@DU?$char_traits@D@std@@V?$allocator@D@2@@std@@VCDATA@CDataManager@UTIL@NMBASE@@@std@@@std@@@std@@@std@@_N@std@@QAE@$$QAV?$_Tree_iterator@V?$_Tree_val@U?$_Tree_simple_types@U?$pair@$$CBV?$basic_string@DU?$char_traits@D@std@@V?$allocator@D@2@@std@@VCDATA@CDataManager@UTIL@NMBASE@@@std@@@std@@@std@@@1@$$QA_N@Z 10081e50 f i DataManager.obj
 0002:0002aed0       ??$?0V?$allocator@D@std@@$$V@?$_Compressed_pair@V?$allocator@D@std@@V?$_String_val@U?$_Simple_types@D@std@@@2@$00@std@@QAE@U_One_then_variadic_args_t@1@$$QAV?$allocator@D@1@@Z 10081ed0 f i DataManager.obj
 0002:0002af40       ??$?0V?$allocator@D@std@@X@?$_String_alloc@U?$_String_base_types@DV?$allocator@D@std@@@std@@@std@@QAE@$$QAV?$allocator@D@1@@Z 10081f40 f i DataManager.obj
 0002:0002b000       ??$?0V?$allocator@U?$_Tree_node@U?$pair@$$CBV?$basic_string@DU?$char_traits@D@std@@V?$allocator@D@2@@std@@VCDATA@CDataManager@UTIL@NMBASE@@@std@@PAX@std@@@std@@$$V@?$_Compressed_pair@V?$allocator@U?$_Tree_node@U?$pair@$$CBV?$basic_string@DU?$char_traits@D@std@@V?$allocator@D@2@@std@@VCDATA@CDataManager@UTIL@NMBASE@@@std@@PAX@std@@@std@@V?$_Tree_val@U?$_Tree_simple_types@U?$pair@$$CBV?$basic_string@DU?$char_traits@D@std@@V?$allocator@D@2@@std@@VCDATA@CDataManager@UTIL@NMBASE@@@std@@@std@@@2@$00@std@@QAE@U_One_then_variadic_args_t@1@$$QAV?$allocator@U?$_Tree_node@U?$pair@$$CBV?$basic_string@DU?$char_traits@D@std@@V?$allocator@D@2@@std@@VCDATA@CDataManager@UTIL@NMBASE@@@std@@PAX@std@@@1@@Z 10082000 f i DataManager.obj
 0002:0002b070       ??$?0V?$allocator@U?$_Tree_node@U?$pair@$$CBV?$basic_string@DU?$char_traits@D@std@@V?$allocator@D@2@@std@@VCDATA@CDataManager@UTIL@NMBASE@@@std@@PAX@std@@@std@@@?$_Tree@V?$_Tmap_traits@V?$basic_string@DU?$char_traits@D@std@@V?$allocator@D@2@@std@@VCDATA@CDataManager@UTIL@NMBASE@@U?$less@V?$basic_string@DU?$char_traits@D@std@@V?$allocator@D@2@@std@@@2@V?$allocator@U?$pair@$$CBV?$basic_string@DU?$char_traits@D@std@@V?$allocator@D@2@@std@@VCDATA@CDataManager@UTIL@NMBASE@@@std@@@2@$0A@@std@@@std@@QAE@ABV01@$$QAV?$allocator@U?$_Tree_node@U?$pair@$$CBV?$basic_string@DU?$char_traits@D@std@@V?$allocator@D@2@@std@@VCDATA@CDataManager@UTIL@NMBASE@@@std@@PAX@std@@@1@@Z 10082070 f i DataManager.obj
 0002:0002b190       ??$?0V?$allocator@U?$_Tree_node@U?$pair@$$CBV?$basic_string@DU?$char_traits@D@std@@V?$allocator@D@2@@std@@VCDATA@CDataManager@UTIL@NMBASE@@@std@@PAX@std@@@std@@X@?$_Tree_comp_alloc@V?$_Tmap_traits@V?$basic_string@DU?$char_traits@D@std@@V?$allocator@D@2@@std@@VCDATA@CDataManager@UTIL@NMBASE@@U?$less@V?$basic_string@DU?$char_traits@D@std@@V?$allocator@D@2@@std@@@2@V?$allocator@U?$pair@$$CBV?$basic_string@DU?$char_traits@D@std@@V?$allocator@D@2@@std@@VCDATA@CDataManager@UTIL@NMBASE@@@std@@@2@$0A@@std@@@std@@QAE@ABU?$less@V?$basic_string@DU?$char_traits@D@std@@V?$allocator@D@2@@std@@@1@$$QAV?$allocator@U?$_Tree_node@U?$pair@$$CBV?$basic_string@DU?$char_traits@D@std@@V?$allocator@D@2@@std@@VCDATA@CDataManager@UTIL@NMBASE@@@std@@PAX@std@@@1@@Z 10082190 f i DataManager.obj
 0002:0002b220       ??$?0V?$tuple@ABV?$basic_string@DU?$char_traits@D@std@@V?$allocator@D@2@@std@@@std@@V?$tuple@$$V@1@$0A@$$Z$S@?$pair@$$CBV?$basic_string@DU?$char_traits@D@std@@V?$allocator@D@2@@std@@VCDATA@CDataManager@UTIL@NMBASE@@@std@@QAE@AAV?$tuple@ABV?$basic_string@DU?$char_traits@D@std@@V?$allocator@D@2@@std@@@1@AAV?$tuple@$$V@1@U?$integer_sequence@I$0A@@1@U?$integer_sequence@I$S@1@@Z 10082220 f i DataManager.obj
 0002:0002b2f0       ??$?MDU?$char_traits@D@std@@V?$allocator@D@1@@std@@YA_NABV?$basic_string@DU?$char_traits@D@std@@V?$allocator@D@2@@0@0@Z 100822f0 f i DataManager.obj
 0002:0002b370       ??$_Buy_if_not_node@AAU?$pair@$$CBV?$basic_string@DU?$char_traits@D@std@@V?$allocator@D@2@@std@@VCDATA@CDataManager@UTIL@NMBASE@@@std@@@?$_Tree@V?$_Tmap_traits@V?$basic_string@DU?$char_traits@D@std@@V?$allocator@D@2@@std@@VCDATA@CDataManager@UTIL@NMBASE@@U?$less@V?$basic_string@DU?$char_traits@D@std@@V?$allocator@D@2@@std@@@2@V?$allocator@U?$pair@$$CBV?$basic_string@DU?$char_traits@D@std@@V?$allocator@D@2@@std@@VCDATA@CDataManager@UTIL@NMBASE@@@std@@@2@$0A@@std@@@std@@IAEPAU?$_Tree_node@U?$pair@$$CBV?$basic_string@DU?$char_traits@D@std@@V?$allocator@D@2@@std@@VCDATA@CDataManager@UTIL@NMBASE@@@std@@PAX@1@PAU21@AAU?$pair@$$CBV?$basic_string@DU?$char_traits@D@std@@V?$allocator@D@2@@std@@VCDATA@CDataManager@UTIL@NMBASE@@@1@@Z 10082370 f i DataManager.obj
 0002:0002b3b0       ??$_Buynode@AAU?$pair@$$CBV?$basic_string@DU?$char_traits@D@std@@V?$allocator@D@2@@std@@VCDATA@CDataManager@UTIL@NMBASE@@@std@@@?$_Tree_comp_alloc@V?$_Tmap_traits@V?$basic_string@DU?$char_traits@D@std@@V?$allocator@D@2@@std@@VCDATA@CDataManager@UTIL@NMBASE@@U?$less@V?$basic_string@DU?$char_traits@D@std@@V?$allocator@D@2@@std@@@2@V?$allocator@U?$pair@$$CBV?$basic_string@DU?$char_traits@D@std@@V?$allocator@D@2@@std@@VCDATA@CDataManager@UTIL@NMBASE@@@std@@@2@$0A@@std@@@std@@QAEPAU?$_Tree_node@U?$pair@$$CBV?$basic_string@DU?$char_traits@D@std@@V?$allocator@D@2@@std@@VCDATA@CDataManager@UTIL@NMBASE@@@std@@PAX@1@AAU?$pair@$$CBV?$basic_string@DU?$char_traits@D@std@@V?$allocator@D@2@@std@@VCDATA@CDataManager@UTIL@NMBASE@@@1@@Z 100823b0 f i DataManager.obj
 0002:0002b4d0       ??$_Buynode@ABUpiecewise_construct_t@std@@V?$tuple@ABV?$basic_string@DU?$char_traits@D@std@@V?$allocator@D@2@@std@@@2@V?$tuple@$$V@2@@?$_Tree_comp_alloc@V?$_Tmap_traits@V?$basic_string@DU?$char_traits@D@std@@V?$allocator@D@2@@std@@VCDATA@CDataManager@UTIL@NMBASE@@U?$less@V?$basic_string@DU?$char_traits@D@std@@V?$allocator@D@2@@std@@@2@V?$allocator@U?$pair@$$CBV?$basic_string@DU?$char_traits@D@std@@V?$allocator@D@2@@std@@VCDATA@CDataManager@UTIL@NMBASE@@@std@@@2@$0A@@std@@@std@@QAEPAU?$_Tree_node@U?$pair@$$CBV?$basic_string@DU?$char_traits@D@std@@V?$allocator@D@2@@std@@VCDATA@CDataManager@UTIL@NMBASE@@@std@@PAX@1@ABUpiecewise_construct_t@1@$$QAV?$tuple@ABV?$basic_string@DU?$char_traits@D@std@@V?$allocator@D@2@@std@@@1@$$QAV?$tuple@$$V@1@@Z 100824d0 f i DataManager.obj
 0002:0002b610       ??$_Copy@U_Copy_tag@?$_Tree@V?$_Tmap_traits@V?$basic_string@DU?$char_traits@D@std@@V?$allocator@D@2@@std@@VCDATA@CDataManager@UTIL@NMBASE@@U?$less@V?$basic_string@DU?$char_traits@D@std@@V?$allocator@D@2@@std@@@2@V?$allocator@U?$pair@$$CBV?$basic_string@DU?$char_traits@D@std@@V?$allocator@D@2@@std@@VCDATA@CDataManager@UTIL@NMBASE@@@std@@@2@$0A@@std@@@std@@@?$_Tree@V?$_Tmap_traits@V?$basic_string@DU?$char_traits@D@std@@V?$allocator@D@2@@std@@VCDATA@CDataManager@UTIL@NMBASE@@U?$less@V?$basic_string@DU?$char_traits@D@std@@V?$allocator@D@2@@std@@@2@V?$allocator@U?$pair@$$CBV?$basic_string@DU?$char_traits@D@std@@V?$allocator@D@2@@std@@VCDATA@CDataManager@UTIL@NMBASE@@@std@@@2@$0A@@std@@@std@@IAEXABV01@U_Copy_tag@01@@Z 10082610 f i DataManager.obj
 0002:0002b750       ??$_Copy_nodes@U_Copy_tag@?$_Tree@V?$_Tmap_traits@V?$basic_string@DU?$char_traits@D@std@@V?$allocator@D@2@@std@@VCDATA@CDataManager@UTIL@NMBASE@@U?$less@V?$basic_string@DU?$char_traits@D@std@@V?$allocator@D@2@@std@@@2@V?$allocator@U?$pair@$$CBV?$basic_string@DU?$char_traits@D@std@@V?$allocator@D@2@@std@@VCDATA@CDataManager@UTIL@NMBASE@@@std@@@2@$0A@@std@@@std@@@?$_Tree@V?$_Tmap_traits@V?$basic_string@DU?$char_traits@D@std@@V?$allocator@D@2@@std@@VCDATA@CDataManager@UTIL@NMBASE@@U?$less@V?$basic_string@DU?$char_traits@D@std@@V?$allocator@D@2@@std@@@2@V?$allocator@U?$pair@$$CBV?$basic_string@DU?$char_traits@D@std@@V?$allocator@D@2@@std@@VCDATA@CDataManager@UTIL@NMBASE@@@std@@@2@$0A@@std@@@std@@IAEPAU?$_Tree_node@U?$pair@$$CBV?$basic_string@DU?$char_traits@D@std@@V?$allocator@D@2@@std@@VCDATA@CDataManager@UTIL@NMBASE@@@std@@PAX@1@PAU21@0U_Copy_tag@01@@Z 10082750 f i DataManager.obj
 0002:0002b930       ??$_Copy_or_move@U?$pair@$$CBV?$basic_string@DU?$char_traits@D@std@@V?$allocator@D@2@@std@@VCDATA@CDataManager@UTIL@NMBASE@@@std@@U?$integral_constant@_N$0A@@2@@?$_Tree@V?$_Tmap_traits@V?$basic_string@DU?$char_traits@D@std@@V?$allocator@D@2@@std@@VCDATA@CDataManager@UTIL@NMBASE@@U?$less@V?$basic_string@DU?$char_traits@D@std@@V?$allocator@D@2@@std@@@2@V?$allocator@U?$pair@$$CBV?$basic_string@DU?$char_traits@D@std@@V?$allocator@D@2@@std@@VCDATA@CDataManager@UTIL@NMBASE@@@std@@@2@$0A@@std@@@std@@IAEPAU?$_Tree_node@U?$pair@$$CBV?$basic_string@DU?$char_traits@D@std@@V?$allocator@D@2@@std@@VCDATA@CDataManager@UTIL@NMBASE@@@std@@PAX@1@AAU?$pair@$$CBV?$basic_string@DU?$char_traits@D@std@@V?$allocator@D@2@@std@@VCDATA@CDataManager@UTIL@NMBASE@@@1@U_Copy_tag@01@U?$integral_constant@_N$0A@@1@@Z 10082930 f i DataManager.obj
 0002:0002b990       ??$_Debug_lt_pred@AAU?$less@V?$basic_string@DU?$char_traits@D@std@@V?$allocator@D@2@@std@@@std@@ABV?$basic_string@DU?$char_traits@D@std@@V?$allocator@D@2@@2@ABV32@@std@@YA_NAAU?$less@V?$basic_string@DU?$char_traits@D@std@@V?$allocator@D@2@@std@@@0@ABV?$basic_string@DU?$char_traits@D@std@@V?$allocator@D@2@@0@1@Z 10082990 f i DataManager.obj
 0002:0002ba90       ??$_Debug_lt_pred@ABU?$less@V?$basic_string@DU?$char_traits@D@std@@V?$allocator@D@2@@std@@@std@@ABV?$basic_string@DU?$char_traits@D@std@@V?$allocator@D@2@@2@ABV32@@std@@YA_NABU?$less@V?$basic_string@DU?$char_traits@D@std@@V?$allocator@D@2@@std@@@0@ABV?$basic_string@DU?$char_traits@D@std@@V?$allocator@D@2@@0@1@Z 10082a90 f i DataManager.obj
 0002:0002bb90       ??$_Freenode0@V?$allocator@U?$_Tree_node@U?$pair@$$CBV?$basic_string@DU?$char_traits@D@std@@V?$allocator@D@2@@std@@VCDATA@CDataManager@UTIL@NMBASE@@@std@@PAX@std@@@std@@@?$_Tree_node@U?$pair@$$CBV?$basic_string@DU?$char_traits@D@std@@V?$allocator@D@2@@std@@VCDATA@CDataManager@UTIL@NMBASE@@@std@@PAX@std@@SAXAAV?$allocator@U?$_Tree_node@U?$pair@$$CBV?$basic_string@DU?$char_traits@D@std@@V?$allocator@D@2@@std@@VCDATA@CDataManager@UTIL@NMBASE@@@std@@PAX@std@@@1@PAU01@@Z 10082b90 f i DataManager.obj
 0002:0002bcc0       ??$_Get_size_of_n@$0DI@@std@@YAII@Z 10082cc0 f i DataManager.obj
 0002:0002bd20       ??$_Insert_at@AAU?$pair@$$CBV?$basic_string@DU?$char_traits@D@std@@V?$allocator@D@2@@std@@VCDATA@CDataManager@UTIL@NMBASE@@@std@@PAU?$_Tree_node@U?$pair@$$CBV?$basic_string@DU?$char_traits@D@std@@V?$allocator@D@2@@std@@VCDATA@CDataManager@UTIL@NMBASE@@@std@@PAX@2@@?$_Tree@V?$_Tmap_traits@V?$basic_string@DU?$char_traits@D@std@@V?$allocator@D@2@@std@@VCDATA@CDataManager@UTIL@NMBASE@@U?$less@V?$basic_string@DU?$char_traits@D@std@@V?$allocator@D@2@@std@@@2@V?$allocator@U?$pair@$$CBV?$basic_string@DU?$char_traits@D@std@@V?$allocator@D@2@@std@@VCDATA@CDataManager@UTIL@NMBASE@@@std@@@2@$0A@@std@@@std@@IAE?AV?$_Tree_iterator@V?$_Tree_val@U?$_Tree_simple_types@U?$pair@$$CBV?$basic_string@DU?$char_traits@D@std@@V?$allocator@D@2@@std@@VCDATA@CDataManager@UTIL@NMBASE@@@std@@@std@@@std@@@1@_NPAU?$_Tree_node@U?$pair@$$CBV?$basic_string@DU?$char_traits@D@std@@V?$allocator@D@2@@std@@VCDATA@CDataManager@UTIL@NMBASE@@@std@@PAX@1@AAU?$pair@$$CBV?$basic_string@DU?$char_traits@D@std@@V?$allocator@D@2@@std@@VCDATA@CDataManager@UTIL@NMBASE@@@1@1@Z 10082d20 f i DataManager.obj
 0002:0002c0a0       ??$_Insert_hint@AAU?$pair@$$CBV?$basic_string@DU?$char_traits@D@std@@V?$allocator@D@2@@std@@VCDATA@CDataManager@UTIL@NMBASE@@@std@@PAU?$_Tree_node@U?$pair@$$CBV?$basic_string@DU?$char_traits@D@std@@V?$allocator@D@2@@std@@VCDATA@CDataManager@UTIL@NMBASE@@@std@@PAX@2@@?$_Tree@V?$_Tmap_traits@V?$basic_string@DU?$char_traits@D@std@@V?$allocator@D@2@@std@@VCDATA@CDataManager@UTIL@NMBASE@@U?$less@V?$basic_string@DU?$char_traits@D@std@@V?$allocator@D@2@@std@@@2@V?$allocator@U?$pair@$$CBV?$basic_string@DU?$char_traits@D@std@@V?$allocator@D@2@@std@@VCDATA@CDataManager@UTIL@NMBASE@@@std@@@2@$0A@@std@@@std@@IAE?AV?$_Tree_iterator@V?$_Tree_val@U?$_Tree_simple_types@U?$pair@$$CBV?$basic_string@DU?$char_traits@D@std@@V?$allocator@D@2@@std@@VCDATA@CDataManager@UTIL@NMBASE@@@std@@@std@@@std@@@1@V?$_Tree_const_iterator@V?$_Tree_val@U?$_Tree_simple_types@U?$pair@$$CBV?$basic_string@DU?$char_traits@D@std@@V?$allocator@D@2@@std@@VCDATA@CDataManager@UTIL@NMBASE@@@std@@@std@@@std@@@1@AAU?$pair@$$CBV?$basic_string@DU?$char_traits@D@std@@V?$allocator@D@2@@std@@VCDATA@CDataManager@UTIL@NMBASE@@@1@PAU?$_Tree_node@U?$pair@$$CBV?$basic_string@DU?$char_traits@D@std@@V?$allocator@D@2@@std@@VCDATA@CDataManager@UTIL@NMBASE@@@std@@PAX@1@@Z 100830a0 f i DataManager.obj
 0002:0002cf10       ?AtlW2AHelper@@YGPADPADPBGHI@Z 10083f10 f i ShellMan.obj
 0002:0002d040       ?EnumWindowsCloseNetmarbleIEProc@CShellMan@UTIL@NMBASE@@SGHPAUHWND__@@J@Z 10084040 f   ShellMan.obj
 0002:0002d2a0       ??$_Insert_nohint@AAU?$pair@$$CBV?$basic_string@DU?$char_traits@D@std@@V?$allocator@D@2@@std@@VCDATA@CDataManager@UTIL@NMBASE@@@std@@PAU?$_Tree_node@U?$pair@$$CBV?$basic_string@DU?$char_traits@D@std@@V?$allocator@D@2@@std@@VCDATA@CDataManager@UTIL@NMBASE@@@std@@PAX@2@@?$_Tree@V?$_Tmap_traits@V?$basic_string@DU?$char_traits@D@std@@V?$allocator@D@2@@std@@VCDATA@CDataManager@UTIL@NMBASE@@U?$less@V?$basic_string@DU?$char_traits@D@std@@V?$allocator@D@2@@std@@@2@V?$allocator@U?$pair@$$CBV?$basic_string@DU?$char_traits@D@std@@V?$allocator@D@2@@std@@VCDATA@CDataManager@UTIL@NMBASE@@@std@@@2@$0A@@std@@@std@@IAE?AU?$pair@V?$_Tree_iterator@V?$_Tree_val@U?$_Tree_simple_types@U?$pair@$$CBV?$basic_string@DU?$char_traits@D@std@@V?$allocator@D@2@@std@@VCDATA@CDataManager@UTIL@NMBASE@@@std@@@std@@@std@@@std@@_N@1@_NAAU?$pair@$$CBV?$basic_string@DU?$char_traits@D@std@@V?$allocator@D@2@@std@@VCDATA@CDataManager@UTIL@NMBASE@@@1@PAU?$_Tree_node@U?$pair@$$CBV?$basic_string@DU?$char_traits@D@std@@V?$allocator@D@2@@std@@VCDATA@CDataManager@UTIL@NMBASE@@@std@@PAX@1@@Z 100842a0 f i DataManager.obj
 0002:0002d750       ?GetInstance@CFileMapping@UTIL@NMBASE@@SAPAV123@XZ 10084750 f   ShellMan.obj
 0002:0002d880       ??$_Kfn@$$CBV?$basic_string@DU?$char_traits@D@std@@V?$allocator@D@2@@std@@VCDATA@CDataManager@UTIL@NMBASE@@@?$_Tmap_traits@V?$basic_string@DU?$char_traits@D@std@@V?$allocator@D@2@@std@@VCDATA@CDataManager@UTIL@NMBASE@@U?$less@V?$basic_string@DU?$char_traits@D@std@@V?$allocator@D@2@@std@@@2@V?$allocator@U?$pair@$$CBV?$basic_string@DU?$char_traits@D@std@@V?$allocator@D@2@@std@@VCDATA@CDataManager@UTIL@NMBASE@@@std@@@2@$0A@@std@@SAABV?$basic_string@DU?$char_traits@D@std@@V?$allocator@D@2@@1@ABU?$pair@$$CBV?$basic_string@DU?$char_traits@D@std@@V?$allocator@D@2@@std@@VCDATA@CDataManager@UTIL@NMBASE@@@1@@Z 10084880 f i DataManager.obj
 0002:0002d8c0       ??$_Lbound@V?$basic_string@DU?$char_traits@D@std@@V?$allocator@D@2@@std@@@?$_Tree@V?$_Tmap_traits@V?$basic_string@DU?$char_traits@D@std@@V?$allocator@D@2@@std@@VCDATA@CDataManager@UTIL@NMBASE@@U?$less@V?$basic_string@DU?$char_traits@D@std@@V?$allocator@D@2@@std@@@2@V?$allocator@U?$pair@$$CBV?$basic_string@DU?$char_traits@D@std@@V?$allocator@D@2@@std@@VCDATA@CDataManager@UTIL@NMBASE@@@std@@@2@$0A@@std@@@std@@IBEPAU?$_Tree_node@U?$pair@$$CBV?$basic_string@DU?$char_traits@D@std@@V?$allocator@D@2@@std@@VCDATA@CDataManager@UTIL@NMBASE@@@std@@PAX@1@ABV?$basic_string@DU?$char_traits@D@std@@V?$allocator@D@2@@1@@Z 100848c0 f i DataManager.obj
 0002:0002d980       ??$_Pocca@V?$allocator@D@std@@@std@@YAXAAV?$allocator@D@0@ABV10@@Z 10084980 f i DataManager.obj
 0002:0002da10       ??$_Pocca@V?$allocator@D@std@@@std@@YAXAAV?$allocator@D@0@ABV10@U?$integral_constant@_N$0A@@0@@Z 10084a10 f i DataManager.obj
 0002:0002da40       ??$_Pocca@V?$allocator@U?$_Tree_node@U?$pair@$$CBV?$basic_string@DU?$char_traits@D@std@@V?$allocator@D@2@@std@@VCDATA@CDataManager@UTIL@NMBASE@@@std@@PAX@std@@@std@@@std@@YAXAAV?$allocator@U?$_Tree_node@U?$pair@$$CBV?$basic_string@DU?$char_traits@D@std@@V?$allocator@D@2@@std@@VCDATA@CDataManager@UTIL@NMBASE@@@std@@PAX@std@@@0@ABV10@@Z 10084a40 f i DataManager.obj
 0002:0002dad0       ??$_Pocca@V?$allocator@U?$_Tree_node@U?$pair@$$CBV?$basic_string@DU?$char_traits@D@std@@V?$allocator@D@2@@std@@VCDATA@CDataManager@UTIL@NMBASE@@@std@@PAX@std@@@std@@@std@@YAXAAV?$allocator@U?$_Tree_node@U?$pair@$$CBV?$basic_string@DU?$char_traits@D@std@@V?$allocator@D@2@@std@@VCDATA@CDataManager@UTIL@NMBASE@@@std@@PAX@std@@@0@ABV10@U?$integral_constant@_N$0A@@0@@Z 10084ad0 f i DataManager.obj
 0002:0002db00       ??$_Traits_compare@U?$char_traits@D@std@@@std@@YAHQBDI0I@Z 10084b00 f i DataManager.obj
 0002:0002dbb0       ??$_Try_emplace@ABV?$basic_string@DU?$char_traits@D@std@@V?$allocator@D@2@@std@@$$V@?$map@V?$basic_string@DU?$char_traits@D@std@@V?$allocator@D@2@@std@@VCDATA@CDataManager@UTIL@NMBASE@@U?$less@V?$basic_string@DU?$char_traits@D@std@@V?$allocator@D@2@@std@@@2@V?$allocator@U?$pair@$$CBV?$basic_string@DU?$char_traits@D@std@@V?$allocator@D@2@@std@@VCDATA@CDataManager@UTIL@NMBASE@@@std@@@2@@std@@QAE?AU?$pair@V?$_Tree_iterator@V?$_Tree_val@U?$_Tree_simple_types@U?$pair@$$CBV?$basic_string@DU?$char_traits@D@std@@V?$allocator@D@2@@std@@VCDATA@CDataManager@UTIL@NMBASE@@@std@@@std@@@std@@@std@@_N@1@ABV?$basic_string@DU?$char_traits@D@std@@V?$allocator@D@2@@1@@Z 10084bb0 f i DataManager.obj
 0002:0002ded0       ??$addressof@$$CBV?$_Tree@V?$_Tmap_traits@V?$basic_string@DU?$char_traits@D@std@@V?$allocator@D@2@@std@@VCDATA@CDataManager@UTIL@NMBASE@@U?$less@V?$basic_string@DU?$char_traits@D@std@@V?$allocator@D@2@@std@@@2@V?$allocator@U?$pair@$$CBV?$basic_string@DU?$char_traits@D@std@@V?$allocator@D@2@@std@@VCDATA@CDataManager@UTIL@NMBASE@@@std@@@2@$0A@@std@@@std@@@std@@YAPBV?$_Tree@V?$_Tmap_traits@V?$basic_string@DU?$char_traits@D@std@@V?$allocator@D@2@@std@@VCDATA@CDataManager@UTIL@NMBASE@@U?$less@V?$basic_string@DU?$char_traits@D@std@@V?$allocator@D@2@@std@@@2@V?$allocator@U?$pair@$$CBV?$basic_string@DU?$char_traits@D@std@@V?$allocator@D@2@@std@@VCDATA@CDataManager@UTIL@NMBASE@@@std@@@2@$0A@@std@@@0@ABV10@@Z 10084ed0 f i DataManager.obj
 0002:0002df10       ??$addressof@$$CBV?$basic_string@DU?$char_traits@D@std@@V?$allocator@D@2@@std@@@std@@YAPBV?$basic_string@DU?$char_traits@D@std@@V?$allocator@D@2@@0@ABV10@@Z 10084f10 f i DataManager.obj
 0002:0002df50       ??$addressof@PAU?$_Tree_node@U?$pair@$$CBV?$basic_string@DU?$char_traits@D@std@@V?$allocator@D@2@@std@@VCDATA@CDataManager@UTIL@NMBASE@@@std@@PAX@std@@@std@@YAPAPAU?$_Tree_node@U?$pair@$$CBV?$basic_string@DU?$char_traits@D@std@@V?$allocator@D@2@@std@@VCDATA@CDataManager@UTIL@NMBASE@@@std@@PAX@0@AAPAU10@@Z 10084f50 f i DataManager.obj
 0002:0002df90       ??$addressof@U?$pair@$$CBV?$basic_string@DU?$char_traits@D@std@@V?$allocator@D@2@@std@@VCDATA@CDataManager@UTIL@NMBASE@@@std@@@std@@YAPAU?$pair@$$CBV?$basic_string@DU?$char_traits@D@std@@V?$allocator@D@2@@std@@VCDATA@CDataManager@UTIL@NMBASE@@@0@AAU10@@Z 10084f90 f i DataManager.obj
 0002:0002dfd0       ??$addressof@V?$_Tree_val@U?$_Tree_simple_types@U?$pair@$$CBV?$basic_string@DU?$char_traits@D@std@@V?$allocator@D@2@@std@@VCDATA@CDataManager@UTIL@NMBASE@@@std@@@std@@@std@@@std@@YAPAV?$_Tree_val@U?$_Tree_simple_types@U?$pair@$$CBV?$basic_string@DU?$char_traits@D@std@@V?$allocator@D@2@@std@@VCDATA@CDataManager@UTIL@NMBASE@@@std@@@std@@@0@AAV10@@Z 10084fd0 f i DataManager.obj
 0002:0002e010       ??$construct@PAU?$_Tree_node@U?$pair@$$CBV?$basic_string@DU?$char_traits@D@std@@V?$allocator@D@2@@std@@VCDATA@CDataManager@UTIL@NMBASE@@@std@@PAX@std@@AAPAU12@@?$_Default_allocator_traits@V?$allocator@U?$_Tree_node@U?$pair@$$CBV?$basic_string@DU?$char_traits@D@std@@V?$allocator@D@2@@std@@VCDATA@CDataManager@UTIL@NMBASE@@@std@@PAX@std@@@std@@@std@@SAXAAV?$allocator@U?$_Tree_node@U?$pair@$$CBV?$basic_string@DU?$char_traits@D@std@@V?$allocator@D@2@@std@@VCDATA@CDataManager@UTIL@NMBASE@@@std@@PAX@std@@@1@QAPAU?$_Tree_node@U?$pair@$$CBV?$basic_string@DU?$char_traits@D@std@@V?$allocator@D@2@@std@@VCDATA@CDataManager@UTIL@NMBASE@@@std@@PAX@1@AAPAU31@@Z 10085010 f i DataManager.obj
 0002:0002e090       ??$construct@U?$pair@$$CBV?$basic_string@DU?$char_traits@D@std@@V?$allocator@D@2@@std@@VCDATA@CDataManager@UTIL@NMBASE@@@std@@AAU12@@?$_Default_allocator_traits@V?$allocator@U?$_Tree_node@U?$pair@$$CBV?$basic_string@DU?$char_traits@D@std@@V?$allocator@D@2@@std@@VCDATA@CDataManager@UTIL@NMBASE@@@std@@PAX@std@@@std@@@std@@SAXAAV?$allocator@U?$_Tree_node@U?$pair@$$CBV?$basic_string@DU?$char_traits@D@std@@V?$allocator@D@2@@std@@VCDATA@CDataManager@UTIL@NMBASE@@@std@@PAX@std@@@1@QAU?$pair@$$CBV?$basic_string@DU?$char_traits@D@std@@V?$allocator@D@2@@std@@VCDATA@CDataManager@UTIL@NMBASE@@@1@AAU31@@Z 10085090 f i DataManager.obj
 0002:0002e110       ??$construct@U?$pair@$$CBV?$basic_string@DU?$char_traits@D@std@@V?$allocator@D@2@@std@@VCDATA@CDataManager@UTIL@NMBASE@@@std@@ABUpiecewise_construct_t@2@V?$tuple@ABV?$basic_string@DU?$char_traits@D@std@@V?$allocator@D@2@@std@@@2@V?$tuple@$$V@2@@?$_Default_allocator_traits@V?$allocator@U?$_Tree_node@U?$pair@$$CBV?$basic_string@DU?$char_traits@D@std@@V?$allocator@D@2@@std@@VCDATA@CDataManager@UTIL@NMBASE@@@std@@PAX@std@@@std@@@std@@SAXAAV?$allocator@U?$_Tree_node@U?$pair@$$CBV?$basic_string@DU?$char_traits@D@std@@V?$allocator@D@2@@std@@VCDATA@CDataManager@UTIL@NMBASE@@@std@@PAX@std@@@1@QAU?$pair@$$CBV?$basic_string@DU?$char_traits@D@std@@V?$allocator@D@2@@std@@VCDATA@CDataManager@UTIL@NMBASE@@@1@ABUpiecewise_construct_t@1@$$QAV?$tuple@ABV?$basic_string@DU?$char_traits@D@std@@V?$allocator@D@2@@std@@@1@$$QAV?$tuple@$$V@1@@Z 10085110 f i DataManager.obj
 0002:0002e1d0       ??$destroy@PAU?$_Tree_node@U?$pair@$$CBV?$basic_string@DU?$char_traits@D@std@@V?$allocator@D@2@@std@@VCDATA@CDataManager@UTIL@NMBASE@@@std@@PAX@std@@@?$_Default_allocator_traits@V?$allocator@U?$_Tree_node@U?$pair@$$CBV?$basic_string@DU?$char_traits@D@std@@V?$allocator@D@2@@std@@VCDATA@CDataManager@UTIL@NMBASE@@@std@@PAX@std@@@std@@@std@@SAXAAV?$allocator@U?$_Tree_node@U?$pair@$$CBV?$basic_string@DU?$char_traits@D@std@@V?$allocator@D@2@@std@@VCDATA@CDataManager@UTIL@NMBASE@@@std@@PAX@std@@@1@QAPAU?$_Tree_node@U?$pair@$$CBV?$basic_string@DU?$char_traits@D@std@@V?$allocator@D@2@@std@@VCDATA@CDataManager@UTIL@NMBASE@@@std@@PAX@1@@Z 100851d0 f i DataManager.obj
 0002:0002e200       ??$destroy@U?$pair@$$CBV?$basic_string@DU?$char_traits@D@std@@V?$allocator@D@2@@std@@VCDATA@CDataManager@UTIL@NMBASE@@@std@@@?$_Default_allocator_traits@V?$allocator@U?$_Tree_node@U?$pair@$$CBV?$basic_string@DU?$char_traits@D@std@@V?$allocator@D@2@@std@@VCDATA@CDataManager@UTIL@NMBASE@@@std@@PAX@std@@@std@@@std@@SAXAAV?$allocator@U?$_Tree_node@U?$pair@$$CBV?$basic_string@DU?$char_traits@D@std@@V?$allocator@D@2@@std@@VCDATA@CDataManager@UTIL@NMBASE@@@std@@PAX@std@@@1@QAU?$pair@$$CBV?$basic_string@DU?$char_traits@D@std@@V?$allocator@D@2@@std@@VCDATA@CDataManager@UTIL@NMBASE@@@1@@Z 10085200 f i DataManager.obj
 0002:0002e250       ??$emplace_hint@ABUpiecewise_construct_t@std@@V?$tuple@ABV?$basic_string@DU?$char_traits@D@std@@V?$allocator@D@2@@std@@@2@V?$tuple@$$V@2@@?$_Tree@V?$_Tmap_traits@V?$basic_string@DU?$char_traits@D@std@@V?$allocator@D@2@@std@@VCDATA@CDataManager@UTIL@NMBASE@@U?$less@V?$basic_string@DU?$char_traits@D@std@@V?$allocator@D@2@@std@@@2@V?$allocator@U?$pair@$$CBV?$basic_string@DU?$char_traits@D@std@@V?$allocator@D@2@@std@@VCDATA@CDataManager@UTIL@NMBASE@@@std@@@2@$0A@@std@@@std@@QAE?AV?$_Tree_iterator@V?$_Tree_val@U?$_Tree_simple_types@U?$pair@$$CBV?$basic_string@DU?$char_traits@D@std@@V?$allocator@D@2@@std@@VCDATA@CDataManager@UTIL@NMBASE@@@std@@@std@@@std@@@1@V?$_Tree_const_iterator@V?$_Tree_val@U?$_Tree_simple_types@U?$pair@$$CBV?$basic_string@DU?$char_traits@D@std@@V?$allocator@D@2@@std@@VCDATA@CDataManager@UTIL@NMBASE@@@std@@@std@@@std@@@1@ABUpiecewise_construct_t@1@$$QAV?$tuple@ABV?$basic_string@DU?$char_traits@D@std@@V?$allocator@D@2@@std@@@1@$$QAV?$tuple@$$V@1@@Z 10085250 f i DataManager.obj
 0002:0002e390       ??$forward@AAPAU?$_Tree_node@U?$pair@$$CBV?$basic_string@DU?$char_traits@D@std@@V?$allocator@D@2@@std@@VCDATA@CDataManager@UTIL@NMBASE@@@std@@PAX@std@@@std@@YAAAPAU?$_Tree_node@U?$pair@$$CBV?$basic_string@DU?$char_traits@D@std@@V?$allocator@D@2@@std@@VCDATA@CDataManager@UTIL@NMBASE@@@std@@PAX@0@AAPAU10@@Z 10085390 f i DataManager.obj
 0002:0002e3d0       ??$forward@AAU?$pair@$$CBV?$basic_string@DU?$char_traits@D@std@@V?$allocator@D@2@@std@@VCDATA@CDataManager@UTIL@NMBASE@@@std@@@std@@YAAAU?$pair@$$CBV?$basic_string@DU?$char_traits@D@std@@V?$allocator@D@2@@std@@VCDATA@CDataManager@UTIL@NMBASE@@@0@AAU10@@Z 100853d0 f i DataManager.obj
 0002:0002e410       ??$forward@AAV?$_Tree_iterator@V?$_Tree_val@U?$_Tree_simple_types@U?$pair@$$CBV?$basic_string@DU?$char_traits@D@std@@V?$allocator@D@2@@std@@VCDATA@CDataManager@UTIL@NMBASE@@@std@@@std@@@std@@@std@@@std@@YAAAV?$_Tree_iterator@V?$_Tree_val@U?$_Tree_simple_types@U?$pair@$$CBV?$basic_string@DU?$char_traits@D@std@@V?$allocator@D@2@@std@@VCDATA@CDataManager@UTIL@NMBASE@@@std@@@std@@@std@@@0@AAV10@@Z 10085410 f i DataManager.obj
 0002:0002e450       ??$forward@ABU?$less@V?$basic_string@DU?$char_traits@D@std@@V?$allocator@D@2@@std@@@std@@@std@@YAABU?$less@V?$basic_string@DU?$char_traits@D@std@@V?$allocator@D@2@@std@@@0@ABU10@@Z 10085450 f i DataManager.obj
 0002:0002e490       ??$forward@ABUpiecewise_construct_t@std@@@std@@YAABUpiecewise_construct_t@0@ABU10@@Z 10085490 f i DataManager.obj
 0002:0002e4d0       ??$forward@ABV?$basic_string@DU?$char_traits@D@std@@V?$allocator@D@2@@std@@@std@@YAABV?$basic_string@DU?$char_traits@D@std@@V?$allocator@D@2@@0@ABV10@@Z 100854d0 f i DataManager.obj
 0002:0002e510       ??$forward@U_One_then_variadic_args_t@std@@@std@@YA$$QAU_One_then_variadic_args_t@0@AAU10@@Z 10085510 f i DataManager.obj
 0002:0002e550       ??$forward@U_Zero_then_variadic_args_t@std@@@std@@YA$$QAU_Zero_then_variadic_args_t@0@AAU10@@Z 10085550 f i DataManager.obj
 0002:0002e590       ??$forward@V?$_Tree_iterator@V?$_Tree_val@U?$_Tree_simple_types@U?$pair@$$CBV?$basic_string@DU?$char_traits@D@std@@V?$allocator@D@2@@std@@VCDATA@CDataManager@UTIL@NMBASE@@@std@@@std@@@std@@@std@@@std@@YA$$QAV?$_Tree_iterator@V?$_Tree_val@U?$_Tree_simple_types@U?$pair@$$CBV?$basic_string@DU?$char_traits@D@std@@V?$allocator@D@2@@std@@VCDATA@CDataManager@UTIL@NMBASE@@@std@@@std@@@std@@@0@AAV10@@Z 10085590 f i DataManager.obj
 0002:0002e5d0       ??$forward@V?$allocator@D@std@@@std@@YA$$QAV?$allocator@D@0@AAV10@@Z 100855d0 f i DataManager.obj
 0002:0002e610       ??$forward@V?$allocator@U?$_Tree_node@U?$pair@$$CBV?$basic_string@DU?$char_traits@D@std@@V?$allocator@D@2@@std@@VCDATA@CDataManager@UTIL@NMBASE@@@std@@PAX@std@@@std@@@std@@YA$$QAV?$allocator@U?$_Tree_node@U?$pair@$$CBV?$basic_string@DU?$char_traits@D@std@@V?$allocator@D@2@@std@@VCDATA@CDataManager@UTIL@NMBASE@@@std@@PAX@std@@@0@AAV10@@Z 10085610 f i DataManager.obj
 0002:0002e650       ??$forward@V?$tuple@$$V@std@@@std@@YA$$QAV?$tuple@$$V@0@AAV10@@Z 10085650 f i DataManager.obj
 0002:0002e690       ??$forward@V?$tuple@ABV?$basic_string@DU?$char_traits@D@std@@V?$allocator@D@2@@std@@@std@@@std@@YA$$QAV?$tuple@ABV?$basic_string@DU?$char_traits@D@std@@V?$allocator@D@2@@std@@@0@AAV10@@Z 10085690 f i DataManager.obj
 0002:0002e6d0       ??$forward@_N@std@@YA$$QA_NAA_N@Z 100856d0 f i DataManager.obj
 0002:0002e710       ??$forward_as_tuple@$$V@std@@YA?AV?$tuple@$$V@0@XZ 10085710 f i DataManager.obj
 0002:0002e760       ??$forward_as_tuple@ABV?$basic_string@DU?$char_traits@D@std@@V?$allocator@D@2@@std@@@std@@YA?AV?$tuple@ABV?$basic_string@DU?$char_traits@D@std@@V?$allocator@D@2@@std@@@0@ABV?$basic_string@DU?$char_traits@D@std@@V?$allocator@D@2@@0@@Z 10085760 f i DataManager.obj
 0002:0002e7c0       ??$get@$0A@ABV?$basic_string@DU?$char_traits@D@std@@V?$allocator@D@2@@std@@@std@@YAABV?$basic_string@DU?$char_traits@D@std@@V?$allocator@D@2@@0@$$QAV?$tuple@ABV?$basic_string@DU?$char_traits@D@std@@V?$allocator@D@2@@std@@@0@@Z 100857c0 f i DataManager.obj
 0002:0002e810       ??$move@AAD@std@@YA$$QADAAD@Z 10085810 f i DataManager.obj
 0002:0002e850       ??$move@AAV?$tuple@ABV?$basic_string@DU?$char_traits@D@std@@V?$allocator@D@2@@std@@@std@@@std@@YA$$QAV?$tuple@ABV?$basic_string@DU?$char_traits@D@std@@V?$allocator@D@2@@std@@@0@AAV10@@Z 10085850 f i DataManager.obj
 0002:0002e890       ??$swap@DX@std@@YAXAAD0@Z  10085890 f i DataManager.obj
 0002:0002e950       ??$try_emplace@$$V@?$map@V?$basic_string@DU?$char_traits@D@std@@V?$allocator@D@2@@std@@VCDATA@CDataManager@UTIL@NMBASE@@U?$less@V?$basic_string@DU?$char_traits@D@std@@V?$allocator@D@2@@std@@@2@V?$allocator@U?$pair@$$CBV?$basic_string@DU?$char_traits@D@std@@V?$allocator@D@2@@std@@VCDATA@CDataManager@UTIL@NMBASE@@@std@@@2@@std@@QAE?AU?$pair@V?$_Tree_iterator@V?$_Tree_val@U?$_Tree_simple_types@U?$pair@$$CBV?$basic_string@DU?$char_traits@D@std@@V?$allocator@D@2@@std@@VCDATA@CDataManager@UTIL@NMBASE@@@std@@@std@@@std@@@std@@_N@1@ABV?$basic_string@DU?$char_traits@D@std@@V?$allocator@D@2@@1@@Z 10085950 f i DataManager.obj
 0002:0002e9d0       ??0?$_Tree@V?$_Tmap_traits@V?$basic_string@DU?$char_traits@D@std@@V?$allocator@D@2@@std@@VCDATA@CDataManager@UTIL@NMBASE@@U?$less@V?$basic_string@DU?$char_traits@D@std@@V?$allocator@D@2@@std@@@2@V?$allocator@U?$pair@$$CBV?$basic_string@DU?$char_traits@D@std@@V?$allocator@D@2@@std@@VCDATA@CDataManager@UTIL@NMBASE@@@std@@@2@$0A@@std@@@std@@QAE@ABU?$less@V?$basic_string@DU?$char_traits@D@std@@V?$allocator@D@2@@std@@@1@@Z 100859d0 f i DataManager.obj
 0002:0002ea30       ??0?$_Tree_comp_alloc@V?$_Tmap_traits@V?$basic_string@DU?$char_traits@D@std@@V?$allocator@D@2@@std@@VCDATA@CDataManager@UTIL@NMBASE@@U?$less@V?$basic_string@DU?$char_traits@D@std@@V?$allocator@D@2@@std@@@2@V?$allocator@U?$pair@$$CBV?$basic_string@DU?$char_traits@D@std@@V?$allocator@D@2@@std@@VCDATA@CDataManager@UTIL@NMBASE@@@std@@@2@$0A@@std@@@std@@QAE@ABU?$less@V?$basic_string@DU?$char_traits@D@std@@V?$allocator@D@2@@std@@@1@@Z 10085a30 f i DataManager.obj
 0002:0002eab0       ??0?$_Tree_const_iterator@V?$_Tree_val@U?$_Tree_simple_types@U?$pair@$$CBV?$basic_string@DU?$char_traits@D@std@@V?$allocator@D@2@@std@@VCDATA@CDataManager@UTIL@NMBASE@@@std@@@std@@@std@@@std@@QAE@$$QAV01@@Z 10085ab0 f i DataManager.obj
 0002:0002eb10       ??0?$_Tree_const_iterator@V?$_Tree_val@U?$_Tree_simple_types@U?$pair@$$CBV?$basic_string@DU?$char_traits@D@std@@V?$allocator@D@2@@std@@VCDATA@CDataManager@UTIL@NMBASE@@@std@@@std@@@std@@@std@@QAE@ABV01@@Z 10085b10 f i DataManager.obj
 0002:0002eb70       ??0?$_Tree_const_iterator@V?$_Tree_val@U?$_Tree_simple_types@U?$pair@$$CBV?$basic_string@DU?$char_traits@D@std@@V?$allocator@D@2@@std@@VCDATA@CDataManager@UTIL@NMBASE@@@std@@@std@@@std@@@std@@QAE@PAU?$_Tree_node@U?$pair@$$CBV?$basic_string@DU?$char_traits@D@std@@V?$allocator@D@2@@std@@VCDATA@CDataManager@UTIL@NMBASE@@@std@@PAX@1@PBV?$_Tree_val@U?$_Tree_simple_types@U?$pair@$$CBV?$basic_string@DU?$char_traits@D@std@@V?$allocator@D@2@@std@@VCDATA@CDataManager@UTIL@NMBASE@@@std@@@std@@@1@@Z 10085b70 f i DataManager.obj
 0002:0002ebd0       ??0?$_Tree_const_iterator@V?$_Tree_val@U?$_Tree_simple_types@U?$pair@$$CBV?$basic_string@DU?$char_traits@D@std@@V?$allocator@D@2@@std@@VCDATA@CDataManager@UTIL@NMBASE@@@std@@@std@@@std@@@std@@QAE@XZ 10085bd0 f i DataManager.obj
 0002:0002ec30       ??0?$_Tree_iterator@V?$_Tree_val@U?$_Tree_simple_types@U?$pair@$$CBV?$basic_string@DU?$char_traits@D@std@@V?$allocator@D@2@@std@@VCDATA@CDataManager@UTIL@NMBASE@@@std@@@std@@@std@@@std@@QAE@$$QAV01@@Z 10085c30 f i DataManager.obj
 0002:0002ec90       ??0?$_Tree_iterator@V?$_Tree_val@U?$_Tree_simple_types@U?$pair@$$CBV?$basic_string@DU?$char_traits@D@std@@V?$allocator@D@2@@std@@VCDATA@CDataManager@UTIL@NMBASE@@@std@@@std@@@std@@@std@@QAE@ABV01@@Z 10085c90 f i DataManager.obj
 0002:0002ecf0       ??0?$_Tree_iterator@V?$_Tree_val@U?$_Tree_simple_types@U?$pair@$$CBV?$basic_string@DU?$char_traits@D@std@@V?$allocator@D@2@@std@@VCDATA@CDataManager@UTIL@NMBASE@@@std@@@std@@@std@@@std@@QAE@PAU?$_Tree_node@U?$pair@$$CBV?$basic_string@DU?$char_traits@D@std@@V?$allocator@D@2@@std@@VCDATA@CDataManager@UTIL@NMBASE@@@std@@PAX@1@PBV?$_Tree_val@U?$_Tree_simple_types@U?$pair@$$CBV?$basic_string@DU?$char_traits@D@std@@V?$allocator@D@2@@std@@VCDATA@CDataManager@UTIL@NMBASE@@@std@@@std@@@1@@Z 10085cf0 f i DataManager.obj
 0002:0002ed50       ??0?$_Tree_unchecked_const_iterator@V?$_Tree_val@U?$_Tree_simple_types@U?$pair@$$CBV?$basic_string@DU?$char_traits@D@std@@V?$allocator@D@2@@std@@VCDATA@CDataManager@UTIL@NMBASE@@@std@@@std@@@std@@U_Iterator_base12@2@@std@@QAE@$$QAV01@@Z 10085d50 f i DataManager.obj
 0002:0002edc0       ??0?$_Tree_unchecked_const_iterator@V?$_Tree_val@U?$_Tree_simple_types@U?$pair@$$CBV?$basic_string@DU?$char_traits@D@std@@V?$allocator@D@2@@std@@VCDATA@CDataManager@UTIL@NMBASE@@@std@@@std@@@std@@U_Iterator_base12@2@@std@@QAE@ABV01@@Z 10085dc0 f i DataManager.obj
 0002:0002ee30       ??0?$_Tree_unchecked_const_iterator@V?$_Tree_val@U?$_Tree_simple_types@U?$pair@$$CBV?$basic_string@DU?$char_traits@D@std@@V?$allocator@D@2@@std@@VCDATA@CDataManager@UTIL@NMBASE@@@std@@@std@@@std@@U_Iterator_base12@2@@std@@QAE@PAU?$_Tree_node@U?$pair@$$CBV?$basic_string@DU?$char_traits@D@std@@V?$allocator@D@2@@std@@VCDATA@CDataManager@UTIL@NMBASE@@@std@@PAX@1@PBV?$_Tree_val@U?$_Tree_simple_types@U?$pair@$$CBV?$basic_string@DU?$char_traits@D@std@@V?$allocator@D@2@@std@@VCDATA@CDataManager@UTIL@NMBASE@@@std@@@std@@@1@@Z 10085e30 f i DataManager.obj
 0002:0002eea0       ??0?$_Tree_unchecked_const_iterator@V?$_Tree_val@U?$_Tree_simple_types@U?$pair@$$CBV?$basic_string@DU?$char_traits@D@std@@V?$allocator@D@2@@std@@VCDATA@CDataManager@UTIL@NMBASE@@@std@@@std@@@std@@U_Iterator_base12@2@@std@@QAE@XZ 10085ea0 f i DataManager.obj
 0002:0002ef00       ??0?$_Tree_val@U?$_Tree_simple_types@U?$pair@$$CBV?$basic_string@DU?$char_traits@D@std@@V?$allocator@D@2@@std@@VCDATA@CDataManager@UTIL@NMBASE@@@std@@@std@@@std@@QAE@XZ 10085f00 f i DataManager.obj
 0002:0002ef70       ??0?$allocator@U?$_Tree_node@U?$pair@$$CBV?$basic_string@DU?$char_traits@D@std@@V?$allocator@D@2@@std@@VCDATA@CDataManager@UTIL@NMBASE@@@std@@PAX@std@@@std@@QAE@XZ 10085f70 f i DataManager.obj
 0002:0002efb0       ??0?$basic_string@DU?$char_traits@D@std@@V?$allocator@D@2@@std@@QAE@ABV01@@Z 10085fb0 f i DataManager.obj
 0002:0002f080       ??0?$basic_string@DU?$char_traits@D@std@@V?$allocator@D@2@@std@@QAE@XZ 10086080 f i DataManager.obj
 0002:0002f120       ??0?$map@V?$basic_string@DU?$char_traits@D@std@@V?$allocator@D@2@@std@@VCDATA@CDataManager@UTIL@NMBASE@@U?$less@V?$basic_string@DU?$char_traits@D@std@@V?$allocator@D@2@@std@@@2@V?$allocator@U?$pair@$$CBV?$basic_string@DU?$char_traits@D@std@@V?$allocator@D@2@@std@@VCDATA@CDataManager@UTIL@NMBASE@@@std@@@2@@std@@QAE@ABV01@@Z 10086120 f i DataManager.obj
 0002:0002f1a0       ??0?$map@V?$basic_string@DU?$char_traits@D@std@@V?$allocator@D@2@@std@@VCDATA@CDataManager@UTIL@NMBASE@@U?$less@V?$basic_string@DU?$char_traits@D@std@@V?$allocator@D@2@@std@@@2@V?$allocator@U?$pair@$$CBV?$basic_string@DU?$char_traits@D@std@@V?$allocator@D@2@@std@@VCDATA@CDataManager@UTIL@NMBASE@@@std@@@2@@std@@QAE@XZ 100861a0 f i DataManager.obj
 0002:0002f200       ??0?$pair@$$CBV?$basic_string@DU?$char_traits@D@std@@V?$allocator@D@2@@std@@VCDATA@CDataManager@UTIL@NMBASE@@@std@@QAE@ABU01@@Z 10086200 f i DataManager.obj
 0002:0002f270       ??0?$tuple@$$V@std@@QAE@ABV01@@Z 10086270 f i DataManager.obj
 0002:0002f2b0       ??0?$tuple@$$V@std@@QAE@XZ 100862b0 f i DataManager.obj
 0002:0002f2f0       ??0?$tuple@ABV?$basic_string@DU?$char_traits@D@std@@V?$allocator@D@2@@std@@@std@@QAE@$$QAV01@@Z 100862f0 f i DataManager.obj
 0002:0002f360       ??0CDATA@CDataManager@UTIL@NMBASE@@QAE@ABV0123@@Z 10086360 f i DataManager.obj
 0002:0002f3d0       ??0CDATA@CDataManager@UTIL@NMBASE@@QAE@XZ 100863d0 f   DataManager.obj
 0002:0002f430       ??0CDataManager@UTIL@NMBASE@@QAE@ABV012@@Z 10086430 f i DataManager.obj
 0002:0002f4e0       ??0CDataManager@UTIL@NMBASE@@QAE@XZ 100864e0 f   DataManager.obj
 0002:0002f560       ??0CThreadLock@UTIL@NMBASE@@QAE@ABV012@@Z 10086560 f i DataManager.obj
 0002:0002f5c0       ??1?$_Tree@V?$_Tmap_traits@V?$basic_string@DU?$char_traits@D@std@@V?$allocator@D@2@@std@@VCDATA@CDataManager@UTIL@NMBASE@@U?$less@V?$basic_string@DU?$char_traits@D@std@@V?$allocator@D@2@@std@@@2@V?$allocator@U?$pair@$$CBV?$basic_string@DU?$char_traits@D@std@@V?$allocator@D@2@@std@@VCDATA@CDataManager@UTIL@NMBASE@@@std@@@2@$0A@@std@@@std@@QAE@XZ 100865c0 f i DataManager.obj
 0002:0002f650       ??1?$_Tree_comp_alloc@V?$_Tmap_traits@V?$basic_string@DU?$char_traits@D@std@@V?$allocator@D@2@@std@@VCDATA@CDataManager@UTIL@NMBASE@@U?$less@V?$basic_string@DU?$char_traits@D@std@@V?$allocator@D@2@@std@@@2@V?$allocator@U?$pair@$$CBV?$basic_string@DU?$char_traits@D@std@@V?$allocator@D@2@@std@@VCDATA@CDataManager@UTIL@NMBASE@@@std@@@2@$0A@@std@@@std@@QAE@XZ 10086650 f i DataManager.obj
 0002:0002f6f0       ??1?$_Tree_const_iterator@V?$_Tree_val@U?$_Tree_simple_types@U?$pair@$$CBV?$basic_string@DU?$char_traits@D@std@@V?$allocator@D@2@@std@@VCDATA@CDataManager@UTIL@NMBASE@@@std@@@std@@@std@@@std@@QAE@XZ 100866f0 f i DataManager.obj
 0002:0002f740       ??1?$_Tree_iterator@V?$_Tree_val@U?$_Tree_simple_types@U?$pair@$$CBV?$basic_string@DU?$char_traits@D@std@@V?$allocator@D@2@@std@@VCDATA@CDataManager@UTIL@NMBASE@@@std@@@std@@@std@@@std@@QAE@XZ 10086740 f i DataManager.obj
 0002:0002f790       ??1?$_Tree_unchecked_const_iterator@V?$_Tree_val@U?$_Tree_simple_types@U?$pair@$$CBV?$basic_string@DU?$char_traits@D@std@@V?$allocator@D@2@@std@@VCDATA@CDataManager@UTIL@NMBASE@@@std@@@std@@@std@@U_Iterator_base12@2@@std@@QAE@XZ 10086790 f i DataManager.obj
 0002:0002f7e0       ??1?$map@V?$basic_string@DU?$char_traits@D@std@@V?$allocator@D@2@@std@@VCDATA@CDataManager@UTIL@NMBASE@@U?$less@V?$basic_string@DU?$char_traits@D@std@@V?$allocator@D@2@@std@@@2@V?$allocator@U?$pair@$$CBV?$basic_string@DU?$char_traits@D@std@@V?$allocator@D@2@@std@@VCDATA@CDataManager@UTIL@NMBASE@@@std@@@2@@std@@QAE@XZ 100867e0 f i DataManager.obj
 0002:0002f830       ??1?$pair@$$CBV?$basic_string@DU?$char_traits@D@std@@V?$allocator@D@2@@std@@VCDATA@CDataManager@UTIL@NMBASE@@@std@@QAE@XZ 10086830 f i DataManager.obj
 0002:0002f890       ??1?$pair@V?$_Tree_iterator@V?$_Tree_val@U?$_Tree_simple_types@U?$pair@$$CBV?$basic_string@DU?$char_traits@D@std@@V?$allocator@D@2@@std@@VCDATA@CDataManager@UTIL@NMBASE@@@std@@@std@@@std@@@std@@_N@std@@QAE@XZ 10086890 f i DataManager.obj
 0002:0002f8e0       ??1CDATA@CDataManager@UTIL@NMBASE@@UAE@XZ 100868e0 f   DataManager.obj
 0002:0002f920       ??1CDataManager@UTIL@NMBASE@@UAE@XZ 10086920 f   DataManager.obj
 0002:0002f9a0       ??4?$_Tree@V?$_Tmap_traits@V?$basic_string@DU?$char_traits@D@std@@V?$allocator@D@2@@std@@VCDATA@CDataManager@UTIL@NMBASE@@U?$less@V?$basic_string@DU?$char_traits@D@std@@V?$allocator@D@2@@std@@@2@V?$allocator@U?$pair@$$CBV?$basic_string@DU?$char_traits@D@std@@V?$allocator@D@2@@std@@VCDATA@CDataManager@UTIL@NMBASE@@@std@@@2@$0A@@std@@@std@@QAEAAV01@ABV01@@Z 100869a0 f i DataManager.obj
 0002:0002fa50       ??4?$_Tree_const_iterator@V?$_Tree_val@U?$_Tree_simple_types@U?$pair@$$CBV?$basic_string@DU?$char_traits@D@std@@V?$allocator@D@2@@std@@VCDATA@CDataManager@UTIL@NMBASE@@@std@@@std@@@std@@@std@@QAEAAV01@ABV01@@Z 10086a50 f i DataManager.obj
 0002:0002fab0       ??4?$_Tree_unchecked_const_iterator@V?$_Tree_val@U?$_Tree_simple_types@U?$pair@$$CBV?$basic_string@DU?$char_traits@D@std@@V?$allocator@D@2@@std@@VCDATA@CDataManager@UTIL@NMBASE@@@std@@@std@@@std@@U_Iterator_base12@2@@std@@QAEAAV01@ABV01@@Z 10086ab0 f i DataManager.obj
 0002:0002fb20       ??4?$basic_string@DU?$char_traits@D@std@@V?$allocator@D@2@@std@@QAEAAV01@ABV01@@Z 10086b20 f i DataManager.obj
 0002:0002fbd0       ??4?$map@V?$basic_string@DU?$char_traits@D@std@@V?$allocator@D@2@@std@@VCDATA@CDataManager@UTIL@NMBASE@@U?$less@V?$basic_string@DU?$char_traits@D@std@@V?$allocator@D@2@@std@@@2@V?$allocator@U?$pair@$$CBV?$basic_string@DU?$char_traits@D@std@@V?$allocator@D@2@@std@@VCDATA@CDataManager@UTIL@NMBASE@@@std@@@2@@std@@QAEAAV01@ABV01@@Z 10086bd0 f i DataManager.obj
 0002:0002fc30       ??4CDATA@CDataManager@UTIL@NMBASE@@QAEAAV0123@ABV0123@@Z 10086c30 f i DataManager.obj
 0002:0002fc90       ??4CDataManager@UTIL@NMBASE@@QAEAAV012@ABV012@@Z 10086c90 f i DataManager.obj
 0002:0002fd30       ??4CThreadLock@UTIL@NMBASE@@QAEAAV012@ABV012@@Z 10086d30 f i DataManager.obj
 0002:0002fd80       ??8?$_Tree_const_iterator@V?$_Tree_val@U?$_Tree_simple_types@U?$pair@$$CBV?$basic_string@DU?$char_traits@D@std@@V?$allocator@D@2@@std@@VCDATA@CDataManager@UTIL@NMBASE@@@std@@@std@@@std@@@std@@QBE_NABV01@@Z 10086d80 f i DataManager.obj
 0002:0002fea0       ??9?$_Tree_const_iterator@V?$_Tree_val@U?$_Tree_simple_types@U?$pair@$$CBV?$basic_string@DU?$char_traits@D@std@@V?$allocator@D@2@@std@@VCDATA@CDataManager@UTIL@NMBASE@@@std@@@std@@@std@@@std@@QBE_NABV01@@Z 10086ea0 f i DataManager.obj
 0002:0002ff30       ??A?$map@V?$basic_string@DU?$char_traits@D@std@@V?$allocator@D@2@@std@@VCDATA@CDataManager@UTIL@NMBASE@@U?$less@V?$basic_string@DU?$char_traits@D@std@@V?$allocator@D@2@@std@@@2@V?$allocator@U?$pair@$$CBV?$basic_string@DU?$char_traits@D@std@@V?$allocator@D@2@@std@@VCDATA@CDataManager@UTIL@NMBASE@@@std@@@2@@std@@QAEAAVCDATA@CDataManager@UTIL@NMBASE@@ABV?$basic_string@DU?$char_traits@D@std@@V?$allocator@D@2@@1@@Z 10086f30 f i DataManager.obj
 0002:00030020       ??C?$_Tree_iterator@V?$_Tree_val@U?$_Tree_simple_types@U?$pair@$$CBV?$basic_string@DU?$char_traits@D@std@@V?$allocator@D@2@@std@@VCDATA@CDataManager@UTIL@NMBASE@@@std@@@std@@@std@@@std@@QBEPAU?$pair@$$CBV?$basic_string@DU?$char_traits@D@std@@V?$allocator@D@2@@std@@VCDATA@CDataManager@UTIL@NMBASE@@@1@XZ 10087020 f i DataManager.obj
 0002:00030080       ??D?$_Tree_const_iterator@V?$_Tree_val@U?$_Tree_simple_types@U?$pair@$$CBV?$basic_string@DU?$char_traits@D@std@@V?$allocator@D@2@@std@@VCDATA@CDataManager@UTIL@NMBASE@@@std@@@std@@@std@@@std@@QBEABU?$pair@$$CBV?$basic_string@DU?$char_traits@D@std@@V?$allocator@D@2@@std@@VCDATA@CDataManager@UTIL@NMBASE@@@1@XZ 10087080 f i DataManager.obj
 0002:000301f0       ??D?$_Tree_iterator@V?$_Tree_val@U?$_Tree_simple_types@U?$pair@$$CBV?$basic_string@DU?$char_traits@D@std@@V?$allocator@D@2@@std@@VCDATA@CDataManager@UTIL@NMBASE@@@std@@@std@@@std@@@std@@QBEAAU?$pair@$$CBV?$basic_string@DU?$char_traits@D@std@@V?$allocator@D@2@@std@@VCDATA@CDataManager@UTIL@NMBASE@@@1@XZ 100871f0 f i DataManager.obj
 0002:00030240       ??E?$_Tree_const_iterator@V?$_Tree_val@U?$_Tree_simple_types@U?$pair@$$CBV?$basic_string@DU?$char_traits@D@std@@V?$allocator@D@2@@std@@VCDATA@CDataManager@UTIL@NMBASE@@@std@@@std@@@std@@@std@@QAE?AV01@H@Z 10087240 f i DataManager.obj
 0002:00030360       ??E?$_Tree_const_iterator@V?$_Tree_val@U?$_Tree_simple_types@U?$pair@$$CBV?$basic_string@DU?$char_traits@D@std@@V?$allocator@D@2@@std@@VCDATA@CDataManager@UTIL@NMBASE@@@std@@@std@@@std@@@std@@QAEAAV01@XZ 10087360 f i DataManager.obj
 0002:000304d0       ??E?$_Tree_iterator@V?$_Tree_val@U?$_Tree_simple_types@U?$pair@$$CBV?$basic_string@DU?$char_traits@D@std@@V?$allocator@D@2@@std@@VCDATA@CDataManager@UTIL@NMBASE@@@std@@@std@@@std@@@std@@QAEAAV01@XZ 100874d0 f i DataManager.obj
 0002:00030530       ??E?$_Tree_unchecked_const_iterator@V?$_Tree_val@U?$_Tree_simple_types@U?$pair@$$CBV?$basic_string@DU?$char_traits@D@std@@V?$allocator@D@2@@std@@VCDATA@CDataManager@UTIL@NMBASE@@@std@@@std@@@std@@U_Iterator_base12@2@@std@@QAEAAV01@XZ 10087530 f i DataManager.obj
 0002:00030600       ??F?$_Tree_const_iterator@V?$_Tree_val@U?$_Tree_simple_types@U?$pair@$$CBV?$basic_string@DU?$char_traits@D@std@@V?$allocator@D@2@@std@@VCDATA@CDataManager@UTIL@NMBASE@@@std@@@std@@@std@@@std@@QAEAAV01@XZ 10087600 f i DataManager.obj
 0002:00030770       ??F?$_Tree_iterator@V?$_Tree_val@U?$_Tree_simple_types@U?$pair@$$CBV?$basic_string@DU?$char_traits@D@std@@V?$allocator@D@2@@std@@VCDATA@CDataManager@UTIL@NMBASE@@@std@@@std@@@std@@@std@@QAEAAV01@XZ 10087770 f i DataManager.obj
 0002:000307d0       ??F?$_Tree_unchecked_const_iterator@V?$_Tree_val@U?$_Tree_simple_types@U?$pair@$$CBV?$basic_string@DU?$char_traits@D@std@@V?$allocator@D@2@@std@@VCDATA@CDataManager@UTIL@NMBASE@@@std@@@std@@@std@@U_Iterator_base12@2@@std@@QAEAAV01@XZ 100877d0 f i DataManager.obj
 0002:000308d0       ??R?$less@V?$basic_string@DU?$char_traits@D@std@@V?$allocator@D@2@@std@@@std@@QBE_NABV?$basic_string@DU?$char_traits@D@std@@V?$allocator@D@2@@1@0@Z 100878d0 f i DataManager.obj
 0002:00030930       ??_ECDataManager@UTIL@NMBASE@@UAEPAXI@Z 10087930 f i DataManager.obj
 0002:00030a30       ??_ECThreadLock@UTIL@NMBASE@@UAEPAXI@Z 10087a30 f i DataManager.obj
 0002:00030b40       ??_G?$basic_string@DU?$char_traits@D@std@@V?$allocator@D@2@@std@@QAEPAXI@Z 10087b40 f i DataManager.obj
 0002:00030bb0       ??_G?$pair@$$CBV?$basic_string@DU?$char_traits@D@std@@V?$allocator@D@2@@std@@VCDATA@CDataManager@UTIL@NMBASE@@@std@@QAEPAXI@Z 10087bb0 f i DataManager.obj
 0002:00030c20       ??_GCDATA@CDataManager@UTIL@NMBASE@@UAEPAXI@Z 10087c20 f i DataManager.obj
 0002:00030c20       ??_ECDATA@CDataManager@UTIL@NMBASE@@UAEPAXI@Z 10087c20 f i DataManager.obj
 0002:00030c90       ??_GCDataManager@UTIL@NMBASE@@UAEPAXI@Z 10087c90 f i DataManager.obj
 0002:00030d00       ??_GCThreadLock@UTIL@NMBASE@@UAEPAXI@Z 10087d00 f i DataManager.obj
 0002:00030d70       ?AfxAssertFailedLine@@YGHPBDH@Z 10087d70 f i DataManager.obj
 0002:00030e60       ?GDMAN@UTIL@NMBASE@@YAAAVCDataManager@12@XZ 10087e60 f   DataManager.obj
 0002:00030eb0       ?GetBool@CDataManager@UTIL@NMBASE@@QAE_NABV?$basic_string@DU?$char_traits@D@std@@V?$allocator@D@2@@std@@@Z 10087eb0 f   DataManager.obj
 0002:00030ff0       ?GetData@CDataManager@UTIL@NMBASE@@IAEAAVCDATA@123@ABV?$basic_string@DU?$char_traits@D@std@@V?$allocator@D@2@@std@@@Z 10087ff0 f   DataManager.obj
 0002:000310f0       ?GetDouble@CDataManager@UTIL@NMBASE@@QAEAANABV?$basic_string@DU?$char_traits@D@std@@V?$allocator@D@2@@std@@@Z 100880f0 f   DataManager.obj
 0002:00031260       ?GetINT64@CDataManager@UTIL@NMBASE@@QAEAA_JABV?$basic_string@DU?$char_traits@D@std@@V?$allocator@D@2@@std@@@Z 10088260 f   DataManager.obj
 0002:000313d0       ?GetInstance@CDataManager@UTIL@NMBASE@@SAAAV123@XZ 100883d0 f   DataManager.obj
 0002:000314d0       ?GetString@CDataManager@UTIL@NMBASE@@QAEAAV?$basic_string@DU?$char_traits@D@std@@V?$allocator@D@2@@std@@ABV45@@Z 100884d0 f   DataManager.obj
 0002:00031640       ?GetUINT64@CDataManager@UTIL@NMBASE@@QAEAA_KABV?$basic_string@DU?$char_traits@D@std@@V?$allocator@D@2@@std@@@Z 10088640 f   DataManager.obj
 0002:000317b0       ?IsKey@CDataManager@UTIL@NMBASE@@QAE_NABV?$basic_string@DU?$char_traits@D@std@@V?$allocator@D@2@@std@@@Z 100887b0 f   DataManager.obj
 0002:00031990       ?Release@CDATA@CDataManager@UTIL@NMBASE@@QAEXXZ 10088990 f   DataManager.obj
 0002:00031b00       ?Release@CDataManager@UTIL@NMBASE@@QAEXXZ 10088b00 f   DataManager.obj
 0002:00031cb0       ?SetBool@CDataManager@UTIL@NMBASE@@QAEXABV?$basic_string@DU?$char_traits@D@std@@V?$allocator@D@2@@std@@_N@Z 10088cb0 f   DataManager.obj
 0002:00031dd0       ?SetDouble@CDataManager@UTIL@NMBASE@@QAEXABV?$basic_string@DU?$char_traits@D@std@@V?$allocator@D@2@@std@@N@Z 10088dd0 f   DataManager.obj
 0002:00031fb0       ?SetINT64@CDataManager@UTIL@NMBASE@@QAEXABV?$basic_string@DU?$char_traits@D@std@@V?$allocator@D@2@@std@@_J@Z 10088fb0 f   DataManager.obj
 0002:00032190       ?SetString@CDataManager@UTIL@NMBASE@@QAEXABV?$basic_string@DU?$char_traits@D@std@@V?$allocator@D@2@@std@@V45@@Z 10089190 f   DataManager.obj
 0002:000323b0       ?SetUINT64@CDataManager@UTIL@NMBASE@@QAEXABV?$basic_string@DU?$char_traits@D@std@@V?$allocator@D@2@@std@@_K@Z 100893b0 f   DataManager.obj
 0002:00032590       ?_Alloc_proxy@?$_Tree_comp_alloc@V?$_Tmap_traits@V?$basic_string@DU?$char_traits@D@std@@V?$allocator@D@2@@std@@VCDATA@CDataManager@UTIL@NMBASE@@U?$less@V?$basic_string@DU?$char_traits@D@std@@V?$allocator@D@2@@std@@@2@V?$allocator@U?$pair@$$CBV?$basic_string@DU?$char_traits@D@std@@V?$allocator@D@2@@std@@VCDATA@CDataManager@UTIL@NMBASE@@@std@@@2@$0A@@std@@@std@@QAEXXZ 10089590 f i DataManager.obj
 0002:000326b0       ?_Buyheadnode@?$_Tree_comp_alloc@V?$_Tmap_traits@V?$basic_string@DU?$char_traits@D@std@@V?$allocator@D@2@@std@@VCDATA@CDataManager@UTIL@NMBASE@@U?$less@V?$basic_string@DU?$char_traits@D@std@@V?$allocator@D@2@@std@@@2@V?$allocator@U?$pair@$$CBV?$basic_string@DU?$char_traits@D@std@@V?$allocator@D@2@@std@@VCDATA@CDataManager@UTIL@NMBASE@@@std@@@2@$0A@@std@@@std@@QAEPAU?$_Tree_node@U?$pair@$$CBV?$basic_string@DU?$char_traits@D@std@@V?$allocator@D@2@@std@@VCDATA@CDataManager@UTIL@NMBASE@@@std@@PAX@2@XZ 100896b0 f i DataManager.obj
 0002:00032860       ?_Buynode0@?$_Tree_comp_alloc@V?$_Tmap_traits@V?$basic_string@DU?$char_traits@D@std@@V?$allocator@D@2@@std@@VCDATA@CDataManager@UTIL@NMBASE@@U?$less@V?$basic_string@DU?$char_traits@D@std@@V?$allocator@D@2@@std@@@2@V?$allocator@U?$pair@$$CBV?$basic_string@DU?$char_traits@D@std@@V?$allocator@D@2@@std@@VCDATA@CDataManager@UTIL@NMBASE@@@std@@@2@$0A@@std@@@std@@QAEPAU?$_Tree_node@U?$pair@$$CBV?$basic_string@DU?$char_traits@D@std@@V?$allocator@D@2@@std@@VCDATA@CDataManager@UTIL@NMBASE@@@std@@PAX@2@XZ 10089860 f i DataManager.obj
 0002:000329d0       ?_Compare@?$_Tree@V?$_Tmap_traits@V?$basic_string@DU?$char_traits@D@std@@V?$allocator@D@2@@std@@VCDATA@CDataManager@UTIL@NMBASE@@U?$less@V?$basic_string@DU?$char_traits@D@std@@V?$allocator@D@2@@std@@@2@V?$allocator@U?$pair@$$CBV?$basic_string@DU?$char_traits@D@std@@V?$allocator@D@2@@std@@VCDATA@CDataManager@UTIL@NMBASE@@@std@@@2@$0A@@std@@@std@@IBE_NABV?$basic_string@DU?$char_traits@D@std@@V?$allocator@D@2@@2@0@Z 100899d0 f i DataManager.obj
 0002:00032a40       ?_Construct@?$_Tree_comp_alloc@V?$_Tmap_traits@V?$basic_string@DU?$char_traits@D@std@@V?$allocator@D@2@@std@@VCDATA@CDataManager@UTIL@NMBASE@@U?$less@V?$basic_string@DU?$char_traits@D@std@@V?$allocator@D@2@@std@@@2@V?$allocator@U?$pair@$$CBV?$basic_string@DU?$char_traits@D@std@@V?$allocator@D@2@@std@@VCDATA@CDataManager@UTIL@NMBASE@@@std@@@2@$0A@@std@@@std@@QAEXXZ 10089a40 f i DataManager.obj
 0002:00032b30       ?_Construct_lv_contents@?$basic_string@DU?$char_traits@D@std@@V?$allocator@D@2@@std@@QAEXABV12@@Z 10089b30 f i DataManager.obj
 0002:00032d00       ?_Copy_alloc@?$_String_alloc@U?$_String_base_types@DV?$allocator@D@std@@@std@@@std@@QAEXABV?$allocator@D@2@@Z 10089d00 f i DataManager.obj
 0002:00032d90       ?_Copy_alloc@?$_Tree_comp_alloc@V?$_Tmap_traits@V?$basic_string@DU?$char_traits@D@std@@V?$allocator@D@2@@std@@VCDATA@CDataManager@UTIL@NMBASE@@U?$less@V?$basic_string@DU?$char_traits@D@std@@V?$allocator@D@2@@std@@@2@V?$allocator@U?$pair@$$CBV?$basic_string@DU?$char_traits@D@std@@V?$allocator@D@2@@std@@VCDATA@CDataManager@UTIL@NMBASE@@@std@@@2@$0A@@std@@@std@@QAEXABV?$allocator@U?$_Tree_node@U?$pair@$$CBV?$basic_string@DU?$char_traits@D@std@@V?$allocator@D@2@@std@@VCDATA@CDataManager@UTIL@NMBASE@@@std@@PAX@std@@@2@@Z 10089d90 f i DataManager.obj
 0002:00032e50       ?_Destroy_if_node@?$_Tree@V?$_Tmap_traits@V?$basic_string@DU?$char_traits@D@std@@V?$allocator@D@2@@std@@VCDATA@CDataManager@UTIL@NMBASE@@U?$less@V?$basic_string@DU?$char_traits@D@std@@V?$allocator@D@2@@std@@@2@V?$allocator@U?$pair@$$CBV?$basic_string@DU?$char_traits@D@std@@V?$allocator@D@2@@std@@VCDATA@CDataManager@UTIL@NMBASE@@@std@@@2@$0A@@std@@@std@@IAEXPAU?$_Tree_node@U?$pair@$$CBV?$basic_string@DU?$char_traits@D@std@@V?$allocator@D@2@@std@@VCDATA@CDataManager@UTIL@NMBASE@@@std@@PAX@2@@Z 10089e50 f i DataManager.obj
 0002:00032ee0       ?_Erase@?$_Tree@V?$_Tmap_traits@V?$basic_string@DU?$char_traits@D@std@@V?$allocator@D@2@@std@@VCDATA@CDataManager@UTIL@NMBASE@@U?$less@V?$basic_string@DU?$char_traits@D@std@@V?$allocator@D@2@@std@@@2@V?$allocator@U?$pair@$$CBV?$basic_string@DU?$char_traits@D@std@@V?$allocator@D@2@@std@@VCDATA@CDataManager@UTIL@NMBASE@@@std@@@2@$0A@@std@@@std@@IAEXPAU?$_Tree_node@U?$pair@$$CBV?$basic_string@DU?$char_traits@D@std@@V?$allocator@D@2@@std@@VCDATA@CDataManager@UTIL@NMBASE@@@std@@PAX@2@@Z 10089ee0 f i DataManager.obj
 0002:00032fb0       ?_Extract@?$_Tree_val@U?$_Tree_simple_types@U?$pair@$$CBV?$basic_string@DU?$char_traits@D@std@@V?$allocator@D@2@@std@@VCDATA@CDataManager@UTIL@NMBASE@@@std@@@std@@@std@@QAEPAU?$_Tree_node@U?$pair@$$CBV?$basic_string@DU?$char_traits@D@std@@V?$allocator@D@2@@std@@VCDATA@CDataManager@UTIL@NMBASE@@@std@@PAX@2@V?$_Tree_const_iterator@V?$_Tree_val@U?$_Tree_simple_types@U?$pair@$$CBV?$basic_string@DU?$char_traits@D@std@@V?$allocator@D@2@@std@@VCDATA@CDataManager@UTIL@NMBASE@@@std@@@std@@@std@@@2@@Z 10089fb0 f i DataManager.obj
 0002:00033640       ?_Free_proxy@?$_Tree_comp_alloc@V?$_Tmap_traits@V?$basic_string@DU?$char_traits@D@std@@V?$allocator@D@2@@std@@VCDATA@CDataManager@UTIL@NMBASE@@U?$less@V?$basic_string@DU?$char_traits@D@std@@V?$allocator@D@2@@std@@@2@V?$allocator@U?$pair@$$CBV?$basic_string@DU?$char_traits@D@std@@V?$allocator@D@2@@std@@VCDATA@CDataManager@UTIL@NMBASE@@@std@@@2@$0A@@std@@@std@@QAEXXZ 1008a640 f i DataManager.obj
 0002:00033740       ?_Freeheadnode@?$_Tree_comp_alloc@V?$_Tmap_traits@V?$basic_string@DU?$char_traits@D@std@@V?$allocator@D@2@@std@@VCDATA@CDataManager@UTIL@NMBASE@@U?$less@V?$basic_string@DU?$char_traits@D@std@@V?$allocator@D@2@@std@@@2@V?$allocator@U?$pair@$$CBV?$basic_string@DU?$char_traits@D@std@@V?$allocator@D@2@@std@@VCDATA@CDataManager@UTIL@NMBASE@@@std@@@2@$0A@@std@@@std@@QAEXPAU?$_Tree_node@U?$pair@$$CBV?$basic_string@DU?$char_traits@D@std@@V?$allocator@D@2@@std@@VCDATA@CDataManager@UTIL@NMBASE@@@std@@PAX@2@@Z 1008a740 f i DataManager.obj
 0002:000337b0       ?_Freenode0@?$_Tree_comp_alloc@V?$_Tmap_traits@V?$basic_string@DU?$char_traits@D@std@@V?$allocator@D@2@@std@@VCDATA@CDataManager@UTIL@NMBASE@@U?$less@V?$basic_string@DU?$char_traits@D@std@@V?$allocator@D@2@@std@@@2@V?$allocator@U?$pair@$$CBV?$basic_string@DU?$char_traits@D@std@@V?$allocator@D@2@@std@@VCDATA@CDataManager@UTIL@NMBASE@@@std@@@2@$0A@@std@@@std@@QAEXPAU?$_Tree_node@U?$pair@$$CBV?$basic_string@DU?$char_traits@D@std@@V?$allocator@D@2@@std@@VCDATA@CDataManager@UTIL@NMBASE@@@std@@PAX@2@@Z 1008a7b0 f i DataManager.obj
 0002:00033820       ?_Get_data@?$_Tree_comp_alloc@V?$_Tmap_traits@V?$basic_string@DU?$char_traits@D@std@@V?$allocator@D@2@@std@@VCDATA@CDataManager@UTIL@NMBASE@@U?$less@V?$basic_string@DU?$char_traits@D@std@@V?$allocator@D@2@@std@@@2@V?$allocator@U?$pair@$$CBV?$basic_string@DU?$char_traits@D@std@@V?$allocator@D@2@@std@@VCDATA@CDataManager@UTIL@NMBASE@@@std@@@2@$0A@@std@@@std@@QAEAAV?$_Tree_val@U?$_Tree_simple_types@U?$pair@$$CBV?$basic_string@DU?$char_traits@D@std@@V?$allocator@D@2@@std@@VCDATA@CDataManager@UTIL@NMBASE@@@std@@@std@@@2@XZ 1008a820 f i DataManager.obj
 0002:00033880       ?_Get_data@?$_Tree_comp_alloc@V?$_Tmap_traits@V?$basic_string@DU?$char_traits@D@std@@V?$allocator@D@2@@std@@VCDATA@CDataManager@UTIL@NMBASE@@U?$less@V?$basic_string@DU?$char_traits@D@std@@V?$allocator@D@2@@std@@@2@V?$allocator@U?$pair@$$CBV?$basic_string@DU?$char_traits@D@std@@V?$allocator@D@2@@std@@VCDATA@CDataManager@UTIL@NMBASE@@@std@@@2@$0A@@std@@@std@@QBEABV?$_Tree_val@U?$_Tree_simple_types@U?$pair@$$CBV?$basic_string@DU?$char_traits@D@std@@V?$allocator@D@2@@std@@VCDATA@CDataManager@UTIL@NMBASE@@@std@@@std@@@2@XZ 1008a880 f i DataManager.obj
 0002:000338e0       ?_Get_first@?$_Compressed_pair@U?$less@V?$basic_string@DU?$char_traits@D@std@@V?$allocator@D@2@@std@@@std@@V?$_Compressed_pair@V?$allocator@U?$_Tree_node@U?$pair@$$CBV?$basic_string@DU?$char_traits@D@std@@V?$allocator@D@2@@std@@VCDATA@CDataManager@UTIL@NMBASE@@@std@@PAX@std@@@std@@V?$_Tree_val@U?$_Tree_simple_types@U?$pair@$$CBV?$basic_string@DU?$char_traits@D@std@@V?$allocator@D@2@@std@@VCDATA@CDataManager@UTIL@NMBASE@@@std@@@std@@@2@$00@2@$00@std@@QAEAAU?$less@V?$basic_string@DU?$char_traits@D@std@@V?$allocator@D@2@@std@@@2@XZ 1008a8e0 f i DataManager.obj
 0002:00033920       ?_Get_first@?$_Compressed_pair@U?$less@V?$basic_string@DU?$char_traits@D@std@@V?$allocator@D@2@@std@@@std@@V?$_Compressed_pair@V?$allocator@U?$_Tree_node@U?$pair@$$CBV?$basic_string@DU?$char_traits@D@std@@V?$allocator@D@2@@std@@VCDATA@CDataManager@UTIL@NMBASE@@@std@@PAX@std@@@std@@V?$_Tree_val@U?$_Tree_simple_types@U?$pair@$$CBV?$basic_string@DU?$char_traits@D@std@@V?$allocator@D@2@@std@@VCDATA@CDataManager@UTIL@NMBASE@@@std@@@std@@@2@$00@2@$00@std@@QBEABU?$less@V?$basic_string@DU?$char_traits@D@std@@V?$allocator@D@2@@std@@@2@XZ 1008a920 f i DataManager.obj
 0002:00033960       ?_Get_first@?$_Compressed_pair@V?$allocator@U?$_Tree_node@U?$pair@$$CBV?$basic_string@DU?$char_traits@D@std@@V?$allocator@D@2@@std@@VCDATA@CDataManager@UTIL@NMBASE@@@std@@PAX@std@@@std@@V?$_Tree_val@U?$_Tree_simple_types@U?$pair@$$CBV?$basic_string@DU?$char_traits@D@std@@V?$allocator@D@2@@std@@VCDATA@CDataManager@UTIL@NMBASE@@@std@@@std@@@2@$00@std@@QAEAAV?$allocator@U?$_Tree_node@U?$pair@$$CBV?$basic_string@DU?$char_traits@D@std@@V?$allocator@D@2@@std@@VCDATA@CDataManager@UTIL@NMBASE@@@std@@PAX@std@@@2@XZ 1008a960 f i DataManager.obj
 0002:000339a0       ?_Get_first@?$_Compressed_pair@V?$allocator@U?$_Tree_node@U?$pair@$$CBV?$basic_string@DU?$char_traits@D@std@@V?$allocator@D@2@@std@@VCDATA@CDataManager@UTIL@NMBASE@@@std@@PAX@std@@@std@@V?$_Tree_val@U?$_Tree_simple_types@U?$pair@$$CBV?$basic_string@DU?$char_traits@D@std@@V?$allocator@D@2@@std@@VCDATA@CDataManager@UTIL@NMBASE@@@std@@@std@@@2@$00@std@@QBEABV?$allocator@U?$_Tree_node@U?$pair@$$CBV?$basic_string@DU?$char_traits@D@std@@V?$allocator@D@2@@std@@VCDATA@CDataManager@UTIL@NMBASE@@@std@@PAX@std@@@2@XZ 1008a9a0 f i DataManager.obj
 0002:000339e0       ?_Get_second@?$_Compressed_pair@U?$less@V?$basic_string@DU?$char_traits@D@std@@V?$allocator@D@2@@std@@@std@@V?$_Compressed_pair@V?$allocator@U?$_Tree_node@U?$pair@$$CBV?$basic_string@DU?$char_traits@D@std@@V?$allocator@D@2@@std@@VCDATA@CDataManager@UTIL@NMBASE@@@std@@PAX@std@@@std@@V?$_Tree_val@U?$_Tree_simple_types@U?$pair@$$CBV?$basic_string@DU?$char_traits@D@std@@V?$allocator@D@2@@std@@VCDATA@CDataManager@UTIL@NMBASE@@@std@@@std@@@2@$00@2@$00@std@@QAEAAV?$_Compressed_pair@V?$allocator@U?$_Tree_node@U?$pair@$$CBV?$basic_string@DU?$char_traits@D@std@@V?$allocator@D@2@@std@@VCDATA@CDataManager@UTIL@NMBASE@@@std@@PAX@std@@@std@@V?$_Tree_val@U?$_Tree_simple_types@U?$pair@$$CBV?$basic_string@DU?$char_traits@D@std@@V?$allocator@D@2@@std@@VCDATA@CDataManager@UTIL@NMBASE@@@std@@@std@@@2@$00@2@XZ 1008a9e0 f i DataManager.obj
 0002:00033a20       ?_Get_second@?$_Compressed_pair@U?$less@V?$basic_string@DU?$char_traits@D@std@@V?$allocator@D@2@@std@@@std@@V?$_Compressed_pair@V?$allocator@U?$_Tree_node@U?$pair@$$CBV?$basic_string@DU?$char_traits@D@std@@V?$allocator@D@2@@std@@VCDATA@CDataManager@UTIL@NMBASE@@@std@@PAX@std@@@std@@V?$_Tree_val@U?$_Tree_simple_types@U?$pair@$$CBV?$basic_string@DU?$char_traits@D@std@@V?$allocator@D@2@@std@@VCDATA@CDataManager@UTIL@NMBASE@@@std@@@std@@@2@$00@2@$00@std@@QBEABV?$_Compressed_pair@V?$allocator@U?$_Tree_node@U?$pair@$$CBV?$basic_string@DU?$char_traits@D@std@@V?$allocator@D@2@@std@@VCDATA@CDataManager@UTIL@NMBASE@@@std@@PAX@std@@@std@@V?$_Tree_val@U?$_Tree_simple_types@U?$pair@$$CBV?$basic_string@DU?$char_traits@D@std@@V?$allocator@D@2@@std@@VCDATA@CDataManager@UTIL@NMBASE@@@std@@@std@@@2@$00@2@XZ 1008aa20 f i DataManager.obj
 0002:00033a60       ?_Get_second@?$_Compressed_pair@V?$allocator@U?$_Tree_node@U?$pair@$$CBV?$basic_string@DU?$char_traits@D@std@@V?$allocator@D@2@@std@@VCDATA@CDataManager@UTIL@NMBASE@@@std@@PAX@std@@@std@@V?$_Tree_val@U?$_Tree_simple_types@U?$pair@$$CBV?$basic_string@DU?$char_traits@D@std@@V?$allocator@D@2@@std@@VCDATA@CDataManager@UTIL@NMBASE@@@std@@@std@@@2@$00@std@@QAEAAV?$_Tree_val@U?$_Tree_simple_types@U?$pair@$$CBV?$basic_string@DU?$char_traits@D@std@@V?$allocator@D@2@@std@@VCDATA@CDataManager@UTIL@NMBASE@@@std@@@std@@@2@XZ 1008aa60 f i DataManager.obj
 0002:00033aa0       ?_Get_second@?$_Compressed_pair@V?$allocator@U?$_Tree_node@U?$pair@$$CBV?$basic_string@DU?$char_traits@D@std@@V?$allocator@D@2@@std@@VCDATA@CDataManager@UTIL@NMBASE@@@std@@PAX@std@@@std@@V?$_Tree_val@U?$_Tree_simple_types@U?$pair@$$CBV?$basic_string@DU?$char_traits@D@std@@V?$allocator@D@2@@std@@VCDATA@CDataManager@UTIL@NMBASE@@@std@@@std@@@2@$00@std@@QBEABV?$_Tree_val@U?$_Tree_simple_types@U?$pair@$$CBV?$basic_string@DU?$char_traits@D@std@@V?$allocator@D@2@@std@@VCDATA@CDataManager@UTIL@NMBASE@@@std@@@std@@@2@XZ 1008aaa0 f i DataManager.obj
 0002:00033ae0       ?_Getal@?$_Tree_comp_alloc@V?$_Tmap_traits@V?$basic_string@DU?$char_traits@D@std@@V?$allocator@D@2@@std@@VCDATA@CDataManager@UTIL@NMBASE@@U?$less@V?$basic_string@DU?$char_traits@D@std@@V?$allocator@D@2@@std@@@2@V?$allocator@U?$pair@$$CBV?$basic_string@DU?$char_traits@D@std@@V?$allocator@D@2@@std@@VCDATA@CDataManager@UTIL@NMBASE@@@std@@@2@$0A@@std@@@std@@QAEAAV?$allocator@U?$_Tree_node@U?$pair@$$CBV?$basic_string@DU?$char_traits@D@std@@V?$allocator@D@2@@std@@VCDATA@CDataManager@UTIL@NMBASE@@@std@@PAX@std@@@2@XZ 1008aae0 f i DataManager.obj
 0002:00033b40       ?_Getal@?$_Tree_comp_alloc@V?$_Tmap_traits@V?$basic_string@DU?$char_traits@D@std@@V?$allocator@D@2@@std@@VCDATA@CDataManager@UTIL@NMBASE@@U?$less@V?$basic_string@DU?$char_traits@D@std@@V?$allocator@D@2@@std@@@2@V?$allocator@U?$pair@$$CBV?$basic_string@DU?$char_traits@D@std@@V?$allocator@D@2@@std@@VCDATA@CDataManager@UTIL@NMBASE@@@std@@@2@$0A@@std@@@std@@QBEABV?$allocator@U?$_Tree_node@U?$pair@$$CBV?$basic_string@DU?$char_traits@D@std@@V?$allocator@D@2@@std@@VCDATA@CDataManager@UTIL@NMBASE@@@std@@PAX@std@@@2@XZ 1008ab40 f i DataManager.obj
 0002:00033ba0       ?_Getcomp@?$_Tree_comp_alloc@V?$_Tmap_traits@V?$basic_string@DU?$char_traits@D@std@@V?$allocator@D@2@@std@@VCDATA@CDataManager@UTIL@NMBASE@@U?$less@V?$basic_string@DU?$char_traits@D@std@@V?$allocator@D@2@@std@@@2@V?$allocator@U?$pair@$$CBV?$basic_string@DU?$char_traits@D@std@@V?$allocator@D@2@@std@@VCDATA@CDataManager@UTIL@NMBASE@@@std@@@2@$0A@@std@@@std@@QAEAAU?$less@V?$basic_string@DU?$char_traits@D@std@@V?$allocator@D@2@@std@@@2@XZ 1008aba0 f i DataManager.obj
 0002:00033bf0       ?_Getcomp@?$_Tree_comp_alloc@V?$_Tmap_traits@V?$basic_string@DU?$char_traits@D@std@@V?$allocator@D@2@@std@@VCDATA@CDataManager@UTIL@NMBASE@@U?$less@V?$basic_string@DU?$char_traits@D@std@@V?$allocator@D@2@@std@@@2@V?$allocator@U?$pair@$$CBV?$basic_string@DU?$char_traits@D@std@@V?$allocator@D@2@@std@@VCDATA@CDataManager@UTIL@NMBASE@@@std@@@2@$0A@@std@@@std@@QBEABU?$less@V?$basic_string@DU?$char_traits@D@std@@V?$allocator@D@2@@std@@@2@XZ 1008abf0 f i DataManager.obj
 0002:00033c40       ?_Getpfirst@?$_Tree_comp_alloc@V?$_Tmap_traits@V?$basic_string@DU?$char_traits@D@std@@V?$allocator@D@2@@std@@VCDATA@CDataManager@UTIL@NMBASE@@U?$less@V?$basic_string@DU?$char_traits@D@std@@V?$allocator@D@2@@std@@@2@V?$allocator@U?$pair@$$CBV?$basic_string@DU?$char_traits@D@std@@V?$allocator@D@2@@std@@VCDATA@CDataManager@UTIL@NMBASE@@@std@@@2@$0A@@std@@@std@@QBEPAPAU_Iterator_base12@2@XZ 1008ac40 f i DataManager.obj
 0002:00033ca0       ?_Key@?$_Tree@V?$_Tmap_traits@V?$basic_string@DU?$char_traits@D@std@@V?$allocator@D@2@@std@@VCDATA@CDataManager@UTIL@NMBASE@@U?$less@V?$basic_string@DU?$char_traits@D@std@@V?$allocator@D@2@@std@@@2@V?$allocator@U?$pair@$$CBV?$basic_string@DU?$char_traits@D@std@@V?$allocator@D@2@@std@@VCDATA@CDataManager@UTIL@NMBASE@@@std@@@2@$0A@@std@@@std@@IBEABV?$basic_string@DU?$char_traits@D@std@@V?$allocator@D@2@@2@PAU?$_Tree_node@U?$pair@$$CBV?$basic_string@DU?$char_traits@D@std@@V?$allocator@D@2@@std@@VCDATA@CDataManager@UTIL@NMBASE@@@std@@PAX@2@@Z 1008aca0 f i DataManager.obj
 0002:00033d00       ?_Kfn@?$_Tree@V?$_Tmap_traits@V?$basic_string@DU?$char_traits@D@std@@V?$allocator@D@2@@std@@VCDATA@CDataManager@UTIL@NMBASE@@U?$less@V?$basic_string@DU?$char_traits@D@std@@V?$allocator@D@2@@std@@@2@V?$allocator@U?$pair@$$CBV?$basic_string@DU?$char_traits@D@std@@V?$allocator@D@2@@std@@VCDATA@CDataManager@UTIL@NMBASE@@@std@@@2@$0A@@std@@@std@@IBEABV?$basic_string@DU?$char_traits@D@std@@V?$allocator@D@2@@2@ABU?$pair@$$CBV?$basic_string@DU?$char_traits@D@std@@V?$allocator@D@2@@std@@VCDATA@CDataManager@UTIL@NMBASE@@@2@@Z 1008ad00 f i DataManager.obj
 0002:00033d60       ?_Lmost@?$_Tree_val@U?$_Tree_simple_types@U?$pair@$$CBV?$basic_string@DU?$char_traits@D@std@@V?$allocator@D@2@@std@@VCDATA@CDataManager@UTIL@NMBASE@@@std@@@std@@@std@@QBEAAPAU?$_Tree_node@U?$pair@$$CBV?$basic_string@DU?$char_traits@D@std@@V?$allocator@D@2@@std@@VCDATA@CDataManager@UTIL@NMBASE@@@std@@PAX@2@XZ 1008ad60 f i DataManager.obj
 0002:00033da0       ?_Lrotate@?$_Tree_val@U?$_Tree_simple_types@U?$pair@$$CBV?$basic_string@DU?$char_traits@D@std@@V?$allocator@D@2@@std@@VCDATA@CDataManager@UTIL@NMBASE@@@std@@@std@@@std@@QAEXPAU?$_Tree_node@U?$pair@$$CBV?$basic_string@DU?$char_traits@D@std@@V?$allocator@D@2@@std@@VCDATA@CDataManager@UTIL@NMBASE@@@std@@PAX@2@@Z 1008ada0 f i DataManager.obj
 0002:00033e90       ?_Max@?$_Tree_val@U?$_Tree_simple_types@U?$pair@$$CBV?$basic_string@DU?$char_traits@D@std@@V?$allocator@D@2@@std@@VCDATA@CDataManager@UTIL@NMBASE@@@std@@@std@@@std@@SAPAU?$_Tree_node@U?$pair@$$CBV?$basic_string@DU?$char_traits@D@std@@V?$allocator@D@2@@std@@VCDATA@CDataManager@UTIL@NMBASE@@@std@@PAX@2@PAU32@@Z 1008ae90 f i DataManager.obj
 0002:00033ef0       ?_Min@?$_Tree_val@U?$_Tree_simple_types@U?$pair@$$CBV?$basic_string@DU?$char_traits@D@std@@V?$allocator@D@2@@std@@VCDATA@CDataManager@UTIL@NMBASE@@@std@@@std@@@std@@SAPAU?$_Tree_node@U?$pair@$$CBV?$basic_string@DU?$char_traits@D@std@@V?$allocator@D@2@@std@@VCDATA@CDataManager@UTIL@NMBASE@@@std@@PAX@2@PAU32@@Z 1008aef0 f i DataManager.obj
 0002:00033f40       ?_Myproxy@?$_Tree_comp_alloc@V?$_Tmap_traits@V?$basic_string@DU?$char_traits@D@std@@V?$allocator@D@2@@std@@VCDATA@CDataManager@UTIL@NMBASE@@U?$less@V?$basic_string@DU?$char_traits@D@std@@V?$allocator@D@2@@std@@@2@V?$allocator@U?$pair@$$CBV?$basic_string@DU?$char_traits@D@std@@V?$allocator@D@2@@std@@VCDATA@CDataManager@UTIL@NMBASE@@@std@@@2@$0A@@std@@@std@@QAEAAPAU_Container_proxy@2@XZ 1008af40 f i DataManager.obj
 0002:00033f90       ?_Orphan_all@?$_Tree_comp_alloc@V?$_Tmap_traits@V?$basic_string@DU?$char_traits@D@std@@V?$allocator@D@2@@std@@VCDATA@CDataManager@UTIL@NMBASE@@U?$less@V?$basic_string@DU?$char_traits@D@std@@V?$allocator@D@2@@std@@@2@V?$allocator@U?$pair@$$CBV?$basic_string@DU?$char_traits@D@std@@V?$allocator@D@2@@std@@VCDATA@CDataManager@UTIL@NMBASE@@@std@@@2@$0A@@std@@@std@@QAEXXZ 1008af90 f i DataManager.obj
 0002:00033ff0       ?_Orphan_ptr@?$_Tree@V?$_Tmap_traits@V?$basic_string@DU?$char_traits@D@std@@V?$allocator@D@2@@std@@VCDATA@CDataManager@UTIL@NMBASE@@U?$less@V?$basic_string@DU?$char_traits@D@std@@V?$allocator@D@2@@std@@@2@V?$allocator@U?$pair@$$CBV?$basic_string@DU?$char_traits@D@std@@V?$allocator@D@2@@std@@VCDATA@CDataManager@UTIL@NMBASE@@@std@@@2@$0A@@std@@@std@@IAEXPAU?$_Tree_node@U?$pair@$$CBV?$basic_string@DU?$char_traits@D@std@@V?$allocator@D@2@@std@@VCDATA@CDataManager@UTIL@NMBASE@@@std@@PAX@2@@Z 1008aff0 f i DataManager.obj
 0002:00034170       ?_Rmost@?$_Tree_val@U?$_Tree_simple_types@U?$pair@$$CBV?$basic_string@DU?$char_traits@D@std@@V?$allocator@D@2@@std@@VCDATA@CDataManager@UTIL@NMBASE@@@std@@@std@@@std@@QBEAAPAU?$_Tree_node@U?$pair@$$CBV?$basic_string@DU?$char_traits@D@std@@V?$allocator@D@2@@std@@VCDATA@CDataManager@UTIL@NMBASE@@@std@@PAX@2@XZ 1008b170 f i DataManager.obj
 0002:000341b0       ?_Root@?$_Tree_val@U?$_Tree_simple_types@U?$pair@$$CBV?$basic_string@DU?$char_traits@D@std@@V?$allocator@D@2@@std@@VCDATA@CDataManager@UTIL@NMBASE@@@std@@@std@@@std@@QBEAAPAU?$_Tree_node@U?$pair@$$CBV?$basic_string@DU?$char_traits@D@std@@V?$allocator@D@2@@std@@VCDATA@CDataManager@UTIL@NMBASE@@@std@@PAX@2@XZ 1008b1b0 f i DataManager.obj
 0002:000341f0       ?_Rrotate@?$_Tree_val@U?$_Tree_simple_types@U?$pair@$$CBV?$basic_string@DU?$char_traits@D@std@@V?$allocator@D@2@@std@@VCDATA@CDataManager@UTIL@NMBASE@@@std@@@std@@@std@@QAEXPAU?$_Tree_node@U?$pair@$$CBV?$basic_string@DU?$char_traits@D@std@@V?$allocator@D@2@@std@@VCDATA@CDataManager@UTIL@NMBASE@@@std@@PAX@2@@Z 1008b1f0 f i DataManager.obj
 0002:000342e0       ?_Tidy@?$_Tree@V?$_Tmap_traits@V?$basic_string@DU?$char_traits@D@std@@V?$allocator@D@2@@std@@VCDATA@CDataManager@UTIL@NMBASE@@U?$less@V?$basic_string@DU?$char_traits@D@std@@V?$allocator@D@2@@std@@@2@V?$allocator@U?$pair@$$CBV?$basic_string@DU?$char_traits@D@std@@V?$allocator@D@2@@std@@VCDATA@CDataManager@UTIL@NMBASE@@@std@@@2@$0A@@std@@@std@@IAEXXZ 1008b2e0 f i DataManager.obj
 0002:00034450       ?allocate@?$allocator@U?$_Tree_node@U?$pair@$$CBV?$basic_string@DU?$char_traits@D@std@@V?$allocator@D@2@@std@@VCDATA@CDataManager@UTIL@NMBASE@@@std@@PAX@std@@@std@@QAEPAU?$_Tree_node@U?$pair@$$CBV?$basic_string@DU?$char_traits@D@std@@V?$allocator@D@2@@std@@VCDATA@CDataManager@UTIL@NMBASE@@@std@@PAX@2@I@Z 1008b450 f i DataManager.obj
 0002:000344c0       ?begin@?$_Tree@V?$_Tmap_traits@V?$basic_string@DU?$char_traits@D@std@@V?$allocator@D@2@@std@@VCDATA@CDataManager@UTIL@NMBASE@@U?$less@V?$basic_string@DU?$char_traits@D@std@@V?$allocator@D@2@@std@@@2@V?$allocator@U?$pair@$$CBV?$basic_string@DU?$char_traits@D@std@@V?$allocator@D@2@@std@@VCDATA@CDataManager@UTIL@NMBASE@@@std@@@2@$0A@@std@@@std@@QAE?AV?$_Tree_iterator@V?$_Tree_val@U?$_Tree_simple_types@U?$pair@$$CBV?$basic_string@DU?$char_traits@D@std@@V?$allocator@D@2@@std@@VCDATA@CDataManager@UTIL@NMBASE@@@std@@@std@@@std@@@2@XZ 1008b4c0 f i DataManager.obj
 0002:00034580       ?clear@?$_Tree@V?$_Tmap_traits@V?$basic_string@DU?$char_traits@D@std@@V?$allocator@D@2@@std@@VCDATA@CDataManager@UTIL@NMBASE@@U?$less@V?$basic_string@DU?$char_traits@D@std@@V?$allocator@D@2@@std@@@2@V?$allocator@U?$pair@$$CBV?$basic_string@DU?$char_traits@D@std@@V?$allocator@D@2@@std@@VCDATA@CDataManager@UTIL@NMBASE@@@std@@@2@$0A@@std@@@std@@QAEXXZ 1008b580 f i DataManager.obj
 0002:00034680       ?compare@?$basic_string@DU?$char_traits@D@std@@V?$allocator@D@2@@std@@QBEHABV12@@Z 1008b680 f i DataManager.obj
 0002:00034750       ?compare@?$char_traits@D@std@@SAHQBD0I@Z 1008b750 f i DataManager.obj
 0002:000347b0       ?deallocate@?$_Default_allocator_traits@V?$allocator@U?$_Tree_node@U?$pair@$$CBV?$basic_string@DU?$char_traits@D@std@@V?$allocator@D@2@@std@@VCDATA@CDataManager@UTIL@NMBASE@@@std@@PAX@std@@@std@@@std@@SAXAAV?$allocator@U?$_Tree_node@U?$pair@$$CBV?$basic_string@DU?$char_traits@D@std@@V?$allocator@D@2@@std@@VCDATA@CDataManager@UTIL@NMBASE@@@std@@PAX@std@@@2@QAU?$_Tree_node@U?$pair@$$CBV?$basic_string@DU?$char_traits@D@std@@V?$allocator@D@2@@std@@VCDATA@CDataManager@UTIL@NMBASE@@@std@@PAX@2@I@Z 1008b7b0 f i DataManager.obj
 0002:00034810       ?deallocate@?$allocator@U?$_Tree_node@U?$pair@$$CBV?$basic_string@DU?$char_traits@D@std@@V?$allocator@D@2@@std@@VCDATA@CDataManager@UTIL@NMBASE@@@std@@PAX@std@@@std@@QAEXQAU?$_Tree_node@U?$pair@$$CBV?$basic_string@DU?$char_traits@D@std@@V?$allocator@D@2@@std@@VCDATA@CDataManager@UTIL@NMBASE@@@std@@PAX@2@I@Z 1008b810 f i DataManager.obj
 0002:00034870       ?end@?$_Tree@V?$_Tmap_traits@V?$basic_string@DU?$char_traits@D@std@@V?$allocator@D@2@@std@@VCDATA@CDataManager@UTIL@NMBASE@@U?$less@V?$basic_string@DU?$char_traits@D@std@@V?$allocator@D@2@@std@@@2@V?$allocator@U?$pair@$$CBV?$basic_string@DU?$char_traits@D@std@@V?$allocator@D@2@@std@@VCDATA@CDataManager@UTIL@NMBASE@@@std@@@2@$0A@@std@@@std@@QAE?AV?$_Tree_iterator@V?$_Tree_val@U?$_Tree_simple_types@U?$pair@$$CBV?$basic_string@DU?$char_traits@D@std@@V?$allocator@D@2@@std@@VCDATA@CDataManager@UTIL@NMBASE@@@std@@@std@@@std@@@2@XZ 1008b870 f i DataManager.obj
 0002:00034920       ?erase@?$_Tree@V?$_Tmap_traits@V?$basic_string@DU?$char_traits@D@std@@V?$allocator@D@2@@std@@VCDATA@CDataManager@UTIL@NMBASE@@U?$less@V?$basic_string@DU?$char_traits@D@std@@V?$allocator@D@2@@std@@@2@V?$allocator@U?$pair@$$CBV?$basic_string@DU?$char_traits@D@std@@V?$allocator@D@2@@std@@VCDATA@CDataManager@UTIL@NMBASE@@@std@@@2@$0A@@std@@@std@@QAE?AV?$_Tree_iterator@V?$_Tree_val@U?$_Tree_simple_types@U?$pair@$$CBV?$basic_string@DU?$char_traits@D@std@@V?$allocator@D@2@@std@@VCDATA@CDataManager@UTIL@NMBASE@@@std@@@std@@@std@@@2@V?$_Tree_const_iterator@V?$_Tree_val@U?$_Tree_simple_types@U?$pair@$$CBV?$basic_string@DU?$char_traits@D@std@@V?$allocator@D@2@@std@@VCDATA@CDataManager@UTIL@NMBASE@@@std@@@std@@@std@@@2@0@Z 1008b920 f i DataManager.obj
 0002:00034c40       ?erase@?$_Tree@V?$_Tmap_traits@V?$basic_string@DU?$char_traits@D@std@@V?$allocator@D@2@@std@@VCDATA@CDataManager@UTIL@NMBASE@@U?$less@V?$basic_string@DU?$char_traits@D@std@@V?$allocator@D@2@@std@@@2@V?$allocator@U?$pair@$$CBV?$basic_string@DU?$char_traits@D@std@@V?$allocator@D@2@@std@@VCDATA@CDataManager@UTIL@NMBASE@@@std@@@2@$0A@@std@@@std@@QAE?AV?$_Tree_iterator@V?$_Tree_val@U?$_Tree_simple_types@U?$pair@$$CBV?$basic_string@DU?$char_traits@D@std@@V?$allocator@D@2@@std@@VCDATA@CDataManager@UTIL@NMBASE@@@std@@@std@@@std@@@2@V?$_Tree_const_iterator@V?$_Tree_val@U?$_Tree_simple_types@U?$pair@$$CBV?$basic_string@DU?$char_traits@D@std@@V?$allocator@D@2@@std@@VCDATA@CDataManager@UTIL@NMBASE@@@std@@@std@@@std@@@2@@Z 1008bc40 f i DataManager.obj
 0002:00034ed0       ?find@?$_Tree@V?$_Tmap_traits@V?$basic_string@DU?$char_traits@D@std@@V?$allocator@D@2@@std@@VCDATA@CDataManager@UTIL@NMBASE@@U?$less@V?$basic_string@DU?$char_traits@D@std@@V?$allocator@D@2@@std@@@2@V?$allocator@U?$pair@$$CBV?$basic_string@DU?$char_traits@D@std@@V?$allocator@D@2@@std@@VCDATA@CDataManager@UTIL@NMBASE@@@std@@@2@$0A@@std@@@std@@QAE?AV?$_Tree_iterator@V?$_Tree_val@U?$_Tree_simple_types@U?$pair@$$CBV?$basic_string@DU?$char_traits@D@std@@V?$allocator@D@2@@std@@VCDATA@CDataManager@UTIL@NMBASE@@@std@@@std@@@std@@@2@ABV?$basic_string@DU?$char_traits@D@std@@V?$allocator@D@2@@2@@Z 1008bed0 f i DataManager.obj
 0002:00035180       ?key_comp@?$_Tree@V?$_Tmap_traits@V?$basic_string@DU?$char_traits@D@std@@V?$allocator@D@2@@std@@VCDATA@CDataManager@UTIL@NMBASE@@U?$less@V?$basic_string@DU?$char_traits@D@std@@V?$allocator@D@2@@std@@@2@V?$allocator@U?$pair@$$CBV?$basic_string@DU?$char_traits@D@std@@V?$allocator@D@2@@std@@VCDATA@CDataManager@UTIL@NMBASE@@@std@@@2@$0A@@std@@@std@@QBE?AU?$less@V?$basic_string@DU?$char_traits@D@std@@V?$allocator@D@2@@std@@@2@XZ 1008c180 f i DataManager.obj
 0002:000351e0       ?lower_bound@?$_Tree@V?$_Tmap_traits@V?$basic_string@DU?$char_traits@D@std@@V?$allocator@D@2@@std@@VCDATA@CDataManager@UTIL@NMBASE@@U?$less@V?$basic_string@DU?$char_traits@D@std@@V?$allocator@D@2@@std@@@2@V?$allocator@U?$pair@$$CBV?$basic_string@DU?$char_traits@D@std@@V?$allocator@D@2@@std@@VCDATA@CDataManager@UTIL@NMBASE@@@std@@@2@$0A@@std@@@std@@QAE?AV?$_Tree_iterator@V?$_Tree_val@U?$_Tree_simple_types@U?$pair@$$CBV?$basic_string@DU?$char_traits@D@std@@V?$allocator@D@2@@std@@VCDATA@CDataManager@UTIL@NMBASE@@@std@@@std@@@std@@@2@ABV?$basic_string@DU?$char_traits@D@std@@V?$allocator@D@2@@2@@Z 1008c1e0 f i DataManager.obj
 0002:00035280       ?max_size@?$_Default_allocator_traits@V?$allocator@U?$_Tree_node@U?$pair@$$CBV?$basic_string@DU?$char_traits@D@std@@V?$allocator@D@2@@std@@VCDATA@CDataManager@UTIL@NMBASE@@@std@@PAX@std@@@std@@@std@@SAIABV?$allocator@U?$_Tree_node@U?$pair@$$CBV?$basic_string@DU?$char_traits@D@std@@V?$allocator@D@2@@std@@VCDATA@CDataManager@UTIL@NMBASE@@@std@@PAX@std@@@2@@Z 1008c280 f i DataManager.obj
 0002:000352c0       ?max_size@?$_Tree@V?$_Tmap_traits@V?$basic_string@DU?$char_traits@D@std@@V?$allocator@D@2@@std@@VCDATA@CDataManager@UTIL@NMBASE@@U?$less@V?$basic_string@DU?$char_traits@D@std@@V?$allocator@D@2@@std@@@2@V?$allocator@U?$pair@$$CBV?$basic_string@DU?$char_traits@D@std@@V?$allocator@D@2@@std@@VCDATA@CDataManager@UTIL@NMBASE@@@std@@@2@$0A@@std@@@std@@QBEIXZ 1008c2c0 f i DataManager.obj
 0002:00035320       ?pointer_to@?$pointer_traits@PAU?$pair@$$CBV?$basic_string@DU?$char_traits@D@std@@V?$allocator@D@2@@std@@VCDATA@CDataManager@UTIL@NMBASE@@@std@@@std@@SAPAU?$pair@$$CBV?$basic_string@DU?$char_traits@D@std@@V?$allocator@D@2@@std@@VCDATA@CDataManager@UTIL@NMBASE@@@2@AAU32@@Z 1008c320 f i DataManager.obj
 0002:00035370       ?select_on_container_copy_construction@?$_Default_allocator_traits@V?$allocator@D@std@@@std@@SA?AV?$allocator@D@2@ABV32@@Z 1008c370 f i DataManager.obj
 0002:000353b0       ?select_on_container_copy_construction@?$_Default_allocator_traits@V?$allocator@U?$_Tree_node@U?$pair@$$CBV?$basic_string@DU?$char_traits@D@std@@V?$allocator@D@2@@std@@VCDATA@CDataManager@UTIL@NMBASE@@@std@@PAX@std@@@std@@@std@@SA?AV?$allocator@U?$_Tree_node@U?$pair@$$CBV?$basic_string@DU?$char_traits@D@std@@V?$allocator@D@2@@std@@VCDATA@CDataManager@UTIL@NMBASE@@@std@@PAX@std@@@2@ABV32@@Z 1008c3b0 f i DataManager.obj
 0002:000353f0       ?size@?$_Tree@V?$_Tmap_traits@V?$basic_string@DU?$char_traits@D@std@@V?$allocator@D@2@@std@@VCDATA@CDataManager@UTIL@NMBASE@@U?$less@V?$basic_string@DU?$char_traits@D@std@@V?$allocator@D@2@@std@@@2@V?$allocator@U?$pair@$$CBV?$basic_string@DU?$char_traits@D@std@@V?$allocator@D@2@@std@@VCDATA@CDataManager@UTIL@NMBASE@@@std@@@2@$0A@@std@@@std@@QBEIXZ 1008c3f0 f i DataManager.obj
 0002:00035450       ??$?0$$V@?$_Compressed_pair@V?$allocator@U?$_List_node@PAUIFunctor@UTIL@NMBASE@@PAX@std@@@std@@V?$_List_val@U?$_List_simple_types@PAUIFunctor@UTIL@NMBASE@@@std@@@2@$00@std@@QAE@U_Zero_then_variadic_args_t@1@@Z 1008c450 f i Delegate.obj
 0002:000354b0       ??$?0U?$_List_node@PAUIFunctor@UTIL@NMBASE@@PAX@std@@@?$allocator@U_Container_proxy@std@@@std@@QAE@ABV?$allocator@U?$_List_node@PAUIFunctor@UTIL@NMBASE@@PAX@std@@@1@@Z 1008c4b0 f i Delegate.obj
 0002:000354f0       ??$_Buynode@ABQAUIFunctor@UTIL@NMBASE@@@?$_List_buy@PAUIFunctor@UTIL@NMBASE@@V?$allocator@PAUIFunctor@UTIL@NMBASE@@@std@@@std@@QAEPAU?$_List_node@PAUIFunctor@UTIL@NMBASE@@PAX@1@PAU21@0ABQAUIFunctor@UTIL@NMBASE@@@Z 1008c4f0 f i Delegate.obj
 0002:00035610       ??$_Freenode0@V?$allocator@U?$_List_node@PAUIFunctor@UTIL@NMBASE@@PAX@std@@@std@@@?$_List_node@PAUIFunctor@UTIL@NMBASE@@PAX@std@@SAXAAV?$allocator@U?$_List_node@PAUIFunctor@UTIL@NMBASE@@PAX@std@@@1@PAU01@@Z 1008c610 f i Delegate.obj
 0002:00035720       ??$_Insert@ABQAUIFunctor@UTIL@NMBASE@@@?$list@PAUIFunctor@UTIL@NMBASE@@V?$allocator@PAUIFunctor@UTIL@NMBASE@@@std@@@std@@QAEXV?$_List_unchecked_const_iterator@V?$_List_val@U?$_List_simple_types@PAUIFunctor@UTIL@NMBASE@@@std@@@std@@U_Iterator_base0@2@@1@ABQAUIFunctor@UTIL@NMBASE@@@Z 1008c720 f i Delegate.obj
 0002:000357d0       ??$addressof@$$CBV?$_List_val@U?$_List_simple_types@PAUIFunctor@UTIL@NMBASE@@@std@@@std@@@std@@YAPBV?$_List_val@U?$_List_simple_types@PAUIFunctor@UTIL@NMBASE@@@std@@@0@ABV10@@Z 1008c7d0 f i Delegate.obj
 0002:00035810       ??$addressof@PAU?$_List_node@PAUIFunctor@UTIL@NMBASE@@PAX@std@@@std@@YAPAPAU?$_List_node@PAUIFunctor@UTIL@NMBASE@@PAX@0@AAPAU10@@Z 1008c810 f i Delegate.obj
 0002:00035850       ??$addressof@PAUIFunctor@UTIL@NMBASE@@@std@@YAPAPAUIFunctor@UTIL@NMBASE@@AAPAU123@@Z 1008c850 f i Delegate.obj
 0002:00035890       ??$addressof@V?$_List_val@U?$_List_simple_types@PAUIFunctor@UTIL@NMBASE@@@std@@@std@@@std@@YAPAV?$_List_val@U?$_List_simple_types@PAUIFunctor@UTIL@NMBASE@@@std@@@0@AAV10@@Z 1008c890 f i Delegate.obj
 0002:000358d0       ??$construct@PAU?$_List_node@PAUIFunctor@UTIL@NMBASE@@PAX@std@@AAPAU12@@?$_Default_allocator_traits@V?$allocator@U?$_List_node@PAUIFunctor@UTIL@NMBASE@@PAX@std@@@std@@@std@@SAXAAV?$allocator@U?$_List_node@PAUIFunctor@UTIL@NMBASE@@PAX@std@@@1@QAPAU?$_List_node@PAUIFunctor@UTIL@NMBASE@@PAX@1@AAPAU31@@Z 1008c8d0 f i Delegate.obj
 0002:00035950       ??$construct@PAUIFunctor@UTIL@NMBASE@@ABQAU123@@?$_Default_allocator_traits@V?$allocator@U?$_List_node@PAUIFunctor@UTIL@NMBASE@@PAX@std@@@std@@@std@@SAXAAV?$allocator@U?$_List_node@PAUIFunctor@UTIL@NMBASE@@PAX@std@@@1@QAPAUIFunctor@UTIL@NMBASE@@ABQAU345@@Z 1008c950 f i Delegate.obj
 0002:000359d0       ??$destroy@PAU?$_List_node@PAUIFunctor@UTIL@NMBASE@@PAX@std@@@?$_Default_allocator_traits@V?$allocator@U?$_List_node@PAUIFunctor@UTIL@NMBASE@@PAX@std@@@std@@@std@@SAXAAV?$allocator@U?$_List_node@PAUIFunctor@UTIL@NMBASE@@PAX@std@@@1@QAPAU?$_List_node@PAUIFunctor@UTIL@NMBASE@@PAX@1@@Z 1008c9d0 f i Delegate.obj
 0002:00035a00       ??$destroy@PAUIFunctor@UTIL@NMBASE@@@?$_Default_allocator_traits@V?$allocator@U?$_List_node@PAUIFunctor@UTIL@NMBASE@@PAX@std@@@std@@@std@@SAXAAV?$allocator@U?$_List_node@PAUIFunctor@UTIL@NMBASE@@PAX@std@@@1@QAPAUIFunctor@UTIL@NMBASE@@@Z 1008ca00 f i Delegate.obj
 0002:00035a30       ??$forward@AAPAU?$_List_node@PAUIFunctor@UTIL@NMBASE@@PAX@std@@@std@@YAAAPAU?$_List_node@PAUIFunctor@UTIL@NMBASE@@PAX@0@AAPAU10@@Z 1008ca30 f i Delegate.obj
 0002:00035a70       ??$forward@ABQAUIFunctor@UTIL@NMBASE@@@std@@YAABQAUIFunctor@UTIL@NMBASE@@ABQAU123@@Z 1008ca70 f i Delegate.obj
 0002:00035ab0       ??0?$_List_alloc@U?$_List_base_types@PAUIFunctor@UTIL@NMBASE@@V?$allocator@PAUIFunctor@UTIL@NMBASE@@@std@@@std@@@std@@QAE@XZ 1008cab0 f i Delegate.obj
 0002:00035bc0       ??0?$_List_buy@PAUIFunctor@UTIL@NMBASE@@V?$allocator@PAUIFunctor@UTIL@NMBASE@@@std@@@std@@QAE@XZ 1008cbc0 f i Delegate.obj
 0002:00035c20       ??0?$_List_const_iterator@V?$_List_val@U?$_List_simple_types@PAUIFunctor@UTIL@NMBASE@@@std@@@std@@@std@@QAE@$$QAV01@@Z 1008cc20 f i Delegate.obj
 0002:00035c80       ??0?$_List_const_iterator@V?$_List_val@U?$_List_simple_types@PAUIFunctor@UTIL@NMBASE@@@std@@@std@@@std@@QAE@ABV01@@Z 1008cc80 f i Delegate.obj
 0002:00035ce0       ??0?$_List_const_iterator@V?$_List_val@U?$_List_simple_types@PAUIFunctor@UTIL@NMBASE@@@std@@@std@@@std@@QAE@PAU?$_List_node@PAUIFunctor@UTIL@NMBASE@@PAX@1@PBV?$_List_val@U?$_List_simple_types@PAUIFunctor@UTIL@NMBASE@@@std@@@1@@Z 1008cce0 f i Delegate.obj
 0002:00035d40       ??0?$_List_const_iterator@V?$_List_val@U?$_List_simple_types@PAUIFunctor@UTIL@NMBASE@@@std@@@std@@@std@@QAE@XZ 1008cd40 f i Delegate.obj
 0002:00035da0       ??0?$_List_iterator@V?$_List_val@U?$_List_simple_types@PAUIFunctor@UTIL@NMBASE@@@std@@@std@@@std@@QAE@PAU?$_List_node@PAUIFunctor@UTIL@NMBASE@@PAX@1@PBV?$_List_val@U?$_List_simple_types@PAUIFunctor@UTIL@NMBASE@@@std@@@1@@Z 1008cda0 f i Delegate.obj
 0002:00035e00       ??0?$_List_iterator@V?$_List_val@U?$_List_simple_types@PAUIFunctor@UTIL@NMBASE@@@std@@@std@@@std@@QAE@XZ 1008ce00 f i Delegate.obj
 0002:00035e60       ??0?$_List_unchecked_const_iterator@V?$_List_val@U?$_List_simple_types@PAUIFunctor@UTIL@NMBASE@@@std@@@std@@U_Iterator_base0@2@@std@@QAE@PAU?$_List_node@PAUIFunctor@UTIL@NMBASE@@PAX@1@PBV?$_List_val@U?$_List_simple_types@PAUIFunctor@UTIL@NMBASE@@@std@@@1@@Z 1008ce60 f i Delegate.obj
 0002:00035ed0       ??0?$_List_unchecked_const_iterator@V?$_List_val@U?$_List_simple_types@PAUIFunctor@UTIL@NMBASE@@@std@@@std@@U_Iterator_base12@2@@std@@QAE@$$QAV01@@Z 1008ced0 f i Delegate.obj
 0002:00035f40       ??0?$_List_unchecked_const_iterator@V?$_List_val@U?$_List_simple_types@PAUIFunctor@UTIL@NMBASE@@@std@@@std@@U_Iterator_base12@2@@std@@QAE@ABV01@@Z 1008cf40 f i Delegate.obj
 0002:00035fb0       ??0?$_List_unchecked_const_iterator@V?$_List_val@U?$_List_simple_types@PAUIFunctor@UTIL@NMBASE@@@std@@@std@@U_Iterator_base12@2@@std@@QAE@PAU?$_List_node@PAUIFunctor@UTIL@NMBASE@@PAX@1@PBV?$_List_val@U?$_List_simple_types@PAUIFunctor@UTIL@NMBASE@@@std@@@1@@Z 1008cfb0 f i Delegate.obj
 0002:00036020       ??0?$_List_unchecked_const_iterator@V?$_List_val@U?$_List_simple_types@PAUIFunctor@UTIL@NMBASE@@@std@@@std@@U_Iterator_base12@2@@std@@QAE@XZ 1008d020 f i Delegate.obj
 0002:00036080       ??0?$_List_unchecked_iterator@V?$_List_val@U?$_List_simple_types@PAUIFunctor@UTIL@NMBASE@@@std@@@std@@@std@@QAE@PAU?$_List_node@PAUIFunctor@UTIL@NMBASE@@PAX@1@PBV?$_List_val@U?$_List_simple_types@PAUIFunctor@UTIL@NMBASE@@@std@@@1@@Z 1008d080 f i Delegate.obj
 0002:000360e0       ??0?$_List_val@U?$_List_simple_types@PAUIFunctor@UTIL@NMBASE@@@std@@@std@@QAE@XZ 1008d0e0 f i Delegate.obj
 0002:00036150       ??0?$allocator@U?$_List_node@PAUIFunctor@UTIL@NMBASE@@PAX@std@@@std@@QAE@XZ 1008d150 f i Delegate.obj
 0002:00036190       ??0?$list@PAUIFunctor@UTIL@NMBASE@@V?$allocator@PAUIFunctor@UTIL@NMBASE@@@std@@@std@@QAE@XZ 1008d190 f i Delegate.obj
 0002:000361f0       ??0CDelegate@UTIL@NMBASE@@QAE@H@Z 1008d1f0 f   Delegate.obj
 0002:00036260       ??1?$_List_alloc@U?$_List_base_types@PAUIFunctor@UTIL@NMBASE@@V?$allocator@PAUIFunctor@UTIL@NMBASE@@@std@@@std@@@std@@QAE@XZ 1008d260 f i Delegate.obj
 0002:00036300       ??1?$_List_buy@PAUIFunctor@UTIL@NMBASE@@V?$allocator@PAUIFunctor@UTIL@NMBASE@@@std@@@std@@QAE@XZ 1008d300 f i Delegate.obj
 0002:00036350       ??1?$_List_const_iterator@V?$_List_val@U?$_List_simple_types@PAUIFunctor@UTIL@NMBASE@@@std@@@std@@@std@@QAE@XZ 1008d350 f i Delegate.obj
 0002:000363a0       ??1?$_List_iterator@V?$_List_val@U?$_List_simple_types@PAUIFunctor@UTIL@NMBASE@@@std@@@std@@@std@@QAE@XZ 1008d3a0 f i Delegate.obj
 0002:000363f0       ??1?$_List_unchecked_const_iterator@V?$_List_val@U?$_List_simple_types@PAUIFunctor@UTIL@NMBASE@@@std@@@std@@U_Iterator_base12@2@@std@@QAE@XZ 1008d3f0 f i Delegate.obj
 0002:00036440       ??1?$list@PAUIFunctor@UTIL@NMBASE@@V?$allocator@PAUIFunctor@UTIL@NMBASE@@@std@@@std@@QAE@XZ 1008d440 f i Delegate.obj
 0002:000364d0       ??1CDelegate@UTIL@NMBASE@@QAE@XZ 1008d4d0 f   Delegate.obj
 0002:00036560       ??4?$_List_const_iterator@V?$_List_val@U?$_List_simple_types@PAUIFunctor@UTIL@NMBASE@@@std@@@std@@@std@@QAEAAV01@$$QAV01@@Z 1008d560 f i Delegate.obj
 0002:000365c0       ??4?$_List_iterator@V?$_List_val@U?$_List_simple_types@PAUIFunctor@UTIL@NMBASE@@@std@@@std@@@std@@QAEAAV01@$$QAV01@@Z 1008d5c0 f i Delegate.obj
 0002:00036620       ??4?$_List_unchecked_const_iterator@V?$_List_val@U?$_List_simple_types@PAUIFunctor@UTIL@NMBASE@@@std@@@std@@U_Iterator_base12@2@@std@@QAEAAV01@$$QAV01@@Z 1008d620 f i Delegate.obj
 0002:00036690       ??4CDelegate@UTIL@NMBASE@@QAEAAV012@ABV012@@Z 1008d690 f i Delegate.obj
 0002:000366f0       ??4CFunctor@UTIL@NMBASE@@QAEAAV012@ABV012@@Z 1008d6f0 f i Delegate.obj
 0002:00036740       ??8?$_List_const_iterator@V?$_List_val@U?$_List_simple_types@PAUIFunctor@UTIL@NMBASE@@@std@@@std@@@std@@QBE_NABV01@@Z 1008d740 f i Delegate.obj
 0002:00036860       ??9?$_List_const_iterator@V?$_List_val@U?$_List_simple_types@PAUIFunctor@UTIL@NMBASE@@@std@@@std@@@std@@QBE_NABV01@@Z 1008d860 f i Delegate.obj
 0002:000368f0       ??D?$_List_const_iterator@V?$_List_val@U?$_List_simple_types@PAUIFunctor@UTIL@NMBASE@@@std@@@std@@@std@@QBEABQAUIFunctor@UTIL@NMBASE@@XZ 1008d8f0 f i Delegate.obj
 0002:00036a60       ??D?$_List_iterator@V?$_List_val@U?$_List_simple_types@PAUIFunctor@UTIL@NMBASE@@@std@@@std@@@std@@QBEAAPAUIFunctor@UTIL@NMBASE@@XZ 1008da60 f i Delegate.obj
 0002:00036ab0       ??E?$_List_const_iterator@V?$_List_val@U?$_List_simple_types@PAUIFunctor@UTIL@NMBASE@@@std@@@std@@@std@@QAE?AV01@H@Z 1008dab0 f i Delegate.obj
 0002:00036bd0       ??E?$_List_const_iterator@V?$_List_val@U?$_List_simple_types@PAUIFunctor@UTIL@NMBASE@@@std@@@std@@@std@@QAEAAV01@XZ 1008dbd0 f i Delegate.obj
 0002:00036d50       ??E?$_List_iterator@V?$_List_val@U?$_List_simple_types@PAUIFunctor@UTIL@NMBASE@@@std@@@std@@@std@@QAEAAV01@XZ 1008dd50 f i Delegate.obj
 0002:00036db0       ??_FCDelegate@UTIL@NMBASE@@QAEXXZ 1008ddb0 f i Delegate.obj
 0002:00036e10       ??_G?$list@PAUIFunctor@UTIL@NMBASE@@V?$allocator@PAUIFunctor@UTIL@NMBASE@@@std@@@std@@QAEPAXI@Z 1008de10 f i Delegate.obj
 0002:00036e80       ?Append@CDelegate@UTIL@NMBASE@@QAEHPAUIFunctor@23@@Z 1008de80 f   Delegate.obj
 0002:00036fa0       ?Default@CDelegate@UTIL@NMBASE@@QAEHPAUIFunctor@23@@Z 1008dfa0 f   Delegate.obj
 0002:00037060       ?Fire@CDelegate@UTIL@NMBASE@@QAEJAAIAAJ@Z 1008e060 f   Delegate.obj
 0002:00037340       ?FireDefault@CDelegate@UTIL@NMBASE@@QAEJAAIAAJ@Z 1008e340 f   Delegate.obj
 0002:000373d0       ?Info@CDelegate@UTIL@NMBASE@@QBE?AU_tagFINFOS@23@XZ 1008e3d0 f   Delegate.obj
 0002:00037580       ?Override@CDelegate@UTIL@NMBASE@@QAEHPAUIFunctor@23@@Z 1008e580 f   Delegate.obj
 0002:00037640       ?Release@CDelegate@UTIL@NMBASE@@QAEXXZ 1008e640 f   Delegate.obj
 0002:000378f0       ?ReleaseAppend@CDelegate@UTIL@NMBASE@@QAEXPAUIFunctor@23@@Z 1008e8f0 f   Delegate.obj
 0002:00037b70       ?ReleaseOverride@CDelegate@UTIL@NMBASE@@QAEXPAUIFunctor@23@@Z 1008eb70 f   Delegate.obj
 0002:00037bf0       ?_Alloc_proxy@?$_List_alloc@U?$_List_base_types@PAUIFunctor@UTIL@NMBASE@@V?$allocator@PAUIFunctor@UTIL@NMBASE@@@std@@@std@@@std@@QAEXXZ 1008ebf0 f i Delegate.obj
 0002:00037d10       ?_Buyheadnode@?$_List_alloc@U?$_List_base_types@PAUIFunctor@UTIL@NMBASE@@V?$allocator@PAUIFunctor@UTIL@NMBASE@@@std@@@std@@@std@@QAEPAU?$_List_node@PAUIFunctor@UTIL@NMBASE@@PAX@2@XZ 1008ed10 f i Delegate.obj
 0002:00037d70       ?_Buynode0@?$_List_alloc@U?$_List_base_types@PAUIFunctor@UTIL@NMBASE@@V?$allocator@PAUIFunctor@UTIL@NMBASE@@@std@@@std@@@std@@QAEPAU?$_List_node@PAUIFunctor@UTIL@NMBASE@@PAX@2@PAU32@0@Z 1008ed70 f i Delegate.obj
 0002:00037ed0       ?_Free_proxy@?$_List_alloc@U?$_List_base_types@PAUIFunctor@UTIL@NMBASE@@V?$allocator@PAUIFunctor@UTIL@NMBASE@@@std@@@std@@@std@@QAEXXZ 1008eed0 f i Delegate.obj
 0002:00037fd0       ?_Freeheadnode@?$_List_alloc@U?$_List_base_types@PAUIFunctor@UTIL@NMBASE@@V?$allocator@PAUIFunctor@UTIL@NMBASE@@@std@@@std@@@std@@QAEXPAU?$_List_node@PAUIFunctor@UTIL@NMBASE@@PAX@2@@Z 1008efd0 f i Delegate.obj
 0002:00038040       ?_Freenode@?$_List_buy@PAUIFunctor@UTIL@NMBASE@@V?$allocator@PAUIFunctor@UTIL@NMBASE@@@std@@@std@@QAEXPAU?$_List_node@PAUIFunctor@UTIL@NMBASE@@PAX@2@@Z 1008f040 f i Delegate.obj
 0002:000380d0       ?_Get_data@?$_List_alloc@U?$_List_base_types@PAUIFunctor@UTIL@NMBASE@@V?$allocator@PAUIFunctor@UTIL@NMBASE@@@std@@@std@@@std@@QAEAAV?$_List_val@U?$_List_simple_types@PAUIFunctor@UTIL@NMBASE@@@std@@@2@XZ 1008f0d0 f i Delegate.obj
 0002:00038120       ?_Get_data@?$_List_alloc@U?$_List_base_types@PAUIFunctor@UTIL@NMBASE@@V?$allocator@PAUIFunctor@UTIL@NMBASE@@@std@@@std@@@std@@QBEABV?$_List_val@U?$_List_simple_types@PAUIFunctor@UTIL@NMBASE@@@std@@@2@XZ 1008f120 f i Delegate.obj
 0002:00038170       ?_Get_first@?$_Compressed_pair@V?$allocator@U?$_List_node@PAUIFunctor@UTIL@NMBASE@@PAX@std@@@std@@V?$_List_val@U?$_List_simple_types@PAUIFunctor@UTIL@NMBASE@@@std@@@2@$00@std@@QAEAAV?$allocator@U?$_List_node@PAUIFunctor@UTIL@NMBASE@@PAX@std@@@2@XZ 1008f170 f i Delegate.obj
 0002:000381b0       ?_Get_first@?$_Compressed_pair@V?$allocator@U?$_List_node@PAUIFunctor@UTIL@NMBASE@@PAX@std@@@std@@V?$_List_val@U?$_List_simple_types@PAUIFunctor@UTIL@NMBASE@@@std@@@2@$00@std@@QBEABV?$allocator@U?$_List_node@PAUIFunctor@UTIL@NMBASE@@PAX@std@@@2@XZ 1008f1b0 f i Delegate.obj
 0002:000381f0       ?_Get_second@?$_Compressed_pair@V?$allocator@U?$_List_node@PAUIFunctor@UTIL@NMBASE@@PAX@std@@@std@@V?$_List_val@U?$_List_simple_types@PAUIFunctor@UTIL@NMBASE@@@std@@@2@$00@std@@QAEAAV?$_List_val@U?$_List_simple_types@PAUIFunctor@UTIL@NMBASE@@@std@@@2@XZ 1008f1f0 f i Delegate.obj
 0002:00038230       ?_Get_second@?$_Compressed_pair@V?$allocator@U?$_List_node@PAUIFunctor@UTIL@NMBASE@@PAX@std@@@std@@V?$_List_val@U?$_List_simple_types@PAUIFunctor@UTIL@NMBASE@@@std@@@2@$00@std@@QBEABV?$_List_val@U?$_List_simple_types@PAUIFunctor@UTIL@NMBASE@@@std@@@2@XZ 1008f230 f i Delegate.obj
 0002:00038270       ?_Getal@?$_List_alloc@U?$_List_base_types@PAUIFunctor@UTIL@NMBASE@@V?$allocator@PAUIFunctor@UTIL@NMBASE@@@std@@@std@@@std@@QAEAAV?$allocator@U?$_List_node@PAUIFunctor@UTIL@NMBASE@@PAX@std@@@2@XZ 1008f270 f i Delegate.obj
 0002:000382c0       ?_Getal@?$_List_alloc@U?$_List_base_types@PAUIFunctor@UTIL@NMBASE@@V?$allocator@PAUIFunctor@UTIL@NMBASE@@@std@@@std@@@std@@QBEABV?$allocator@U?$_List_node@PAUIFunctor@UTIL@NMBASE@@PAX@std@@@2@XZ 1008f2c0 f i Delegate.obj
 0002:00038310       ?_Getpfirst@?$_List_alloc@U?$_List_base_types@PAUIFunctor@UTIL@NMBASE@@V?$allocator@PAUIFunctor@UTIL@NMBASE@@@std@@@std@@@std@@QBEPAPAU_Iterator_base12@2@XZ 1008f310 f i Delegate.obj
 0002:00038370       ?_Incsize@?$list@PAUIFunctor@UTIL@NMBASE@@V?$allocator@PAUIFunctor@UTIL@NMBASE@@@std@@@std@@QAEXI@Z 1008f370 f i Delegate.obj
 0002:00038410       ?_Make_iter@?$list@PAUIFunctor@UTIL@NMBASE@@V?$allocator@PAUIFunctor@UTIL@NMBASE@@@std@@@std@@QBE?AV?$_List_iterator@V?$_List_val@U?$_List_simple_types@PAUIFunctor@UTIL@NMBASE@@@std@@@std@@@2@V?$_List_const_iterator@V?$_List_val@U?$_List_simple_types@PAUIFunctor@UTIL@NMBASE@@@std@@@std@@@2@@Z 1008f410 f i Delegate.obj
 0002:000384c0       ?_Myhead@?$_List_alloc@U?$_List_base_types@PAUIFunctor@UTIL@NMBASE@@V?$allocator@PAUIFunctor@UTIL@NMBASE@@@std@@@std@@@std@@QAEAAPAU?$_List_node@PAUIFunctor@UTIL@NMBASE@@PAX@2@XZ 1008f4c0 f i Delegate.obj
 0002:00038520       ?_Myproxy@?$_List_alloc@U?$_List_base_types@PAUIFunctor@UTIL@NMBASE@@V?$allocator@PAUIFunctor@UTIL@NMBASE@@@std@@@std@@@std@@QAEAAPAU_Container_proxy@2@XZ 1008f520 f i Delegate.obj
 0002:00038570       ?_Mysize@?$_List_alloc@U?$_List_base_types@PAUIFunctor@UTIL@NMBASE@@V?$allocator@PAUIFunctor@UTIL@NMBASE@@@std@@@std@@@std@@QAEAAIXZ 1008f570 f i Delegate.obj
 0002:000385d0       ?_Orphan_all@?$_List_alloc@U?$_List_base_types@PAUIFunctor@UTIL@NMBASE@@V?$allocator@PAUIFunctor@UTIL@NMBASE@@@std@@@std@@@std@@QAEXXZ 1008f5d0 f i Delegate.obj
 0002:00038630       ?_Orphan_ptr@?$list@PAUIFunctor@UTIL@NMBASE@@V?$allocator@PAUIFunctor@UTIL@NMBASE@@@std@@@std@@QAEXPAU?$_List_node@PAUIFunctor@UTIL@NMBASE@@PAX@2@@Z 1008f630 f i Delegate.obj
 0002:000387b0       ?_Tidy@?$list@PAUIFunctor@UTIL@NMBASE@@V?$allocator@PAUIFunctor@UTIL@NMBASE@@@std@@@std@@QAEXXZ 1008f7b0 f i Delegate.obj
 0002:00038800       ?_Unchecked_end@?$list@PAUIFunctor@UTIL@NMBASE@@V?$allocator@PAUIFunctor@UTIL@NMBASE@@@std@@@std@@QAE?AV?$_List_unchecked_iterator@V?$_List_val@U?$_List_simple_types@PAUIFunctor@UTIL@NMBASE@@@std@@@std@@@2@XZ 1008f800 f i Delegate.obj
 0002:00038870       ?_Unlinknode@?$list@PAUIFunctor@UTIL@NMBASE@@V?$allocator@PAUIFunctor@UTIL@NMBASE@@@std@@@std@@QAEPAU?$_List_node@PAUIFunctor@UTIL@NMBASE@@PAX@2@V?$_List_const_iterator@V?$_List_val@U?$_List_simple_types@PAUIFunctor@UTIL@NMBASE@@@std@@@std@@@2@@Z 1008f870 f i Delegate.obj
 0002:00038a30       ?allocate@?$allocator@U?$_List_node@PAUIFunctor@UTIL@NMBASE@@PAX@std@@@std@@QAEPAU?$_List_node@PAUIFunctor@UTIL@NMBASE@@PAX@2@I@Z 1008fa30 f i Delegate.obj
 0002:00038aa0       ?begin@?$list@PAUIFunctor@UTIL@NMBASE@@V?$allocator@PAUIFunctor@UTIL@NMBASE@@@std@@@std@@QAE?AV?$_List_iterator@V?$_List_val@U?$_List_simple_types@PAUIFunctor@UTIL@NMBASE@@@std@@@std@@@2@XZ 1008faa0 f i Delegate.obj
 0002:00038b50       ?clear@?$list@PAUIFunctor@UTIL@NMBASE@@V?$allocator@PAUIFunctor@UTIL@NMBASE@@@std@@@std@@QAEXXZ 1008fb50 f i Delegate.obj
 0002:00038c70       ?deallocate@?$_Default_allocator_traits@V?$allocator@U?$_List_node@PAUIFunctor@UTIL@NMBASE@@PAX@std@@@std@@@std@@SAXAAV?$allocator@U?$_List_node@PAUIFunctor@UTIL@NMBASE@@PAX@std@@@2@QAU?$_List_node@PAUIFunctor@UTIL@NMBASE@@PAX@2@I@Z 1008fc70 f i Delegate.obj
 0002:00038cd0       ?deallocate@?$allocator@U?$_List_node@PAUIFunctor@UTIL@NMBASE@@PAX@std@@@std@@QAEXQAU?$_List_node@PAUIFunctor@UTIL@NMBASE@@PAX@2@I@Z 1008fcd0 f i Delegate.obj
 0002:00038d30       ?end@?$list@PAUIFunctor@UTIL@NMBASE@@V?$allocator@PAUIFunctor@UTIL@NMBASE@@@std@@@std@@QAE?AV?$_List_iterator@V?$_List_val@U?$_List_simple_types@PAUIFunctor@UTIL@NMBASE@@@std@@@std@@@2@XZ 1008fd30 f i Delegate.obj
 0002:00038de0       ?erase@?$list@PAUIFunctor@UTIL@NMBASE@@V?$allocator@PAUIFunctor@UTIL@NMBASE@@@std@@@std@@QAE?AV?$_List_iterator@V?$_List_val@U?$_List_simple_types@PAUIFunctor@UTIL@NMBASE@@@std@@@std@@@2@V?$_List_const_iterator@V?$_List_val@U?$_List_simple_types@PAUIFunctor@UTIL@NMBASE@@@std@@@std@@@2@@Z 1008fde0 f i Delegate.obj
 0002:00038f20       ?max_size@?$_Default_allocator_traits@V?$allocator@U?$_List_node@PAUIFunctor@UTIL@NMBASE@@PAX@std@@@std@@@std@@SAIABV?$allocator@U?$_List_node@PAUIFunctor@UTIL@NMBASE@@PAX@std@@@2@@Z 1008ff20 f i Delegate.obj
 0002:00038f60       ?max_size@?$list@PAUIFunctor@UTIL@NMBASE@@V?$allocator@PAUIFunctor@UTIL@NMBASE@@@std@@@std@@QBEIXZ 1008ff60 f i Delegate.obj
 0002:00038fc0       ?push_back@?$list@PAUIFunctor@UTIL@NMBASE@@V?$allocator@PAUIFunctor@UTIL@NMBASE@@@std@@@std@@QAEXABQAUIFunctor@UTIL@NMBASE@@@Z 1008ffc0 f i Delegate.obj
 0002:00039040       ??0CFunctor@UTIL@NMBASE@@QAE@XZ 10090040 f   Functor.obj
 0002:00039090       ??0CSFunctor@UTIL@NMBASE@@QAE@P6AJAAIAAJ@Z@Z 10090090 f i Functor.obj
 0002:00039140       ??0IFunctor@UTIL@NMBASE@@QAE@XZ 10090140 f i Functor.obj
 0002:00039190       ??1CFunctor@UTIL@NMBASE@@QAE@XZ 10090190 f   Functor.obj
 0002:00039240       ??1CSFunctor@UTIL@NMBASE@@AAE@XZ 10090240 f i Functor.obj
 0002:00039280       ??4CFunctor@UTIL@NMBASE@@QAEXPAUIFunctor@12@@Z 10090280 f   Functor.obj
 0002:00039300       ??8CSFunctor@UTIL@NMBASE@@UAEHAAUIFunctor@12@@Z 10090300 f i Functor.obj
 0002:000393a0       ??_GCSFunctor@UTIL@NMBASE@@AAEPAXI@Z 100903a0 f i Functor.obj
 0002:00039410       ?Call@CFunctor@UTIL@NMBASE@@QAEJAAIAAJ@Z 10090410 f   Functor.obj
 0002:000394a0       ?Call@CSFunctor@UTIL@NMBASE@@UAEJAAIAAJ@Z 100904a0 f i Functor.obj
 0002:00039510       ?Fnt@UTIL@NMBASE@@YAPAUIFunctor@12@P6AJAAIAAJ@Z@Z 10090510 f   Functor.obj
 0002:00039610       ?Get@CFunctor@UTIL@NMBASE@@QBEPAUIFunctor@23@XZ 10090610 f   Functor.obj
 0002:00039650       ?GetFunctor@CSFunctor@UTIL@NMBASE@@QAEP6AJAAIAAJ@ZXZ 10090650 f i Functor.obj
 0002:00039690       ?Info@CSFunctor@UTIL@NMBASE@@UAE?AUFINFO@23@XZ 10090690 f i Functor.obj
 0002:00039730       ?Release@CSFunctor@UTIL@NMBASE@@UAEXXZ 10090730 f i Functor.obj
 0002:000397d0       ??$?0$$V@?$_Compressed_pair@V?$allocator@U?$_List_node@PAUIComponent@@PAX@std@@@std@@V?$_List_val@U?$_List_simple_types@PAUIComponent@@@std@@@2@$00@std@@QAE@U_Zero_then_variadic_args_t@1@@Z 100907d0 f i MessageManager.obj
 0002:00039830       ??$?0$$V@?$_Compressed_pair@V?$allocator@U?$_Tree_node@U?$pair@$$CBIVCDelegate@UTIL@NMBASE@@@std@@PAX@std@@@std@@V?$_Tree_val@U?$_Tree_simple_types@U?$pair@$$CBIVCDelegate@UTIL@NMBASE@@@std@@@std@@@2@$00@std@@QAE@U_Zero_then_variadic_args_t@1@@Z 10090830 f i MessageManager.obj
 0002:00039890       ??$?0$$V@?$_Compressed_pair@V?$allocator@U?$_Tree_node@U?$pair@$$CBV?$basic_string@DU?$char_traits@D@std@@V?$allocator@D@2@@std@@VCDelegate@UTIL@NMBASE@@@std@@PAX@std@@@std@@V?$_Tree_val@U?$_Tree_simple_types@U?$pair@$$CBV?$basic_string@DU?$char_traits@D@std@@V?$allocator@D@2@@std@@VCDelegate@UTIL@NMBASE@@@std@@@std@@@2@$00@std@@QAE@U_Zero_then_variadic_args_t@1@@Z 10090890 f i MessageManager.obj
 0002:000398f0       ??$?0$$V@?$_Compressed_pair@V?$allocator@UPOSTMSG@CMessageManager@UTIL@NMBASE@@@std@@V?$_Deque_val@U?$_Deque_simple_types@UPOSTMSG@CMessageManager@UTIL@NMBASE@@@std@@@2@$00@std@@QAE@U_Zero_then_variadic_args_t@1@@Z 100908f0 f i MessageManager.obj
 0002:00039950       ??$?0AAPAV?$basic_string@DU?$char_traits@D@std@@V?$allocator@D@2@@std@@AAPAV01@$0A@@?$pair@PAV?$basic_string@DU?$char_traits@D@std@@V?$allocator@D@2@@std@@PAV12@@std@@QAE@AAPAV?$basic_string@DU?$char_traits@D@std@@V?$allocator@D@2@@1@0@Z 10090950 f i MessageManager.obj
 0002:000399d0       ??$?0AAV?$_Tree_iterator@V?$_Tree_val@U?$_Tree_simple_types@U?$pair@$$CBIVCDelegate@UTIL@NMBASE@@@std@@@std@@@std@@@std@@_N$0A@@?$pair@V?$_Tree_iterator@V?$_Tree_val@U?$_Tree_simple_types@U?$pair@$$CBIVCDelegate@UTIL@NMBASE@@@std@@@std@@@std@@@std@@_N@std@@QAE@AAV?$_Tree_iterator@V?$_Tree_val@U?$_Tree_simple_types@U?$pair@$$CBIVCDelegate@UTIL@NMBASE@@@std@@@std@@@std@@@1@$$QA_N@Z 100909d0 f i MessageManager.obj
 0002:00039a50       ??$?0AAV?$_Tree_iterator@V?$_Tree_val@U?$_Tree_simple_types@U?$pair@$$CBV?$basic_string@DU?$char_traits@D@std@@V?$allocator@D@2@@std@@VCDelegate@UTIL@NMBASE@@@std@@@std@@@std@@@std@@_N$0A@@?$pair@V?$_Tree_iterator@V?$_Tree_val@U?$_Tree_simple_types@U?$pair@$$CBV?$basic_string@DU?$char_traits@D@std@@V?$allocator@D@2@@std@@VCDelegate@UTIL@NMBASE@@@std@@@std@@@std@@@std@@_N@std@@QAE@AAV?$_Tree_iterator@V?$_Tree_val@U?$_Tree_simple_types@U?$pair@$$CBV?$basic_string@DU?$char_traits@D@std@@V?$allocator@D@2@@std@@VCDelegate@UTIL@NMBASE@@@std@@@std@@@std@@@1@$$QA_N@Z 10090a50 f i MessageManager.obj
 0002:00039ad0       ??$?0ABI$$Z$$V@?$pair@$$CBIVCDelegate@UTIL@NMBASE@@@std@@QAE@Upiecewise_construct_t@1@V?$tuple@ABI@1@V?$tuple@$$V@1@@Z 10090ad0 f i MessageManager.obj
 0002:00039b50       ??$?0ABI$0A@@?$tuple@ABI@std@@QAE@ABI@Z 10090b50 f i MessageManager.obj
 0002:00039c00       ??$?0ABI@?$_Tuple_val@ABI@std@@QAE@ABI@Z 10090c00 f i MessageManager.obj
 0002:00039c60       ??$?0ABU?$less@I@std@@U_Zero_then_variadic_args_t@1@@?$_Compressed_pair@U?$less@I@std@@V?$_Compressed_pair@V?$allocator@U?$_Tree_node@U?$pair@$$CBIVCDelegate@UTIL@NMBASE@@@std@@PAX@std@@@std@@V?$_Tree_val@U?$_Tree_simple_types@U?$pair@$$CBIVCDelegate@UTIL@NMBASE@@@std@@@std@@@2@$00@2@$00@std@@QAE@U_One_then_variadic_args_t@1@ABU?$less@I@1@$$QAU_Zero_then_variadic_args_t@1@@Z 10090c60 f i MessageManager.obj
 0002:00039ce0       ??$?0ABU?$less@V?$basic_string@DU?$char_traits@D@std@@V?$allocator@D@2@@std@@@std@@U_Zero_then_variadic_args_t@1@@?$_Compressed_pair@U?$less@V?$basic_string@DU?$char_traits@D@std@@V?$allocator@D@2@@std@@@std@@V?$_Compressed_pair@V?$allocator@U?$_Tree_node@U?$pair@$$CBV?$basic_string@DU?$char_traits@D@std@@V?$allocator@D@2@@std@@VCDelegate@UTIL@NMBASE@@@std@@PAX@std@@@std@@V?$_Tree_val@U?$_Tree_simple_types@U?$pair@$$CBV?$basic_string@DU?$char_traits@D@std@@V?$allocator@D@2@@std@@VCDelegate@UTIL@NMBASE@@@std@@@std@@@2@$00@2@$00@std@@QAE@U_One_then_variadic_args_t@1@ABU?$less@V?$basic_string@DU?$char_traits@D@std@@V?$allocator@D@2@@std@@@1@$$QAU_Zero_then_variadic_args_t@1@@Z 10090ce0 f i MessageManager.obj
 0002:00039d60       ??$?0ABV?$allocator@V?$basic_string@DU?$char_traits@D@std@@V?$allocator@D@2@@std@@@std@@$$V@?$_Compressed_pair@V?$allocator@V?$basic_string@DU?$char_traits@D@std@@V?$allocator@D@2@@std@@@std@@V?$_Vector_val@U?$_Simple_types@V?$basic_string@DU?$char_traits@D@std@@V?$allocator@D@2@@std@@@std@@@2@$00@std@@QAE@U_One_then_variadic_args_t@1@ABV?$allocator@V?$basic_string@DU?$char_traits@D@std@@V?$allocator@D@2@@std@@@1@@Z 10090d60 f i MessageManager.obj
 0002:00039dd0       ??$?0ABV?$allocator@V?$basic_string@DU?$char_traits@D@std@@V?$allocator@D@2@@std@@@std@@X@?$_Vector_alloc@U?$_Vec_base_types@V?$basic_string@DU?$char_traits@D@std@@V?$allocator@D@2@@std@@V?$allocator@V?$basic_string@DU?$char_traits@D@std@@V?$allocator@D@2@@std@@@2@@std@@@std@@QAE@ABV?$allocator@V?$basic_string@DU?$char_traits@D@std@@V?$allocator@D@2@@std@@@1@@Z 10090dd0 f i MessageManager.obj
 0002:00039e50       ??$?0ABV?$basic_string@DU?$char_traits@D@std@@V?$allocator@D@2@@std@@$$Z$$V@?$pair@$$CBV?$basic_string@DU?$char_traits@D@std@@V?$allocator@D@2@@std@@VCDelegate@UTIL@NMBASE@@@std@@QAE@Upiecewise_construct_t@1@V?$tuple@ABV?$basic_string@DU?$char_traits@D@std@@V?$allocator@D@2@@std@@@1@V?$tuple@$$V@1@@Z 10090e50 f i MessageManager.obj
 0002:00039ed0       ??$?0U?$_List_node@PAUIComponent@@PAX@std@@@?$allocator@U_Container_proxy@std@@@std@@QAE@ABV?$allocator@U?$_List_node@PAUIComponent@@PAX@std@@@1@@Z 10090ed0 f i MessageManager.obj
 0002:00039f10       ??$?0U?$_Tree_node@U?$pair@$$CBIVCDelegate@UTIL@NMBASE@@@std@@PAX@std@@@?$allocator@U_Container_proxy@std@@@std@@QAE@ABV?$allocator@U?$_Tree_node@U?$pair@$$CBIVCDelegate@UTIL@NMBASE@@@std@@PAX@std@@@1@@Z 10090f10 f i MessageManager.obj
 0002:00039f50       ??$?0U?$_Tree_node@U?$pair@$$CBV?$basic_string@DU?$char_traits@D@std@@V?$allocator@D@2@@std@@VCDelegate@UTIL@NMBASE@@@std@@PAX@std@@@?$allocator@U_Container_proxy@std@@@std@@QAE@ABV?$allocator@U?$_Tree_node@U?$pair@$$CBV?$basic_string@DU?$char_traits@D@std@@V?$allocator@D@2@@std@@VCDelegate@UTIL@NMBASE@@@std@@PAX@std@@@1@@Z 10090f50 f i MessageManager.obj
 0002:00039f90       ??$?0UPOSTMSG@CMessageManager@UTIL@NMBASE@@@?$allocator@PAUPOSTMSG@CMessageManager@UTIL@NMBASE@@@std@@QAE@ABV?$allocator@UPOSTMSG@CMessageManager@UTIL@NMBASE@@@1@@Z 10090f90 f i MessageManager.obj
 0002:00039fd0       ??$?0UPOSTMSG@CMessageManager@UTIL@NMBASE@@@?$allocator@U_Container_proxy@std@@@std@@QAE@ABV?$allocator@UPOSTMSG@CMessageManager@UTIL@NMBASE@@@1@@Z 10090fd0 f i MessageManager.obj
 0002:0003a010       ??$?0U_Exact_args_t@std@@ABI$$V$0A@@?$tuple@ABI@std@@QAE@U_Exact_args_t@1@ABI@Z 10091010 f i MessageManager.obj
 0002:0003a0a0       ??$?0V?$_Tree_iterator@V?$_Tree_val@U?$_Tree_simple_types@U?$pair@$$CBIVCDelegate@UTIL@NMBASE@@@std@@@std@@@std@@@std@@_N$0A@@?$pair@V?$_Tree_iterator@V?$_Tree_val@U?$_Tree_simple_types@U?$pair@$$CBIVCDelegate@UTIL@NMBASE@@@std@@@std@@@std@@@std@@_N@std@@QAE@$$QAV?$_Tree_iterator@V?$_Tree_val@U?$_Tree_simple_types@U?$pair@$$CBIVCDelegate@UTIL@NMBASE@@@std@@@std@@@std@@@1@$$QA_N@Z 100910a0 f i MessageManager.obj
 0002:0003a120       ??$?0V?$_Tree_iterator@V?$_Tree_val@U?$_Tree_simple_types@U?$pair@$$CBV?$basic_string@DU?$char_traits@D@std@@V?$allocator@D@2@@std@@VCDelegate@UTIL@NMBASE@@@std@@@std@@@std@@@std@@_N$0A@@?$pair@V?$_Tree_iterator@V?$_Tree_val@U?$_Tree_simple_types@U?$pair@$$CBV?$basic_string@DU?$char_traits@D@std@@V?$allocator@D@2@@std@@VCDelegate@UTIL@NMBASE@@@std@@@std@@@std@@@std@@_N@std@@QAE@$$QAV?$_Tree_iterator@V?$_Tree_val@U?$_Tree_simple_types@U?$pair@$$CBV?$basic_string@DU?$char_traits@D@std@@V?$allocator@D@2@@std@@VCDelegate@UTIL@NMBASE@@@std@@@std@@@std@@@1@$$QA_N@Z 10091120 f i MessageManager.obj
 0002:0003a1a0       ??$?0V?$basic_string@DU?$char_traits@D@std@@V?$allocator@D@2@@std@@@?$allocator@U_Container_proxy@std@@@std@@QAE@ABV?$allocator@V?$basic_string@DU?$char_traits@D@std@@V?$allocator@D@2@@std@@@1@@Z 100911a0 f i MessageManager.obj
 0002:0003a1e0       ??$?0V?$tuple@ABI@std@@V?$tuple@$$V@1@$0A@$$Z$S@?$pair@$$CBIVCDelegate@UTIL@NMBASE@@@std@@QAE@AAV?$tuple@ABI@1@AAV?$tuple@$$V@1@U?$integer_sequence@I$0A@@1@U?$integer_sequence@I$S@1@@Z 100911e0 f i MessageManager.obj
 0002:0003a260       ??$?0V?$tuple@ABV?$basic_string@DU?$char_traits@D@std@@V?$allocator@D@2@@std@@@std@@V?$tuple@$$V@1@$0A@$$Z$S@?$pair@$$CBV?$basic_string@DU?$char_traits@D@std@@V?$allocator@D@2@@std@@VCDelegate@UTIL@NMBASE@@@std@@QAE@AAV?$tuple@ABV?$basic_string@DU?$char_traits@D@std@@V?$allocator@D@2@@std@@@1@AAV?$tuple@$$V@1@U?$integer_sequence@I$0A@@1@U?$integer_sequence@I$S@1@@Z 10091260 f i MessageManager.obj
 0002:0003a330       ??$?8DD@std@@YA_NABV?$allocator@D@0@0@Z 10091330 f i MessageManager.obj
 0002:0003a360       ??$?9DD@std@@YA_NABV?$allocator@D@0@0@Z 10091360 f i MessageManager.obj
 0002:0003a390       ??$?RAAV?$basic_string@DU?$char_traits@D@std@@V?$allocator@D@2@@std@@AAV01@@?$less@X@std@@QBE_NAAV?$basic_string@DU?$char_traits@D@std@@V?$allocator@D@2@@1@0@Z 10091390 f i MessageManager.obj
 0002:0003a3f0       ??$_Adl_verify_range1@V?$_Deque_const_iterator@V?$_Deque_val@U?$_Deque_simple_types@UPOSTMSG@CMessageManager@UTIL@NMBASE@@@std@@@std@@@std@@V12@@std@@YAXABV?$_Deque_const_iterator@V?$_Deque_val@U?$_Deque_simple_types@UPOSTMSG@CMessageManager@UTIL@NMBASE@@@std@@@std@@@0@0U?$integral_constant@_N$00@0@@Z 100913f0 f i MessageManager.obj
 0002:0003a450       ??$_Adl_verify_range1@V?$_Deque_iterator@V?$_Deque_val@U?$_Deque_simple_types@UPOSTMSG@CMessageManager@UTIL@NMBASE@@@std@@@std@@@std@@V12@@std@@YAXABV?$_Deque_iterator@V?$_Deque_val@U?$_Deque_simple_types@UPOSTMSG@CMessageManager@UTIL@NMBASE@@@std@@@std@@@0@0U?$integral_constant@_N$00@0@@Z 10091450 f i MessageManager.obj
 0002:0003a4b0       ??$_Adl_verify_range1@V?$_List_iterator@V?$_List_val@U?$_List_simple_types@PAUIComponent@@@std@@@std@@@std@@V12@@std@@YAXABV?$_List_iterator@V?$_List_val@U?$_List_simple_types@PAUIComponent@@@std@@@std@@@0@0U?$integral_constant@_N$00@0@@Z 100914b0 f i MessageManager.obj
 0002:0003a510       ??$_Adl_verify_range1@V?$_Vector_iterator@V?$_Vector_val@U?$_Simple_types@V?$basic_string@DU?$char_traits@D@std@@V?$allocator@D@2@@std@@@std@@@std@@@std@@V12@@std@@YAXABV?$_Vector_iterator@V?$_Vector_val@U?$_Simple_types@V?$basic_string@DU?$char_traits@D@std@@V?$allocator@D@2@@std@@@std@@@std@@@0@0U?$integral_constant@_N$00@0@@Z 10091510 f i MessageManager.obj
 0002:0003a570       ??$_Adl_verify_range@V?$_Deque_const_iterator@V?$_Deque_val@U?$_Deque_simple_types@UPOSTMSG@CMessageManager@UTIL@NMBASE@@@std@@@std@@@std@@V12@@std@@YAXABV?$_Deque_const_iterator@V?$_Deque_val@U?$_Deque_simple_types@UPOSTMSG@CMessageManager@UTIL@NMBASE@@@std@@@std@@@0@0@Z 10091570 f i MessageManager.obj
 0002:0003a5e0       ??$_Adl_verify_range@V?$_Deque_iterator@V?$_Deque_val@U?$_Deque_simple_types@UPOSTMSG@CMessageManager@UTIL@NMBASE@@@std@@@std@@@std@@V12@@std@@YAXABV?$_Deque_iterator@V?$_Deque_val@U?$_Deque_simple_types@UPOSTMSG@CMessageManager@UTIL@NMBASE@@@std@@@std@@@0@0@Z 100915e0 f i MessageManager.obj
 0002:0003a650       ??$_Adl_verify_range@V?$_List_iterator@V?$_List_val@U?$_List_simple_types@PAUIComponent@@@std@@@std@@@std@@V12@@std@@YAXABV?$_List_iterator@V?$_List_val@U?$_List_simple_types@PAUIComponent@@@std@@@std@@@0@0@Z 10091650 f i MessageManager.obj
 0002:0003a6c0       ??$_Adl_verify_range@V?$_Vector_iterator@V?$_Vector_val@U?$_Simple_types@V?$basic_string@DU?$char_traits@D@std@@V?$allocator@D@2@@std@@@std@@@std@@@std@@V12@@std@@YAXABV?$_Vector_iterator@V?$_Vector_val@U?$_Simple_types@V?$basic_string@DU?$char_traits@D@std@@V?$allocator@D@2@@std@@@std@@@std@@@0@0@Z 100916c0 f i MessageManager.obj
 0002:0003a730       ??$_Buy_if_not_node@AAU?$pair@$$CBIVCDelegate@UTIL@NMBASE@@@std@@@?$_Tree@V?$_Tmap_traits@IVCDelegate@UTIL@NMBASE@@U?$less@I@std@@V?$allocator@U?$pair@$$CBIVCDelegate@UTIL@NMBASE@@@std@@@5@$0A@@std@@@std@@IAEPAU?$_Tree_node@U?$pair@$$CBIVCDelegate@UTIL@NMBASE@@@std@@PAX@1@PAU21@AAU?$pair@$$CBIVCDelegate@UTIL@NMBASE@@@1@@Z 10091730 f i MessageManager.obj
 0002:0003a770       ??$_Buy_if_not_node@AAU?$pair@$$CBV?$basic_string@DU?$char_traits@D@std@@V?$allocator@D@2@@std@@VCDelegate@UTIL@NMBASE@@@std@@@?$_Tree@V?$_Tmap_traits@V?$basic_string@DU?$char_traits@D@std@@V?$allocator@D@2@@std@@VCDelegate@UTIL@NMBASE@@U?$less@V?$basic_string@DU?$char_traits@D@std@@V?$allocator@D@2@@std@@@2@V?$allocator@U?$pair@$$CBV?$basic_string@DU?$char_traits@D@std@@V?$allocator@D@2@@std@@VCDelegate@UTIL@NMBASE@@@std@@@2@$0A@@std@@@std@@IAEPAU?$_Tree_node@U?$pair@$$CBV?$basic_string@DU?$char_traits@D@std@@V?$allocator@D@2@@std@@VCDelegate@UTIL@NMBASE@@@std@@PAX@1@PAU21@AAU?$pair@$$CBV?$basic_string@DU?$char_traits@D@std@@V?$allocator@D@2@@std@@VCDelegate@UTIL@NMBASE@@@1@@Z 10091770 f i MessageManager.obj
 0002:0003a7b0       ??$_Buynode@AAU?$pair@$$CBIVCDelegate@UTIL@NMBASE@@@std@@@?$_Tree_comp_alloc@V?$_Tmap_traits@IVCDelegate@UTIL@NMBASE@@U?$less@I@std@@V?$allocator@U?$pair@$$CBIVCDelegate@UTIL@NMBASE@@@std@@@5@$0A@@std@@@std@@QAEPAU?$_Tree_node@U?$pair@$$CBIVCDelegate@UTIL@NMBASE@@@std@@PAX@1@AAU?$pair@$$CBIVCDelegate@UTIL@NMBASE@@@1@@Z 100917b0 f i MessageManager.obj
 0002:0003a8d0       ??$_Buynode@AAU?$pair@$$CBV?$basic_string@DU?$char_traits@D@std@@V?$allocator@D@2@@std@@VCDelegate@UTIL@NMBASE@@@std@@@?$_Tree_comp_alloc@V?$_Tmap_traits@V?$basic_string@DU?$char_traits@D@std@@V?$allocator@D@2@@std@@VCDelegate@UTIL@NMBASE@@U?$less@V?$basic_string@DU?$char_traits@D@std@@V?$allocator@D@2@@std@@@2@V?$allocator@U?$pair@$$CBV?$basic_string@DU?$char_traits@D@std@@V?$allocator@D@2@@std@@VCDelegate@UTIL@NMBASE@@@std@@@2@$0A@@std@@@std@@QAEPAU?$_Tree_node@U?$pair@$$CBV?$basic_string@DU?$char_traits@D@std@@V?$allocator@D@2@@std@@VCDelegate@UTIL@NMBASE@@@std@@PAX@1@AAU?$pair@$$CBV?$basic_string@DU?$char_traits@D@std@@V?$allocator@D@2@@std@@VCDelegate@UTIL@NMBASE@@@1@@Z 100918d0 f i MessageManager.obj
 0002:0003a9f0       ??$_Buynode@ABQAUIComponent@@@?$_List_buy@PAUIComponent@@V?$allocator@PAUIComponent@@@std@@@std@@QAEPAU?$_List_node@PAUIComponent@@PAX@1@PAU21@0ABQAUIComponent@@@Z 100919f0 f i MessageManager.obj
 0002:0003ab10       ??$_Buynode@ABUpiecewise_construct_t@std@@V?$tuple@ABI@2@V?$tuple@$$V@2@@?$_Tree_comp_alloc@V?$_Tmap_traits@IVCDelegate@UTIL@NMBASE@@U?$less@I@std@@V?$allocator@U?$pair@$$CBIVCDelegate@UTIL@NMBASE@@@std@@@5@$0A@@std@@@std@@QAEPAU?$_Tree_node@U?$pair@$$CBIVCDelegate@UTIL@NMBASE@@@std@@PAX@1@ABUpiecewise_construct_t@1@$$QAV?$tuple@ABI@1@$$QAV?$tuple@$$V@1@@Z 10091b10 f i MessageManager.obj
 0002:0003ac50       ??$_Buynode@ABUpiecewise_construct_t@std@@V?$tuple@ABV?$basic_string@DU?$char_traits@D@std@@V?$allocator@D@2@@std@@@2@V?$tuple@$$V@2@@?$_Tree_comp_alloc@V?$_Tmap_traits@V?$basic_string@DU?$char_traits@D@std@@V?$allocator@D@2@@std@@VCDelegate@UTIL@NMBASE@@U?$less@V?$basic_string@DU?$char_traits@D@std@@V?$allocator@D@2@@std@@@2@V?$allocator@U?$pair@$$CBV?$basic_string@DU?$char_traits@D@std@@V?$allocator@D@2@@std@@VCDelegate@UTIL@NMBASE@@@std@@@2@$0A@@std@@@std@@QAEPAU?$_Tree_node@U?$pair@$$CBV?$basic_string@DU?$char_traits@D@std@@V?$allocator@D@2@@std@@VCDelegate@UTIL@NMBASE@@@std@@PAX@1@ABUpiecewise_construct_t@1@$$QAV?$tuple@ABV?$basic_string@DU?$char_traits@D@std@@V?$allocator@D@2@@std@@@1@$$QAV?$tuple@$$V@1@@Z 10091c50 f i MessageManager.obj
 0002:0003ad90       ??$_Const_cast@$$CBV?$basic_string@DU?$char_traits@D@std@@V?$allocator@D@2@@std@@@std@@YA@PBV?$basic_string@DU?$char_traits@D@std@@V?$allocator@D@2@@0@@Z 10091d90 f i MessageManager.obj
 0002:0003add0       ??$_Copy@U_Copy_tag@?$_Tree@V?$_Tmap_traits@IVCDelegate@UTIL@NMBASE@@U?$less@I@std@@V?$allocator@U?$pair@$$CBIVCDelegate@UTIL@NMBASE@@@std@@@5@$0A@@std@@@std@@@?$_Tree@V?$_Tmap_traits@IVCDelegate@UTIL@NMBASE@@U?$less@I@std@@V?$allocator@U?$pair@$$CBIVCDelegate@UTIL@NMBASE@@@std@@@5@$0A@@std@@@std@@IAEXABV01@U_Copy_tag@01@@Z 10091dd0 f i MessageManager.obj
 0002:0003af10       ??$_Copy@U_Copy_tag@?$_Tree@V?$_Tmap_traits@V?$basic_string@DU?$char_traits@D@std@@V?$allocator@D@2@@std@@VCDelegate@UTIL@NMBASE@@U?$less@V?$basic_string@DU?$char_traits@D@std@@V?$allocator@D@2@@std@@@2@V?$allocator@U?$pair@$$CBV?$basic_string@DU?$char_traits@D@std@@V?$allocator@D@2@@std@@VCDelegate@UTIL@NMBASE@@@std@@@2@$0A@@std@@@std@@@?$_Tree@V?$_Tmap_traits@V?$basic_string@DU?$char_traits@D@std@@V?$allocator@D@2@@std@@VCDelegate@UTIL@NMBASE@@U?$less@V?$basic_string@DU?$char_traits@D@std@@V?$allocator@D@2@@std@@@2@V?$allocator@U?$pair@$$CBV?$basic_string@DU?$char_traits@D@std@@V?$allocator@D@2@@std@@VCDelegate@UTIL@NMBASE@@@std@@@2@$0A@@std@@@std@@IAEXABV01@U_Copy_tag@01@@Z 10091f10 f i MessageManager.obj
 0002:0003b050       ??$_Copy_memmove@PAPAUPOSTMSG@CMessageManager@UTIL@NMBASE@@PAPAU1234@@std@@YAPAPAUPOSTMSG@CMessageManager@UTIL@NMBASE@@PAPAU1234@00@Z 10092050 f i MessageManager.obj
 0002:0003b0d0       ??$_Copy_nodes@U_Copy_tag@?$_Tree@V?$_Tmap_traits@IVCDelegate@UTIL@NMBASE@@U?$less@I@std@@V?$allocator@U?$pair@$$CBIVCDelegate@UTIL@NMBASE@@@std@@@5@$0A@@std@@@std@@@?$_Tree@V?$_Tmap_traits@IVCDelegate@UTIL@NMBASE@@U?$less@I@std@@V?$allocator@U?$pair@$$CBIVCDelegate@UTIL@NMBASE@@@std@@@5@$0A@@std@@@std@@IAEPAU?$_Tree_node@U?$pair@$$CBIVCDelegate@UTIL@NMBASE@@@std@@PAX@1@PAU21@0U_Copy_tag@01@@Z 100920d0 f i MessageManager.obj
 0002:0003b2b0       ??$_Copy_nodes@U_Copy_tag@?$_Tree@V?$_Tmap_traits@V?$basic_string@DU?$char_traits@D@std@@V?$allocator@D@2@@std@@VCDelegate@UTIL@NMBASE@@U?$less@V?$basic_string@DU?$char_traits@D@std@@V?$allocator@D@2@@std@@@2@V?$allocator@U?$pair@$$CBV?$basic_string@DU?$char_traits@D@std@@V?$allocator@D@2@@std@@VCDelegate@UTIL@NMBASE@@@std@@@2@$0A@@std@@@std@@@?$_Tree@V?$_Tmap_traits@V?$basic_string@DU?$char_traits@D@std@@V?$allocator@D@2@@std@@VCDelegate@UTIL@NMBASE@@U?$less@V?$basic_string@DU?$char_traits@D@std@@V?$allocator@D@2@@std@@@2@V?$allocator@U?$pair@$$CBV?$basic_string@DU?$char_traits@D@std@@V?$allocator@D@2@@std@@VCDelegate@UTIL@NMBASE@@@std@@@2@$0A@@std@@@std@@IAEPAU?$_Tree_node@U?$pair@$$CBV?$basic_string@DU?$char_traits@D@std@@V?$allocator@D@2@@std@@VCDelegate@UTIL@NMBASE@@@std@@PAX@1@PAU21@0U_Copy_tag@01@@Z 100922b0 f i MessageManager.obj
 0002:0003b490       ??$_Copy_or_move@U?$pair@$$CBIVCDelegate@UTIL@NMBASE@@@std@@U?$integral_constant@_N$0A@@2@@?$_Tree@V?$_Tmap_traits@IVCDelegate@UTIL@NMBASE@@U?$less@I@std@@V?$allocator@U?$pair@$$CBIVCDelegate@UTIL@NMBASE@@@std@@@5@$0A@@std@@@std@@IAEPAU?$_Tree_node@U?$pair@$$CBIVCDelegate@UTIL@NMBASE@@@std@@PAX@1@AAU?$pair@$$CBIVCDelegate@UTIL@NMBASE@@@1@U_Copy_tag@01@U?$integral_constant@_N$0A@@1@@Z 10092490 f i MessageManager.obj
 0002:0003b4f0       ??$_Copy_or_move@U?$pair@$$CBV?$basic_string@DU?$char_traits@D@std@@V?$allocator@D@2@@std@@VCDelegate@UTIL@NMBASE@@@std@@U?$integral_constant@_N$0A@@2@@?$_Tree@V?$_Tmap_traits@V?$basic_string@DU?$char_traits@D@std@@V?$allocator@D@2@@std@@VCDelegate@UTIL@NMBASE@@U?$less@V?$basic_string@DU?$char_traits@D@std@@V?$allocator@D@2@@std@@@2@V?$allocator@U?$pair@$$CBV?$basic_string@DU?$char_traits@D@std@@V?$allocator@D@2@@std@@VCDelegate@UTIL@NMBASE@@@std@@@2@$0A@@std@@@std@@IAEPAU?$_Tree_node@U?$pair@$$CBV?$basic_string@DU?$char_traits@D@std@@V?$allocator@D@2@@std@@VCDelegate@UTIL@NMBASE@@@std@@PAX@1@AAU?$pair@$$CBV?$basic_string@DU?$char_traits@D@std@@V?$allocator@D@2@@std@@VCDelegate@UTIL@NMBASE@@@1@U_Copy_tag@01@U?$integral_constant@_N$0A@@1@@Z 100924f0 f i MessageManager.obj
 0002:0003b550       ??$_Copy_unchecked1@V?$_Deque_unchecked_const_iterator@V?$_Deque_val@U?$_Deque_simple_types@UPOSTMSG@CMessageManager@UTIL@NMBASE@@@std@@@std@@@std@@V?$_Deque_unchecked_iterator@V?$_Deque_val@U?$_Deque_simple_types@UPOSTMSG@CMessageManager@UTIL@NMBASE@@@std@@@std@@@2@@std@@YA?AV?$_Deque_unchecked_iterator@V?$_Deque_val@U?$_Deque_simple_types@UPOSTMSG@CMessageManager@UTIL@NMBASE@@@std@@@std@@@0@V?$_Deque_unchecked_const_iterator@V?$_Deque_val@U?$_Deque_simple_types@UPOSTMSG@CMessageManager@UTIL@NMBASE@@@std@@@std@@@0@0V10@U_General_ptr_iterator_tag@0@@Z 10092550 f i MessageManager.obj
 0002:0003b600       ??$_Copy_unchecked@V?$_Deque_unchecked_const_iterator@V?$_Deque_val@U?$_Deque_simple_types@UPOSTMSG@CMessageManager@UTIL@NMBASE@@@std@@@std@@@std@@V?$_Deque_unchecked_iterator@V?$_Deque_val@U?$_Deque_simple_types@UPOSTMSG@CMessageManager@UTIL@NMBASE@@@std@@@std@@@2@@std@@YA?AV?$_Deque_unchecked_iterator@V?$_Deque_val@U?$_Deque_simple_types@UPOSTMSG@CMessageManager@UTIL@NMBASE@@@std@@@std@@@0@V?$_Deque_unchecked_const_iterator@V?$_Deque_val@U?$_Deque_simple_types@UPOSTMSG@CMessageManager@UTIL@NMBASE@@@std@@@std@@@0@0V10@@Z 10092600 f i MessageManager.obj
 0002:0003b6a0       ??$_Debug_lt_pred@AAU?$less@I@std@@ABIABI@std@@YA_NAAU?$less@I@0@ABI1@Z 100926a0 f i MessageManager.obj
 0002:0003b7a0       ??$_Debug_lt_pred@AAU?$less@X@std@@AAV?$basic_string@DU?$char_traits@D@std@@V?$allocator@D@2@@2@AAV32@@std@@YA_NAAU?$less@X@0@AAV?$basic_string@DU?$char_traits@D@std@@V?$allocator@D@2@@0@1@Z 100927a0 f i MessageManager.obj
 0002:0003b8a0       ??$_Debug_lt_pred@ABU?$less@I@std@@ABIABI@std@@YA_NABU?$less@I@0@ABI1@Z 100928a0 f i MessageManager.obj
 0002:0003b9a0       ??$_Destroy_range1@V?$allocator@PAUPOSTMSG@CMessageManager@UTIL@NMBASE@@@std@@@std@@YAXPAPAUPOSTMSG@CMessageManager@UTIL@NMBASE@@0AAV?$allocator@PAUPOSTMSG@CMessageManager@UTIL@NMBASE@@@0@U?$integral_constant@_N$00@0@@Z 100929a0 f i MessageManager.obj
 0002:0003b9d0       ??$_Destroy_range1@V?$allocator@V?$basic_string@DU?$char_traits@D@std@@V?$allocator@D@2@@std@@@std@@@std@@YAXPAV?$basic_string@DU?$char_traits@D@std@@V?$allocator@D@2@@0@0AAV?$allocator@V?$basic_string@DU?$char_traits@D@std@@V?$allocator@D@2@@std@@@0@U?$integral_constant@_N$0A@@0@@Z 100929d0 f i MessageManager.obj
 0002:0003ba50       ??$_Destroy_range@V?$allocator@PAUPOSTMSG@CMessageManager@UTIL@NMBASE@@@std@@@std@@YAXPAPAUPOSTMSG@CMessageManager@UTIL@NMBASE@@0AAV?$allocator@PAUPOSTMSG@CMessageManager@UTIL@NMBASE@@@0@@Z 10092a50 f i MessageManager.obj
 0002:0003bac0       ??$_Destroy_range@V?$allocator@V?$basic_string@DU?$char_traits@D@std@@V?$allocator@D@2@@std@@@std@@@std@@YAXPAV?$basic_string@DU?$char_traits@D@std@@V?$allocator@D@2@@0@0AAV?$allocator@V?$basic_string@DU?$char_traits@D@std@@V?$allocator@D@2@@std@@@0@@Z 10092ac0 f i MessageManager.obj
 0002:0003bb30       ??$_Emplace_back@$$V@?$_Uninitialized_backout_al@PAV?$basic_string@DU?$char_traits@D@std@@V?$allocator@D@2@@std@@V?$allocator@V?$basic_string@DU?$char_traits@D@std@@V?$allocator@D@2@@std@@@2@@std@@QAEXXZ 10092b30 f i MessageManager.obj
 0002:0003bbb0       ??$_Find_unchecked1@V?$_List_unchecked_iterator@V?$_List_val@U?$_List_simple_types@PAUIComponent@@@std@@@std@@@std@@PAUIComponent@@@std@@YA?AV?$_List_unchecked_iterator@V?$_List_val@U?$_List_simple_types@PAUIComponent@@@std@@@std@@@0@V10@V10@ABQAUIComponent@@U?$integral_constant@_N$0A@@0@@Z 10092bb0 f i MessageManager.obj
 0002:0003bc40       ??$_Find_unchecked@V?$_List_unchecked_iterator@V?$_List_val@U?$_List_simple_types@PAUIComponent@@@std@@@std@@@std@@PAUIComponent@@@std@@YA?AV?$_List_unchecked_iterator@V?$_List_val@U?$_List_simple_types@PAUIComponent@@@std@@@std@@@0@V10@0ABQAUIComponent@@@Z 10092c40 f i MessageManager.obj
 0002:0003bcc0       ??$_Freenode0@V?$allocator@U?$_List_node@PAUIComponent@@PAX@std@@@std@@@?$_List_node@PAUIComponent@@PAX@std@@SAXAAV?$allocator@U?$_List_node@PAUIComponent@@PAX@std@@@1@PAU01@@Z 10092cc0 f i MessageManager.obj
 0002:0003bdd0       ??$_Freenode0@V?$allocator@U?$_Tree_node@U?$pair@$$CBIVCDelegate@UTIL@NMBASE@@@std@@PAX@std@@@std@@@?$_Tree_node@U?$pair@$$CBIVCDelegate@UTIL@NMBASE@@@std@@PAX@std@@SAXAAV?$allocator@U?$_Tree_node@U?$pair@$$CBIVCDelegate@UTIL@NMBASE@@@std@@PAX@std@@@1@PAU01@@Z 10092dd0 f i MessageManager.obj
 0002:0003bf00       ??$_Freenode0@V?$allocator@U?$_Tree_node@U?$pair@$$CBV?$basic_string@DU?$char_traits@D@std@@V?$allocator@D@2@@std@@VCDelegate@UTIL@NMBASE@@@std@@PAX@std@@@std@@@?$_Tree_node@U?$pair@$$CBV?$basic_string@DU?$char_traits@D@std@@V?$allocator@D@2@@std@@VCDelegate@UTIL@NMBASE@@@std@@PAX@std@@SAXAAV?$allocator@U?$_Tree_node@U?$pair@$$CBV?$basic_string@DU?$char_traits@D@std@@V?$allocator@D@2@@std@@VCDelegate@UTIL@NMBASE@@@std@@PAX@std@@@1@PAU01@@Z 10092f00 f i MessageManager.obj
 0002:0003c030       ??$_Get_size_of_n@$03@std@@YAII@Z 10093030 f i MessageManager.obj
 0002:0003c090       ??$_Get_size_of_n@$0BM@@std@@YAII@Z 10093090 f i MessageManager.obj
 0002:0003c0f0       ??$_Get_size_of_n@$0CE@@std@@YAII@Z 100930f0 f i MessageManager.obj
 0002:0003c150       ??$_Get_size_of_n@$0DM@@std@@YAII@Z 10093150 f i MessageManager.obj
 0002:0003c1b0       ??$_Get_unwrapped@PAUPOSTMSG@CMessageManager@UTIL@NMBASE@@@std@@YAPAPAUPOSTMSG@CMessageManager@UTIL@NMBASE@@QAPAU1234@@Z 100931b0 f i MessageManager.obj
 0002:0003c1f0       ??$_Get_unwrapped@V?$_Deque_const_iterator@V?$_Deque_val@U?$_Deque_simple_types@UPOSTMSG@CMessageManager@UTIL@NMBASE@@@std@@@std@@@std@@$0A@@std@@YA@ABV?$_Deque_const_iterator@V?$_Deque_val@U?$_Deque_simple_types@UPOSTMSG@CMessageManager@UTIL@NMBASE@@@std@@@std@@@0@@Z 100931f0 f i MessageManager.obj
 0002:0003c250       ??$_Get_unwrapped@V?$_Deque_iterator@V?$_Deque_val@U?$_Deque_simple_types@UPOSTMSG@CMessageManager@UTIL@NMBASE@@@std@@@std@@@std@@$0A@@std@@YA@ABV?$_Deque_iterator@V?$_Deque_val@U?$_Deque_simple_types@UPOSTMSG@CMessageManager@UTIL@NMBASE@@@std@@@std@@@0@@Z 10093250 f i MessageManager.obj
 0002:0003c2b0       ??$_Get_unwrapped@V?$_List_iterator@V?$_List_val@U?$_List_simple_types@PAUIComponent@@@std@@@std@@@std@@$0A@@std@@YA@ABV?$_List_iterator@V?$_List_val@U?$_List_simple_types@PAUIComponent@@@std@@@std@@@0@@Z 100932b0 f i MessageManager.obj
 0002:0003c310       ??$_Get_unwrapped@V?$_Vector_iterator@V?$_Vector_val@U?$_Simple_types@V?$basic_string@DU?$char_traits@D@std@@V?$allocator@D@2@@std@@@std@@@std@@@std@@$0A@@std@@YA@ABV?$_Vector_iterator@V?$_Vector_val@U?$_Simple_types@V?$basic_string@DU?$char_traits@D@std@@V?$allocator@D@2@@std@@@std@@@std@@@0@@Z 10093310 f i MessageManager.obj
 0002:0003c360       ??$_Get_unwrapped_n@PAUPOSTMSG@CMessageManager@UTIL@NMBASE@@H$0A@@std@@YAPAPAUPOSTMSG@CMessageManager@UTIL@NMBASE@@QAPAU1234@H@Z 10093360 f i MessageManager.obj
 0002:0003c3a0       ??$_Get_unwrapped_n@V?$_Deque_iterator@V?$_Deque_val@U?$_Deque_simple_types@UPOSTMSG@CMessageManager@UTIL@NMBASE@@@std@@@std@@@std@@H$0A@@std@@YA@ABV?$_Deque_iterator@V?$_Deque_val@U?$_Deque_simple_types@UPOSTMSG@CMessageManager@UTIL@NMBASE@@@std@@@std@@@0@H@Z 100933a0 f i MessageManager.obj
 0002:0003c4a0       ??$_Guess_median_unchecked@PAV?$basic_string@DU?$char_traits@D@std@@V?$allocator@D@2@@std@@U?$less@X@2@@std@@YAXPAV?$basic_string@DU?$char_traits@D@std@@V?$allocator@D@2@@0@00U?$less@X@0@@Z 100934a0 f i MessageManager.obj
 0002:0003c5f0       ??$_Idl_distance1@PAPAUPOSTMSG@CMessageManager@UTIL@NMBASE@@PAPAU1234@@std@@YAHABQAPAUPOSTMSG@CMessageManager@UTIL@NMBASE@@0Urandom_access_iterator_tag@0@@Z 100935f0 f i MessageManager.obj
 0002:0003c630       ??$_Idl_distance1@V?$_Deque_const_iterator@V?$_Deque_val@U?$_Deque_simple_types@UPOSTMSG@CMessageManager@UTIL@NMBASE@@@std@@@std@@@std@@V?$_Deque_unchecked_const_iterator@V?$_Deque_val@U?$_Deque_simple_types@UPOSTMSG@CMessageManager@UTIL@NMBASE@@@std@@@std@@@2@@std@@YAHABV?$_Deque_unchecked_const_iterator@V?$_Deque_val@U?$_Deque_simple_types@UPOSTMSG@CMessageManager@UTIL@NMBASE@@@std@@@std@@@0@0Urandom_access_iterator_tag@0@@Z 10093630 f i MessageManager.obj
 0002:0003c680       ??$_Idl_distance1@V?$_Deque_iterator@V?$_Deque_val@U?$_Deque_simple_types@UPOSTMSG@CMessageManager@UTIL@NMBASE@@@std@@@std@@@std@@V?$_Deque_unchecked_iterator@V?$_Deque_val@U?$_Deque_simple_types@UPOSTMSG@CMessageManager@UTIL@NMBASE@@@std@@@std@@@2@@std@@YAHABV?$_Deque_unchecked_iterator@V?$_Deque_val@U?$_Deque_simple_types@UPOSTMSG@CMessageManager@UTIL@NMBASE@@@std@@@std@@@0@0Urandom_access_iterator_tag@0@@Z 10093680 f i MessageManager.obj
 0002:0003c6d0       ??$_Idl_distance@PAPAUPOSTMSG@CMessageManager@UTIL@NMBASE@@PAPAU1234@@std@@YA@ABQAPAUPOSTMSG@CMessageManager@UTIL@NMBASE@@0@Z 100936d0 f i MessageManager.obj
 0002:0003c730       ??$_Idl_distance@V?$_Deque_const_iterator@V?$_Deque_val@U?$_Deque_simple_types@UPOSTMSG@CMessageManager@UTIL@NMBASE@@@std@@@std@@@std@@V?$_Deque_unchecked_const_iterator@V?$_Deque_val@U?$_Deque_simple_types@UPOSTMSG@CMessageManager@UTIL@NMBASE@@@std@@@std@@@2@@std@@YA@ABV?$_Deque_unchecked_const_iterator@V?$_Deque_val@U?$_Deque_simple_types@UPOSTMSG@CMessageManager@UTIL@NMBASE@@@std@@@std@@@0@0@Z 10093730 f i MessageManager.obj
 0002:0003c790       ??$_Idl_distance@V?$_Deque_iterator@V?$_Deque_val@U?$_Deque_simple_types@UPOSTMSG@CMessageManager@UTIL@NMBASE@@@std@@@std@@@std@@V?$_Deque_unchecked_iterator@V?$_Deque_val@U?$_Deque_simple_types@UPOSTMSG@CMessageManager@UTIL@NMBASE@@@std@@@std@@@2@@std@@YA@ABV?$_Deque_unchecked_iterator@V?$_Deque_val@U?$_Deque_simple_types@UPOSTMSG@CMessageManager@UTIL@NMBASE@@@std@@@std@@@0@0@Z 10093790 f i MessageManager.obj
 0002:0003c7f0       ??$_Insert@ABQAUIComponent@@@?$list@PAUIComponent@@V?$allocator@PAUIComponent@@@std@@@std@@QAEXV?$_List_unchecked_const_iterator@V?$_List_val@U?$_List_simple_types@PAUIComponent@@@std@@@std@@U_Iterator_base0@2@@1@ABQAUIComponent@@@Z 100937f0 f i MessageManager.obj
 0002:0003c8a0       ??$_Insert_at@AAU?$pair@$$CBIVCDelegate@UTIL@NMBASE@@@std@@PAU?$_Tree_node@U?$pair@$$CBIVCDelegate@UTIL@NMBASE@@@std@@PAX@2@@?$_Tree@V?$_Tmap_traits@IVCDelegate@UTIL@NMBASE@@U?$less@I@std@@V?$allocator@U?$pair@$$CBIVCDelegate@UTIL@NMBASE@@@std@@@5@$0A@@std@@@std@@IAE?AV?$_Tree_iterator@V?$_Tree_val@U?$_Tree_simple_types@U?$pair@$$CBIVCDelegate@UTIL@NMBASE@@@std@@@std@@@std@@@1@_NPAU?$_Tree_node@U?$pair@$$CBIVCDelegate@UTIL@NMBASE@@@std@@PAX@1@AAU?$pair@$$CBIVCDelegate@UTIL@NMBASE@@@1@1@Z 100938a0 f i MessageManager.obj
 0002:0003cc20       ??$_Insert_at@AAU?$pair@$$CBV?$basic_string@DU?$char_traits@D@std@@V?$allocator@D@2@@std@@VCDelegate@UTIL@NMBASE@@@std@@PAU?$_Tree_node@U?$pair@$$CBV?$basic_string@DU?$char_traits@D@std@@V?$allocator@D@2@@std@@VCDelegate@UTIL@NMBASE@@@std@@PAX@2@@?$_Tree@V?$_Tmap_traits@V?$basic_string@DU?$char_traits@D@std@@V?$allocator@D@2@@std@@VCDelegate@UTIL@NMBASE@@U?$less@V?$basic_string@DU?$char_traits@D@std@@V?$allocator@D@2@@std@@@2@V?$allocator@U?$pair@$$CBV?$basic_string@DU?$char_traits@D@std@@V?$allocator@D@2@@std@@VCDelegate@UTIL@NMBASE@@@std@@@2@$0A@@std@@@std@@IAE?AV?$_Tree_iterator@V?$_Tree_val@U?$_Tree_simple_types@U?$pair@$$CBV?$basic_string@DU?$char_traits@D@std@@V?$allocator@D@2@@std@@VCDelegate@UTIL@NMBASE@@@std@@@std@@@std@@@1@_NPAU?$_Tree_node@U?$pair@$$CBV?$basic_string@DU?$char_traits@D@std@@V?$allocator@D@2@@std@@VCDelegate@UTIL@NMBASE@@@std@@PAX@1@AAU?$pair@$$CBV?$basic_string@DU?$char_traits@D@std@@V?$allocator@D@2@@std@@VCDelegate@UTIL@NMBASE@@@1@1@Z 10093c20 f i MessageManager.obj
 0002:0003cfa0       ??$_Insert_hint@AAU?$pair@$$CBIVCDelegate@UTIL@NMBASE@@@std@@PAU?$_Tree_node@U?$pair@$$CBIVCDelegate@UTIL@NMBASE@@@std@@PAX@2@@?$_Tree@V?$_Tmap_traits@IVCDelegate@UTIL@NMBASE@@U?$less@I@std@@V?$allocator@U?$pair@$$CBIVCDelegate@UTIL@NMBASE@@@std@@@5@$0A@@std@@@std@@IAE?AV?$_Tree_iterator@V?$_Tree_val@U?$_Tree_simple_types@U?$pair@$$CBIVCDelegate@UTIL@NMBASE@@@std@@@std@@@std@@@1@V?$_Tree_const_iterator@V?$_Tree_val@U?$_Tree_simple_types@U?$pair@$$CBIVCDelegate@UTIL@NMBASE@@@std@@@std@@@std@@@1@AAU?$pair@$$CBIVCDelegate@UTIL@NMBASE@@@1@PAU?$_Tree_node@U?$pair@$$CBIVCDelegate@UTIL@NMBASE@@@std@@PAX@1@@Z 10093fa0 f i MessageManager.obj
 0002:0003de10       ?IsStringEqualToProcessModuleName@CShellMan@UTIL@NMBASE@@SA_NKV?$CStringT@DV?$StrTraitMFC_DLL@DV?$ChTraitsCRT@D@ATL@@@@@ATL@@@Z 10094e10 f   ShellMan.obj
 0002:0003e1a0       ??$_Insert_hint@AAU?$pair@$$CBV?$basic_string@DU?$char_traits@D@std@@V?$allocator@D@2@@std@@VCDelegate@UTIL@NMBASE@@@std@@PAU?$_Tree_node@U?$pair@$$CBV?$basic_string@DU?$char_traits@D@std@@V?$allocator@D@2@@std@@VCDelegate@UTIL@NMBASE@@@std@@PAX@2@@?$_Tree@V?$_Tmap_traits@V?$basic_string@DU?$char_traits@D@std@@V?$allocator@D@2@@std@@VCDelegate@UTIL@NMBASE@@U?$less@V?$basic_string@DU?$char_traits@D@std@@V?$allocator@D@2@@std@@@2@V?$allocator@U?$pair@$$CBV?$basic_string@DU?$char_traits@D@std@@V?$allocator@D@2@@std@@VCDelegate@UTIL@NMBASE@@@std@@@2@$0A@@std@@@std@@IAE?AV?$_Tree_iterator@V?$_Tree_val@U?$_Tree_simple_types@U?$pair@$$CBV?$basic_string@DU?$char_traits@D@std@@V?$allocator@D@2@@std@@VCDelegate@UTIL@NMBASE@@@std@@@std@@@std@@@1@V?$_Tree_const_iterator@V?$_Tree_val@U?$_Tree_simple_types@U?$pair@$$CBV?$basic_string@DU?$char_traits@D@std@@V?$allocator@D@2@@std@@VCDelegate@UTIL@NMBASE@@@std@@@std@@@std@@@1@AAU?$pair@$$CBV?$basic_string@DU?$char_traits@D@std@@V?$allocator@D@2@@std@@VCDelegate@UTIL@NMBASE@@@1@PAU?$_Tree_node@U?$pair@$$CBV?$basic_string@DU?$char_traits@D@std@@V?$allocator@D@2@@std@@VCDelegate@UTIL@NMBASE@@@std@@PAX@1@@Z 100951a0 f i MessageManager.obj
 0002:0003f010       ?OpenNewBrowser_Refresh@CShellMan@UTIL@NMBASE@@QAEXXZ 10096010 f   ShellMan.obj
 0002:0003f3a0       ??$_Insert_nohint@AAU?$pair@$$CBIVCDelegate@UTIL@NMBASE@@@std@@PAU?$_Tree_node@U?$pair@$$CBIVCDelegate@UTIL@NMBASE@@@std@@PAX@2@@?$_Tree@V?$_Tmap_traits@IVCDelegate@UTIL@NMBASE@@U?$less@I@std@@V?$allocator@U?$pair@$$CBIVCDelegate@UTIL@NMBASE@@@std@@@5@$0A@@std@@@std@@IAE?AU?$pair@V?$_Tree_iterator@V?$_Tree_val@U?$_Tree_simple_types@U?$pair@$$CBIVCDelegate@UTIL@NMBASE@@@std@@@std@@@std@@@std@@_N@1@_NAAU?$pair@$$CBIVCDelegate@UTIL@NMBASE@@@1@PAU?$_Tree_node@U?$pair@$$CBIVCDelegate@UTIL@NMBASE@@@std@@PAX@1@@Z 100963a0 f i MessageManager.obj
 0002:0003f980       ??$_Insert_nohint@AAU?$pair@$$CBV?$basic_string@DU?$char_traits@D@std@@V?$allocator@D@2@@std@@VCDelegate@UTIL@NMBASE@@@std@@PAU?$_Tree_node@U?$pair@$$CBV?$basic_string@DU?$char_traits@D@std@@V?$allocator@D@2@@std@@VCDelegate@UTIL@NMBASE@@@std@@PAX@2@@?$_Tree@V?$_Tmap_traits@V?$basic_string@DU?$char_traits@D@std@@V?$allocator@D@2@@std@@VCDelegate@UTIL@NMBASE@@U?$less@V?$basic_string@DU?$char_traits@D@std@@V?$allocator@D@2@@std@@@2@V?$allocator@U?$pair@$$CBV?$basic_string@DU?$char_traits@D@std@@V?$allocator@D@2@@std@@VCDelegate@UTIL@NMBASE@@@std@@@2@$0A@@std@@@std@@IAE?AU?$pair@V?$_Tree_iterator@V?$_Tree_val@U?$_Tree_simple_types@U?$pair@$$CBV?$basic_string@DU?$char_traits@D@std@@V?$allocator@D@2@@std@@VCDelegate@UTIL@NMBASE@@@std@@@std@@@std@@@std@@_N@1@_NAAU?$pair@$$CBV?$basic_string@DU?$char_traits@D@std@@V?$allocator@D@2@@std@@VCDelegate@UTIL@NMBASE@@@1@PAU?$_Tree_node@U?$pair@$$CBV?$basic_string@DU?$char_traits@D@std@@V?$allocator@D@2@@std@@VCDelegate@UTIL@NMBASE@@@std@@PAX@1@@Z 10096980 f i MessageManager.obj
 0002:0003ff60       ??$_Insertion_sort_unchecked@PAV?$basic_string@DU?$char_traits@D@std@@V?$allocator@D@2@@std@@U?$less@X@2@@std@@YAPAV?$basic_string@DU?$char_traits@D@std@@V?$allocator@D@2@@0@PAV10@QAV10@U?$less@X@0@@Z 10096f60 f i MessageManager.obj
 0002:00040170       ??$_Kfn@$$CBIVCDelegate@UTIL@NMBASE@@@?$_Tmap_traits@IVCDelegate@UTIL@NMBASE@@U?$less@I@std@@V?$allocator@U?$pair@$$CBIVCDelegate@UTIL@NMBASE@@@std@@@5@$0A@@std@@SAABIABU?$pair@$$CBIVCDelegate@UTIL@NMBASE@@@1@@Z 10097170 f i MessageManager.obj
 0002:000401b0       ??$_Kfn@$$CBV?$basic_string@DU?$char_traits@D@std@@V?$allocator@D@2@@std@@VCDelegate@UTIL@NMBASE@@@?$_Tmap_traits@V?$basic_string@DU?$char_traits@D@std@@V?$allocator@D@2@@std@@VCDelegate@UTIL@NMBASE@@U?$less@V?$basic_string@DU?$char_traits@D@std@@V?$allocator@D@2@@std@@@2@V?$allocator@U?$pair@$$CBV?$basic_string@DU?$char_traits@D@std@@V?$allocator@D@2@@std@@VCDelegate@UTIL@NMBASE@@@std@@@2@$0A@@std@@SAABV?$basic_string@DU?$char_traits@D@std@@V?$allocator@D@2@@1@ABU?$pair@$$CBV?$basic_string@DU?$char_traits@D@std@@V?$allocator@D@2@@std@@VCDelegate@UTIL@NMBASE@@@1@@Z 100971b0 f i MessageManager.obj
 0002:000401f0       ??$_Lbound@I@?$_Tree@V?$_Tmap_traits@IVCDelegate@UTIL@NMBASE@@U?$less@I@std@@V?$allocator@U?$pair@$$CBIVCDelegate@UTIL@NMBASE@@@std@@@5@$0A@@std@@@std@@IBEPAU?$_Tree_node@U?$pair@$$CBIVCDelegate@UTIL@NMBASE@@@std@@PAX@1@ABI@Z 100971f0 f i MessageManager.obj
 0002:000402b0       ??$_Lbound@V?$basic_string@DU?$char_traits@D@std@@V?$allocator@D@2@@std@@@?$_Tree@V?$_Tmap_traits@V?$basic_string@DU?$char_traits@D@std@@V?$allocator@D@2@@std@@VCDelegate@UTIL@NMBASE@@U?$less@V?$basic_string@DU?$char_traits@D@std@@V?$allocator@D@2@@std@@@2@V?$allocator@U?$pair@$$CBV?$basic_string@DU?$char_traits@D@std@@V?$allocator@D@2@@std@@VCDelegate@UTIL@NMBASE@@@std@@@2@$0A@@std@@@std@@IBEPAU?$_Tree_node@U?$pair@$$CBV?$basic_string@DU?$char_traits@D@std@@V?$allocator@D@2@@std@@VCDelegate@UTIL@NMBASE@@@std@@PAX@1@ABV?$basic_string@DU?$char_traits@D@std@@V?$allocator@D@2@@1@@Z 100972b0 f i MessageManager.obj
 0002:00040370       ??$_Make_heap_unchecked@PAV?$basic_string@DU?$char_traits@D@std@@V?$allocator@D@2@@std@@U?$less@X@2@@std@@YAXPAV?$basic_string@DU?$char_traits@D@std@@V?$allocator@D@2@@0@0U?$less@X@0@@Z 10097370 f i MessageManager.obj
 0002:000404d0       ??$_Med3_unchecked@PAV?$basic_string@DU?$char_traits@D@std@@V?$allocator@D@2@@std@@U?$less@X@2@@std@@YAXPAV?$basic_string@DU?$char_traits@D@std@@V?$allocator@D@2@@0@00U?$less@X@0@@Z 100974d0 f i MessageManager.obj
 0002:000405b0       ??$_Move_backward_unchecked1@PAV?$basic_string@DU?$char_traits@D@std@@V?$allocator@D@2@@std@@PAV12@@std@@YAPAV?$basic_string@DU?$char_traits@D@std@@V?$allocator@D@2@@0@PAV10@00U_General_ptr_iterator_tag@0@@Z 100975b0 f i MessageManager.obj
 0002:00040630       ??$_Move_backward_unchecked1@V?$_Deque_unchecked_iterator@V?$_Deque_val@U?$_Deque_simple_types@UPOSTMSG@CMessageManager@UTIL@NMBASE@@@std@@@std@@@std@@V12@@std@@YA?AV?$_Deque_unchecked_iterator@V?$_Deque_val@U?$_Deque_simple_types@UPOSTMSG@CMessageManager@UTIL@NMBASE@@@std@@@std@@@0@V10@00U_General_ptr_iterator_tag@0@@Z 10097630 f i MessageManager.obj
 0002:000406e0       ??$_Move_backward_unchecked@PAV?$basic_string@DU?$char_traits@D@std@@V?$allocator@D@2@@std@@PAV12@@std@@YAPAV?$basic_string@DU?$char_traits@D@std@@V?$allocator@D@2@@0@PAV10@00@Z 100976e0 f i MessageManager.obj
 0002:00040760       ??$_Move_backward_unchecked@V?$_Deque_unchecked_iterator@V?$_Deque_val@U?$_Deque_simple_types@UPOSTMSG@CMessageManager@UTIL@NMBASE@@@std@@@std@@@std@@V12@@std@@YA?AV?$_Deque_unchecked_iterator@V?$_Deque_val@U?$_Deque_simple_types@UPOSTMSG@CMessageManager@UTIL@NMBASE@@@std@@@std@@@0@V10@00@Z 10097760 f i MessageManager.obj
 0002:00040800       ??$_Move_unchecked1@V?$_Deque_unchecked_iterator@V?$_Deque_val@U?$_Deque_simple_types@UPOSTMSG@CMessageManager@UTIL@NMBASE@@@std@@@std@@@std@@V12@@std@@YA?AV?$_Deque_unchecked_iterator@V?$_Deque_val@U?$_Deque_simple_types@UPOSTMSG@CMessageManager@UTIL@NMBASE@@@std@@@std@@@0@V10@00U_General_ptr_iterator_tag@0@@Z 10097800 f i MessageManager.obj
 0002:000408b0       ??$_Move_unchecked@V?$_Deque_unchecked_iterator@V?$_Deque_val@U?$_Deque_simple_types@UPOSTMSG@CMessageManager@UTIL@NMBASE@@@std@@@std@@@std@@V12@@std@@YA?AV?$_Deque_unchecked_iterator@V?$_Deque_val@U?$_Deque_simple_types@UPOSTMSG@CMessageManager@UTIL@NMBASE@@@std@@@std@@@0@V10@00@Z 100978b0 f i MessageManager.obj
 0002:00040950       ??$_Partition_by_median_guess_unchecked@PAV?$basic_string@DU?$char_traits@D@std@@V?$allocator@D@2@@std@@U?$less@X@2@@std@@YA?AU?$pair@PAV?$basic_string@DU?$char_traits@D@std@@V?$allocator@D@2@@std@@PAV12@@0@PAV?$basic_string@DU?$char_traits@D@std@@V?$allocator@D@2@@0@0U?$less@X@0@@Z 10097950 f i MessageManager.obj
 0002:00040d50       ??$_Pass_fn@U?$less@X@std@@$0A@@std@@YA?AU?$less@X@0@U10@@Z 10097d50 f i MessageManager.obj
 0002:00040d90       ??$_Pocca@V?$allocator@U?$_List_node@PAUIComponent@@PAX@std@@@std@@@std@@YAXAAV?$allocator@U?$_List_node@PAUIComponent@@PAX@std@@@0@ABV10@@Z 10097d90 f i MessageManager.obj
 0002:00040e20       ??$_Pocca@V?$allocator@U?$_List_node@PAUIComponent@@PAX@std@@@std@@@std@@YAXAAV?$allocator@U?$_List_node@PAUIComponent@@PAX@std@@@0@ABV10@U?$integral_constant@_N$0A@@0@@Z 10097e20 f i MessageManager.obj
 0002:00040e50       ??$_Pocca@V?$allocator@U?$_Tree_node@U?$pair@$$CBIVCDelegate@UTIL@NMBASE@@@std@@PAX@std@@@std@@@std@@YAXAAV?$allocator@U?$_Tree_node@U?$pair@$$CBIVCDelegate@UTIL@NMBASE@@@std@@PAX@std@@@0@ABV10@@Z 10097e50 f i MessageManager.obj
 0002:00040ee0       ??$_Pocca@V?$allocator@U?$_Tree_node@U?$pair@$$CBIVCDelegate@UTIL@NMBASE@@@std@@PAX@std@@@std@@@std@@YAXAAV?$allocator@U?$_Tree_node@U?$pair@$$CBIVCDelegate@UTIL@NMBASE@@@std@@PAX@std@@@0@ABV10@U?$integral_constant@_N$0A@@0@@Z 10097ee0 f i MessageManager.obj
 0002:00040f10       ??$_Pocca@V?$allocator@U?$_Tree_node@U?$pair@$$CBV?$basic_string@DU?$char_traits@D@std@@V?$allocator@D@2@@std@@VCDelegate@UTIL@NMBASE@@@std@@PAX@std@@@std@@@std@@YAXAAV?$allocator@U?$_Tree_node@U?$pair@$$CBV?$basic_string@DU?$char_traits@D@std@@V?$allocator@D@2@@std@@VCDelegate@UTIL@NMBASE@@@std@@PAX@std@@@0@ABV10@@Z 10097f10 f i MessageManager.obj
 0002:00040fa0       ??$_Pocca@V?$allocator@U?$_Tree_node@U?$pair@$$CBV?$basic_string@DU?$char_traits@D@std@@V?$allocator@D@2@@std@@VCDelegate@UTIL@NMBASE@@@std@@PAX@std@@@std@@@std@@YAXAAV?$allocator@U?$_Tree_node@U?$pair@$$CBV?$basic_string@DU?$char_traits@D@std@@V?$allocator@D@2@@std@@VCDelegate@UTIL@NMBASE@@@std@@PAX@std@@@0@ABV10@U?$integral_constant@_N$0A@@0@@Z 10097fa0 f i MessageManager.obj
 0002:00040fd0       ??$_Pocca@V?$allocator@UPOSTMSG@CMessageManager@UTIL@NMBASE@@@std@@@std@@YAXAAV?$allocator@UPOSTMSG@CMessageManager@UTIL@NMBASE@@@0@ABV10@@Z 10097fd0 f i MessageManager.obj
 0002:00041060       ??$_Pocca@V?$allocator@UPOSTMSG@CMessageManager@UTIL@NMBASE@@@std@@@std@@YAXAAV?$allocator@UPOSTMSG@CMessageManager@UTIL@NMBASE@@@0@ABV10@U?$integral_constant@_N$0A@@0@@Z 10098060 f i MessageManager.obj
 0002:00041090       ??$_Pocma@V?$allocator@D@std@@@std@@YAXAAV?$allocator@D@0@0@Z 10098090 f i MessageManager.obj
 0002:00041120       ??$_Pocma@V?$allocator@D@std@@@std@@YAXAAV?$allocator@D@0@0U?$integral_constant@_N$00@0@@Z 10098120 f i MessageManager.obj
 0002:00041170       ??$_Pocs@V?$allocator@D@std@@@std@@YAXAAV?$allocator@D@0@0@Z 10098170 f i MessageManager.obj
 0002:00041200       ??$_Pocs@V?$allocator@D@std@@@std@@YAXAAV?$allocator@D@0@0U?$integral_constant@_N$0A@@0@@Z 10098200 f i MessageManager.obj
 0002:000412e0       ??$_Pop_heap_hole_by_index@PAV?$basic_string@DU?$char_traits@D@std@@V?$allocator@D@2@@std@@V12@U?$less@X@2@@std@@YAXPAV?$basic_string@DU?$char_traits@D@std@@V?$allocator@D@2@@0@HH$$QAV10@U?$less@X@0@@Z 100982e0 f i MessageManager.obj
 0002:00041450       ??$_Pop_heap_hole_unchecked@PAV?$basic_string@DU?$char_traits@D@std@@V?$allocator@D@2@@std@@V12@U?$less@X@2@@std@@YAXPAV?$basic_string@DU?$char_traits@D@std@@V?$allocator@D@2@@0@00$$QAV10@U?$less@X@0@@Z 10098450 f i MessageManager.obj
 0002:000414f0       ??$_Pop_heap_unchecked@PAV?$basic_string@DU?$char_traits@D@std@@V?$allocator@D@2@@std@@U?$less@X@2@@std@@YAXPAV?$basic_string@DU?$char_traits@D@std@@V?$allocator@D@2@@0@0U?$less@X@0@@Z 100984f0 f i MessageManager.obj
 0002:00041640       ??$_Ptr_copy_cat@PAUPOSTMSG@CMessageManager@UTIL@NMBASE@@PAU1234@@std@@YA?AU_Really_trivial_ptr_iterator_tag@0@ABQAPAUPOSTMSG@CMessageManager@UTIL@NMBASE@@0@Z 10098640 f i MessageManager.obj
 0002:00041680       ??$_Ptr_copy_cat@V?$_Deque_unchecked_const_iterator@V?$_Deque_val@U?$_Deque_simple_types@UPOSTMSG@CMessageManager@UTIL@NMBASE@@@std@@@std@@@std@@V?$_Deque_unchecked_iterator@V?$_Deque_val@U?$_Deque_simple_types@UPOSTMSG@CMessageManager@UTIL@NMBASE@@@std@@@std@@@2@@std@@YA?AU_General_ptr_iterator_tag@0@ABV?$_Deque_unchecked_const_iterator@V?$_Deque_val@U?$_Deque_simple_types@UPOSTMSG@CMessageManager@UTIL@NMBASE@@@std@@@std@@@0@ABV?$_Deque_unchecked_iterator@V?$_Deque_val@U?$_Deque_simple_types@UPOSTMSG@CMessageManager@UTIL@NMBASE@@@std@@@std@@@0@@Z 10098680 f i MessageManager.obj
 0002:000416c0       ??$_Ptr_move_cat@V?$_Deque_unchecked_iterator@V?$_Deque_val@U?$_Deque_simple_types@UPOSTMSG@CMessageManager@UTIL@NMBASE@@@std@@@std@@@std@@V12@@std@@YA?AU_General_ptr_iterator_tag@0@ABV?$_Deque_unchecked_iterator@V?$_Deque_val@U?$_Deque_simple_types@UPOSTMSG@CMessageManager@UTIL@NMBASE@@@std@@@std@@@0@0@Z 100986c0 f i MessageManager.obj
 0002:00041700       ??$_Ptr_move_cat@V?$basic_string@DU?$char_traits@D@std@@V?$allocator@D@2@@std@@V12@@std@@YA?AU_General_ptr_iterator_tag@0@ABQAV?$basic_string@DU?$char_traits@D@std@@V?$allocator@D@2@@0@0@Z 10098700 f i MessageManager.obj
 0002:00041740       ??$_Push_heap_by_index@PAV?$basic_string@DU?$char_traits@D@std@@V?$allocator@D@2@@std@@V12@U?$less@X@2@@std@@YAXPAV?$basic_string@DU?$char_traits@D@std@@V?$allocator@D@2@@0@HH$$QAV10@U?$less@X@0@@Z 10098740 f i MessageManager.obj
 0002:00041820       ??$_Reusenode@ABQAUIComponent@@@?$list@PAUIComponent@@V?$allocator@PAUIComponent@@@std@@@std@@QAEXV?$_List_iterator@V?$_List_val@U?$_List_simple_types@PAUIComponent@@@std@@@std@@@1@ABQAUIComponent@@@Z 10098820 f i MessageManager.obj
 0002:00041990       ??$_Reverse_unchecked1@V?$_Deque_unchecked_iterator@V?$_Deque_val@U?$_Deque_simple_types@UPOSTMSG@CMessageManager@UTIL@NMBASE@@@std@@@std@@@std@@@std@@YAXV?$_Deque_unchecked_iterator@V?$_Deque_val@U?$_Deque_simple_types@UPOSTMSG@CMessageManager@UTIL@NMBASE@@@std@@@std@@@0@0U?$integral_constant@I$0A@@0@@Z 10098990 f i MessageManager.obj
 0002:00041a40       ??$_Reverse_unchecked@V?$_Deque_unchecked_iterator@V?$_Deque_val@U?$_Deque_simple_types@UPOSTMSG@CMessageManager@UTIL@NMBASE@@@std@@@std@@@std@@@std@@YAXV?$_Deque_unchecked_iterator@V?$_Deque_val@U?$_Deque_simple_types@UPOSTMSG@CMessageManager@UTIL@NMBASE@@@std@@@std@@@0@0@Z 10098a40 f i MessageManager.obj
 0002:00041ac0       ??$_Rotate_unchecked1@V?$_Deque_unchecked_iterator@V?$_Deque_val@U?$_Deque_simple_types@UPOSTMSG@CMessageManager@UTIL@NMBASE@@@std@@@std@@@std@@@std@@YA?AV?$_Deque_unchecked_iterator@V?$_Deque_val@U?$_Deque_simple_types@UPOSTMSG@CMessageManager@UTIL@NMBASE@@@std@@@std@@@0@V10@00Urandom_access_iterator_tag@0@@Z 10098ac0 f i MessageManager.obj
 0002:00041b80       ??$_Rotate_unchecked@V?$_Deque_unchecked_iterator@V?$_Deque_val@U?$_Deque_simple_types@UPOSTMSG@CMessageManager@UTIL@NMBASE@@@std@@@std@@@std@@@std@@YA?AV?$_Deque_unchecked_iterator@V?$_Deque_val@U?$_Deque_simple_types@UPOSTMSG@CMessageManager@UTIL@NMBASE@@@std@@@std@@@0@V10@00@Z 10098b80 f i MessageManager.obj
 0002:00041c60       ??$_Seek_wrapped@PAUPOSTMSG@CMessageManager@UTIL@NMBASE@@@std@@YAXAAPAPAUPOSTMSG@CMessageManager@UTIL@NMBASE@@QAPAU1234@@Z 10098c60 f i MessageManager.obj
 0002:00041ca0       ??$_Seek_wrapped@V?$_Deque_iterator@V?$_Deque_val@U?$_Deque_simple_types@UPOSTMSG@CMessageManager@UTIL@NMBASE@@@std@@@std@@@std@@V?$_Deque_unchecked_iterator@V?$_Deque_val@U?$_Deque_simple_types@UPOSTMSG@CMessageManager@UTIL@NMBASE@@@std@@@std@@@2@$0A@@std@@YAXAAV?$_Deque_iterator@V?$_Deque_val@U?$_Deque_simple_types@UPOSTMSG@CMessageManager@UTIL@NMBASE@@@std@@@std@@@0@ABV?$_Deque_unchecked_iterator@V?$_Deque_val@U?$_Deque_simple_types@UPOSTMSG@CMessageManager@UTIL@NMBASE@@@std@@@std@@@0@@Z 10098ca0 f i MessageManager.obj
 0002:00041cf0       ??$_Seek_wrapped@V?$_List_iterator@V?$_List_val@U?$_List_simple_types@PAUIComponent@@@std@@@std@@@std@@V?$_List_unchecked_iterator@V?$_List_val@U?$_List_simple_types@PAUIComponent@@@std@@@std@@@2@$0A@@std@@YAXAAV?$_List_iterator@V?$_List_val@U?$_List_simple_types@PAUIComponent@@@std@@@std@@@0@ABV?$_List_unchecked_iterator@V?$_List_val@U?$_List_simple_types@PAUIComponent@@@std@@@std@@@0@@Z 10098cf0 f i MessageManager.obj
 0002:00041d50       ??$_Sort_heap_unchecked@PAV?$basic_string@DU?$char_traits@D@std@@V?$allocator@D@2@@std@@U?$less@X@2@@std@@YAXPAV?$basic_string@DU?$char_traits@D@std@@V?$allocator@D@2@@0@0U?$less@X@0@@Z 10098d50 f i MessageManager.obj
 0002:00041dd0       ??$_Sort_unchecked@PAV?$basic_string@DU?$char_traits@D@std@@V?$allocator@D@2@@std@@U?$less@X@2@@std@@YAXPAV?$basic_string@DU?$char_traits@D@std@@V?$allocator@D@2@@0@0HU?$less@X@0@@Z 10098dd0 f i MessageManager.obj
 0002:00041f90       ??$_Try_emplace@ABI$$V@?$map@IVCDelegate@UTIL@NMBASE@@U?$less@I@std@@V?$allocator@U?$pair@$$CBIVCDelegate@UTIL@NMBASE@@@std@@@5@@std@@QAE?AU?$pair@V?$_Tree_iterator@V?$_Tree_val@U?$_Tree_simple_types@U?$pair@$$CBIVCDelegate@UTIL@NMBASE@@@std@@@std@@@std@@@std@@_N@1@ABI@Z 10098f90 f i MessageManager.obj
 0002:000422b0       ??$_Try_emplace@ABV?$basic_string@DU?$char_traits@D@std@@V?$allocator@D@2@@std@@$$V@?$map@V?$basic_string@DU?$char_traits@D@std@@V?$allocator@D@2@@std@@VCDelegate@UTIL@NMBASE@@U?$less@V?$basic_string@DU?$char_traits@D@std@@V?$allocator@D@2@@std@@@2@V?$allocator@U?$pair@$$CBV?$basic_string@DU?$char_traits@D@std@@V?$allocator@D@2@@std@@VCDelegate@UTIL@NMBASE@@@std@@@2@@std@@QAE?AU?$pair@V?$_Tree_iterator@V?$_Tree_val@U?$_Tree_simple_types@U?$pair@$$CBV?$basic_string@DU?$char_traits@D@std@@V?$allocator@D@2@@std@@VCDelegate@UTIL@NMBASE@@@std@@@std@@@std@@@std@@_N@1@ABV?$basic_string@DU?$char_traits@D@std@@V?$allocator@D@2@@1@@Z 100992b0 f i MessageManager.obj
 0002:000425d0       ??$_Unfancy@UPOSTMSG@CMessageManager@UTIL@NMBASE@@@std@@YAPAUPOSTMSG@CMessageManager@UTIL@NMBASE@@PAU1234@@Z 100995d0 f i MessageManager.obj
 0002:00042610       ??$_Unfancy@V?$basic_string@DU?$char_traits@D@std@@V?$allocator@D@2@@std@@@std@@YAPAV?$basic_string@DU?$char_traits@D@std@@V?$allocator@D@2@@0@PAV10@@Z 10099610 f i MessageManager.obj
 0002:00042650       ??$_Uninitialized_copy@PAPAUPOSTMSG@CMessageManager@UTIL@NMBASE@@PAPAU1234@V?$allocator@PAUPOSTMSG@CMessageManager@UTIL@NMBASE@@@std@@@std@@YAPAPAUPOSTMSG@CMessageManager@UTIL@NMBASE@@QAPAU1234@0PAPAU1234@AAV?$allocator@PAUPOSTMSG@CMessageManager@UTIL@NMBASE@@@0@@Z 10099650 f i MessageManager.obj
 0002:000427b0       ??$_Uninitialized_copy_al_unchecked@PAUPOSTMSG@CMessageManager@UTIL@NMBASE@@PAU1234@V?$allocator@PAUPOSTMSG@CMessageManager@UTIL@NMBASE@@@std@@@std@@YAPAPAUPOSTMSG@CMessageManager@UTIL@NMBASE@@QAPAU1234@00AAV?$allocator@PAUPOSTMSG@CMessageManager@UTIL@NMBASE@@@0@U_Really_trivial_ptr_iterator_tag@0@U?$integral_constant@_N$00@0@@Z 100997b0 f i MessageManager.obj
 0002:00042810       ??$_Uninitialized_value_construct_n1@PAPAUPOSTMSG@CMessageManager@UTIL@NMBASE@@IV?$allocator@PAUPOSTMSG@CMessageManager@UTIL@NMBASE@@@std@@@std@@YAPAPAUPOSTMSG@CMessageManager@UTIL@NMBASE@@PAPAU1234@IAAV?$allocator@PAUPOSTMSG@CMessageManager@UTIL@NMBASE@@@0@U?$integral_constant@_N$00@0@@Z 10099810 f i MessageManager.obj
 0002:00042870       ??$_Uninitialized_value_construct_n1@PAV?$basic_string@DU?$char_traits@D@std@@V?$allocator@D@2@@std@@IV?$allocator@V?$basic_string@DU?$char_traits@D@std@@V?$allocator@D@2@@std@@@2@@std@@YAPAV?$basic_string@DU?$char_traits@D@std@@V?$allocator@D@2@@0@QAV10@IAAV?$allocator@V?$basic_string@DU?$char_traits@D@std@@V?$allocator@D@2@@std@@@0@U?$integral_constant@_N$0A@@0@@Z 10099870 f i MessageManager.obj
 0002:00042990       ??$_Uninitialized_value_construct_n@PAPAUPOSTMSG@CMessageManager@UTIL@NMBASE@@IV?$allocator@PAUPOSTMSG@CMessageManager@UTIL@NMBASE@@@std@@@std@@YAPAPAUPOSTMSG@CMessageManager@UTIL@NMBASE@@PAPAU1234@IAAV?$allocator@PAUPOSTMSG@CMessageManager@UTIL@NMBASE@@@0@@Z 10099990 f i MessageManager.obj
 0002:00042a00       ??$_Uninitialized_value_construct_n@PAV?$basic_string@DU?$char_traits@D@std@@V?$allocator@D@2@@std@@IV?$allocator@V?$basic_string@DU?$char_traits@D@std@@V?$allocator@D@2@@std@@@2@@std@@YAPAV?$basic_string@DU?$char_traits@D@std@@V?$allocator@D@2@@0@PAV10@IAAV?$allocator@V?$basic_string@DU?$char_traits@D@std@@V?$allocator@D@2@@std@@@0@@Z 10099a00 f i MessageManager.obj
 0002:00042a70       ??$_Zero_range@PAPAUPOSTMSG@CMessageManager@UTIL@NMBASE@@@std@@YAPAPAUPOSTMSG@CMessageManager@UTIL@NMBASE@@QAPAU1234@0@Z 10099a70 f i MessageManager.obj
 0002:00042ae0       ??$addressof@$$CBV?$_Deque_val@U?$_Deque_simple_types@UPOSTMSG@CMessageManager@UTIL@NMBASE@@@std@@@std@@@std@@YAPBV?$_Deque_val@U?$_Deque_simple_types@UPOSTMSG@CMessageManager@UTIL@NMBASE@@@std@@@0@ABV10@@Z 10099ae0 f i MessageManager.obj
 0002:00042b20       ??$addressof@$$CBV?$_List_val@U?$_List_simple_types@PAUIComponent@@@std@@@std@@@std@@YAPBV?$_List_val@U?$_List_simple_types@PAUIComponent@@@std@@@0@ABV10@@Z 10099b20 f i MessageManager.obj
 0002:00042b60       ??$addressof@$$CBV?$_Tree@V?$_Tmap_traits@IVCDelegate@UTIL@NMBASE@@U?$less@I@std@@V?$allocator@U?$pair@$$CBIVCDelegate@UTIL@NMBASE@@@std@@@5@$0A@@std@@@std@@@std@@YAPBV?$_Tree@V?$_Tmap_traits@IVCDelegate@UTIL@NMBASE@@U?$less@I@std@@V?$allocator@U?$pair@$$CBIVCDelegate@UTIL@NMBASE@@@std@@@5@$0A@@std@@@0@ABV10@@Z 10099b60 f i MessageManager.obj
 0002:00042ba0       ??$addressof@$$CBV?$_Tree@V?$_Tmap_traits@V?$basic_string@DU?$char_traits@D@std@@V?$allocator@D@2@@std@@VCDelegate@UTIL@NMBASE@@U?$less@V?$basic_string@DU?$char_traits@D@std@@V?$allocator@D@2@@std@@@2@V?$allocator@U?$pair@$$CBV?$basic_string@DU?$char_traits@D@std@@V?$allocator@D@2@@std@@VCDelegate@UTIL@NMBASE@@@std@@@2@$0A@@std@@@std@@@std@@YAPBV?$_Tree@V?$_Tmap_traits@V?$basic_string@DU?$char_traits@D@std@@V?$allocator@D@2@@std@@VCDelegate@UTIL@NMBASE@@U?$less@V?$basic_string@DU?$char_traits@D@std@@V?$allocator@D@2@@std@@@2@V?$allocator@U?$pair@$$CBV?$basic_string@DU?$char_traits@D@std@@V?$allocator@D@2@@std@@VCDelegate@UTIL@NMBASE@@@std@@@2@$0A@@std@@@0@ABV10@@Z 10099ba0 f i MessageManager.obj
 0002:00042be0       ??$addressof@$$CBV?$deque@UPOSTMSG@CMessageManager@UTIL@NMBASE@@V?$allocator@UPOSTMSG@CMessageManager@UTIL@NMBASE@@@std@@@std@@@std@@YAPBV?$deque@UPOSTMSG@CMessageManager@UTIL@NMBASE@@V?$allocator@UPOSTMSG@CMessageManager@UTIL@NMBASE@@@std@@@0@ABV10@@Z 10099be0 f i MessageManager.obj
 0002:00042c20       ??$addressof@$$CBV?$list@PAUIComponent@@V?$allocator@PAUIComponent@@@std@@@std@@@std@@YAPBV?$list@PAUIComponent@@V?$allocator@PAUIComponent@@@std@@@0@ABV10@@Z 10099c20 f i MessageManager.obj
 0002:00042c60       ??$addressof@PAU?$_List_node@PAUIComponent@@PAX@std@@@std@@YAPAPAU?$_List_node@PAUIComponent@@PAX@0@AAPAU10@@Z 10099c60 f i MessageManager.obj
 0002:00042ca0       ??$addressof@PAU?$_Tree_node@U?$pair@$$CBIVCDelegate@UTIL@NMBASE@@@std@@PAX@std@@@std@@YAPAPAU?$_Tree_node@U?$pair@$$CBIVCDelegate@UTIL@NMBASE@@@std@@PAX@0@AAPAU10@@Z 10099ca0 f i MessageManager.obj
 0002:00042ce0       ??$addressof@PAU?$_Tree_node@U?$pair@$$CBV?$basic_string@DU?$char_traits@D@std@@V?$allocator@D@2@@std@@VCDelegate@UTIL@NMBASE@@@std@@PAX@std@@@std@@YAPAPAU?$_Tree_node@U?$pair@$$CBV?$basic_string@DU?$char_traits@D@std@@V?$allocator@D@2@@std@@VCDelegate@UTIL@NMBASE@@@std@@PAX@0@AAPAU10@@Z 10099ce0 f i MessageManager.obj
 0002:00042d20       ??$addressof@PAUIComponent@@@std@@YAPAPAUIComponent@@AAPAU1@@Z 10099d20 f i MessageManager.obj
 0002:00042d60       ??$addressof@PAUPOSTMSG@CMessageManager@UTIL@NMBASE@@@std@@YAPAPAUPOSTMSG@CMessageManager@UTIL@NMBASE@@AAPAU1234@@Z 10099d60 f i MessageManager.obj
 0002:00042da0       ??$addressof@U?$pair@$$CBIVCDelegate@UTIL@NMBASE@@@std@@@std@@YAPAU?$pair@$$CBIVCDelegate@UTIL@NMBASE@@@0@AAU10@@Z 10099da0 f i MessageManager.obj
 0002:00042de0       ??$addressof@U?$pair@$$CBV?$basic_string@DU?$char_traits@D@std@@V?$allocator@D@2@@std@@VCDelegate@UTIL@NMBASE@@@std@@@std@@YAPAU?$pair@$$CBV?$basic_string@DU?$char_traits@D@std@@V?$allocator@D@2@@std@@VCDelegate@UTIL@NMBASE@@@0@AAU10@@Z 10099de0 f i MessageManager.obj
 0002:00042e20       ??$addressof@V?$_Deque_val@U?$_Deque_simple_types@UPOSTMSG@CMessageManager@UTIL@NMBASE@@@std@@@std@@@std@@YAPAV?$_Deque_val@U?$_Deque_simple_types@UPOSTMSG@CMessageManager@UTIL@NMBASE@@@std@@@0@AAV10@@Z 10099e20 f i MessageManager.obj
 0002:00042e60       ??$addressof@V?$_List_val@U?$_List_simple_types@PAUIComponent@@@std@@@std@@@std@@YAPAV?$_List_val@U?$_List_simple_types@PAUIComponent@@@std@@@0@AAV10@@Z 10099e60 f i MessageManager.obj
 0002:00042ea0       ??$addressof@V?$_Tree_val@U?$_Tree_simple_types@U?$pair@$$CBIVCDelegate@UTIL@NMBASE@@@std@@@std@@@std@@@std@@YAPAV?$_Tree_val@U?$_Tree_simple_types@U?$pair@$$CBIVCDelegate@UTIL@NMBASE@@@std@@@std@@@0@AAV10@@Z 10099ea0 f i MessageManager.obj
 0002:00042ee0       ??$addressof@V?$_Tree_val@U?$_Tree_simple_types@U?$pair@$$CBV?$basic_string@DU?$char_traits@D@std@@V?$allocator@D@2@@std@@VCDelegate@UTIL@NMBASE@@@std@@@std@@@std@@@std@@YAPAV?$_Tree_val@U?$_Tree_simple_types@U?$pair@$$CBV?$basic_string@DU?$char_traits@D@std@@V?$allocator@D@2@@std@@VCDelegate@UTIL@NMBASE@@@std@@@std@@@0@AAV10@@Z 10099ee0 f i MessageManager.obj
 0002:00042f20       ??$addressof@V?$_Vector_val@U?$_Simple_types@V?$basic_string@DU?$char_traits@D@std@@V?$allocator@D@2@@std@@@std@@@std@@@std@@YAPAV?$_Vector_val@U?$_Simple_types@V?$basic_string@DU?$char_traits@D@std@@V?$allocator@D@2@@std@@@std@@@0@AAV10@@Z 10099f20 f i MessageManager.obj
 0002:00042f60       ??$addressof@V?$basic_string@DU?$char_traits@D@std@@V?$allocator@D@2@@std@@@std@@YAPAV?$basic_string@DU?$char_traits@D@std@@V?$allocator@D@2@@0@AAV10@@Z 10099f60 f i MessageManager.obj
 0002:00042fa0       ??$assign@V?$_List_const_iterator@V?$_List_val@U?$_List_simple_types@PAUIComponent@@@std@@@std@@@std@@X@?$list@PAUIComponent@@V?$allocator@PAUIComponent@@@std@@@std@@QAEXV?$_List_const_iterator@V?$_List_val@U?$_List_simple_types@PAUIComponent@@@std@@@std@@@1@0@Z 10099fa0 f i MessageManager.obj
 0002:00043370       ??$construct@PAU?$_List_node@PAUIComponent@@PAX@std@@AAPAU12@@?$_Default_allocator_traits@V?$allocator@U?$_List_node@PAUIComponent@@PAX@std@@@std@@@std@@SAXAAV?$allocator@U?$_List_node@PAUIComponent@@PAX@std@@@1@QAPAU?$_List_node@PAUIComponent@@PAX@1@AAPAU31@@Z 1009a370 f i MessageManager.obj
 0002:000433f0       ??$construct@PAU?$_Tree_node@U?$pair@$$CBIVCDelegate@UTIL@NMBASE@@@std@@PAX@std@@AAPAU12@@?$_Default_allocator_traits@V?$allocator@U?$_Tree_node@U?$pair@$$CBIVCDelegate@UTIL@NMBASE@@@std@@PAX@std@@@std@@@std@@SAXAAV?$allocator@U?$_Tree_node@U?$pair@$$CBIVCDelegate@UTIL@NMBASE@@@std@@PAX@std@@@1@QAPAU?$_Tree_node@U?$pair@$$CBIVCDelegate@UTIL@NMBASE@@@std@@PAX@1@AAPAU31@@Z 1009a3f0 f i MessageManager.obj
 0002:00043470       ??$construct@PAU?$_Tree_node@U?$pair@$$CBV?$basic_string@DU?$char_traits@D@std@@V?$allocator@D@2@@std@@VCDelegate@UTIL@NMBASE@@@std@@PAX@std@@AAPAU12@@?$_Default_allocator_traits@V?$allocator@U?$_Tree_node@U?$pair@$$CBV?$basic_string@DU?$char_traits@D@std@@V?$allocator@D@2@@std@@VCDelegate@UTIL@NMBASE@@@std@@PAX@std@@@std@@@std@@SAXAAV?$allocator@U?$_Tree_node@U?$pair@$$CBV?$basic_string@DU?$char_traits@D@std@@V?$allocator@D@2@@std@@VCDelegate@UTIL@NMBASE@@@std@@PAX@std@@@1@QAPAU?$_Tree_node@U?$pair@$$CBV?$basic_string@DU?$char_traits@D@std@@V?$allocator@D@2@@std@@VCDelegate@UTIL@NMBASE@@@std@@PAX@1@AAPAU31@@Z 1009a470 f i MessageManager.obj
 0002:000434f0       ??$construct@PAUIComponent@@ABQAU1@@?$_Default_allocator_traits@V?$allocator@U?$_List_node@PAUIComponent@@PAX@std@@@std@@@std@@SAXAAV?$allocator@U?$_List_node@PAUIComponent@@PAX@std@@@1@QAPAUIComponent@@ABQAU3@@Z 1009a4f0 f i MessageManager.obj
 0002:00043570       ??$construct@U?$pair@$$CBIVCDelegate@UTIL@NMBASE@@@std@@AAU12@@?$_Default_allocator_traits@V?$allocator@U?$_Tree_node@U?$pair@$$CBIVCDelegate@UTIL@NMBASE@@@std@@PAX@std@@@std@@@std@@SAXAAV?$allocator@U?$_Tree_node@U?$pair@$$CBIVCDelegate@UTIL@NMBASE@@@std@@PAX@std@@@1@QAU?$pair@$$CBIVCDelegate@UTIL@NMBASE@@@1@AAU31@@Z 1009a570 f i MessageManager.obj
 0002:00043610       ??$construct@U?$pair@$$CBIVCDelegate@UTIL@NMBASE@@@std@@ABUpiecewise_construct_t@2@V?$tuple@ABI@2@V?$tuple@$$V@2@@?$_Default_allocator_traits@V?$allocator@U?$_Tree_node@U?$pair@$$CBIVCDelegate@UTIL@NMBASE@@@std@@PAX@std@@@std@@@std@@SAXAAV?$allocator@U?$_Tree_node@U?$pair@$$CBIVCDelegate@UTIL@NMBASE@@@std@@PAX@std@@@1@QAU?$pair@$$CBIVCDelegate@UTIL@NMBASE@@@1@ABUpiecewise_construct_t@1@$$QAV?$tuple@ABI@1@$$QAV?$tuple@$$V@1@@Z 1009a610 f i MessageManager.obj
 0002:000436d0       ??$construct@U?$pair@$$CBV?$basic_string@DU?$char_traits@D@std@@V?$allocator@D@2@@std@@VCDelegate@UTIL@NMBASE@@@std@@AAU12@@?$_Default_allocator_traits@V?$allocator@U?$_Tree_node@U?$pair@$$CBV?$basic_string@DU?$char_traits@D@std@@V?$allocator@D@2@@std@@VCDelegate@UTIL@NMBASE@@@std@@PAX@std@@@std@@@std@@SAXAAV?$allocator@U?$_Tree_node@U?$pair@$$CBV?$basic_string@DU?$char_traits@D@std@@V?$allocator@D@2@@std@@VCDelegate@UTIL@NMBASE@@@std@@PAX@std@@@1@QAU?$pair@$$CBV?$basic_string@DU?$char_traits@D@std@@V?$allocator@D@2@@std@@VCDelegate@UTIL@NMBASE@@@1@AAU31@@Z 1009a6d0 f i MessageManager.obj
 0002:00043750       ??$construct@U?$pair@$$CBV?$basic_string@DU?$char_traits@D@std@@V?$allocator@D@2@@std@@VCDelegate@UTIL@NMBASE@@@std@@ABUpiecewise_construct_t@2@V?$tuple@ABV?$basic_string@DU?$char_traits@D@std@@V?$allocator@D@2@@std@@@2@V?$tuple@$$V@2@@?$_Default_allocator_traits@V?$allocator@U?$_Tree_node@U?$pair@$$CBV?$basic_string@DU?$char_traits@D@std@@V?$allocator@D@2@@std@@VCDelegate@UTIL@NMBASE@@@std@@PAX@std@@@std@@@std@@SAXAAV?$allocator@U?$_Tree_node@U?$pair@$$CBV?$basic_string@DU?$char_traits@D@std@@V?$allocator@D@2@@std@@VCDelegate@UTIL@NMBASE@@@std@@PAX@std@@@1@QAU?$pair@$$CBV?$basic_string@DU?$char_traits@D@std@@V?$allocator@D@2@@std@@VCDelegate@UTIL@NMBASE@@@1@ABUpiecewise_construct_t@1@$$QAV?$tuple@ABV?$basic_string@DU?$char_traits@D@std@@V?$allocator@D@2@@std@@@1@$$QAV?$tuple@$$V@1@@Z 1009a750 f i MessageManager.obj
 0002:00043810       ??$construct@UPOSTMSG@CMessageManager@UTIL@NMBASE@@ABU1234@@?$_Default_allocator_traits@V?$allocator@UPOSTMSG@CMessageManager@UTIL@NMBASE@@@std@@@std@@SAXAAV?$allocator@UPOSTMSG@CMessageManager@UTIL@NMBASE@@@1@QAUPOSTMSG@CMessageManager@UTIL@NMBASE@@ABU3456@@Z 1009a810 f i MessageManager.obj
 0002:00043890       ??$construct@V?$basic_string@DU?$char_traits@D@std@@V?$allocator@D@2@@std@@$$V@?$_Default_allocator_traits@V?$allocator@V?$basic_string@DU?$char_traits@D@std@@V?$allocator@D@2@@std@@@std@@@std@@SAXAAV?$allocator@V?$basic_string@DU?$char_traits@D@std@@V?$allocator@D@2@@std@@@1@QAV?$basic_string@DU?$char_traits@D@std@@V?$allocator@D@2@@1@@Z 1009a890 f i MessageManager.obj
 0002:00043900       ??$copy@V?$_Deque_const_iterator@V?$_Deque_val@U?$_Deque_simple_types@UPOSTMSG@CMessageManager@UTIL@NMBASE@@@std@@@std@@@std@@V?$_Deque_iterator@V?$_Deque_val@U?$_Deque_simple_types@UPOSTMSG@CMessageManager@UTIL@NMBASE@@@std@@@std@@@2@@std@@YA?AV?$_Deque_iterator@V?$_Deque_val@U?$_Deque_simple_types@UPOSTMSG@CMessageManager@UTIL@NMBASE@@@std@@@std@@@0@V?$_Deque_const_iterator@V?$_Deque_val@U?$_Deque_simple_types@UPOSTMSG@CMessageManager@UTIL@NMBASE@@@std@@@std@@@0@0V10@@Z 1009a900 f i MessageManager.obj
 0002:00043af0       ??$destroy@PAU?$_List_node@PAUIComponent@@PAX@std@@@?$_Default_allocator_traits@V?$allocator@U?$_List_node@PAUIComponent@@PAX@std@@@std@@@std@@SAXAAV?$allocator@U?$_List_node@PAUIComponent@@PAX@std@@@1@QAPAU?$_List_node@PAUIComponent@@PAX@1@@Z 1009aaf0 f i MessageManager.obj
 0002:00043b20       ??$destroy@PAU?$_Tree_node@U?$pair@$$CBIVCDelegate@UTIL@NMBASE@@@std@@PAX@std@@@?$_Default_allocator_traits@V?$allocator@U?$_Tree_node@U?$pair@$$CBIVCDelegate@UTIL@NMBASE@@@std@@PAX@std@@@std@@@std@@SAXAAV?$allocator@U?$_Tree_node@U?$pair@$$CBIVCDelegate@UTIL@NMBASE@@@std@@PAX@std@@@1@QAPAU?$_Tree_node@U?$pair@$$CBIVCDelegate@UTIL@NMBASE@@@std@@PAX@1@@Z 1009ab20 f i MessageManager.obj
 0002:00043b50       ??$destroy@PAU?$_Tree_node@U?$pair@$$CBV?$basic_string@DU?$char_traits@D@std@@V?$allocator@D@2@@std@@VCDelegate@UTIL@NMBASE@@@std@@PAX@std@@@?$_Default_allocator_traits@V?$allocator@U?$_Tree_node@U?$pair@$$CBV?$basic_string@DU?$char_traits@D@std@@V?$allocator@D@2@@std@@VCDelegate@UTIL@NMBASE@@@std@@PAX@std@@@std@@@std@@SAXAAV?$allocator@U?$_Tree_node@U?$pair@$$CBV?$basic_string@DU?$char_traits@D@std@@V?$allocator@D@2@@std@@VCDelegate@UTIL@NMBASE@@@std@@PAX@std@@@1@QAPAU?$_Tree_node@U?$pair@$$CBV?$basic_string@DU?$char_traits@D@std@@V?$allocator@D@2@@std@@VCDelegate@UTIL@NMBASE@@@std@@PAX@1@@Z 1009ab50 f i MessageManager.obj
 0002:00043b80       ??$destroy@PAUIComponent@@@?$_Default_allocator_traits@V?$allocator@U?$_List_node@PAUIComponent@@PAX@std@@@std@@@std@@SAXAAV?$allocator@U?$_List_node@PAUIComponent@@PAX@std@@@1@QAPAUIComponent@@@Z 1009ab80 f i MessageManager.obj
 0002:00043bb0       ??$destroy@PAUPOSTMSG@CMessageManager@UTIL@NMBASE@@@?$_Default_allocator_traits@V?$allocator@PAUPOSTMSG@CMessageManager@UTIL@NMBASE@@@std@@@std@@SAXAAV?$allocator@PAUPOSTMSG@CMessageManager@UTIL@NMBASE@@@1@QAPAUPOSTMSG@CMessageManager@UTIL@NMBASE@@@Z 1009abb0 f i MessageManager.obj
 0002:00043be0       ??$destroy@U?$pair@$$CBIVCDelegate@UTIL@NMBASE@@@std@@@?$_Default_allocator_traits@V?$allocator@U?$_Tree_node@U?$pair@$$CBIVCDelegate@UTIL@NMBASE@@@std@@PAX@std@@@std@@@std@@SAXAAV?$allocator@U?$_Tree_node@U?$pair@$$CBIVCDelegate@UTIL@NMBASE@@@std@@PAX@std@@@1@QAU?$pair@$$CBIVCDelegate@UTIL@NMBASE@@@1@@Z 1009abe0 f i MessageManager.obj
 0002:00043c30       ??$destroy@U?$pair@$$CBV?$basic_string@DU?$char_traits@D@std@@V?$allocator@D@2@@std@@VCDelegate@UTIL@NMBASE@@@std@@@?$_Default_allocator_traits@V?$allocator@U?$_Tree_node@U?$pair@$$CBV?$basic_string@DU?$char_traits@D@std@@V?$allocator@D@2@@std@@VCDelegate@UTIL@NMBASE@@@std@@PAX@std@@@std@@@std@@SAXAAV?$allocator@U?$_Tree_node@U?$pair@$$CBV?$basic_string@DU?$char_traits@D@std@@V?$allocator@D@2@@std@@VCDelegate@UTIL@NMBASE@@@std@@PAX@std@@@1@QAU?$pair@$$CBV?$basic_string@DU?$char_traits@D@std@@V?$allocator@D@2@@std@@VCDelegate@UTIL@NMBASE@@@1@@Z 1009ac30 f i MessageManager.obj
 0002:00043c80       ??$destroy@UPOSTMSG@CMessageManager@UTIL@NMBASE@@@?$_Default_allocator_traits@V?$allocator@UPOSTMSG@CMessageManager@UTIL@NMBASE@@@std@@@std@@SAXAAV?$allocator@UPOSTMSG@CMessageManager@UTIL@NMBASE@@@1@QAUPOSTMSG@CMessageManager@UTIL@NMBASE@@@Z 1009ac80 f i MessageManager.obj
 0002:00043cd0       ??$destroy@V?$basic_string@DU?$char_traits@D@std@@V?$allocator@D@2@@std@@@?$_Default_allocator_traits@V?$allocator@V?$basic_string@DU?$char_traits@D@std@@V?$allocator@D@2@@std@@@std@@@std@@SAXAAV?$allocator@V?$basic_string@DU?$char_traits@D@std@@V?$allocator@D@2@@std@@@1@QAV?$basic_string@DU?$char_traits@D@std@@V?$allocator@D@2@@1@@Z 1009acd0 f i MessageManager.obj
 0002:00043d20       ??$emplace_hint@ABUpiecewise_construct_t@std@@V?$tuple@ABI@2@V?$tuple@$$V@2@@?$_Tree@V?$_Tmap_traits@IVCDelegate@UTIL@NMBASE@@U?$less@I@std@@V?$allocator@U?$pair@$$CBIVCDelegate@UTIL@NMBASE@@@std@@@5@$0A@@std@@@std@@QAE?AV?$_Tree_iterator@V?$_Tree_val@U?$_Tree_simple_types@U?$pair@$$CBIVCDelegate@UTIL@NMBASE@@@std@@@std@@@std@@@1@V?$_Tree_const_iterator@V?$_Tree_val@U?$_Tree_simple_types@U?$pair@$$CBIVCDelegate@UTIL@NMBASE@@@std@@@std@@@std@@@1@ABUpiecewise_construct_t@1@$$QAV?$tuple@ABI@1@$$QAV?$tuple@$$V@1@@Z 1009ad20 f i MessageManager.obj
 0002:00043e60       ??$emplace_hint@ABUpiecewise_construct_t@std@@V?$tuple@ABV?$basic_string@DU?$char_traits@D@std@@V?$allocator@D@2@@std@@@2@V?$tuple@$$V@2@@?$_Tree@V?$_Tmap_traits@V?$basic_string@DU?$char_traits@D@std@@V?$allocator@D@2@@std@@VCDelegate@UTIL@NMBASE@@U?$less@V?$basic_string@DU?$char_traits@D@std@@V?$allocator@D@2@@std@@@2@V?$allocator@U?$pair@$$CBV?$basic_string@DU?$char_traits@D@std@@V?$allocator@D@2@@std@@VCDelegate@UTIL@NMBASE@@@std@@@2@$0A@@std@@@std@@QAE?AV?$_Tree_iterator@V?$_Tree_val@U?$_Tree_simple_types@U?$pair@$$CBV?$basic_string@DU?$char_traits@D@std@@V?$allocator@D@2@@std@@VCDelegate@UTIL@NMBASE@@@std@@@std@@@std@@@1@V?$_Tree_const_iterator@V?$_Tree_val@U?$_Tree_simple_types@U?$pair@$$CBV?$basic_string@DU?$char_traits@D@std@@V?$allocator@D@2@@std@@VCDelegate@UTIL@NMBASE@@@std@@@std@@@std@@@1@ABUpiecewise_construct_t@1@$$QAV?$tuple@ABV?$basic_string@DU?$char_traits@D@std@@V?$allocator@D@2@@std@@@1@$$QAV?$tuple@$$V@1@@Z 1009ae60 f i MessageManager.obj
 0002:00043fa0       ??$erase@V?$_Tree_iterator@V?$_Tree_val@U?$_Tree_simple_types@U?$pair@$$CBIVCDelegate@UTIL@NMBASE@@@std@@@std@@@std@@@std@@X@?$_Tree@V?$_Tmap_traits@IVCDelegate@UTIL@NMBASE@@U?$less@I@std@@V?$allocator@U?$pair@$$CBIVCDelegate@UTIL@NMBASE@@@std@@@5@$0A@@std@@@std@@QAE?AV?$_Tree_iterator@V?$_Tree_val@U?$_Tree_simple_types@U?$pair@$$CBIVCDelegate@UTIL@NMBASE@@@std@@@std@@@std@@@1@V21@@Z 1009afa0 f i MessageManager.obj
 0002:00044090       ??$erase@V?$_Tree_iterator@V?$_Tree_val@U?$_Tree_simple_types@U?$pair@$$CBV?$basic_string@DU?$char_traits@D@std@@V?$allocator@D@2@@std@@VCDelegate@UTIL@NMBASE@@@std@@@std@@@std@@@std@@X@?$_Tree@V?$_Tmap_traits@V?$basic_string@DU?$char_traits@D@std@@V?$allocator@D@2@@std@@VCDelegate@UTIL@NMBASE@@U?$less@V?$basic_string@DU?$char_traits@D@std@@V?$allocator@D@2@@std@@@2@V?$allocator@U?$pair@$$CBV?$basic_string@DU?$char_traits@D@std@@V?$allocator@D@2@@std@@VCDelegate@UTIL@NMBASE@@@std@@@2@$0A@@std@@@std@@QAE?AV?$_Tree_iterator@V?$_Tree_val@U?$_Tree_simple_types@U?$pair@$$CBV?$basic_string@DU?$char_traits@D@std@@V?$allocator@D@2@@std@@VCDelegate@UTIL@NMBASE@@@std@@@std@@@std@@@1@V21@@Z 1009b090 f i MessageManager.obj
 0002:00044180       ??$find@V?$_List_iterator@V?$_List_val@U?$_List_simple_types@PAUIComponent@@@std@@@std@@@std@@PAUIComponent@@@std@@YA?AV?$_List_iterator@V?$_List_val@U?$_List_simple_types@PAUIComponent@@@std@@@std@@@0@V10@V10@ABQAUIComponent@@@Z 1009b180 f i MessageManager.obj
 0002:000442d0       ??$forward@AAPAU?$_List_node@PAUIComponent@@PAX@std@@@std@@YAAAPAU?$_List_node@PAUIComponent@@PAX@0@AAPAU10@@Z 1009b2d0 f i MessageManager.obj
 0002:00044310       ??$forward@AAPAU?$_Tree_node@U?$pair@$$CBIVCDelegate@UTIL@NMBASE@@@std@@PAX@std@@@std@@YAAAPAU?$_Tree_node@U?$pair@$$CBIVCDelegate@UTIL@NMBASE@@@std@@PAX@0@AAPAU10@@Z 1009b310 f i MessageManager.obj
 0002:00044350       ??$forward@AAPAU?$_Tree_node@U?$pair@$$CBV?$basic_string@DU?$char_traits@D@std@@V?$allocator@D@2@@std@@VCDelegate@UTIL@NMBASE@@@std@@PAX@std@@@std@@YAAAPAU?$_Tree_node@U?$pair@$$CBV?$basic_string@DU?$char_traits@D@std@@V?$allocator@D@2@@std@@VCDelegate@UTIL@NMBASE@@@std@@PAX@0@AAPAU10@@Z 1009b350 f i MessageManager.obj
 0002:00044390       ??$forward@AAPAV?$basic_string@DU?$char_traits@D@std@@V?$allocator@D@2@@std@@@std@@YAAAPAV?$basic_string@DU?$char_traits@D@std@@V?$allocator@D@2@@0@AAPAV10@@Z 1009b390 f i MessageManager.obj
 0002:000443d0       ??$forward@AAU?$pair@$$CBIVCDelegate@UTIL@NMBASE@@@std@@@std@@YAAAU?$pair@$$CBIVCDelegate@UTIL@NMBASE@@@0@AAU10@@Z 1009b3d0 f i MessageManager.obj
 0002:00044410       ??$forward@AAU?$pair@$$CBV?$basic_string@DU?$char_traits@D@std@@V?$allocator@D@2@@std@@VCDelegate@UTIL@NMBASE@@@std@@@std@@YAAAU?$pair@$$CBV?$basic_string@DU?$char_traits@D@std@@V?$allocator@D@2@@std@@VCDelegate@UTIL@NMBASE@@@0@AAU10@@Z 1009b410 f i MessageManager.obj
 0002:00044450       ??$forward@AAV?$_Tree_iterator@V?$_Tree_val@U?$_Tree_simple_types@U?$pair@$$CBIVCDelegate@UTIL@NMBASE@@@std@@@std@@@std@@@std@@@std@@YAAAV?$_Tree_iterator@V?$_Tree_val@U?$_Tree_simple_types@U?$pair@$$CBIVCDelegate@UTIL@NMBASE@@@std@@@std@@@std@@@0@AAV10@@Z 1009b450 f i MessageManager.obj
 0002:00044490       ??$forward@AAV?$_Tree_iterator@V?$_Tree_val@U?$_Tree_simple_types@U?$pair@$$CBV?$basic_string@DU?$char_traits@D@std@@V?$allocator@D@2@@std@@VCDelegate@UTIL@NMBASE@@@std@@@std@@@std@@@std@@@std@@YAAAV?$_Tree_iterator@V?$_Tree_val@U?$_Tree_simple_types@U?$pair@$$CBV?$basic_string@DU?$char_traits@D@std@@V?$allocator@D@2@@std@@VCDelegate@UTIL@NMBASE@@@std@@@std@@@std@@@0@AAV10@@Z 1009b490 f i MessageManager.obj
 0002:000444d0       ??$forward@ABI@std@@YAABIABI@Z 1009b4d0 f i MessageManager.obj
 0002:00044510       ??$forward@ABQAUIComponent@@@std@@YAABQAUIComponent@@ABQAU1@@Z 1009b510 f i MessageManager.obj
 0002:00044550       ??$forward@ABU?$less@I@std@@@std@@YAABU?$less@I@0@ABU10@@Z 1009b550 f i MessageManager.obj
 0002:00044590       ??$forward@ABUPOSTMSG@CMessageManager@UTIL@NMBASE@@@std@@YAABUPOSTMSG@CMessageManager@UTIL@NMBASE@@ABU1234@@Z 1009b590 f i MessageManager.obj
 0002:000445d0       ??$forward@ABV?$allocator@V?$basic_string@DU?$char_traits@D@std@@V?$allocator@D@2@@std@@@std@@@std@@YAABV?$allocator@V?$basic_string@DU?$char_traits@D@std@@V?$allocator@D@2@@std@@@0@ABV10@@Z 1009b5d0 f i MessageManager.obj
 0002:00044610       ??$forward@V?$_Tree_iterator@V?$_Tree_val@U?$_Tree_simple_types@U?$pair@$$CBIVCDelegate@UTIL@NMBASE@@@std@@@std@@@std@@@std@@@std@@YA$$QAV?$_Tree_iterator@V?$_Tree_val@U?$_Tree_simple_types@U?$pair@$$CBIVCDelegate@UTIL@NMBASE@@@std@@@std@@@std@@@0@AAV10@@Z 1009b610 f i MessageManager.obj
 0002:00044650       ??$forward@V?$_Tree_iterator@V?$_Tree_val@U?$_Tree_simple_types@U?$pair@$$CBV?$basic_string@DU?$char_traits@D@std@@V?$allocator@D@2@@std@@VCDelegate@UTIL@NMBASE@@@std@@@std@@@std@@@std@@@std@@YA$$QAV?$_Tree_iterator@V?$_Tree_val@U?$_Tree_simple_types@U?$pair@$$CBV?$basic_string@DU?$char_traits@D@std@@V?$allocator@D@2@@std@@VCDelegate@UTIL@NMBASE@@@std@@@std@@@std@@@0@AAV10@@Z 1009b650 f i MessageManager.obj
 0002:00044690       ??$forward@V?$tuple@ABI@std@@@std@@YA$$QAV?$tuple@ABI@0@AAV10@@Z 1009b690 f i MessageManager.obj
 0002:000446d0       ??$forward_as_tuple@ABI@std@@YA?AV?$tuple@ABI@0@ABI@Z 1009b6d0 f i MessageManager.obj
 0002:00044730       ??$get@$0A@ABI@std@@YAABI$$QAV?$tuple@ABI@0@@Z 1009b730 f i MessageManager.obj
 0002:00044780       ??$insert@V?$_Deque_const_iterator@V?$_Deque_val@U?$_Deque_simple_types@UPOSTMSG@CMessageManager@UTIL@NMBASE@@@std@@@std@@@std@@X@?$deque@UPOSTMSG@CMessageManager@UTIL@NMBASE@@V?$allocator@UPOSTMSG@CMessageManager@UTIL@NMBASE@@@std@@@std@@QAE?AV?$_Deque_iterator@V?$_Deque_val@U?$_Deque_simple_types@UPOSTMSG@CMessageManager@UTIL@NMBASE@@@std@@@std@@@1@V?$_Deque_const_iterator@V?$_Deque_val@U?$_Deque_simple_types@UPOSTMSG@CMessageManager@UTIL@NMBASE@@@std@@@std@@@1@00@Z 1009b780 f i MessageManager.obj
 0002:00044ea0       ??$iter_swap@PAV?$basic_string@DU?$char_traits@D@std@@V?$allocator@D@2@@std@@PAV12@@std@@YAXPAV?$basic_string@DU?$char_traits@D@std@@V?$allocator@D@2@@0@0@Z 1009bea0 f i MessageManager.obj
 0002:00044f00       ??$iter_swap@V?$_Deque_unchecked_iterator@V?$_Deque_val@U?$_Deque_simple_types@UPOSTMSG@CMessageManager@UTIL@NMBASE@@@std@@@std@@@std@@V12@@std@@YAXV?$_Deque_unchecked_iterator@V?$_Deque_val@U?$_Deque_simple_types@UPOSTMSG@CMessageManager@UTIL@NMBASE@@@std@@@std@@@0@0@Z 1009bf00 f i MessageManager.obj
 0002:00044f60       ??$move@AAUPOSTMSG@CMessageManager@UTIL@NMBASE@@@std@@YA$$QAUPOSTMSG@CMessageManager@UTIL@NMBASE@@AAU1234@@Z 1009bf60 f i MessageManager.obj
 0002:00044fa0       ??$move@AAV?$allocator@D@std@@@std@@YA$$QAV?$allocator@D@0@AAV10@@Z 1009bfa0 f i MessageManager.obj
 0002:00044fe0       ??$move@AAV?$basic_string@DU?$char_traits@D@std@@V?$allocator@D@2@@std@@@std@@YA$$QAV?$basic_string@DU?$char_traits@D@std@@V?$allocator@D@2@@0@AAV10@@Z 1009bfe0 f i MessageManager.obj
 0002:00045020       ??$move@AAV?$tuple@ABI@std@@@std@@YA$$QAV?$tuple@ABI@0@AAV10@@Z 1009c020 f i MessageManager.obj
 0002:00045060       ??$move@V?$_Deque_iterator@V?$_Deque_val@U?$_Deque_simple_types@UPOSTMSG@CMessageManager@UTIL@NMBASE@@@std@@@std@@@std@@V12@@std@@YA?AV?$_Deque_iterator@V?$_Deque_val@U?$_Deque_simple_types@UPOSTMSG@CMessageManager@UTIL@NMBASE@@@std@@@std@@@0@V10@00@Z 1009c060 f i MessageManager.obj
 0002:00045250       ??$move_backward@V?$_Deque_iterator@V?$_Deque_val@U?$_Deque_simple_types@UPOSTMSG@CMessageManager@UTIL@NMBASE@@@std@@@std@@@std@@V12@@std@@YA?AV?$_Deque_iterator@V?$_Deque_val@U?$_Deque_simple_types@UPOSTMSG@CMessageManager@UTIL@NMBASE@@@std@@@std@@@0@V10@00@Z 1009c250 f i MessageManager.obj
 0002:00045450       ??$reverse@V?$_Deque_iterator@V?$_Deque_val@U?$_Deque_simple_types@UPOSTMSG@CMessageManager@UTIL@NMBASE@@@std@@@std@@@std@@@std@@YAXV?$_Deque_iterator@V?$_Deque_val@U?$_Deque_simple_types@UPOSTMSG@CMessageManager@UTIL@NMBASE@@@std@@@std@@@0@0@Z 1009c450 f i MessageManager.obj
 0002:00045550       ??$rotate@V?$_Deque_iterator@V?$_Deque_val@U?$_Deque_simple_types@UPOSTMSG@CMessageManager@UTIL@NMBASE@@@std@@@std@@@std@@@std@@YA?AV?$_Deque_iterator@V?$_Deque_val@U?$_Deque_simple_types@UPOSTMSG@CMessageManager@UTIL@NMBASE@@@std@@@std@@@0@V10@00@Z 1009c550 f i MessageManager.obj
 0002:000456e0       ??$sort@V?$_Vector_iterator@V?$_Vector_val@U?$_Simple_types@V?$basic_string@DU?$char_traits@D@std@@V?$allocator@D@2@@std@@@std@@@std@@@std@@@std@@YAXV?$_Vector_iterator@V?$_Vector_val@U?$_Simple_types@V?$basic_string@DU?$char_traits@D@std@@V?$allocator@D@2@@std@@@std@@@std@@@0@0@Z 1009c6e0 f i MessageManager.obj
 0002:000457d0       ??$sort@V?$_Vector_iterator@V?$_Vector_val@U?$_Simple_types@V?$basic_string@DU?$char_traits@D@std@@V?$allocator@D@2@@std@@@std@@@std@@@std@@U?$less@X@2@@std@@YAXV?$_Vector_iterator@V?$_Vector_val@U?$_Simple_types@V?$basic_string@DU?$char_traits@D@std@@V?$allocator@D@2@@std@@@std@@@std@@@0@0U?$less@X@0@@Z 1009c7d0 f i MessageManager.obj
 0002:000458f0       ??$swap@DU?$char_traits@D@std@@V?$allocator@D@2@@std@@YAXAAV?$basic_string@DU?$char_traits@D@std@@V?$allocator@D@2@@0@0@Z 1009c8f0 f i MessageManager.obj
 0002:00045940       ??$swap@UPOSTMSG@CMessageManager@UTIL@NMBASE@@X@std@@YAXAAUPOSTMSG@CMessageManager@UTIL@NMBASE@@0@Z 1009c940 f i MessageManager.obj
 0002:00045a30       ??$try_emplace@$$V@?$map@IVCDelegate@UTIL@NMBASE@@U?$less@I@std@@V?$allocator@U?$pair@$$CBIVCDelegate@UTIL@NMBASE@@@std@@@5@@std@@QAE?AU?$pair@V?$_Tree_iterator@V?$_Tree_val@U?$_Tree_simple_types@U?$pair@$$CBIVCDelegate@UTIL@NMBASE@@@std@@@std@@@std@@@std@@_N@1@ABI@Z 1009ca30 f i MessageManager.obj
 0002:00045ab0       ??$try_emplace@$$V@?$map@V?$basic_string@DU?$char_traits@D@std@@V?$allocator@D@2@@std@@VCDelegate@UTIL@NMBASE@@U?$less@V?$basic_string@DU?$char_traits@D@std@@V?$allocator@D@2@@std@@@2@V?$allocator@U?$pair@$$CBV?$basic_string@DU?$char_traits@D@std@@V?$allocator@D@2@@std@@VCDelegate@UTIL@NMBASE@@@std@@@2@@std@@QAE?AU?$pair@V?$_Tree_iterator@V?$_Tree_val@U?$_Tree_simple_types@U?$pair@$$CBV?$basic_string@DU?$char_traits@D@std@@V?$allocator@D@2@@std@@VCDelegate@UTIL@NMBASE@@@std@@@std@@@std@@@std@@_N@1@ABV?$basic_string@DU?$char_traits@D@std@@V?$allocator@D@2@@1@@Z 1009cab0 f i MessageManager.obj
 0002:00045b30       ??0?$_Deque_alloc@U?$_Deque_base_types@UPOSTMSG@CMessageManager@UTIL@NMBASE@@V?$allocator@UPOSTMSG@CMessageManager@UTIL@NMBASE@@@std@@@std@@@std@@QAE@XZ 1009cb30 f i MessageManager.obj
 0002:00045ba0       ??0?$_Deque_const_iterator@V?$_Deque_val@U?$_Deque_simple_types@UPOSTMSG@CMessageManager@UTIL@NMBASE@@@std@@@std@@@std@@QAE@$$QAV01@@Z 1009cba0 f i MessageManager.obj
 0002:00045c10       ??0?$_Deque_const_iterator@V?$_Deque_val@U?$_Deque_simple_types@UPOSTMSG@CMessageManager@UTIL@NMBASE@@@std@@@std@@@std@@QAE@ABV01@@Z 1009cc10 f i MessageManager.obj
 0002:00045c80       ??0?$_Deque_const_iterator@V?$_Deque_val@U?$_Deque_simple_types@UPOSTMSG@CMessageManager@UTIL@NMBASE@@@std@@@std@@@std@@QAE@IPBU_Container_base12@1@@Z 1009cc80 f i MessageManager.obj
 0002:00045d40       ??0?$_Deque_iterator@V?$_Deque_val@U?$_Deque_simple_types@UPOSTMSG@CMessageManager@UTIL@NMBASE@@@std@@@std@@@std@@QAE@$$QAV01@@Z 1009cd40 f i MessageManager.obj
 0002:00045da0       ??0?$_Deque_iterator@V?$_Deque_val@U?$_Deque_simple_types@UPOSTMSG@CMessageManager@UTIL@NMBASE@@@std@@@std@@@std@@QAE@ABV01@@Z 1009cda0 f i MessageManager.obj
 0002:00045e00       ??0?$_Deque_iterator@V?$_Deque_val@U?$_Deque_simple_types@UPOSTMSG@CMessageManager@UTIL@NMBASE@@@std@@@std@@@std@@QAE@IPBU_Container_base12@1@@Z 1009ce00 f i MessageManager.obj
 0002:00045e60       ??0?$_Deque_unchecked_const_iterator@V?$_Deque_val@U?$_Deque_simple_types@UPOSTMSG@CMessageManager@UTIL@NMBASE@@@std@@@std@@@std@@QAE@IPBU_Container_base12@1@@Z 1009ce60 f i MessageManager.obj
 0002:00045eb0       ??0?$_Deque_unchecked_iterator@V?$_Deque_val@U?$_Deque_simple_types@UPOSTMSG@CMessageManager@UTIL@NMBASE@@@std@@@std@@@std@@QAE@IPBU_Container_base12@1@@Z 1009ceb0 f i MessageManager.obj
 0002:00045f10       ??0?$_Deque_val@U?$_Deque_simple_types@UPOSTMSG@CMessageManager@UTIL@NMBASE@@@std@@@std@@QAE@XZ 1009cf10 f i MessageManager.obj
 0002:00045fa0       ??0?$_List_alloc@U?$_List_base_types@PAUIComponent@@V?$allocator@PAUIComponent@@@std@@@std@@@std@@QAE@XZ 1009cfa0 f i MessageManager.obj
 0002:000460b0       ??0?$_List_buy@PAUIComponent@@V?$allocator@PAUIComponent@@@std@@@std@@QAE@XZ 1009d0b0 f i MessageManager.obj
 0002:00046110       ??0?$_List_const_iterator@V?$_List_val@U?$_List_simple_types@PAUIComponent@@@std@@@std@@@std@@QAE@$$QAV01@@Z 1009d110 f i MessageManager.obj
 0002:00046170       ??0?$_List_const_iterator@V?$_List_val@U?$_List_simple_types@PAUIComponent@@@std@@@std@@@std@@QAE@ABV01@@Z 1009d170 f i MessageManager.obj
 0002:000461d0       ??0?$_List_const_iterator@V?$_List_val@U?$_List_simple_types@PAUIComponent@@@std@@@std@@@std@@QAE@PAU?$_List_node@PAUIComponent@@PAX@1@PBV?$_List_val@U?$_List_simple_types@PAUIComponent@@@std@@@1@@Z 1009d1d0 f i MessageManager.obj
 0002:00046230       ??0?$_List_const_iterator@V?$_List_val@U?$_List_simple_types@PAUIComponent@@@std@@@std@@@std@@QAE@XZ 1009d230 f i MessageManager.obj
 0002:00046290       ??0?$_List_iterator@V?$_List_val@U?$_List_simple_types@PAUIComponent@@@std@@@std@@@std@@QAE@$$QAV01@@Z 1009d290 f i MessageManager.obj
 0002:000462f0       ??0?$_List_iterator@V?$_List_val@U?$_List_simple_types@PAUIComponent@@@std@@@std@@@std@@QAE@ABV01@@Z 1009d2f0 f i MessageManager.obj
 0002:00046350       ??0?$_List_iterator@V?$_List_val@U?$_List_simple_types@PAUIComponent@@@std@@@std@@@std@@QAE@PAU?$_List_node@PAUIComponent@@PAX@1@PBV?$_List_val@U?$_List_simple_types@PAUIComponent@@@std@@@1@@Z 1009d350 f i MessageManager.obj
 0002:000463b0       ??0?$_List_iterator@V?$_List_val@U?$_List_simple_types@PAUIComponent@@@std@@@std@@@std@@QAE@XZ 1009d3b0 f i MessageManager.obj
 0002:00046410       ??0?$_List_unchecked_const_iterator@V?$_List_val@U?$_List_simple_types@PAUIComponent@@@std@@@std@@U_Iterator_base0@2@@std@@QAE@PAU?$_List_node@PAUIComponent@@PAX@1@PBV?$_List_val@U?$_List_simple_types@PAUIComponent@@@std@@@1@@Z 1009d410 f i MessageManager.obj
 0002:00046480       ??0?$_List_unchecked_const_iterator@V?$_List_val@U?$_List_simple_types@PAUIComponent@@@std@@@std@@U_Iterator_base12@2@@std@@QAE@$$QAV01@@Z 1009d480 f i MessageManager.obj
 0002:000464f0       ??0?$_List_unchecked_const_iterator@V?$_List_val@U?$_List_simple_types@PAUIComponent@@@std@@@std@@U_Iterator_base12@2@@std@@QAE@ABV01@@Z 1009d4f0 f i MessageManager.obj
 0002:00046560       ??0?$_List_unchecked_const_iterator@V?$_List_val@U?$_List_simple_types@PAUIComponent@@@std@@@std@@U_Iterator_base12@2@@std@@QAE@PAU?$_List_node@PAUIComponent@@PAX@1@PBV?$_List_val@U?$_List_simple_types@PAUIComponent@@@std@@@1@@Z 1009d560 f i MessageManager.obj
 0002:000465d0       ??0?$_List_unchecked_const_iterator@V?$_List_val@U?$_List_simple_types@PAUIComponent@@@std@@@std@@U_Iterator_base12@2@@std@@QAE@XZ 1009d5d0 f i MessageManager.obj
 0002:00046630       ??0?$_List_unchecked_iterator@V?$_List_val@U?$_List_simple_types@PAUIComponent@@@std@@@std@@@std@@QAE@PAU?$_List_node@PAUIComponent@@PAX@1@PBV?$_List_val@U?$_List_simple_types@PAUIComponent@@@std@@@1@@Z 1009d630 f i MessageManager.obj
 0002:00046690       ??0?$_List_val@U?$_List_simple_types@PAUIComponent@@@std@@@std@@QAE@XZ 1009d690 f i MessageManager.obj
 0002:00046700       ??0?$_Tree@V?$_Tmap_traits@IVCDelegate@UTIL@NMBASE@@U?$less@I@std@@V?$allocator@U?$pair@$$CBIVCDelegate@UTIL@NMBASE@@@std@@@5@$0A@@std@@@std@@QAE@ABU?$less@I@1@@Z 1009d700 f i MessageManager.obj
 0002:00046760       ??0?$_Tree@V?$_Tmap_traits@V?$basic_string@DU?$char_traits@D@std@@V?$allocator@D@2@@std@@VCDelegate@UTIL@NMBASE@@U?$less@V?$basic_string@DU?$char_traits@D@std@@V?$allocator@D@2@@std@@@2@V?$allocator@U?$pair@$$CBV?$basic_string@DU?$char_traits@D@std@@V?$allocator@D@2@@std@@VCDelegate@UTIL@NMBASE@@@std@@@2@$0A@@std@@@std@@QAE@ABU?$less@V?$basic_string@DU?$char_traits@D@std@@V?$allocator@D@2@@std@@@1@@Z 1009d760 f i MessageManager.obj
 0002:000467c0       ??0?$_Tree_comp_alloc@V?$_Tmap_traits@IVCDelegate@UTIL@NMBASE@@U?$less@I@std@@V?$allocator@U?$pair@$$CBIVCDelegate@UTIL@NMBASE@@@std@@@5@$0A@@std@@@std@@QAE@ABU?$less@I@1@@Z 1009d7c0 f i MessageManager.obj
 0002:00046840       ??0?$_Tree_comp_alloc@V?$_Tmap_traits@V?$basic_string@DU?$char_traits@D@std@@V?$allocator@D@2@@std@@VCDelegate@UTIL@NMBASE@@U?$less@V?$basic_string@DU?$char_traits@D@std@@V?$allocator@D@2@@std@@@2@V?$allocator@U?$pair@$$CBV?$basic_string@DU?$char_traits@D@std@@V?$allocator@D@2@@std@@VCDelegate@UTIL@NMBASE@@@std@@@2@$0A@@std@@@std@@QAE@ABU?$less@V?$basic_string@DU?$char_traits@D@std@@V?$allocator@D@2@@std@@@1@@Z 1009d840 f i MessageManager.obj
 0002:000468c0       ??0?$_Tree_const_iterator@V?$_Tree_val@U?$_Tree_simple_types@U?$pair@$$CBIVCDelegate@UTIL@NMBASE@@@std@@@std@@@std@@@std@@QAE@$$QAV01@@Z 1009d8c0 f i MessageManager.obj
 0002:00046920       ??0?$_Tree_const_iterator@V?$_Tree_val@U?$_Tree_simple_types@U?$pair@$$CBIVCDelegate@UTIL@NMBASE@@@std@@@std@@@std@@@std@@QAE@ABV01@@Z 1009d920 f i MessageManager.obj
 0002:00046980       ??0?$_Tree_const_iterator@V?$_Tree_val@U?$_Tree_simple_types@U?$pair@$$CBIVCDelegate@UTIL@NMBASE@@@std@@@std@@@std@@@std@@QAE@PAU?$_Tree_node@U?$pair@$$CBIVCDelegate@UTIL@NMBASE@@@std@@PAX@1@PBV?$_Tree_val@U?$_Tree_simple_types@U?$pair@$$CBIVCDelegate@UTIL@NMBASE@@@std@@@std@@@1@@Z 1009d980 f i MessageManager.obj
 0002:000469e0       ??0?$_Tree_const_iterator@V?$_Tree_val@U?$_Tree_simple_types@U?$pair@$$CBIVCDelegate@UTIL@NMBASE@@@std@@@std@@@std@@@std@@QAE@XZ 1009d9e0 f i MessageManager.obj
 0002:00046a40       ??0?$_Tree_const_iterator@V?$_Tree_val@U?$_Tree_simple_types@U?$pair@$$CBV?$basic_string@DU?$char_traits@D@std@@V?$allocator@D@2@@std@@VCDelegate@UTIL@NMBASE@@@std@@@std@@@std@@@std@@QAE@$$QAV01@@Z 1009da40 f i MessageManager.obj
 0002:00046aa0       ??0?$_Tree_const_iterator@V?$_Tree_val@U?$_Tree_simple_types@U?$pair@$$CBV?$basic_string@DU?$char_traits@D@std@@V?$allocator@D@2@@std@@VCDelegate@UTIL@NMBASE@@@std@@@std@@@std@@@std@@QAE@ABV01@@Z 1009daa0 f i MessageManager.obj
 0002:00046b00       ??0?$_Tree_const_iterator@V?$_Tree_val@U?$_Tree_simple_types@U?$pair@$$CBV?$basic_string@DU?$char_traits@D@std@@V?$allocator@D@2@@std@@VCDelegate@UTIL@NMBASE@@@std@@@std@@@std@@@std@@QAE@PAU?$_Tree_node@U?$pair@$$CBV?$basic_string@DU?$char_traits@D@std@@V?$allocator@D@2@@std@@VCDelegate@UTIL@NMBASE@@@std@@PAX@1@PBV?$_Tree_val@U?$_Tree_simple_types@U?$pair@$$CBV?$basic_string@DU?$char_traits@D@std@@V?$allocator@D@2@@std@@VCDelegate@UTIL@NMBASE@@@std@@@std@@@1@@Z 1009db00 f i MessageManager.obj
 0002:00046b60       ??0?$_Tree_const_iterator@V?$_Tree_val@U?$_Tree_simple_types@U?$pair@$$CBV?$basic_string@DU?$char_traits@D@std@@V?$allocator@D@2@@std@@VCDelegate@UTIL@NMBASE@@@std@@@std@@@std@@@std@@QAE@XZ 1009db60 f i MessageManager.obj
 0002:00046bc0       ??0?$_Tree_iterator@V?$_Tree_val@U?$_Tree_simple_types@U?$pair@$$CBIVCDelegate@UTIL@NMBASE@@@std@@@std@@@std@@@std@@QAE@$$QAV01@@Z 1009dbc0 f i MessageManager.obj
 0002:00046c20       ??0?$_Tree_iterator@V?$_Tree_val@U?$_Tree_simple_types@U?$pair@$$CBIVCDelegate@UTIL@NMBASE@@@std@@@std@@@std@@@std@@QAE@ABV01@@Z 1009dc20 f i MessageManager.obj
 0002:00046c80       ??0?$_Tree_iterator@V?$_Tree_val@U?$_Tree_simple_types@U?$pair@$$CBIVCDelegate@UTIL@NMBASE@@@std@@@std@@@std@@@std@@QAE@PAU?$_Tree_node@U?$pair@$$CBIVCDelegate@UTIL@NMBASE@@@std@@PAX@1@PBV?$_Tree_val@U?$_Tree_simple_types@U?$pair@$$CBIVCDelegate@UTIL@NMBASE@@@std@@@std@@@1@@Z 1009dc80 f i MessageManager.obj
 0002:00046ce0       ??0?$_Tree_iterator@V?$_Tree_val@U?$_Tree_simple_types@U?$pair@$$CBV?$basic_string@DU?$char_traits@D@std@@V?$allocator@D@2@@std@@VCDelegate@UTIL@NMBASE@@@std@@@std@@@std@@@std@@QAE@$$QAV01@@Z 1009dce0 f i MessageManager.obj
 0002:00046d40       ??0?$_Tree_iterator@V?$_Tree_val@U?$_Tree_simple_types@U?$pair@$$CBV?$basic_string@DU?$char_traits@D@std@@V?$allocator@D@2@@std@@VCDelegate@UTIL@NMBASE@@@std@@@std@@@std@@@std@@QAE@ABV01@@Z 1009dd40 f i MessageManager.obj
 0002:00046da0       ??0?$_Tree_iterator@V?$_Tree_val@U?$_Tree_simple_types@U?$pair@$$CBV?$basic_string@DU?$char_traits@D@std@@V?$allocator@D@2@@std@@VCDelegate@UTIL@NMBASE@@@std@@@std@@@std@@@std@@QAE@PAU?$_Tree_node@U?$pair@$$CBV?$basic_string@DU?$char_traits@D@std@@V?$allocator@D@2@@std@@VCDelegate@UTIL@NMBASE@@@std@@PAX@1@PBV?$_Tree_val@U?$_Tree_simple_types@U?$pair@$$CBV?$basic_string@DU?$char_traits@D@std@@V?$allocator@D@2@@std@@VCDelegate@UTIL@NMBASE@@@std@@@std@@@1@@Z 1009dda0 f i MessageManager.obj
 0002:00046e00       ??0?$_Tree_iterator@V?$_Tree_val@U?$_Tree_simple_types@U?$pair@$$CBV?$basic_string@DU?$char_traits@D@std@@V?$allocator@D@2@@std@@VCDelegate@UTIL@NMBASE@@@std@@@std@@@std@@@std@@QAE@XZ 1009de00 f i MessageManager.obj
 0002:00046e60       ??0?$_Tree_unchecked_const_iterator@V?$_Tree_val@U?$_Tree_simple_types@U?$pair@$$CBIVCDelegate@UTIL@NMBASE@@@std@@@std@@@std@@U_Iterator_base12@2@@std@@QAE@$$QAV01@@Z 1009de60 f i MessageManager.obj
 0002:00046ed0       ??0?$_Tree_unchecked_const_iterator@V?$_Tree_val@U?$_Tree_simple_types@U?$pair@$$CBIVCDelegate@UTIL@NMBASE@@@std@@@std@@@std@@U_Iterator_base12@2@@std@@QAE@ABV01@@Z 1009ded0 f i MessageManager.obj
 0002:00046f40       ??0?$_Tree_unchecked_const_iterator@V?$_Tree_val@U?$_Tree_simple_types@U?$pair@$$CBIVCDelegate@UTIL@NMBASE@@@std@@@std@@@std@@U_Iterator_base12@2@@std@@QAE@PAU?$_Tree_node@U?$pair@$$CBIVCDelegate@UTIL@NMBASE@@@std@@PAX@1@PBV?$_Tree_val@U?$_Tree_simple_types@U?$pair@$$CBIVCDelegate@UTIL@NMBASE@@@std@@@std@@@1@@Z 1009df40 f i MessageManager.obj
 0002:00046fb0       ??0?$_Tree_unchecked_const_iterator@V?$_Tree_val@U?$_Tree_simple_types@U?$pair@$$CBIVCDelegate@UTIL@NMBASE@@@std@@@std@@@std@@U_Iterator_base12@2@@std@@QAE@XZ 1009dfb0 f i MessageManager.obj
 0002:00047010       ??0?$_Tree_unchecked_const_iterator@V?$_Tree_val@U?$_Tree_simple_types@U?$pair@$$CBV?$basic_string@DU?$char_traits@D@std@@V?$allocator@D@2@@std@@VCDelegate@UTIL@NMBASE@@@std@@@std@@@std@@U_Iterator_base12@2@@std@@QAE@$$QAV01@@Z 1009e010 f i MessageManager.obj
 0002:00047080       ??0?$_Tree_unchecked_const_iterator@V?$_Tree_val@U?$_Tree_simple_types@U?$pair@$$CBV?$basic_string@DU?$char_traits@D@std@@V?$allocator@D@2@@std@@VCDelegate@UTIL@NMBASE@@@std@@@std@@@std@@U_Iterator_base12@2@@std@@QAE@ABV01@@Z 1009e080 f i MessageManager.obj
 0002:000470f0       ??0?$_Tree_unchecked_const_iterator@V?$_Tree_val@U?$_Tree_simple_types@U?$pair@$$CBV?$basic_string@DU?$char_traits@D@std@@V?$allocator@D@2@@std@@VCDelegate@UTIL@NMBASE@@@std@@@std@@@std@@U_Iterator_base12@2@@std@@QAE@PAU?$_Tree_node@U?$pair@$$CBV?$basic_string@DU?$char_traits@D@std@@V?$allocator@D@2@@std@@VCDelegate@UTIL@NMBASE@@@std@@PAX@1@PBV?$_Tree_val@U?$_Tree_simple_types@U?$pair@$$CBV?$basic_string@DU?$char_traits@D@std@@V?$allocator@D@2@@std@@VCDelegate@UTIL@NMBASE@@@std@@@std@@@1@@Z 1009e0f0 f i MessageManager.obj
 0002:00047160       ??0?$_Tree_unchecked_const_iterator@V?$_Tree_val@U?$_Tree_simple_types@U?$pair@$$CBV?$basic_string@DU?$char_traits@D@std@@V?$allocator@D@2@@std@@VCDelegate@UTIL@NMBASE@@@std@@@std@@@std@@U_Iterator_base12@2@@std@@QAE@XZ 1009e160 f i MessageManager.obj
 0002:000471c0       ??0?$_Tree_val@U?$_Tree_simple_types@U?$pair@$$CBIVCDelegate@UTIL@NMBASE@@@std@@@std@@@std@@QAE@XZ 1009e1c0 f i MessageManager.obj
 0002:00047230       ??0?$_Tree_val@U?$_Tree_simple_types@U?$pair@$$CBV?$basic_string@DU?$char_traits@D@std@@V?$allocator@D@2@@std@@VCDelegate@UTIL@NMBASE@@@std@@@std@@@std@@QAE@XZ 1009e230 f i MessageManager.obj
 0002:000472a0       ??0?$_Uninitialized_backout_al@PAV?$basic_string@DU?$char_traits@D@std@@V?$allocator@D@2@@std@@V?$allocator@V?$basic_string@DU?$char_traits@D@std@@V?$allocator@D@2@@std@@@2@@std@@QAE@PAV?$basic_string@DU?$char_traits@D@std@@V?$allocator@D@2@@1@AAV?$allocator@V?$basic_string@DU?$char_traits@D@std@@V?$allocator@D@2@@std@@@1@@Z 1009e2a0 f i MessageManager.obj
 0002:00047300       ??0?$_Vector_const_iterator@V?$_Vector_val@U?$_Simple_types@V?$basic_string@DU?$char_traits@D@std@@V?$allocator@D@2@@std@@@std@@@std@@@std@@QAE@ABV01@@Z 1009e300 f i MessageManager.obj
 0002:00047370       ??0?$_Vector_const_iterator@V?$_Vector_val@U?$_Simple_types@V?$basic_string@DU?$char_traits@D@std@@V?$allocator@D@2@@std@@@std@@@std@@@std@@QAE@PAV?$basic_string@DU?$char_traits@D@std@@V?$allocator@D@2@@1@PBU_Container_base12@1@@Z 1009e370 f i MessageManager.obj
 0002:000473e0       ??0?$_Vector_iterator@V?$_Vector_val@U?$_Simple_types@V?$basic_string@DU?$char_traits@D@std@@V?$allocator@D@2@@std@@@std@@@std@@@std@@QAE@ABV01@@Z 1009e3e0 f i MessageManager.obj
 0002:00047440       ??0?$_Vector_iterator@V?$_Vector_val@U?$_Simple_types@V?$basic_string@DU?$char_traits@D@std@@V?$allocator@D@2@@std@@@std@@@std@@@std@@QAE@PAV?$basic_string@DU?$char_traits@D@std@@V?$allocator@D@2@@1@PBU_Container_base12@1@@Z 1009e440 f i MessageManager.obj
 0002:000474a0       ??0?$_Vector_val@U?$_Simple_types@V?$basic_string@DU?$char_traits@D@std@@V?$allocator@D@2@@std@@@std@@@std@@QAE@XZ 1009e4a0 f i MessageManager.obj
 0002:00047520       ??0?$allocator@U?$_List_node@PAUIComponent@@PAX@std@@@std@@QAE@XZ 1009e520 f i MessageManager.obj
 0002:00047560       ??0?$allocator@U?$_Tree_node@U?$pair@$$CBIVCDelegate@UTIL@NMBASE@@@std@@PAX@std@@@std@@QAE@XZ 1009e560 f i MessageManager.obj
 0002:000475a0       ??0?$allocator@U?$_Tree_node@U?$pair@$$CBV?$basic_string@DU?$char_traits@D@std@@V?$allocator@D@2@@std@@VCDelegate@UTIL@NMBASE@@@std@@PAX@std@@@std@@QAE@XZ 1009e5a0 f i MessageManager.obj
 0002:000475e0       ??0?$allocator@UPOSTMSG@CMessageManager@UTIL@NMBASE@@@std@@QAE@XZ 1009e5e0 f i MessageManager.obj
 0002:00047620       ??0?$allocator@V?$basic_string@DU?$char_traits@D@std@@V?$allocator@D@2@@std@@@std@@QAE@XZ 1009e620 f i MessageManager.obj
 0002:00047660       ??0?$basic_string@DU?$char_traits@D@std@@V?$allocator@D@2@@std@@QAE@$$QAV01@@Z 1009e660 f i MessageManager.obj
 0002:00047730       ??0?$deque@UPOSTMSG@CMessageManager@UTIL@NMBASE@@V?$allocator@UPOSTMSG@CMessageManager@UTIL@NMBASE@@@std@@@std@@QAE@XZ 1009e730 f i MessageManager.obj
 0002:00047790       ??0?$list@PAUIComponent@@V?$allocator@PAUIComponent@@@std@@@std@@QAE@XZ 1009e790 f i MessageManager.obj
 0002:000477f0       ??0?$map@IVCDelegate@UTIL@NMBASE@@U?$less@I@std@@V?$allocator@U?$pair@$$CBIVCDelegate@UTIL@NMBASE@@@std@@@5@@std@@QAE@XZ 1009e7f0 f i MessageManager.obj
 0002:00047850       ??0?$map@V?$basic_string@DU?$char_traits@D@std@@V?$allocator@D@2@@std@@VCDelegate@UTIL@NMBASE@@U?$less@V?$basic_string@DU?$char_traits@D@std@@V?$allocator@D@2@@std@@@2@V?$allocator@U?$pair@$$CBV?$basic_string@DU?$char_traits@D@std@@V?$allocator@D@2@@std@@VCDelegate@UTIL@NMBASE@@@std@@@2@@std@@QAE@XZ 1009e850 f i MessageManager.obj
 0002:000478b0       ??0?$pair@$$CBV?$basic_string@DU?$char_traits@D@std@@V?$allocator@D@2@@std@@VCDelegate@UTIL@NMBASE@@@std@@QAE@ABU01@@Z 1009e8b0 f i MessageManager.obj
 0002:00047940       ??0?$tuple@ABI@std@@QAE@$$QAV01@@Z 1009e940 f i MessageManager.obj
 0002:000479b0       ??0?$vector@V?$basic_string@DU?$char_traits@D@std@@V?$allocator@D@2@@std@@V?$allocator@V?$basic_string@DU?$char_traits@D@std@@V?$allocator@D@2@@std@@@2@@std@@QAE@IABV?$allocator@V?$basic_string@DU?$char_traits@D@std@@V?$allocator@D@2@@std@@@1@@Z 1009e9b0 f i MessageManager.obj
 0002:00047ae0       ??0CMessageManager@UTIL@NMBASE@@AAE@XZ 1009eae0 f   MessageManager.obj
 0002:00047c10       ??0IComponent@@QAE@XZ      1009ec10 f i MessageManager.obj
 0002:00047c60       ??0POSTMSG@CMessageManager@UTIL@NMBASE@@QAE@$$QAU0123@@Z 1009ec60 f i MessageManager.obj
 0002:00047ce0       ??0POSTMSG@CMessageManager@UTIL@NMBASE@@QAE@ABU0123@@Z 1009ece0 f i MessageManager.obj
 0002:00047d60       ??0POSTMSG@CMessageManager@UTIL@NMBASE@@QAE@XZ 1009ed60 f i MessageManager.obj
 0002:00047dc0       ??1?$_Deque_alloc@U?$_Deque_base_types@UPOSTMSG@CMessageManager@UTIL@NMBASE@@V?$allocator@UPOSTMSG@CMessageManager@UTIL@NMBASE@@@std@@@std@@@std@@QAE@XZ 1009edc0 f i MessageManager.obj
 0002:00047e50       ??1?$_Deque_const_iterator@V?$_Deque_val@U?$_Deque_simple_types@UPOSTMSG@CMessageManager@UTIL@NMBASE@@@std@@@std@@@std@@QAE@XZ 1009ee50 f i MessageManager.obj
 0002:00047ea0       ??1?$_Deque_iterator@V?$_Deque_val@U?$_Deque_simple_types@UPOSTMSG@CMessageManager@UTIL@NMBASE@@@std@@@std@@@std@@QAE@XZ 1009eea0 f i MessageManager.obj
 0002:00047ef0       ??1?$_List_alloc@U?$_List_base_types@PAUIComponent@@V?$allocator@PAUIComponent@@@std@@@std@@@std@@QAE@XZ 1009eef0 f i MessageManager.obj
 0002:00047f90       ??1?$_List_buy@PAUIComponent@@V?$allocator@PAUIComponent@@@std@@@std@@QAE@XZ 1009ef90 f i MessageManager.obj
 0002:00047fe0       ??1?$_List_const_iterator@V?$_List_val@U?$_List_simple_types@PAUIComponent@@@std@@@std@@@std@@QAE@XZ 1009efe0 f i MessageManager.obj
 0002:00048030       ??1?$_List_iterator@V?$_List_val@U?$_List_simple_types@PAUIComponent@@@std@@@std@@@std@@QAE@XZ 1009f030 f i MessageManager.obj
 0002:00048080       ??1?$_List_unchecked_const_iterator@V?$_List_val@U?$_List_simple_types@PAUIComponent@@@std@@@std@@U_Iterator_base12@2@@std@@QAE@XZ 1009f080 f i MessageManager.obj
 0002:000480d0       ??1?$_Tree@V?$_Tmap_traits@IVCDelegate@UTIL@NMBASE@@U?$less@I@std@@V?$allocator@U?$pair@$$CBIVCDelegate@UTIL@NMBASE@@@std@@@5@$0A@@std@@@std@@QAE@XZ 1009f0d0 f i MessageManager.obj
 0002:00048160       ??1?$_Tree@V?$_Tmap_traits@V?$basic_string@DU?$char_traits@D@std@@V?$allocator@D@2@@std@@VCDelegate@UTIL@NMBASE@@U?$less@V?$basic_string@DU?$char_traits@D@std@@V?$allocator@D@2@@std@@@2@V?$allocator@U?$pair@$$CBV?$basic_string@DU?$char_traits@D@std@@V?$allocator@D@2@@std@@VCDelegate@UTIL@NMBASE@@@std@@@2@$0A@@std@@@std@@QAE@XZ 1009f160 f i MessageManager.obj
 0002:000481f0       ??1?$_Tree_comp_alloc@V?$_Tmap_traits@IVCDelegate@UTIL@NMBASE@@U?$less@I@std@@V?$allocator@U?$pair@$$CBIVCDelegate@UTIL@NMBASE@@@std@@@5@$0A@@std@@@std@@QAE@XZ 1009f1f0 f i MessageManager.obj
 0002:00048290       ??1?$_Tree_comp_alloc@V?$_Tmap_traits@V?$basic_string@DU?$char_traits@D@std@@V?$allocator@D@2@@std@@VCDelegate@UTIL@NMBASE@@U?$less@V?$basic_string@DU?$char_traits@D@std@@V?$allocator@D@2@@std@@@2@V?$allocator@U?$pair@$$CBV?$basic_string@DU?$char_traits@D@std@@V?$allocator@D@2@@std@@VCDelegate@UTIL@NMBASE@@@std@@@2@$0A@@std@@@std@@QAE@XZ 1009f290 f i MessageManager.obj
 0002:00048330       ??1?$_Tree_const_iterator@V?$_Tree_val@U?$_Tree_simple_types@U?$pair@$$CBIVCDelegate@UTIL@NMBASE@@@std@@@std@@@std@@@std@@QAE@XZ 1009f330 f i MessageManager.obj
 0002:00048380       ??1?$_Tree_const_iterator@V?$_Tree_val@U?$_Tree_simple_types@U?$pair@$$CBV?$basic_string@DU?$char_traits@D@std@@V?$allocator@D@2@@std@@VCDelegate@UTIL@NMBASE@@@std@@@std@@@std@@@std@@QAE@XZ 1009f380 f i MessageManager.obj
 0002:000483d0       ??1?$_Tree_iterator@V?$_Tree_val@U?$_Tree_simple_types@U?$pair@$$CBIVCDelegate@UTIL@NMBASE@@@std@@@std@@@std@@@std@@QAE@XZ 1009f3d0 f i MessageManager.obj
 0002:00048420       ??1?$_Tree_iterator@V?$_Tree_val@U?$_Tree_simple_types@U?$pair@$$CBV?$basic_string@DU?$char_traits@D@std@@V?$allocator@D@2@@std@@VCDelegate@UTIL@NMBASE@@@std@@@std@@@std@@@std@@QAE@XZ 1009f420 f i MessageManager.obj
 0002:00048470       ??1?$_Tree_unchecked_const_iterator@V?$_Tree_val@U?$_Tree_simple_types@U?$pair@$$CBIVCDelegate@UTIL@NMBASE@@@std@@@std@@@std@@U_Iterator_base12@2@@std@@QAE@XZ 1009f470 f i MessageManager.obj
 0002:000484c0       ??1?$_Tree_unchecked_const_iterator@V?$_Tree_val@U?$_Tree_simple_types@U?$pair@$$CBV?$basic_string@DU?$char_traits@D@std@@V?$allocator@D@2@@std@@VCDelegate@UTIL@NMBASE@@@std@@@std@@@std@@U_Iterator_base12@2@@std@@QAE@XZ 1009f4c0 f i MessageManager.obj
 0002:00048510       ??1?$_Uninitialized_backout_al@PAV?$basic_string@DU?$char_traits@D@std@@V?$allocator@D@2@@std@@V?$allocator@V?$basic_string@DU?$char_traits@D@std@@V?$allocator@D@2@@std@@@2@@std@@QAE@XZ 1009f510 f i MessageManager.obj
 0002:000485b0       ??1?$_Vector_alloc@U?$_Vec_base_types@V?$basic_string@DU?$char_traits@D@std@@V?$allocator@D@2@@std@@V?$allocator@V?$basic_string@DU?$char_traits@D@std@@V?$allocator@D@2@@std@@@2@@std@@@std@@QAE@XZ 1009f5b0 f i MessageManager.obj
 0002:00048640       ??1?$_Vector_const_iterator@V?$_Vector_val@U?$_Simple_types@V?$basic_string@DU?$char_traits@D@std@@V?$allocator@D@2@@std@@@std@@@std@@@std@@QAE@XZ 1009f640 f i MessageManager.obj
 0002:00048690       ??1?$_Vector_iterator@V?$_Vector_val@U?$_Simple_types@V?$basic_string@DU?$char_traits@D@std@@V?$allocator@D@2@@std@@@std@@@std@@@std@@QAE@XZ 1009f690 f i MessageManager.obj
 0002:000486e0       ??1?$deque@UPOSTMSG@CMessageManager@UTIL@NMBASE@@V?$allocator@UPOSTMSG@CMessageManager@UTIL@NMBASE@@@std@@@std@@QAE@XZ 1009f6e0 f i MessageManager.obj
 0002:00048770       ??1?$list@PAUIComponent@@V?$allocator@PAUIComponent@@@std@@@std@@QAE@XZ 1009f770 f i MessageManager.obj
 0002:00048800       ??1?$map@IVCDelegate@UTIL@NMBASE@@U?$less@I@std@@V?$allocator@U?$pair@$$CBIVCDelegate@UTIL@NMBASE@@@std@@@5@@std@@QAE@XZ 1009f800 f i MessageManager.obj
 0002:00048850       ??1?$map@V?$basic_string@DU?$char_traits@D@std@@V?$allocator@D@2@@std@@VCDelegate@UTIL@NMBASE@@U?$less@V?$basic_string@DU?$char_traits@D@std@@V?$allocator@D@2@@std@@@2@V?$allocator@U?$pair@$$CBV?$basic_string@DU?$char_traits@D@std@@V?$allocator@D@2@@std@@VCDelegate@UTIL@NMBASE@@@std@@@2@@std@@QAE@XZ 1009f850 f i MessageManager.obj
 0002:000488a0       ??1?$pair@$$CBIVCDelegate@UTIL@NMBASE@@@std@@QAE@XZ 1009f8a0 f i MessageManager.obj
 0002:00048900       ??1?$pair@$$CBV?$basic_string@DU?$char_traits@D@std@@V?$allocator@D@2@@std@@VCDelegate@UTIL@NMBASE@@@std@@QAE@XZ 1009f900 f i MessageManager.obj
 0002:00048960       ??1?$pair@V?$_Tree_iterator@V?$_Tree_val@U?$_Tree_simple_types@U?$pair@$$CBIVCDelegate@UTIL@NMBASE@@@std@@@std@@@std@@@std@@_N@std@@QAE@XZ 1009f960 f i MessageManager.obj
 0002:000489b0       ??1?$pair@V?$_Tree_iterator@V?$_Tree_val@U?$_Tree_simple_types@U?$pair@$$CBV?$basic_string@DU?$char_traits@D@std@@V?$allocator@D@2@@std@@VCDelegate@UTIL@NMBASE@@@std@@@std@@@std@@@std@@_N@std@@QAE@XZ 1009f9b0 f i MessageManager.obj
 0002:00048a00       ??1?$vector@V?$basic_string@DU?$char_traits@D@std@@V?$allocator@D@2@@std@@V?$allocator@V?$basic_string@DU?$char_traits@D@std@@V?$allocator@D@2@@std@@@2@@std@@QAE@XZ 1009fa00 f i MessageManager.obj
 0002:00048a90       ??1CMessageManager@UTIL@NMBASE@@AAE@XZ 1009fa90 f   MessageManager.obj
 0002:00048b80       ??1POSTMSG@CMessageManager@UTIL@NMBASE@@QAE@XZ 1009fb80 f i MessageManager.obj
 0002:00048bd0       ??4?$_List_const_iterator@V?$_List_val@U?$_List_simple_types@PAUIComponent@@@std@@@std@@@std@@QAEAAV01@$$QAV01@@Z 1009fbd0 f i MessageManager.obj
 0002:00048c30       ??4?$_List_iterator@V?$_List_val@U?$_List_simple_types@PAUIComponent@@@std@@@std@@@std@@QAEAAV01@$$QAV01@@Z 1009fc30 f i MessageManager.obj
 0002:00048c90       ??4?$_List_unchecked_const_iterator@V?$_List_val@U?$_List_simple_types@PAUIComponent@@@std@@@std@@U_Iterator_base12@2@@std@@QAEAAV01@$$QAV01@@Z 1009fc90 f i MessageManager.obj
 0002:00048d00       ??4?$_Tree@V?$_Tmap_traits@IVCDelegate@UTIL@NMBASE@@U?$less@I@std@@V?$allocator@U?$pair@$$CBIVCDelegate@UTIL@NMBASE@@@std@@@5@$0A@@std@@@std@@QAEAAV01@ABV01@@Z 1009fd00 f i MessageManager.obj
 0002:00048db0       ??4?$_Tree@V?$_Tmap_traits@V?$basic_string@DU?$char_traits@D@std@@V?$allocator@D@2@@std@@VCDelegate@UTIL@NMBASE@@U?$less@V?$basic_string@DU?$char_traits@D@std@@V?$allocator@D@2@@std@@@2@V?$allocator@U?$pair@$$CBV?$basic_string@DU?$char_traits@D@std@@V?$allocator@D@2@@std@@VCDelegate@UTIL@NMBASE@@@std@@@2@$0A@@std@@@std@@QAEAAV01@ABV01@@Z 1009fdb0 f i MessageManager.obj
 0002:00048e60       ??4?$_Tree_const_iterator@V?$_Tree_val@U?$_Tree_simple_types@U?$pair@$$CBIVCDelegate@UTIL@NMBASE@@@std@@@std@@@std@@@std@@QAEAAV01@ABV01@@Z 1009fe60 f i MessageManager.obj
 0002:00048ec0       ??4?$_Tree_const_iterator@V?$_Tree_val@U?$_Tree_simple_types@U?$pair@$$CBV?$basic_string@DU?$char_traits@D@std@@V?$allocator@D@2@@std@@VCDelegate@UTIL@NMBASE@@@std@@@std@@@std@@@std@@QAEAAV01@$$QAV01@@Z 1009fec0 f i MessageManager.obj
 0002:00048f20       ??4?$_Tree_const_iterator@V?$_Tree_val@U?$_Tree_simple_types@U?$pair@$$CBV?$basic_string@DU?$char_traits@D@std@@V?$allocator@D@2@@std@@VCDelegate@UTIL@NMBASE@@@std@@@std@@@std@@@std@@QAEAAV01@ABV01@@Z 1009ff20 f i MessageManager.obj
 0002:00048f80       ??4?$_Tree_iterator@V?$_Tree_val@U?$_Tree_simple_types@U?$pair@$$CBV?$basic_string@DU?$char_traits@D@std@@V?$allocator@D@2@@std@@VCDelegate@UTIL@NMBASE@@@std@@@std@@@std@@@std@@QAEAAV01@$$QAV01@@Z 1009ff80 f i MessageManager.obj
 0002:00048fe0       ??4?$_Tree_unchecked_const_iterator@V?$_Tree_val@U?$_Tree_simple_types@U?$pair@$$CBIVCDelegate@UTIL@NMBASE@@@std@@@std@@@std@@U_Iterator_base12@2@@std@@QAEAAV01@ABV01@@Z 1009ffe0 f i MessageManager.obj
 0002:00049050       ??4?$_Tree_unchecked_const_iterator@V?$_Tree_val@U?$_Tree_simple_types@U?$pair@$$CBV?$basic_string@DU?$char_traits@D@std@@V?$allocator@D@2@@std@@VCDelegate@UTIL@NMBASE@@@std@@@std@@@std@@U_Iterator_base12@2@@std@@QAEAAV01@$$QAV01@@Z 100a0050 f i MessageManager.obj
 0002:000490c0       ??4?$_Tree_unchecked_const_iterator@V?$_Tree_val@U?$_Tree_simple_types@U?$pair@$$CBV?$basic_string@DU?$char_traits@D@std@@V?$allocator@D@2@@std@@VCDelegate@UTIL@NMBASE@@@std@@@std@@@std@@U_Iterator_base12@2@@std@@QAEAAV01@ABV01@@Z 100a00c0 f i MessageManager.obj
 0002:00049130       ??4?$basic_string@DU?$char_traits@D@std@@V?$allocator@D@2@@std@@QAEAAV01@$$QAV01@@Z 100a0130 f i MessageManager.obj
 0002:00049220       ??4?$deque@UPOSTMSG@CMessageManager@UTIL@NMBASE@@V?$allocator@UPOSTMSG@CMessageManager@UTIL@NMBASE@@@std@@@std@@QAEAAV01@ABV01@@Z 100a0220 f i MessageManager.obj
 0002:00049650       ??4?$list@PAUIComponent@@V?$allocator@PAUIComponent@@@std@@@std@@QAEAAV01@ABV01@@Z 100a0650 f i MessageManager.obj
 0002:00049710       ??4?$map@IVCDelegate@UTIL@NMBASE@@U?$less@I@std@@V?$allocator@U?$pair@$$CBIVCDelegate@UTIL@NMBASE@@@std@@@5@@std@@QAEAAV01@ABV01@@Z 100a0710 f i MessageManager.obj
 0002:00049770       ??4?$map@V?$basic_string@DU?$char_traits@D@std@@V?$allocator@D@2@@std@@VCDelegate@UTIL@NMBASE@@U?$less@V?$basic_string@DU?$char_traits@D@std@@V?$allocator@D@2@@std@@@2@V?$allocator@U?$pair@$$CBV?$basic_string@DU?$char_traits@D@std@@V?$allocator@D@2@@std@@VCDelegate@UTIL@NMBASE@@@std@@@2@@std@@QAEAAV01@ABV01@@Z 100a0770 f i MessageManager.obj
 0002:000497d0       ??4CMessageManager@UTIL@NMBASE@@QAEAAV012@ABV012@@Z 100a07d0 f i MessageManager.obj
 0002:000498e0       ??4IComponent@@QAEAAU0@ABU0@@Z 100a08e0 f i MessageManager.obj
 0002:00049920       ??4POSTMSG@CMessageManager@UTIL@NMBASE@@QAEAAU0123@$$QAU0123@@Z 100a0920 f i MessageManager.obj
 0002:000499a0       ??4POSTMSG@CMessageManager@UTIL@NMBASE@@QAEAAU0123@ABU0123@@Z 100a09a0 f i MessageManager.obj
 0002:00049a20       ??8?$_Deque_unchecked_const_iterator@V?$_Deque_val@U?$_Deque_simple_types@UPOSTMSG@CMessageManager@UTIL@NMBASE@@@std@@@std@@@std@@QBE_NABV01@@Z 100a0a20 f i MessageManager.obj
 0002:00049a90       ??8?$_List_const_iterator@V?$_List_val@U?$_List_simple_types@PAUIComponent@@@std@@@std@@@std@@QBE_NABV01@@Z 100a0a90 f i MessageManager.obj
 0002:00049bb0       ??8?$_List_unchecked_const_iterator@V?$_List_val@U?$_List_simple_types@PAUIComponent@@@std@@@std@@U_Iterator_base0@2@@std@@QBE_NABV01@@Z 100a0bb0 f i MessageManager.obj
 0002:00049c20       ??8?$_Tree_const_iterator@V?$_Tree_val@U?$_Tree_simple_types@U?$pair@$$CBIVCDelegate@UTIL@NMBASE@@@std@@@std@@@std@@@std@@QBE_NABV01@@Z 100a0c20 f i MessageManager.obj
 0002:00049d40       ??8?$_Tree_const_iterator@V?$_Tree_val@U?$_Tree_simple_types@U?$pair@$$CBV?$basic_string@DU?$char_traits@D@std@@V?$allocator@D@2@@std@@VCDelegate@UTIL@NMBASE@@@std@@@std@@@std@@@std@@QBE_NABV01@@Z 100a0d40 f i MessageManager.obj
 0002:00049e60       ??8?$_Vector_const_iterator@V?$_Vector_val@U?$_Simple_types@V?$basic_string@DU?$char_traits@D@std@@V?$allocator@D@2@@std@@@std@@@std@@@std@@QBE_NABV01@@Z 100a0e60 f i MessageManager.obj
 0002:00049ef0       ??9?$_Deque_unchecked_const_iterator@V?$_Deque_val@U?$_Deque_simple_types@UPOSTMSG@CMessageManager@UTIL@NMBASE@@@std@@@std@@@std@@QBE_NABV01@@Z 100a0ef0 f i MessageManager.obj
 0002:00049f80       ??9?$_List_const_iterator@V?$_List_val@U?$_List_simple_types@PAUIComponent@@@std@@@std@@@std@@QBE_NABV01@@Z 100a0f80 f i MessageManager.obj
 0002:0004a010       ??9?$_List_unchecked_const_iterator@V?$_List_val@U?$_List_simple_types@PAUIComponent@@@std@@@std@@U_Iterator_base0@2@@std@@QBE_NABV01@@Z 100a1010 f i MessageManager.obj
 0002:0004a0a0       ??9?$_Tree_const_iterator@V?$_Tree_val@U?$_Tree_simple_types@U?$pair@$$CBIVCDelegate@UTIL@NMBASE@@@std@@@std@@@std@@@std@@QBE_NABV01@@Z 100a10a0 f i MessageManager.obj
 0002:0004a130       ??9?$_Tree_const_iterator@V?$_Tree_val@U?$_Tree_simple_types@U?$pair@$$CBV?$basic_string@DU?$char_traits@D@std@@V?$allocator@D@2@@std@@VCDelegate@UTIL@NMBASE@@@std@@@std@@@std@@@std@@QBE_NABV01@@Z 100a1130 f i MessageManager.obj
 0002:0004a1c0       ??9?$_Vector_const_iterator@V?$_Vector_val@U?$_Simple_types@V?$basic_string@DU?$char_traits@D@std@@V?$allocator@D@2@@std@@@std@@@std@@@std@@QBE_NABV01@@Z 100a11c0 f i MessageManager.obj
 0002:0004a250       ??A?$map@IVCDelegate@UTIL@NMBASE@@U?$less@I@std@@V?$allocator@U?$pair@$$CBIVCDelegate@UTIL@NMBASE@@@std@@@5@@std@@QAEAAVCDelegate@UTIL@NMBASE@@ABI@Z 100a1250 f i MessageManager.obj
 0002:0004a340       ??A?$map@V?$basic_string@DU?$char_traits@D@std@@V?$allocator@D@2@@std@@VCDelegate@UTIL@NMBASE@@U?$less@V?$basic_string@DU?$char_traits@D@std@@V?$allocator@D@2@@std@@@2@V?$allocator@U?$pair@$$CBV?$basic_string@DU?$char_traits@D@std@@V?$allocator@D@2@@std@@VCDelegate@UTIL@NMBASE@@@std@@@2@@std@@QAEAAVCDelegate@UTIL@NMBASE@@ABV?$basic_string@DU?$char_traits@D@std@@V?$allocator@D@2@@1@@Z 100a1340 f i MessageManager.obj
 0002:0004a430       ??C?$_Tree_iterator@V?$_Tree_val@U?$_Tree_simple_types@U?$pair@$$CBIVCDelegate@UTIL@NMBASE@@@std@@@std@@@std@@@std@@QBEPAU?$pair@$$CBIVCDelegate@UTIL@NMBASE@@@1@XZ 100a1430 f i MessageManager.obj
 0002:0004a490       ??C?$_Tree_iterator@V?$_Tree_val@U?$_Tree_simple_types@U?$pair@$$CBV?$basic_string@DU?$char_traits@D@std@@V?$allocator@D@2@@std@@VCDelegate@UTIL@NMBASE@@@std@@@std@@@std@@@std@@QBEPAU?$pair@$$CBV?$basic_string@DU?$char_traits@D@std@@V?$allocator@D@2@@std@@VCDelegate@UTIL@NMBASE@@@1@XZ 100a1490 f i MessageManager.obj
 0002:0004a4f0       ??C?$_Vector_const_iterator@V?$_Vector_val@U?$_Simple_types@V?$basic_string@DU?$char_traits@D@std@@V?$allocator@D@2@@std@@@std@@@std@@@std@@QBEPBV?$basic_string@DU?$char_traits@D@std@@V?$allocator@D@2@@1@XZ 100a14f0 f i MessageManager.obj
 0002:0004a660       ??C?$_Vector_iterator@V?$_Vector_val@U?$_Simple_types@V?$basic_string@DU?$char_traits@D@std@@V?$allocator@D@2@@std@@@std@@@std@@@std@@QBEPAV?$basic_string@DU?$char_traits@D@std@@V?$allocator@D@2@@1@XZ 100a1660 f i MessageManager.obj
 0002:0004a6c0       ??D?$_Deque_const_iterator@V?$_Deque_val@U?$_Deque_simple_types@UPOSTMSG@CMessageManager@UTIL@NMBASE@@@std@@@std@@@std@@QBEABUPOSTMSG@CMessageManager@UTIL@NMBASE@@XZ 100a16c0 f i MessageManager.obj
 0002:0004a880       ??D?$_Deque_iterator@V?$_Deque_val@U?$_Deque_simple_types@UPOSTMSG@CMessageManager@UTIL@NMBASE@@@std@@@std@@@std@@QBEAAUPOSTMSG@CMessageManager@UTIL@NMBASE@@XZ 100a1880 f i MessageManager.obj
 0002:0004a8d0       ??D?$_Deque_unchecked_const_iterator@V?$_Deque_val@U?$_Deque_simple_types@UPOSTMSG@CMessageManager@UTIL@NMBASE@@@std@@@std@@@std@@QBEABUPOSTMSG@CMessageManager@UTIL@NMBASE@@XZ 100a18d0 f i MessageManager.obj
 0002:0004a960       ??D?$_Deque_unchecked_iterator@V?$_Deque_val@U?$_Deque_simple_types@UPOSTMSG@CMessageManager@UTIL@NMBASE@@@std@@@std@@@std@@QBEAAUPOSTMSG@CMessageManager@UTIL@NMBASE@@XZ 100a1960 f i MessageManager.obj
 0002:0004a9b0       ??D?$_List_const_iterator@V?$_List_val@U?$_List_simple_types@PAUIComponent@@@std@@@std@@@std@@QBEABQAUIComponent@@XZ 100a19b0 f i MessageManager.obj
 0002:0004ab20       ??D?$_List_iterator@V?$_List_val@U?$_List_simple_types@PAUIComponent@@@std@@@std@@@std@@QBEAAPAUIComponent@@XZ 100a1b20 f i MessageManager.obj
 0002:0004ab70       ??D?$_List_unchecked_const_iterator@V?$_List_val@U?$_List_simple_types@PAUIComponent@@@std@@@std@@U_Iterator_base0@2@@std@@QBEABQAUIComponent@@XZ 100a1b70 f i MessageManager.obj
 0002:0004abb0       ??D?$_List_unchecked_iterator@V?$_List_val@U?$_List_simple_types@PAUIComponent@@@std@@@std@@@std@@QBEAAPAUIComponent@@XZ 100a1bb0 f i MessageManager.obj
 0002:0004ac00       ??D?$_Tree_const_iterator@V?$_Tree_val@U?$_Tree_simple_types@U?$pair@$$CBIVCDelegate@UTIL@NMBASE@@@std@@@std@@@std@@@std@@QBEABU?$pair@$$CBIVCDelegate@UTIL@NMBASE@@@1@XZ 100a1c00 f i MessageManager.obj
 0002:0004ad70       ??D?$_Tree_const_iterator@V?$_Tree_val@U?$_Tree_simple_types@U?$pair@$$CBV?$basic_string@DU?$char_traits@D@std@@V?$allocator@D@2@@std@@VCDelegate@UTIL@NMBASE@@@std@@@std@@@std@@@std@@QBEABU?$pair@$$CBV?$basic_string@DU?$char_traits@D@std@@V?$allocator@D@2@@std@@VCDelegate@UTIL@NMBASE@@@1@XZ 100a1d70 f i MessageManager.obj
 0002:0004aee0       ??D?$_Tree_iterator@V?$_Tree_val@U?$_Tree_simple_types@U?$pair@$$CBIVCDelegate@UTIL@NMBASE@@@std@@@std@@@std@@@std@@QBEAAU?$pair@$$CBIVCDelegate@UTIL@NMBASE@@@1@XZ 100a1ee0 f i MessageManager.obj
 0002:0004af30       ??D?$_Tree_iterator@V?$_Tree_val@U?$_Tree_simple_types@U?$pair@$$CBV?$basic_string@DU?$char_traits@D@std@@V?$allocator@D@2@@std@@VCDelegate@UTIL@NMBASE@@@std@@@std@@@std@@@std@@QBEAAU?$pair@$$CBV?$basic_string@DU?$char_traits@D@std@@V?$allocator@D@2@@std@@VCDelegate@UTIL@NMBASE@@@1@XZ 100a1f30 f i MessageManager.obj
 0002:0004af80       ??D?$_Vector_const_iterator@V?$_Vector_val@U?$_Simple_types@V?$basic_string@DU?$char_traits@D@std@@V?$allocator@D@2@@std@@@std@@@std@@@std@@QBEABV?$basic_string@DU?$char_traits@D@std@@V?$allocator@D@2@@1@XZ 100a1f80 f i MessageManager.obj
 0002:0004b0f0       ??D?$_Vector_iterator@V?$_Vector_val@U?$_Simple_types@V?$basic_string@DU?$char_traits@D@std@@V?$allocator@D@2@@std@@@std@@@std@@@std@@QBEAAV?$basic_string@DU?$char_traits@D@std@@V?$allocator@D@2@@1@XZ 100a20f0 f i MessageManager.obj
 0002:0004b140       ??E?$_Deque_unchecked_const_iterator@V?$_Deque_val@U?$_Deque_simple_types@UPOSTMSG@CMessageManager@UTIL@NMBASE@@@std@@@std@@@std@@QAEAAV01@XZ 100a2140 f i MessageManager.obj
 0002:0004b190       ??E?$_Deque_unchecked_iterator@V?$_Deque_val@U?$_Deque_simple_types@UPOSTMSG@CMessageManager@UTIL@NMBASE@@@std@@@std@@@std@@QAEAAV01@XZ 100a2190 f i MessageManager.obj
 0002:0004b1f0       ??E?$_List_const_iterator@V?$_List_val@U?$_List_simple_types@PAUIComponent@@@std@@@std@@@std@@QAE?AV01@H@Z 100a21f0 f i MessageManager.obj
 0002:0004b310       ??E?$_List_const_iterator@V?$_List_val@U?$_List_simple_types@PAUIComponent@@@std@@@std@@@std@@QAEAAV01@XZ 100a2310 f i MessageManager.obj
 0002:0004b490       ??E?$_List_iterator@V?$_List_val@U?$_List_simple_types@PAUIComponent@@@std@@@std@@@std@@QAEAAV01@XZ 100a2490 f i MessageManager.obj
 0002:0004b4f0       ??E?$_List_unchecked_const_iterator@V?$_List_val@U?$_List_simple_types@PAUIComponent@@@std@@@std@@U_Iterator_base0@2@@std@@QAEAAV01@XZ 100a24f0 f i MessageManager.obj
 0002:0004b540       ??E?$_List_unchecked_iterator@V?$_List_val@U?$_List_simple_types@PAUIComponent@@@std@@@std@@@std@@QAEAAV01@XZ 100a2540 f i MessageManager.obj
 0002:0004b5a0       ??E?$_Tree_const_iterator@V?$_Tree_val@U?$_Tree_simple_types@U?$pair@$$CBIVCDelegate@UTIL@NMBASE@@@std@@@std@@@std@@@std@@QAE?AV01@H@Z 100a25a0 f i MessageManager.obj
 0002:0004b6c0       ??E?$_Tree_const_iterator@V?$_Tree_val@U?$_Tree_simple_types@U?$pair@$$CBIVCDelegate@UTIL@NMBASE@@@std@@@std@@@std@@@std@@QAEAAV01@XZ 100a26c0 f i MessageManager.obj
 0002:0004b830       ??E?$_Tree_const_iterator@V?$_Tree_val@U?$_Tree_simple_types@U?$pair@$$CBV?$basic_string@DU?$char_traits@D@std@@V?$allocator@D@2@@std@@VCDelegate@UTIL@NMBASE@@@std@@@std@@@std@@@std@@QAE?AV01@H@Z 100a2830 f i MessageManager.obj
 0002:0004b950       ??E?$_Tree_const_iterator@V?$_Tree_val@U?$_Tree_simple_types@U?$pair@$$CBV?$basic_string@DU?$char_traits@D@std@@V?$allocator@D@2@@std@@VCDelegate@UTIL@NMBASE@@@std@@@std@@@std@@@std@@QAEAAV01@XZ 100a2950 f i MessageManager.obj
 0002:0004bac0       ??E?$_Tree_iterator@V?$_Tree_val@U?$_Tree_simple_types@U?$pair@$$CBV?$basic_string@DU?$char_traits@D@std@@V?$allocator@D@2@@std@@VCDelegate@UTIL@NMBASE@@@std@@@std@@@std@@@std@@QAEAAV01@XZ 100a2ac0 f i MessageManager.obj
 0002:0004bb20       ??E?$_Tree_unchecked_const_iterator@V?$_Tree_val@U?$_Tree_simple_types@U?$pair@$$CBIVCDelegate@UTIL@NMBASE@@@std@@@std@@@std@@U_Iterator_base12@2@@std@@QAEAAV01@XZ 100a2b20 f i MessageManager.obj
 0002:0004bbf0       ??E?$_Tree_unchecked_const_iterator@V?$_Tree_val@U?$_Tree_simple_types@U?$pair@$$CBV?$basic_string@DU?$char_traits@D@std@@V?$allocator@D@2@@std@@VCDelegate@UTIL@NMBASE@@@std@@@std@@@std@@U_Iterator_base12@2@@std@@QAEAAV01@XZ 100a2bf0 f i MessageManager.obj
 0002:0004bcc0       ??E?$_Vector_const_iterator@V?$_Vector_val@U?$_Simple_types@V?$basic_string@DU?$char_traits@D@std@@V?$allocator@D@2@@std@@@std@@@std@@@std@@QAEAAV01@XZ 100a2cc0 f i MessageManager.obj
 0002:0004be30       ??E?$_Vector_iterator@V?$_Vector_val@U?$_Simple_types@V?$basic_string@DU?$char_traits@D@std@@V?$allocator@D@2@@std@@@std@@@std@@@std@@QAEAAV01@XZ 100a2e30 f i MessageManager.obj
 0002:0004be90       ??F?$_Deque_unchecked_const_iterator@V?$_Deque_val@U?$_Deque_simple_types@UPOSTMSG@CMessageManager@UTIL@NMBASE@@@std@@@std@@@std@@QAEAAV01@XZ 100a2e90 f i MessageManager.obj
 0002:0004bee0       ??F?$_Deque_unchecked_iterator@V?$_Deque_val@U?$_Deque_simple_types@UPOSTMSG@CMessageManager@UTIL@NMBASE@@@std@@@std@@@std@@QAEAAV01@XZ 100a2ee0 f i MessageManager.obj
 0002:0004bf40       ??F?$_Tree_const_iterator@V?$_Tree_val@U?$_Tree_simple_types@U?$pair@$$CBIVCDelegate@UTIL@NMBASE@@@std@@@std@@@std@@@std@@QAEAAV01@XZ 100a2f40 f i MessageManager.obj
 0002:0004c0b0       ??F?$_Tree_const_iterator@V?$_Tree_val@U?$_Tree_simple_types@U?$pair@$$CBV?$basic_string@DU?$char_traits@D@std@@V?$allocator@D@2@@std@@VCDelegate@UTIL@NMBASE@@@std@@@std@@@std@@@std@@QAEAAV01@XZ 100a30b0 f i MessageManager.obj
 0002:0004c220       ??F?$_Tree_iterator@V?$_Tree_val@U?$_Tree_simple_types@U?$pair@$$CBIVCDelegate@UTIL@NMBASE@@@std@@@std@@@std@@@std@@QAEAAV01@XZ 100a3220 f i MessageManager.obj
 0002:0004c280       ??F?$_Tree_iterator@V?$_Tree_val@U?$_Tree_simple_types@U?$pair@$$CBV?$basic_string@DU?$char_traits@D@std@@V?$allocator@D@2@@std@@VCDelegate@UTIL@NMBASE@@@std@@@std@@@std@@@std@@QAEAAV01@XZ 100a3280 f i MessageManager.obj
 0002:0004c2e0       ??F?$_Tree_unchecked_const_iterator@V?$_Tree_val@U?$_Tree_simple_types@U?$pair@$$CBIVCDelegate@UTIL@NMBASE@@@std@@@std@@@std@@U_Iterator_base12@2@@std@@QAEAAV01@XZ 100a32e0 f i MessageManager.obj
 0002:0004c3e0       ??F?$_Tree_unchecked_const_iterator@V?$_Tree_val@U?$_Tree_simple_types@U?$pair@$$CBV?$basic_string@DU?$char_traits@D@std@@V?$allocator@D@2@@std@@VCDelegate@UTIL@NMBASE@@@std@@@std@@@std@@U_Iterator_base12@2@@std@@QAEAAV01@XZ 100a33e0 f i MessageManager.obj
 0002:0004c4e0       ??G?$_Deque_const_iterator@V?$_Deque_val@U?$_Deque_simple_types@UPOSTMSG@CMessageManager@UTIL@NMBASE@@@std@@@std@@@std@@QBEHABV01@@Z 100a34e0 f i MessageManager.obj
 0002:0004c550       ??G?$_Deque_iterator@V?$_Deque_val@U?$_Deque_simple_types@UPOSTMSG@CMessageManager@UTIL@NMBASE@@@std@@@std@@@std@@QBEHABV?$_Deque_const_iterator@V?$_Deque_val@U?$_Deque_simple_types@UPOSTMSG@CMessageManager@UTIL@NMBASE@@@std@@@std@@@1@@Z 100a3550 f i MessageManager.obj
 0002:0004c5b0       ??G?$_Deque_unchecked_const_iterator@V?$_Deque_val@U?$_Deque_simple_types@UPOSTMSG@CMessageManager@UTIL@NMBASE@@@std@@@std@@@std@@QBEHABV01@@Z 100a35b0 f i MessageManager.obj
 0002:0004c600       ??G?$_Deque_unchecked_iterator@V?$_Deque_val@U?$_Deque_simple_types@UPOSTMSG@CMessageManager@UTIL@NMBASE@@@std@@@std@@@std@@QBEHABV?$_Deque_unchecked_const_iterator@V?$_Deque_val@U?$_Deque_simple_types@UPOSTMSG@CMessageManager@UTIL@NMBASE@@@std@@@std@@@1@@Z 100a3600 f i MessageManager.obj
 0002:0004c660       ??H?$_Deque_const_iterator@V?$_Deque_val@U?$_Deque_simple_types@UPOSTMSG@CMessageManager@UTIL@NMBASE@@@std@@@std@@@std@@QBE?AV01@H@Z 100a3660 f i MessageManager.obj
 0002:0004c780       ??H?$_Deque_iterator@V?$_Deque_val@U?$_Deque_simple_types@UPOSTMSG@CMessageManager@UTIL@NMBASE@@@std@@@std@@@std@@QBE?AV01@H@Z 100a3780 f i MessageManager.obj
 0002:0004c8a0       ??H?$_Deque_unchecked_iterator@V?$_Deque_val@U?$_Deque_simple_types@UPOSTMSG@CMessageManager@UTIL@NMBASE@@@std@@@std@@@std@@QBE?AV01@H@Z 100a38a0 f i MessageManager.obj
 0002:0004c950       ??M?$_Deque_const_iterator@V?$_Deque_val@U?$_Deque_simple_types@UPOSTMSG@CMessageManager@UTIL@NMBASE@@@std@@@std@@@std@@QBE_NABV01@@Z 100a3950 f i MessageManager.obj
 0002:0004c9e0       ??N?$_Deque_const_iterator@V?$_Deque_val@U?$_Deque_simple_types@UPOSTMSG@CMessageManager@UTIL@NMBASE@@@std@@@std@@@std@@QBE_NABV01@@Z 100a39e0 f i MessageManager.obj
 0002:0004ca70       ??R?$less@I@std@@QBE_NABI0@Z 100a3a70 f i MessageManager.obj
 0002:0004cae0       ??Y?$_Deque_const_iterator@V?$_Deque_val@U?$_Deque_simple_types@UPOSTMSG@CMessageManager@UTIL@NMBASE@@@std@@@std@@@std@@QAEAAV01@H@Z 100a3ae0 f i MessageManager.obj
 0002:0004cc90       ??Y?$_Deque_iterator@V?$_Deque_val@U?$_Deque_simple_types@UPOSTMSG@CMessageManager@UTIL@NMBASE@@@std@@@std@@@std@@QAEAAV01@H@Z 100a3c90 f i MessageManager.obj
 0002:0004cce0       ??Y?$_Deque_unchecked_const_iterator@V?$_Deque_val@U?$_Deque_simple_types@UPOSTMSG@CMessageManager@UTIL@NMBASE@@@std@@@std@@@std@@QAEAAV01@H@Z 100a3ce0 f i MessageManager.obj
 0002:0004cd30       ??Y?$_Deque_unchecked_iterator@V?$_Deque_val@U?$_Deque_simple_types@UPOSTMSG@CMessageManager@UTIL@NMBASE@@@std@@@std@@@std@@QAEAAV01@H@Z 100a3d30 f i MessageManager.obj
 0002:0004cd90       ??_G?$pair@$$CBIVCDelegate@UTIL@NMBASE@@@std@@QAEPAXI@Z 100a3d90 f i MessageManager.obj
 0002:0004ce00       ??_G?$pair@$$CBV?$basic_string@DU?$char_traits@D@std@@V?$allocator@D@2@@std@@VCDelegate@UTIL@NMBASE@@@std@@QAEPAXI@Z 100a3e00 f i MessageManager.obj
 0002:0004ce70       ??_GPOSTMSG@CMessageManager@UTIL@NMBASE@@QAEPAXI@Z 100a3e70 f i MessageManager.obj
 0002:0004cee0       ?AddMsgH@CMessageManager@UTIL@NMBASE@@QAEHV?$basic_string@DU?$char_traits@D@std@@V?$allocator@D@2@@std@@PAUIFunctor@23@@Z 100a3ee0 f   MessageManager.obj
 0002:0004d120       ?AddNetMsgH@CMessageManager@UTIL@NMBASE@@QAEHIPAUIFunctor@23@@Z 100a4120 f   MessageManager.obj
 0002:0004d310       ?AddNetMsgH@CMessageManager@UTIL@NMBASE@@QAEHV?$basic_string@DU?$char_traits@D@std@@V?$allocator@D@2@@std@@PAUIFunctor@23@@Z 100a4310 f   MessageManager.obj
 0002:0004d550       ?AppendMsgH@CMessageManager@UTIL@NMBASE@@QAEHV?$basic_string@DU?$char_traits@D@std@@V?$allocator@D@2@@std@@PAUIFunctor@23@@Z 100a4550 f   MessageManager.obj
 0002:0004d790       ?AppendNetMsgH@CMessageManager@UTIL@NMBASE@@QAEHIPAUIFunctor@23@@Z 100a4790 f   MessageManager.obj
 0002:0004d980       ?AppendNetMsgH@CMessageManager@UTIL@NMBASE@@QAEHV?$basic_string@DU?$char_traits@D@std@@V?$allocator@D@2@@std@@PAUIFunctor@23@@Z 100a4980 f   MessageManager.obj
 0002:0004dbc0       ?AttachComponent@CMessageManager@UTIL@NMBASE@@QAEHPAUIComponent@@@Z 100a4bc0 f   MessageManager.obj
 0002:0004dec0       ?Call@CMessageManager@UTIL@NMBASE@@QAEJV?$basic_string@DU?$char_traits@D@std@@V?$allocator@D@2@@std@@IJ@Z 100a4ec0 f   MessageManager.obj
 0002:0004e140       ?CallDefault@CMessageManager@UTIL@NMBASE@@QAEJV?$basic_string@DU?$char_traits@D@std@@V?$allocator@D@2@@std@@IJ@Z 100a5140 f   MessageManager.obj
 0002:0004e3c0       ?Clear@CMessageManager@UTIL@NMBASE@@QAEXXZ 100a53c0 f   MessageManager.obj
 0002:0004e520       ?ClearAllCommand@CMessageManager@UTIL@NMBASE@@QAEXXZ 100a5520 f   MessageManager.obj
 0002:0004e7f0       ?DetachAll@CMessageManager@UTIL@NMBASE@@QAEXXZ 100a57f0 f   MessageManager.obj
 0002:0004ea20       ?DetachComponent@CMessageManager@UTIL@NMBASE@@QAEHPAUIComponent@@@Z 100a5a20 f   MessageManager.obj
 0002:0004ed30       ?DumpAllHandlers@CMessageManager@UTIL@NMBASE@@QAEXH@Z 100a5d30 f   MessageManager.obj
 0002:0004f1d0       ?FindMsgDelegate@CMessageManager@UTIL@NMBASE@@AAEPAVCDelegate@23@V?$basic_string@DU?$char_traits@D@std@@V?$allocator@D@2@@std@@@Z 100a61d0 f   MessageManager.obj
 0002:0004f3e0       ?FindNetDelegate@CMessageManager@UTIL@NMBASE@@AAEPAVCDelegate@23@I@Z 100a63e0 f   MessageManager.obj
 0002:0004f5c0       ?FindNetDelegate@CMessageManager@UTIL@NMBASE@@AAEPAVCDelegate@23@V?$basic_string@DU?$char_traits@D@std@@V?$allocator@D@2@@std@@@Z 100a65c0 f   MessageManager.obj
 0002:0004f7d0       ?Get@CMessageManager@UTIL@NMBASE@@SAAAV123@XZ 100a67d0 f   MessageManager.obj
 0002:0004f8d0       ?Info@CMessageManager@UTIL@NMBASE@@QAE?AU_tagFINFOS@23@V?$basic_string@DU?$char_traits@D@std@@V?$allocator@D@2@@std@@@Z 100a68d0 f   MessageManager.obj
 0002:0004fb30       ?MM@UTIL@NMBASE@@YAAAVCMessageManager@12@XZ 100a6b30 f   MessageManager.obj
 0002:0004fb80       ?NetCall@CMessageManager@UTIL@NMBASE@@QAEJIIJ@Z 100a6b80 f   MessageManager.obj
 0002:0004fdc0       ?NetCall@CMessageManager@UTIL@NMBASE@@QAEJV?$basic_string@DU?$char_traits@D@std@@V?$allocator@D@2@@std@@IJ@Z 100a6dc0 f   MessageManager.obj
 0002:00050040       ?OnAttached@IComponent@@UAEHXZ 100a7040 f i MessageManager.obj
 0002:00050080       ?OnDetached@IComponent@@UAEHXZ 100a7080 f i MessageManager.obj
 0002:000500c0       ?OverrideMsgH@CMessageManager@UTIL@NMBASE@@QAEHV?$basic_string@DU?$char_traits@D@std@@V?$allocator@D@2@@std@@PAUIFunctor@23@@Z 100a70c0 f   MessageManager.obj
 0002:00050300       ?OverrideNetMsgH@CMessageManager@UTIL@NMBASE@@QAEHIPAUIFunctor@23@@Z 100a7300 f   MessageManager.obj
 0002:000504f0       ?OverrideNetMsgH@CMessageManager@UTIL@NMBASE@@QAEHV?$basic_string@DU?$char_traits@D@std@@V?$allocator@D@2@@std@@PAUIFunctor@23@@Z 100a74f0 f   MessageManager.obj
 0002:00050730       ?PostCall@CMessageManager@UTIL@NMBASE@@QAEXV?$basic_string@DU?$char_traits@D@std@@V?$allocator@D@2@@std@@IJ@Z 100a7730 f   MessageManager.obj
 0002:00050860       ?ProcPostMessage@CMessageManager@UTIL@NMBASE@@QAEXXZ 100a7860 f   MessageManager.obj
 0002:00050a00       ?RemoveAppendMsgH@CMessageManager@UTIL@NMBASE@@QAEHV?$basic_string@DU?$char_traits@D@std@@V?$allocator@D@2@@std@@PAUIFunctor@23@@Z 100a7a00 f   MessageManager.obj
 0002:00050c30       ?RemoveMsgH@CMessageManager@UTIL@NMBASE@@QAEHV?$basic_string@DU?$char_traits@D@std@@V?$allocator@D@2@@std@@@Z 100a7c30 f   MessageManager.obj
 0002:00050e90       ?RemoveNetMsgH@CMessageManager@UTIL@NMBASE@@QAEHI@Z 100a7e90 f   MessageManager.obj
 0002:000510d0       ?RemoveNetMsgH@CMessageManager@UTIL@NMBASE@@QAEHV?$basic_string@DU?$char_traits@D@std@@V?$allocator@D@2@@std@@@Z 100a80d0 f   MessageManager.obj
 0002:00051330       ?RemoveOverrideMsgH@CMessageManager@UTIL@NMBASE@@QAEHV?$basic_string@DU?$char_traits@D@std@@V?$allocator@D@2@@std@@PAUIFunctor@23@@Z 100a8330 f   MessageManager.obj
 0002:00051560       ?_Alloc_proxy@?$_Deque_alloc@U?$_Deque_base_types@UPOSTMSG@CMessageManager@UTIL@NMBASE@@V?$allocator@UPOSTMSG@CMessageManager@UTIL@NMBASE@@@std@@@std@@@std@@QAEXXZ 100a8560 f i MessageManager.obj
 0002:00051680       ?_Alloc_proxy@?$_List_alloc@U?$_List_base_types@PAUIComponent@@V?$allocator@PAUIComponent@@@std@@@std@@@std@@QAEXXZ 100a8680 f i MessageManager.obj
 0002:000517a0       ?_Alloc_proxy@?$_Tree_comp_alloc@V?$_Tmap_traits@IVCDelegate@UTIL@NMBASE@@U?$less@I@std@@V?$allocator@U?$pair@$$CBIVCDelegate@UTIL@NMBASE@@@std@@@5@$0A@@std@@@std@@QAEXXZ 100a87a0 f i MessageManager.obj
 0002:000518c0       ?_Alloc_proxy@?$_Tree_comp_alloc@V?$_Tmap_traits@V?$basic_string@DU?$char_traits@D@std@@V?$allocator@D@2@@std@@VCDelegate@UTIL@NMBASE@@U?$less@V?$basic_string@DU?$char_traits@D@std@@V?$allocator@D@2@@std@@@2@V?$allocator@U?$pair@$$CBV?$basic_string@DU?$char_traits@D@std@@V?$allocator@D@2@@std@@VCDelegate@UTIL@NMBASE@@@std@@@2@$0A@@std@@@std@@QAEXXZ 100a88c0 f i MessageManager.obj
 0002:000519e0       ?_Alloc_proxy@?$_Vector_alloc@U?$_Vec_base_types@V?$basic_string@DU?$char_traits@D@std@@V?$allocator@D@2@@std@@V?$allocator@V?$basic_string@DU?$char_traits@D@std@@V?$allocator@D@2@@std@@@2@@std@@@std@@QAEXXZ 100a89e0 f i MessageManager.obj
 0002:00051b00       ?_Assign_rv_contents@?$basic_string@DU?$char_traits@D@std@@V?$allocator@D@2@@std@@QAEX$$QAV12@U?$integral_constant@_N$00@2@@Z 100a8b00 f i MessageManager.obj
 0002:00051b80       ?_Assign_rv_contents_with_alloc_always_equal@?$basic_string@DU?$char_traits@D@std@@V?$allocator@D@2@@std@@QAEX$$QAV12@U?$integral_constant@_N$00@2@@Z 100a8b80 f i MessageManager.obj
 0002:00051c90       ?_Buy@?$vector@V?$basic_string@DU?$char_traits@D@std@@V?$allocator@D@2@@std@@V?$allocator@V?$basic_string@DU?$char_traits@D@std@@V?$allocator@D@2@@std@@@2@@std@@AAE_NI@Z 100a8c90 f i MessageManager.obj
 0002:00051da0       ?_Buyheadnode@?$_List_alloc@U?$_List_base_types@PAUIComponent@@V?$allocator@PAUIComponent@@@std@@@std@@@std@@QAEPAU?$_List_node@PAUIComponent@@PAX@2@XZ 100a8da0 f i MessageManager.obj
 0002:00051e00       ?_Buyheadnode@?$_Tree_comp_alloc@V?$_Tmap_traits@IVCDelegate@UTIL@NMBASE@@U?$less@I@std@@V?$allocator@U?$pair@$$CBIVCDelegate@UTIL@NMBASE@@@std@@@5@$0A@@std@@@std@@QAEPAU?$_Tree_node@U?$pair@$$CBIVCDelegate@UTIL@NMBASE@@@std@@PAX@2@XZ 100a8e00 f i MessageManager.obj
 0002:00051fb0       ?_Buyheadnode@?$_Tree_comp_alloc@V?$_Tmap_traits@V?$basic_string@DU?$char_traits@D@std@@V?$allocator@D@2@@std@@VCDelegate@UTIL@NMBASE@@U?$less@V?$basic_string@DU?$char_traits@D@std@@V?$allocator@D@2@@std@@@2@V?$allocator@U?$pair@$$CBV?$basic_string@DU?$char_traits@D@std@@V?$allocator@D@2@@std@@VCDelegate@UTIL@NMBASE@@@std@@@2@$0A@@std@@@std@@QAEPAU?$_Tree_node@U?$pair@$$CBV?$basic_string@DU?$char_traits@D@std@@V?$allocator@D@2@@std@@VCDelegate@UTIL@NMBASE@@@std@@PAX@2@XZ 100a8fb0 f i MessageManager.obj
 0002:00052160       ?_Buynode0@?$_List_alloc@U?$_List_base_types@PAUIComponent@@V?$allocator@PAUIComponent@@@std@@@std@@@std@@QAEPAU?$_List_node@PAUIComponent@@PAX@2@PAU32@0@Z 100a9160 f i MessageManager.obj
 0002:000522c0       ?_Buynode0@?$_Tree_comp_alloc@V?$_Tmap_traits@IVCDelegate@UTIL@NMBASE@@U?$less@I@std@@V?$allocator@U?$pair@$$CBIVCDelegate@UTIL@NMBASE@@@std@@@5@$0A@@std@@@std@@QAEPAU?$_Tree_node@U?$pair@$$CBIVCDelegate@UTIL@NMBASE@@@std@@PAX@2@XZ 100a92c0 f i MessageManager.obj
 0002:00052430       ?_Buynode0@?$_Tree_comp_alloc@V?$_Tmap_traits@V?$basic_string@DU?$char_traits@D@std@@V?$allocator@D@2@@std@@VCDelegate@UTIL@NMBASE@@U?$less@V?$basic_string@DU?$char_traits@D@std@@V?$allocator@D@2@@std@@@2@V?$allocator@U?$pair@$$CBV?$basic_string@DU?$char_traits@D@std@@V?$allocator@D@2@@std@@VCDelegate@UTIL@NMBASE@@@std@@@2@$0A@@std@@@std@@QAEPAU?$_Tree_node@U?$pair@$$CBV?$basic_string@DU?$char_traits@D@std@@V?$allocator@D@2@@std@@VCDelegate@UTIL@NMBASE@@@std@@PAX@2@XZ 100a9430 f i MessageManager.obj
 0002:000525a0       ?_Compare@?$_Tree@V?$_Tmap_traits@IVCDelegate@UTIL@NMBASE@@U?$less@I@std@@V?$allocator@U?$pair@$$CBIVCDelegate@UTIL@NMBASE@@@std@@@5@$0A@@std@@@std@@IBE_NABI0@Z 100a95a0 f i MessageManager.obj
 0002:00052610       ?_Compare@?$_Tree@V?$_Tmap_traits@V?$basic_string@DU?$char_traits@D@std@@V?$allocator@D@2@@std@@VCDelegate@UTIL@NMBASE@@U?$less@V?$basic_string@DU?$char_traits@D@std@@V?$allocator@D@2@@std@@@2@V?$allocator@U?$pair@$$CBV?$basic_string@DU?$char_traits@D@std@@V?$allocator@D@2@@std@@VCDelegate@UTIL@NMBASE@@@std@@@2@$0A@@std@@@std@@IBE_NABV?$basic_string@DU?$char_traits@D@std@@V?$allocator@D@2@@2@0@Z 100a9610 f i MessageManager.obj
 0002:00052680       ?_Compat@?$_Deque_const_iterator@V?$_Deque_val@U?$_Deque_simple_types@UPOSTMSG@CMessageManager@UTIL@NMBASE@@@std@@@std@@@std@@QBEXABV12@@Z 100a9680 f i MessageManager.obj
 0002:00052760       ?_Compat@?$_Vector_const_iterator@V?$_Vector_val@U?$_Simple_types@V?$basic_string@DU?$char_traits@D@std@@V?$allocator@D@2@@std@@@std@@@std@@@std@@QBEXABV12@@Z 100a9760 f i MessageManager.obj
 0002:00052840       ?_Construct@?$_Tree_comp_alloc@V?$_Tmap_traits@IVCDelegate@UTIL@NMBASE@@U?$less@I@std@@V?$allocator@U?$pair@$$CBIVCDelegate@UTIL@NMBASE@@@std@@@5@$0A@@std@@@std@@QAEXXZ 100a9840 f i MessageManager.obj
 0002:00052930       ?_Construct@?$_Tree_comp_alloc@V?$_Tmap_traits@V?$basic_string@DU?$char_traits@D@std@@V?$allocator@D@2@@std@@VCDelegate@UTIL@NMBASE@@U?$less@V?$basic_string@DU?$char_traits@D@std@@V?$allocator@D@2@@std@@@2@V?$allocator@U?$pair@$$CBV?$basic_string@DU?$char_traits@D@std@@V?$allocator@D@2@@std@@VCDelegate@UTIL@NMBASE@@@std@@@2@$0A@@std@@@std@@QAEXXZ 100a9930 f i MessageManager.obj
 0002:00052a20       ?_Copy_alloc@?$_Deque_alloc@U?$_Deque_base_types@UPOSTMSG@CMessageManager@UTIL@NMBASE@@V?$allocator@UPOSTMSG@CMessageManager@UTIL@NMBASE@@@std@@@std@@@std@@QAEXABV?$allocator@UPOSTMSG@CMessageManager@UTIL@NMBASE@@@2@@Z 100a9a20 f i MessageManager.obj
 0002:00052ab0       ?_Copy_alloc@?$_List_alloc@U?$_List_base_types@PAUIComponent@@V?$allocator@PAUIComponent@@@std@@@std@@@std@@QAEXABV?$allocator@U?$_List_node@PAUIComponent@@PAX@std@@@2@@Z 100a9ab0 f i MessageManager.obj
 0002:00052b70       ?_Copy_alloc@?$_Tree_comp_alloc@V?$_Tmap_traits@IVCDelegate@UTIL@NMBASE@@U?$less@I@std@@V?$allocator@U?$pair@$$CBIVCDelegate@UTIL@NMBASE@@@std@@@5@$0A@@std@@@std@@QAEXABV?$allocator@U?$_Tree_node@U?$pair@$$CBIVCDelegate@UTIL@NMBASE@@@std@@PAX@std@@@2@@Z 100a9b70 f i MessageManager.obj
 0002:00052c30       ?_Copy_alloc@?$_Tree_comp_alloc@V?$_Tmap_traits@V?$basic_string@DU?$char_traits@D@std@@V?$allocator@D@2@@std@@VCDelegate@UTIL@NMBASE@@U?$less@V?$basic_string@DU?$char_traits@D@std@@V?$allocator@D@2@@std@@@2@V?$allocator@U?$pair@$$CBV?$basic_string@DU?$char_traits@D@std@@V?$allocator@D@2@@std@@VCDelegate@UTIL@NMBASE@@@std@@@2@$0A@@std@@@std@@QAEXABV?$allocator@U?$_Tree_node@U?$pair@$$CBV?$basic_string@DU?$char_traits@D@std@@V?$allocator@D@2@@std@@VCDelegate@UTIL@NMBASE@@@std@@PAX@std@@@2@@Z 100a9c30 f i MessageManager.obj
 0002:00052cf0       ?_Destroy@?$vector@V?$basic_string@DU?$char_traits@D@std@@V?$allocator@D@2@@std@@V?$allocator@V?$basic_string@DU?$char_traits@D@std@@V?$allocator@D@2@@std@@@2@@std@@AAEXPAV?$basic_string@DU?$char_traits@D@std@@V?$allocator@D@2@@2@0@Z 100a9cf0 f i MessageManager.obj
 0002:00052d60       ?_Destroy_if_node@?$_Tree@V?$_Tmap_traits@IVCDelegate@UTIL@NMBASE@@U?$less@I@std@@V?$allocator@U?$pair@$$CBIVCDelegate@UTIL@NMBASE@@@std@@@5@$0A@@std@@@std@@IAEXPAU?$_Tree_node@U?$pair@$$CBIVCDelegate@UTIL@NMBASE@@@std@@PAX@2@@Z 100a9d60 f i MessageManager.obj
 0002:00052df0       ?_Destroy_if_node@?$_Tree@V?$_Tmap_traits@V?$basic_string@DU?$char_traits@D@std@@V?$allocator@D@2@@std@@VCDelegate@UTIL@NMBASE@@U?$less@V?$basic_string@DU?$char_traits@D@std@@V?$allocator@D@2@@std@@@2@V?$allocator@U?$pair@$$CBV?$basic_string@DU?$char_traits@D@std@@V?$allocator@D@2@@std@@VCDelegate@UTIL@NMBASE@@@std@@@2@$0A@@std@@@std@@IAEXPAU?$_Tree_node@U?$pair@$$CBV?$basic_string@DU?$char_traits@D@std@@V?$allocator@D@2@@std@@VCDelegate@UTIL@NMBASE@@@std@@PAX@2@@Z 100a9df0 f i MessageManager.obj
 0002:00052e80       ?_Erase@?$_Tree@V?$_Tmap_traits@IVCDelegate@UTIL@NMBASE@@U?$less@I@std@@V?$allocator@U?$pair@$$CBIVCDelegate@UTIL@NMBASE@@@std@@@5@$0A@@std@@@std@@IAEXPAU?$_Tree_node@U?$pair@$$CBIVCDelegate@UTIL@NMBASE@@@std@@PAX@2@@Z 100a9e80 f i MessageManager.obj
 0002:00052f50       ?_Erase@?$_Tree@V?$_Tmap_traits@V?$basic_string@DU?$char_traits@D@std@@V?$allocator@D@2@@std@@VCDelegate@UTIL@NMBASE@@U?$less@V?$basic_string@DU?$char_traits@D@std@@V?$allocator@D@2@@std@@@2@V?$allocator@U?$pair@$$CBV?$basic_string@DU?$char_traits@D@std@@V?$allocator@D@2@@std@@VCDelegate@UTIL@NMBASE@@@std@@@2@$0A@@std@@@std@@IAEXPAU?$_Tree_node@U?$pair@$$CBV?$basic_string@DU?$char_traits@D@std@@V?$allocator@D@2@@std@@VCDelegate@UTIL@NMBASE@@@std@@PAX@2@@Z 100a9f50 f i MessageManager.obj
 0002:00053020       ?_Extract@?$_Tree_val@U?$_Tree_simple_types@U?$pair@$$CBIVCDelegate@UTIL@NMBASE@@@std@@@std@@@std@@QAEPAU?$_Tree_node@U?$pair@$$CBIVCDelegate@UTIL@NMBASE@@@std@@PAX@2@V?$_Tree_const_iterator@V?$_Tree_val@U?$_Tree_simple_types@U?$pair@$$CBIVCDelegate@UTIL@NMBASE@@@std@@@std@@@std@@@2@@Z 100aa020 f i MessageManager.obj
 0002:000536b0       ?_Extract@?$_Tree_val@U?$_Tree_simple_types@U?$pair@$$CBV?$basic_string@DU?$char_traits@D@std@@V?$allocator@D@2@@std@@VCDelegate@UTIL@NMBASE@@@std@@@std@@@std@@QAEPAU?$_Tree_node@U?$pair@$$CBV?$basic_string@DU?$char_traits@D@std@@V?$allocator@D@2@@std@@VCDelegate@UTIL@NMBASE@@@std@@PAX@2@V?$_Tree_const_iterator@V?$_Tree_val@U?$_Tree_simple_types@U?$pair@$$CBV?$basic_string@DU?$char_traits@D@std@@V?$allocator@D@2@@std@@VCDelegate@UTIL@NMBASE@@@std@@@std@@@std@@@2@@Z 100aa6b0 f i MessageManager.obj
 0002:00053d40       ?_Free_proxy@?$_Deque_alloc@U?$_Deque_base_types@UPOSTMSG@CMessageManager@UTIL@NMBASE@@V?$allocator@UPOSTMSG@CMessageManager@UTIL@NMBASE@@@std@@@std@@@std@@QAEXXZ 100aad40 f i MessageManager.obj
 0002:00053e40       ?_Free_proxy@?$_List_alloc@U?$_List_base_types@PAUIComponent@@V?$allocator@PAUIComponent@@@std@@@std@@@std@@QAEXXZ 100aae40 f i MessageManager.obj
 0002:00053f40       ?_Free_proxy@?$_Tree_comp_alloc@V?$_Tmap_traits@IVCDelegate@UTIL@NMBASE@@U?$less@I@std@@V?$allocator@U?$pair@$$CBIVCDelegate@UTIL@NMBASE@@@std@@@5@$0A@@std@@@std@@QAEXXZ 100aaf40 f i MessageManager.obj
 0002:00054040       ?_Free_proxy@?$_Tree_comp_alloc@V?$_Tmap_traits@V?$basic_string@DU?$char_traits@D@std@@V?$allocator@D@2@@std@@VCDelegate@UTIL@NMBASE@@U?$less@V?$basic_string@DU?$char_traits@D@std@@V?$allocator@D@2@@std@@@2@V?$allocator@U?$pair@$$CBV?$basic_string@DU?$char_traits@D@std@@V?$allocator@D@2@@std@@VCDelegate@UTIL@NMBASE@@@std@@@2@$0A@@std@@@std@@QAEXXZ 100ab040 f i MessageManager.obj
 0002:00054140       ?_Free_proxy@?$_Vector_alloc@U?$_Vec_base_types@V?$basic_string@DU?$char_traits@D@std@@V?$allocator@D@2@@std@@V?$allocator@V?$basic_string@DU?$char_traits@D@std@@V?$allocator@D@2@@std@@@2@@std@@@std@@QAEXXZ 100ab140 f i MessageManager.obj
 0002:00054240       ?_Freeheadnode@?$_List_alloc@U?$_List_base_types@PAUIComponent@@V?$allocator@PAUIComponent@@@std@@@std@@@std@@QAEXPAU?$_List_node@PAUIComponent@@PAX@2@@Z 100ab240 f i MessageManager.obj
 0002:000542b0       ?_Freeheadnode@?$_Tree_comp_alloc@V?$_Tmap_traits@IVCDelegate@UTIL@NMBASE@@U?$less@I@std@@V?$allocator@U?$pair@$$CBIVCDelegate@UTIL@NMBASE@@@std@@@5@$0A@@std@@@std@@QAEXPAU?$_Tree_node@U?$pair@$$CBIVCDelegate@UTIL@NMBASE@@@std@@PAX@2@@Z 100ab2b0 f i MessageManager.obj
 0002:00054320       ?_Freeheadnode@?$_Tree_comp_alloc@V?$_Tmap_traits@V?$basic_string@DU?$char_traits@D@std@@V?$allocator@D@2@@std@@VCDelegate@UTIL@NMBASE@@U?$less@V?$basic_string@DU?$char_traits@D@std@@V?$allocator@D@2@@std@@@2@V?$allocator@U?$pair@$$CBV?$basic_string@DU?$char_traits@D@std@@V?$allocator@D@2@@std@@VCDelegate@UTIL@NMBASE@@@std@@@2@$0A@@std@@@std@@QAEXPAU?$_Tree_node@U?$pair@$$CBV?$basic_string@DU?$char_traits@D@std@@V?$allocator@D@2@@std@@VCDelegate@UTIL@NMBASE@@@std@@PAX@2@@Z 100ab320 f i MessageManager.obj
 0002:00054390       ?_Freenode0@?$_Tree_comp_alloc@V?$_Tmap_traits@IVCDelegate@UTIL@NMBASE@@U?$less@I@std@@V?$allocator@U?$pair@$$CBIVCDelegate@UTIL@NMBASE@@@std@@@5@$0A@@std@@@std@@QAEXPAU?$_Tree_node@U?$pair@$$CBIVCDelegate@UTIL@NMBASE@@@std@@PAX@2@@Z 100ab390 f i MessageManager.obj
 0002:00054400       ?_Freenode0@?$_Tree_comp_alloc@V?$_Tmap_traits@V?$basic_string@DU?$char_traits@D@std@@V?$allocator@D@2@@std@@VCDelegate@UTIL@NMBASE@@U?$less@V?$basic_string@DU?$char_traits@D@std@@V?$allocator@D@2@@std@@@2@V?$allocator@U?$pair@$$CBV?$basic_string@DU?$char_traits@D@std@@V?$allocator@D@2@@std@@VCDelegate@UTIL@NMBASE@@@std@@@2@$0A@@std@@@std@@QAEXPAU?$_Tree_node@U?$pair@$$CBV?$basic_string@DU?$char_traits@D@std@@V?$allocator@D@2@@std@@VCDelegate@UTIL@NMBASE@@@std@@PAX@2@@Z 100ab400 f i MessageManager.obj
 0002:00054470       ?_Freenode@?$_List_buy@PAUIComponent@@V?$allocator@PAUIComponent@@@std@@@std@@QAEXPAU?$_List_node@PAUIComponent@@PAX@2@@Z 100ab470 f i MessageManager.obj
 0002:00054500       ?_Get_data@?$_Deque_alloc@U?$_Deque_base_types@UPOSTMSG@CMessageManager@UTIL@NMBASE@@V?$allocator@UPOSTMSG@CMessageManager@UTIL@NMBASE@@@std@@@std@@@std@@QAEAAV?$_Deque_val@U?$_Deque_simple_types@UPOSTMSG@CMessageManager@UTIL@NMBASE@@@std@@@2@XZ 100ab500 f i MessageManager.obj
 0002:00054550       ?_Get_data@?$_Deque_alloc@U?$_Deque_base_types@UPOSTMSG@CMessageManager@UTIL@NMBASE@@V?$allocator@UPOSTMSG@CMessageManager@UTIL@NMBASE@@@std@@@std@@@std@@QBEABV?$_Deque_val@U?$_Deque_simple_types@UPOSTMSG@CMessageManager@UTIL@NMBASE@@@std@@@2@XZ 100ab550 f i MessageManager.obj
 0002:000545a0       ?_Get_data@?$_List_alloc@U?$_List_base_types@PAUIComponent@@V?$allocator@PAUIComponent@@@std@@@std@@@std@@QAEAAV?$_List_val@U?$_List_simple_types@PAUIComponent@@@std@@@2@XZ 100ab5a0 f i MessageManager.obj
 0002:000545f0       ?_Get_data@?$_List_alloc@U?$_List_base_types@PAUIComponent@@V?$allocator@PAUIComponent@@@std@@@std@@@std@@QBEABV?$_List_val@U?$_List_simple_types@PAUIComponent@@@std@@@2@XZ 100ab5f0 f i MessageManager.obj
 0002:00054640       ?_Get_data@?$_Tree_comp_alloc@V?$_Tmap_traits@IVCDelegate@UTIL@NMBASE@@U?$less@I@std@@V?$allocator@U?$pair@$$CBIVCDelegate@UTIL@NMBASE@@@std@@@5@$0A@@std@@@std@@QAEAAV?$_Tree_val@U?$_Tree_simple_types@U?$pair@$$CBIVCDelegate@UTIL@NMBASE@@@std@@@std@@@2@XZ 100ab640 f i MessageManager.obj
 0002:000546a0       ?_Get_data@?$_Tree_comp_alloc@V?$_Tmap_traits@IVCDelegate@UTIL@NMBASE@@U?$less@I@std@@V?$allocator@U?$pair@$$CBIVCDelegate@UTIL@NMBASE@@@std@@@5@$0A@@std@@@std@@QBEABV?$_Tree_val@U?$_Tree_simple_types@U?$pair@$$CBIVCDelegate@UTIL@NMBASE@@@std@@@std@@@2@XZ 100ab6a0 f i MessageManager.obj
 0002:00054700       ?_Get_data@?$_Tree_comp_alloc@V?$_Tmap_traits@V?$basic_string@DU?$char_traits@D@std@@V?$allocator@D@2@@std@@VCDelegate@UTIL@NMBASE@@U?$less@V?$basic_string@DU?$char_traits@D@std@@V?$allocator@D@2@@std@@@2@V?$allocator@U?$pair@$$CBV?$basic_string@DU?$char_traits@D@std@@V?$allocator@D@2@@std@@VCDelegate@UTIL@NMBASE@@@std@@@2@$0A@@std@@@std@@QAEAAV?$_Tree_val@U?$_Tree_simple_types@U?$pair@$$CBV?$basic_string@DU?$char_traits@D@std@@V?$allocator@D@2@@std@@VCDelegate@UTIL@NMBASE@@@std@@@std@@@2@XZ 100ab700 f i MessageManager.obj
 0002:00054760       ?_Get_data@?$_Tree_comp_alloc@V?$_Tmap_traits@V?$basic_string@DU?$char_traits@D@std@@V?$allocator@D@2@@std@@VCDelegate@UTIL@NMBASE@@U?$less@V?$basic_string@DU?$char_traits@D@std@@V?$allocator@D@2@@std@@@2@V?$allocator@U?$pair@$$CBV?$basic_string@DU?$char_traits@D@std@@V?$allocator@D@2@@std@@VCDelegate@UTIL@NMBASE@@@std@@@2@$0A@@std@@@std@@QBEABV?$_Tree_val@U?$_Tree_simple_types@U?$pair@$$CBV?$basic_string@DU?$char_traits@D@std@@V?$allocator@D@2@@std@@VCDelegate@UTIL@NMBASE@@@std@@@std@@@2@XZ 100ab760 f i MessageManager.obj
 0002:000547c0       ?_Get_data@?$_Vector_alloc@U?$_Vec_base_types@V?$basic_string@DU?$char_traits@D@std@@V?$allocator@D@2@@std@@V?$allocator@V?$basic_string@DU?$char_traits@D@std@@V?$allocator@D@2@@std@@@2@@std@@@std@@QAEAAV?$_Vector_val@U?$_Simple_types@V?$basic_string@DU?$char_traits@D@std@@V?$allocator@D@2@@std@@@std@@@2@XZ 100ab7c0 f i MessageManager.obj
 0002:00054810       ?_Get_data@?$_Vector_alloc@U?$_Vec_base_types@V?$basic_string@DU?$char_traits@D@std@@V?$allocator@D@2@@std@@V?$allocator@V?$basic_string@DU?$char_traits@D@std@@V?$allocator@D@2@@std@@@2@@std@@@std@@QBEABV?$_Vector_val@U?$_Simple_types@V?$basic_string@DU?$char_traits@D@std@@V?$allocator@D@2@@std@@@std@@@2@XZ 100ab810 f i MessageManager.obj
 0002:00054860       ?_Get_first@?$_Compressed_pair@U?$less@I@std@@V?$_Compressed_pair@V?$allocator@U?$_Tree_node@U?$pair@$$CBIVCDelegate@UTIL@NMBASE@@@std@@PAX@std@@@std@@V?$_Tree_val@U?$_Tree_simple_types@U?$pair@$$CBIVCDelegate@UTIL@NMBASE@@@std@@@std@@@2@$00@2@$00@std@@QAEAAU?$less@I@2@XZ 100ab860 f i MessageManager.obj
 0002:000548a0       ?_Get_first@?$_Compressed_pair@U?$less@I@std@@V?$_Compressed_pair@V?$allocator@U?$_Tree_node@U?$pair@$$CBIVCDelegate@UTIL@NMBASE@@@std@@PAX@std@@@std@@V?$_Tree_val@U?$_Tree_simple_types@U?$pair@$$CBIVCDelegate@UTIL@NMBASE@@@std@@@std@@@2@$00@2@$00@std@@QBEABU?$less@I@2@XZ 100ab8a0 f i MessageManager.obj
 0002:000548e0       ?_Get_first@?$_Compressed_pair@U?$less@V?$basic_string@DU?$char_traits@D@std@@V?$allocator@D@2@@std@@@std@@V?$_Compressed_pair@V?$allocator@U?$_Tree_node@U?$pair@$$CBV?$basic_string@DU?$char_traits@D@std@@V?$allocator@D@2@@std@@VCDelegate@UTIL@NMBASE@@@std@@PAX@std@@@std@@V?$_Tree_val@U?$_Tree_simple_types@U?$pair@$$CBV?$basic_string@DU?$char_traits@D@std@@V?$allocator@D@2@@std@@VCDelegate@UTIL@NMBASE@@@std@@@std@@@2@$00@2@$00@std@@QAEAAU?$less@V?$basic_string@DU?$char_traits@D@std@@V?$allocator@D@2@@std@@@2@XZ 100ab8e0 f i MessageManager.obj
 0002:00054920       ?_Get_first@?$_Compressed_pair@U?$less@V?$basic_string@DU?$char_traits@D@std@@V?$allocator@D@2@@std@@@std@@V?$_Compressed_pair@V?$allocator@U?$_Tree_node@U?$pair@$$CBV?$basic_string@DU?$char_traits@D@std@@V?$allocator@D@2@@std@@VCDelegate@UTIL@NMBASE@@@std@@PAX@std@@@std@@V?$_Tree_val@U?$_Tree_simple_types@U?$pair@$$CBV?$basic_string@DU?$char_traits@D@std@@V?$allocator@D@2@@std@@VCDelegate@UTIL@NMBASE@@@std@@@std@@@2@$00@2@$00@std@@QBEABU?$less@V?$basic_string@DU?$char_traits@D@std@@V?$allocator@D@2@@std@@@2@XZ 100ab920 f i MessageManager.obj
 0002:00054960       ?_Get_first@?$_Compressed_pair@V?$allocator@U?$_List_node@PAUIComponent@@PAX@std@@@std@@V?$_List_val@U?$_List_simple_types@PAUIComponent@@@std@@@2@$00@std@@QAEAAV?$allocator@U?$_List_node@PAUIComponent@@PAX@std@@@2@XZ 100ab960 f i MessageManager.obj
 0002:000549a0       ?_Get_first@?$_Compressed_pair@V?$allocator@U?$_List_node@PAUIComponent@@PAX@std@@@std@@V?$_List_val@U?$_List_simple_types@PAUIComponent@@@std@@@2@$00@std@@QBEABV?$allocator@U?$_List_node@PAUIComponent@@PAX@std@@@2@XZ 100ab9a0 f i MessageManager.obj
 0002:000549e0       ?_Get_first@?$_Compressed_pair@V?$allocator@U?$_Tree_node@U?$pair@$$CBIVCDelegate@UTIL@NMBASE@@@std@@PAX@std@@@std@@V?$_Tree_val@U?$_Tree_simple_types@U?$pair@$$CBIVCDelegate@UTIL@NMBASE@@@std@@@std@@@2@$00@std@@QAEAAV?$allocator@U?$_Tree_node@U?$pair@$$CBIVCDelegate@UTIL@NMBASE@@@std@@PAX@std@@@2@XZ 100ab9e0 f i MessageManager.obj
 0002:00054a20       ?_Get_first@?$_Compressed_pair@V?$allocator@U?$_Tree_node@U?$pair@$$CBIVCDelegate@UTIL@NMBASE@@@std@@PAX@std@@@std@@V?$_Tree_val@U?$_Tree_simple_types@U?$pair@$$CBIVCDelegate@UTIL@NMBASE@@@std@@@std@@@2@$00@std@@QBEABV?$allocator@U?$_Tree_node@U?$pair@$$CBIVCDelegate@UTIL@NMBASE@@@std@@PAX@std@@@2@XZ 100aba20 f i MessageManager.obj
 0002:00054a60       ?_Get_first@?$_Compressed_pair@V?$allocator@U?$_Tree_node@U?$pair@$$CBV?$basic_string@DU?$char_traits@D@std@@V?$allocator@D@2@@std@@VCDelegate@UTIL@NMBASE@@@std@@PAX@std@@@std@@V?$_Tree_val@U?$_Tree_simple_types@U?$pair@$$CBV?$basic_string@DU?$char_traits@D@std@@V?$allocator@D@2@@std@@VCDelegate@UTIL@NMBASE@@@std@@@std@@@2@$00@std@@QAEAAV?$allocator@U?$_Tree_node@U?$pair@$$CBV?$basic_string@DU?$char_traits@D@std@@V?$allocator@D@2@@std@@VCDelegate@UTIL@NMBASE@@@std@@PAX@std@@@2@XZ 100aba60 f i MessageManager.obj
 0002:00054aa0       ?_Get_first@?$_Compressed_pair@V?$allocator@U?$_Tree_node@U?$pair@$$CBV?$basic_string@DU?$char_traits@D@std@@V?$allocator@D@2@@std@@VCDelegate@UTIL@NMBASE@@@std@@PAX@std@@@std@@V?$_Tree_val@U?$_Tree_simple_types@U?$pair@$$CBV?$basic_string@DU?$char_traits@D@std@@V?$allocator@D@2@@std@@VCDelegate@UTIL@NMBASE@@@std@@@std@@@2@$00@std@@QBEABV?$allocator@U?$_Tree_node@U?$pair@$$CBV?$basic_string@DU?$char_traits@D@std@@V?$allocator@D@2@@std@@VCDelegate@UTIL@NMBASE@@@std@@PAX@std@@@2@XZ 100abaa0 f i MessageManager.obj
 0002:00054ae0       ?_Get_first@?$_Compressed_pair@V?$allocator@UPOSTMSG@CMessageManager@UTIL@NMBASE@@@std@@V?$_Deque_val@U?$_Deque_simple_types@UPOSTMSG@CMessageManager@UTIL@NMBASE@@@std@@@2@$00@std@@QAEAAV?$allocator@UPOSTMSG@CMessageManager@UTIL@NMBASE@@@2@XZ 100abae0 f i MessageManager.obj
 0002:00054b20       ?_Get_first@?$_Compressed_pair@V?$allocator@UPOSTMSG@CMessageManager@UTIL@NMBASE@@@std@@V?$_Deque_val@U?$_Deque_simple_types@UPOSTMSG@CMessageManager@UTIL@NMBASE@@@std@@@2@$00@std@@QBEABV?$allocator@UPOSTMSG@CMessageManager@UTIL@NMBASE@@@2@XZ 100abb20 f i MessageManager.obj
 0002:00054b60       ?_Get_first@?$_Compressed_pair@V?$allocator@V?$basic_string@DU?$char_traits@D@std@@V?$allocator@D@2@@std@@@std@@V?$_Vector_val@U?$_Simple_types@V?$basic_string@DU?$char_traits@D@std@@V?$allocator@D@2@@std@@@std@@@2@$00@std@@QAEAAV?$allocator@V?$basic_string@DU?$char_traits@D@std@@V?$allocator@D@2@@std@@@2@XZ 100abb60 f i MessageManager.obj
 0002:00054ba0       ?_Get_first@?$_Compressed_pair@V?$allocator@V?$basic_string@DU?$char_traits@D@std@@V?$allocator@D@2@@std@@@std@@V?$_Vector_val@U?$_Simple_types@V?$basic_string@DU?$char_traits@D@std@@V?$allocator@D@2@@std@@@std@@@2@$00@std@@QBEABV?$allocator@V?$basic_string@DU?$char_traits@D@std@@V?$allocator@D@2@@std@@@2@XZ 100abba0 f i MessageManager.obj
 0002:00054be0       ?_Get_second@?$_Compressed_pair@U?$less@I@std@@V?$_Compressed_pair@V?$allocator@U?$_Tree_node@U?$pair@$$CBIVCDelegate@UTIL@NMBASE@@@std@@PAX@std@@@std@@V?$_Tree_val@U?$_Tree_simple_types@U?$pair@$$CBIVCDelegate@UTIL@NMBASE@@@std@@@std@@@2@$00@2@$00@std@@QAEAAV?$_Compressed_pair@V?$allocator@U?$_Tree_node@U?$pair@$$CBIVCDelegate@UTIL@NMBASE@@@std@@PAX@std@@@std@@V?$_Tree_val@U?$_Tree_simple_types@U?$pair@$$CBIVCDelegate@UTIL@NMBASE@@@std@@@std@@@2@$00@2@XZ 100abbe0 f i MessageManager.obj
 0002:00054c20       ?_Get_second@?$_Compressed_pair@U?$less@I@std@@V?$_Compressed_pair@V?$allocator@U?$_Tree_node@U?$pair@$$CBIVCDelegate@UTIL@NMBASE@@@std@@PAX@std@@@std@@V?$_Tree_val@U?$_Tree_simple_types@U?$pair@$$CBIVCDelegate@UTIL@NMBASE@@@std@@@std@@@2@$00@2@$00@std@@QBEABV?$_Compressed_pair@V?$allocator@U?$_Tree_node@U?$pair@$$CBIVCDelegate@UTIL@NMBASE@@@std@@PAX@std@@@std@@V?$_Tree_val@U?$_Tree_simple_types@U?$pair@$$CBIVCDelegate@UTIL@NMBASE@@@std@@@std@@@2@$00@2@XZ 100abc20 f i MessageManager.obj
 0002:00054c60       ?_Get_second@?$_Compressed_pair@U?$less@V?$basic_string@DU?$char_traits@D@std@@V?$allocator@D@2@@std@@@std@@V?$_Compressed_pair@V?$allocator@U?$_Tree_node@U?$pair@$$CBV?$basic_string@DU?$char_traits@D@std@@V?$allocator@D@2@@std@@VCDelegate@UTIL@NMBASE@@@std@@PAX@std@@@std@@V?$_Tree_val@U?$_Tree_simple_types@U?$pair@$$CBV?$basic_string@DU?$char_traits@D@std@@V?$allocator@D@2@@std@@VCDelegate@UTIL@NMBASE@@@std@@@std@@@2@$00@2@$00@std@@QAEAAV?$_Compressed_pair@V?$allocator@U?$_Tree_node@U?$pair@$$CBV?$basic_string@DU?$char_traits@D@std@@V?$allocator@D@2@@std@@VCDelegate@UTIL@NMBASE@@@std@@PAX@std@@@std@@V?$_Tree_val@U?$_Tree_simple_types@U?$pair@$$CBV?$basic_string@DU?$char_traits@D@std@@V?$allocator@D@2@@std@@VCDelegate@UTIL@NMBASE@@@std@@@std@@@2@$00@2@XZ 100abc60 f i MessageManager.obj
 0002:00054ca0       ?_Get_second@?$_Compressed_pair@U?$less@V?$basic_string@DU?$char_traits@D@std@@V?$allocator@D@2@@std@@@std@@V?$_Compressed_pair@V?$allocator@U?$_Tree_node@U?$pair@$$CBV?$basic_string@DU?$char_traits@D@std@@V?$allocator@D@2@@std@@VCDelegate@UTIL@NMBASE@@@std@@PAX@std@@@std@@V?$_Tree_val@U?$_Tree_simple_types@U?$pair@$$CBV?$basic_string@DU?$char_traits@D@std@@V?$allocator@D@2@@std@@VCDelegate@UTIL@NMBASE@@@std@@@std@@@2@$00@2@$00@std@@QBEABV?$_Compressed_pair@V?$allocator@U?$_Tree_node@U?$pair@$$CBV?$basic_string@DU?$char_traits@D@std@@V?$allocator@D@2@@std@@VCDelegate@UTIL@NMBASE@@@std@@PAX@std@@@std@@V?$_Tree_val@U?$_Tree_simple_types@U?$pair@$$CBV?$basic_string@DU?$char_traits@D@std@@V?$allocator@D@2@@std@@VCDelegate@UTIL@NMBASE@@@std@@@std@@@2@$00@2@XZ 100abca0 f i MessageManager.obj
 0002:00054ce0       ?_Get_second@?$_Compressed_pair@V?$allocator@U?$_List_node@PAUIComponent@@PAX@std@@@std@@V?$_List_val@U?$_List_simple_types@PAUIComponent@@@std@@@2@$00@std@@QAEAAV?$_List_val@U?$_List_simple_types@PAUIComponent@@@std@@@2@XZ 100abce0 f i MessageManager.obj
 0002:00054d20       ?_Get_second@?$_Compressed_pair@V?$allocator@U?$_List_node@PAUIComponent@@PAX@std@@@std@@V?$_List_val@U?$_List_simple_types@PAUIComponent@@@std@@@2@$00@std@@QBEABV?$_List_val@U?$_List_simple_types@PAUIComponent@@@std@@@2@XZ 100abd20 f i MessageManager.obj
 0002:00054d60       ?_Get_second@?$_Compressed_pair@V?$allocator@U?$_Tree_node@U?$pair@$$CBIVCDelegate@UTIL@NMBASE@@@std@@PAX@std@@@std@@V?$_Tree_val@U?$_Tree_simple_types@U?$pair@$$CBIVCDelegate@UTIL@NMBASE@@@std@@@std@@@2@$00@std@@QAEAAV?$_Tree_val@U?$_Tree_simple_types@U?$pair@$$CBIVCDelegate@UTIL@NMBASE@@@std@@@std@@@2@XZ 100abd60 f i MessageManager.obj
 0002:00054da0       ?_Get_second@?$_Compressed_pair@V?$allocator@U?$_Tree_node@U?$pair@$$CBIVCDelegate@UTIL@NMBASE@@@std@@PAX@std@@@std@@V?$_Tree_val@U?$_Tree_simple_types@U?$pair@$$CBIVCDelegate@UTIL@NMBASE@@@std@@@std@@@2@$00@std@@QBEABV?$_Tree_val@U?$_Tree_simple_types@U?$pair@$$CBIVCDelegate@UTIL@NMBASE@@@std@@@std@@@2@XZ 100abda0 f i MessageManager.obj
 0002:00054de0       ?_Get_second@?$_Compressed_pair@V?$allocator@U?$_Tree_node@U?$pair@$$CBV?$basic_string@DU?$char_traits@D@std@@V?$allocator@D@2@@std@@VCDelegate@UTIL@NMBASE@@@std@@PAX@std@@@std@@V?$_Tree_val@U?$_Tree_simple_types@U?$pair@$$CBV?$basic_string@DU?$char_traits@D@std@@V?$allocator@D@2@@std@@VCDelegate@UTIL@NMBASE@@@std@@@std@@@2@$00@std@@QAEAAV?$_Tree_val@U?$_Tree_simple_types@U?$pair@$$CBV?$basic_string@DU?$char_traits@D@std@@V?$allocator@D@2@@std@@VCDelegate@UTIL@NMBASE@@@std@@@std@@@2@XZ 100abde0 f i MessageManager.obj
 0002:00054e20       ?_Get_second@?$_Compressed_pair@V?$allocator@U?$_Tree_node@U?$pair@$$CBV?$basic_string@DU?$char_traits@D@std@@V?$allocator@D@2@@std@@VCDelegate@UTIL@NMBASE@@@std@@PAX@std@@@std@@V?$_Tree_val@U?$_Tree_simple_types@U?$pair@$$CBV?$basic_string@DU?$char_traits@D@std@@V?$allocator@D@2@@std@@VCDelegate@UTIL@NMBASE@@@std@@@std@@@2@$00@std@@QBEABV?$_Tree_val@U?$_Tree_simple_types@U?$pair@$$CBV?$basic_string@DU?$char_traits@D@std@@V?$allocator@D@2@@std@@VCDelegate@UTIL@NMBASE@@@std@@@std@@@2@XZ 100abe20 f i MessageManager.obj
 0002:00054e60       ?_Get_second@?$_Compressed_pair@V?$allocator@UPOSTMSG@CMessageManager@UTIL@NMBASE@@@std@@V?$_Deque_val@U?$_Deque_simple_types@UPOSTMSG@CMessageManager@UTIL@NMBASE@@@std@@@2@$00@std@@QAEAAV?$_Deque_val@U?$_Deque_simple_types@UPOSTMSG@CMessageManager@UTIL@NMBASE@@@std@@@2@XZ 100abe60 f i MessageManager.obj
 0002:00054ea0       ?_Get_second@?$_Compressed_pair@V?$allocator@UPOSTMSG@CMessageManager@UTIL@NMBASE@@@std@@V?$_Deque_val@U?$_Deque_simple_types@UPOSTMSG@CMessageManager@UTIL@NMBASE@@@std@@@2@$00@std@@QBEABV?$_Deque_val@U?$_Deque_simple_types@UPOSTMSG@CMessageManager@UTIL@NMBASE@@@std@@@2@XZ 100abea0 f i MessageManager.obj
 0002:00054ee0       ?_Get_second@?$_Compressed_pair@V?$allocator@V?$basic_string@DU?$char_traits@D@std@@V?$allocator@D@2@@std@@@std@@V?$_Vector_val@U?$_Simple_types@V?$basic_string@DU?$char_traits@D@std@@V?$allocator@D@2@@std@@@std@@@2@$00@std@@QAEAAV?$_Vector_val@U?$_Simple_types@V?$basic_string@DU?$char_traits@D@std@@V?$allocator@D@2@@std@@@std@@@2@XZ 100abee0 f i MessageManager.obj
 0002:00054f20       ?_Get_second@?$_Compressed_pair@V?$allocator@V?$basic_string@DU?$char_traits@D@std@@V?$allocator@D@2@@std@@@std@@V?$_Vector_val@U?$_Simple_types@V?$basic_string@DU?$char_traits@D@std@@V?$allocator@D@2@@std@@@std@@@2@$00@std@@QBEABV?$_Vector_val@U?$_Simple_types@V?$basic_string@DU?$char_traits@D@std@@V?$allocator@D@2@@std@@@std@@@2@XZ 100abf20 f i MessageManager.obj
 0002:00054f60       ?_Getal@?$_Deque_alloc@U?$_Deque_base_types@UPOSTMSG@CMessageManager@UTIL@NMBASE@@V?$allocator@UPOSTMSG@CMessageManager@UTIL@NMBASE@@@std@@@std@@@std@@QAEAAV?$allocator@UPOSTMSG@CMessageManager@UTIL@NMBASE@@@2@XZ 100abf60 f i MessageManager.obj
 0002:00054fb0       ?_Getal@?$_Deque_alloc@U?$_Deque_base_types@UPOSTMSG@CMessageManager@UTIL@NMBASE@@V?$allocator@UPOSTMSG@CMessageManager@UTIL@NMBASE@@@std@@@std@@@std@@QBEABV?$allocator@UPOSTMSG@CMessageManager@UTIL@NMBASE@@@2@XZ 100abfb0 f i MessageManager.obj
 0002:00055000       ?_Getal@?$_List_alloc@U?$_List_base_types@PAUIComponent@@V?$allocator@PAUIComponent@@@std@@@std@@@std@@QAEAAV?$allocator@U?$_List_node@PAUIComponent@@PAX@std@@@2@XZ 100ac000 f i MessageManager.obj
 0002:00055050       ?_Getal@?$_List_alloc@U?$_List_base_types@PAUIComponent@@V?$allocator@PAUIComponent@@@std@@@std@@@std@@QBEABV?$allocator@U?$_List_node@PAUIComponent@@PAX@std@@@2@XZ 100ac050 f i MessageManager.obj
 0002:000550a0       ?_Getal@?$_Tree_comp_alloc@V?$_Tmap_traits@IVCDelegate@UTIL@NMBASE@@U?$less@I@std@@V?$allocator@U?$pair@$$CBIVCDelegate@UTIL@NMBASE@@@std@@@5@$0A@@std@@@std@@QAEAAV?$allocator@U?$_Tree_node@U?$pair@$$CBIVCDelegate@UTIL@NMBASE@@@std@@PAX@std@@@2@XZ 100ac0a0 f i MessageManager.obj
 0002:00055100       ?_Getal@?$_Tree_comp_alloc@V?$_Tmap_traits@IVCDelegate@UTIL@NMBASE@@U?$less@I@std@@V?$allocator@U?$pair@$$CBIVCDelegate@UTIL@NMBASE@@@std@@@5@$0A@@std@@@std@@QBEABV?$allocator@U?$_Tree_node@U?$pair@$$CBIVCDelegate@UTIL@NMBASE@@@std@@PAX@std@@@2@XZ 100ac100 f i MessageManager.obj
 0002:00055160       ?_Getal@?$_Tree_comp_alloc@V?$_Tmap_traits@V?$basic_string@DU?$char_traits@D@std@@V?$allocator@D@2@@std@@VCDelegate@UTIL@NMBASE@@U?$less@V?$basic_string@DU?$char_traits@D@std@@V?$allocator@D@2@@std@@@2@V?$allocator@U?$pair@$$CBV?$basic_string@DU?$char_traits@D@std@@V?$allocator@D@2@@std@@VCDelegate@UTIL@NMBASE@@@std@@@2@$0A@@std@@@std@@QAEAAV?$allocator@U?$_Tree_node@U?$pair@$$CBV?$basic_string@DU?$char_traits@D@std@@V?$allocator@D@2@@std@@VCDelegate@UTIL@NMBASE@@@std@@PAX@std@@@2@XZ 100ac160 f i MessageManager.obj
 0002:000551c0       ?_Getal@?$_Tree_comp_alloc@V?$_Tmap_traits@V?$basic_string@DU?$char_traits@D@std@@V?$allocator@D@2@@std@@VCDelegate@UTIL@NMBASE@@U?$less@V?$basic_string@DU?$char_traits@D@std@@V?$allocator@D@2@@std@@@2@V?$allocator@U?$pair@$$CBV?$basic_string@DU?$char_traits@D@std@@V?$allocator@D@2@@std@@VCDelegate@UTIL@NMBASE@@@std@@@2@$0A@@std@@@std@@QBEABV?$allocator@U?$_Tree_node@U?$pair@$$CBV?$basic_string@DU?$char_traits@D@std@@V?$allocator@D@2@@std@@VCDelegate@UTIL@NMBASE@@@std@@PAX@std@@@2@XZ 100ac1c0 f i MessageManager.obj
 0002:00055220       ?_Getal@?$_Vector_alloc@U?$_Vec_base_types@V?$basic_string@DU?$char_traits@D@std@@V?$allocator@D@2@@std@@V?$allocator@V?$basic_string@DU?$char_traits@D@std@@V?$allocator@D@2@@std@@@2@@std@@@std@@QAEAAV?$allocator@V?$basic_string@DU?$char_traits@D@std@@V?$allocator@D@2@@std@@@2@XZ 100ac220 f i MessageManager.obj
 0002:00055270       ?_Getal@?$_Vector_alloc@U?$_Vec_base_types@V?$basic_string@DU?$char_traits@D@std@@V?$allocator@D@2@@std@@V?$allocator@V?$basic_string@DU?$char_traits@D@std@@V?$allocator@D@2@@std@@@2@@std@@@std@@QBEABV?$allocator@V?$basic_string@DU?$char_traits@D@std@@V?$allocator@D@2@@std@@@2@XZ 100ac270 f i MessageManager.obj
 0002:000552c0       ?_Getblock@?$_Deque_alloc@U?$_Deque_base_types@UPOSTMSG@CMessageManager@UTIL@NMBASE@@V?$allocator@UPOSTMSG@CMessageManager@UTIL@NMBASE@@@std@@@std@@@std@@QBEII@Z 100ac2c0 f i MessageManager.obj
 0002:00055320       ?_Getblock@?$_Deque_val@U?$_Deque_simple_types@UPOSTMSG@CMessageManager@UTIL@NMBASE@@@std@@@std@@QBEII@Z 100ac320 f i MessageManager.obj
 0002:00055370       ?_Getcomp@?$_Tree_comp_alloc@V?$_Tmap_traits@IVCDelegate@UTIL@NMBASE@@U?$less@I@std@@V?$allocator@U?$pair@$$CBIVCDelegate@UTIL@NMBASE@@@std@@@5@$0A@@std@@@std@@QAEAAU?$less@I@2@XZ 100ac370 f i MessageManager.obj
 0002:000553c0       ?_Getcomp@?$_Tree_comp_alloc@V?$_Tmap_traits@IVCDelegate@UTIL@NMBASE@@U?$less@I@std@@V?$allocator@U?$pair@$$CBIVCDelegate@UTIL@NMBASE@@@std@@@5@$0A@@std@@@std@@QBEABU?$less@I@2@XZ 100ac3c0 f i MessageManager.obj
 0002:00055410       ?_Getcomp@?$_Tree_comp_alloc@V?$_Tmap_traits@V?$basic_string@DU?$char_traits@D@std@@V?$allocator@D@2@@std@@VCDelegate@UTIL@NMBASE@@U?$less@V?$basic_string@DU?$char_traits@D@std@@V?$allocator@D@2@@std@@@2@V?$allocator@U?$pair@$$CBV?$basic_string@DU?$char_traits@D@std@@V?$allocator@D@2@@std@@VCDelegate@UTIL@NMBASE@@@std@@@2@$0A@@std@@@std@@QAEAAU?$less@V?$basic_string@DU?$char_traits@D@std@@V?$allocator@D@2@@std@@@2@XZ 100ac410 f i MessageManager.obj
 0002:00055460       ?_Getcomp@?$_Tree_comp_alloc@V?$_Tmap_traits@V?$basic_string@DU?$char_traits@D@std@@V?$allocator@D@2@@std@@VCDelegate@UTIL@NMBASE@@U?$less@V?$basic_string@DU?$char_traits@D@std@@V?$allocator@D@2@@std@@@2@V?$allocator@U?$pair@$$CBV?$basic_string@DU?$char_traits@D@std@@V?$allocator@D@2@@std@@VCDelegate@UTIL@NMBASE@@@std@@@2@$0A@@std@@@std@@QBEABU?$less@V?$basic_string@DU?$char_traits@D@std@@V?$allocator@D@2@@std@@@2@XZ 100ac460 f i MessageManager.obj
 0002:000554b0       ?_Getpfirst@?$_Deque_alloc@U?$_Deque_base_types@UPOSTMSG@CMessageManager@UTIL@NMBASE@@V?$allocator@UPOSTMSG@CMessageManager@UTIL@NMBASE@@@std@@@std@@@std@@QBEPAPAU_Iterator_base12@2@XZ 100ac4b0 f i MessageManager.obj
 0002:00055510       ?_Getpfirst@?$_List_alloc@U?$_List_base_types@PAUIComponent@@V?$allocator@PAUIComponent@@@std@@@std@@@std@@QBEPAPAU_Iterator_base12@2@XZ 100ac510 f i MessageManager.obj
 0002:00055570       ?_Getpfirst@?$_Tree_comp_alloc@V?$_Tmap_traits@IVCDelegate@UTIL@NMBASE@@U?$less@I@std@@V?$allocator@U?$pair@$$CBIVCDelegate@UTIL@NMBASE@@@std@@@5@$0A@@std@@@std@@QBEPAPAU_Iterator_base12@2@XZ 100ac570 f i MessageManager.obj
 0002:000555d0       ?_Getpfirst@?$_Tree_comp_alloc@V?$_Tmap_traits@V?$basic_string@DU?$char_traits@D@std@@V?$allocator@D@2@@std@@VCDelegate@UTIL@NMBASE@@U?$less@V?$basic_string@DU?$char_traits@D@std@@V?$allocator@D@2@@std@@@2@V?$allocator@U?$pair@$$CBV?$basic_string@DU?$char_traits@D@std@@V?$allocator@D@2@@std@@VCDelegate@UTIL@NMBASE@@@std@@@2@$0A@@std@@@std@@QBEPAPAU_Iterator_base12@2@XZ 100ac5d0 f i MessageManager.obj
 0002:00055630       ?_Growmap@?$deque@UPOSTMSG@CMessageManager@UTIL@NMBASE@@V?$allocator@UPOSTMSG@CMessageManager@UTIL@NMBASE@@@std@@@std@@IAEXI@Z 100ac630 f i MessageManager.obj
 0002:000559b0       ?_Incsize@?$list@PAUIComponent@@V?$allocator@PAUIComponent@@@std@@@std@@QAEXI@Z 100ac9b0 f i MessageManager.obj
 0002:00055a50       ?_Key@?$_Tree@V?$_Tmap_traits@IVCDelegate@UTIL@NMBASE@@U?$less@I@std@@V?$allocator@U?$pair@$$CBIVCDelegate@UTIL@NMBASE@@@std@@@5@$0A@@std@@@std@@IBEABIPAU?$_Tree_node@U?$pair@$$CBIVCDelegate@UTIL@NMBASE@@@std@@PAX@2@@Z 100aca50 f i MessageManager.obj
 0002:00055ab0       ?_Key@?$_Tree@V?$_Tmap_traits@V?$basic_string@DU?$char_traits@D@std@@V?$allocator@D@2@@std@@VCDelegate@UTIL@NMBASE@@U?$less@V?$basic_string@DU?$char_traits@D@std@@V?$allocator@D@2@@std@@@2@V?$allocator@U?$pair@$$CBV?$basic_string@DU?$char_traits@D@std@@V?$allocator@D@2@@std@@VCDelegate@UTIL@NMBASE@@@std@@@2@$0A@@std@@@std@@IBEABV?$basic_string@DU?$char_traits@D@std@@V?$allocator@D@2@@2@PAU?$_Tree_node@U?$pair@$$CBV?$basic_string@DU?$char_traits@D@std@@V?$allocator@D@2@@std@@VCDelegate@UTIL@NMBASE@@@std@@PAX@2@@Z 100acab0 f i MessageManager.obj
 0002:00055b10       ?_Kfn@?$_Tree@V?$_Tmap_traits@IVCDelegate@UTIL@NMBASE@@U?$less@I@std@@V?$allocator@U?$pair@$$CBIVCDelegate@UTIL@NMBASE@@@std@@@5@$0A@@std@@@std@@IBEABIABU?$pair@$$CBIVCDelegate@UTIL@NMBASE@@@2@@Z 100acb10 f i MessageManager.obj
 0002:00055b70       ?_Kfn@?$_Tree@V?$_Tmap_traits@V?$basic_string@DU?$char_traits@D@std@@V?$allocator@D@2@@std@@VCDelegate@UTIL@NMBASE@@U?$less@V?$basic_string@DU?$char_traits@D@std@@V?$allocator@D@2@@std@@@2@V?$allocator@U?$pair@$$CBV?$basic_string@DU?$char_traits@D@std@@V?$allocator@D@2@@std@@VCDelegate@UTIL@NMBASE@@@std@@@2@$0A@@std@@@std@@IBEABV?$basic_string@DU?$char_traits@D@std@@V?$allocator@D@2@@2@ABU?$pair@$$CBV?$basic_string@DU?$char_traits@D@std@@V?$allocator@D@2@@std@@VCDelegate@UTIL@NMBASE@@@2@@Z 100acb70 f i MessageManager.obj
 0002:00055bd0       ?_Lmost@?$_Tree_val@U?$_Tree_simple_types@U?$pair@$$CBIVCDelegate@UTIL@NMBASE@@@std@@@std@@@std@@QBEAAPAU?$_Tree_node@U?$pair@$$CBIVCDelegate@UTIL@NMBASE@@@std@@PAX@2@XZ 100acbd0 f i MessageManager.obj
 0002:00055c10       ?_Lmost@?$_Tree_val@U?$_Tree_simple_types@U?$pair@$$CBV?$basic_string@DU?$char_traits@D@std@@V?$allocator@D@2@@std@@VCDelegate@UTIL@NMBASE@@@std@@@std@@@std@@QBEAAPAU?$_Tree_node@U?$pair@$$CBV?$basic_string@DU?$char_traits@D@std@@V?$allocator@D@2@@std@@VCDelegate@UTIL@NMBASE@@@std@@PAX@2@XZ 100acc10 f i MessageManager.obj
 0002:00055c50       ?_Lrotate@?$_Tree_val@U?$_Tree_simple_types@U?$pair@$$CBIVCDelegate@UTIL@NMBASE@@@std@@@std@@@std@@QAEXPAU?$_Tree_node@U?$pair@$$CBIVCDelegate@UTIL@NMBASE@@@std@@PAX@2@@Z 100acc50 f i MessageManager.obj
 0002:00055d40       ?_Lrotate@?$_Tree_val@U?$_Tree_simple_types@U?$pair@$$CBV?$basic_string@DU?$char_traits@D@std@@V?$allocator@D@2@@std@@VCDelegate@UTIL@NMBASE@@@std@@@std@@@std@@QAEXPAU?$_Tree_node@U?$pair@$$CBV?$basic_string@DU?$char_traits@D@std@@V?$allocator@D@2@@std@@VCDelegate@UTIL@NMBASE@@@std@@PAX@2@@Z 100acd40 f i MessageManager.obj
 0002:00055e30       ?_Make_iter@?$deque@UPOSTMSG@CMessageManager@UTIL@NMBASE@@V?$allocator@UPOSTMSG@CMessageManager@UTIL@NMBASE@@@std@@@std@@QBE?AV?$_Deque_iterator@V?$_Deque_val@U?$_Deque_simple_types@UPOSTMSG@CMessageManager@UTIL@NMBASE@@@std@@@std@@@2@V?$_Deque_const_iterator@V?$_Deque_val@U?$_Deque_simple_types@UPOSTMSG@CMessageManager@UTIL@NMBASE@@@std@@@std@@@2@@Z 100ace30 f i MessageManager.obj
 0002:00055f10       ?_Make_iter@?$list@PAUIComponent@@V?$allocator@PAUIComponent@@@std@@@std@@QBE?AV?$_List_iterator@V?$_List_val@U?$_List_simple_types@PAUIComponent@@@std@@@std@@@2@V?$_List_const_iterator@V?$_List_val@U?$_List_simple_types@PAUIComponent@@@std@@@std@@@2@@Z 100acf10 f i MessageManager.obj
 0002:00055fc0       ?_Map@?$_Deque_alloc@U?$_Deque_base_types@UPOSTMSG@CMessageManager@UTIL@NMBASE@@V?$allocator@UPOSTMSG@CMessageManager@UTIL@NMBASE@@@std@@@std@@@std@@QAEAAPAPAUPOSTMSG@CMessageManager@UTIL@NMBASE@@XZ 100acfc0 f i MessageManager.obj
 0002:00056020       ?_Mapsize@?$_Deque_alloc@U?$_Deque_base_types@UPOSTMSG@CMessageManager@UTIL@NMBASE@@V?$allocator@UPOSTMSG@CMessageManager@UTIL@NMBASE@@@std@@@std@@@std@@QAEAAIXZ 100ad020 f i MessageManager.obj
 0002:00056080       ?_Max@?$_Tree_val@U?$_Tree_simple_types@U?$pair@$$CBIVCDelegate@UTIL@NMBASE@@@std@@@std@@@std@@SAPAU?$_Tree_node@U?$pair@$$CBIVCDelegate@UTIL@NMBASE@@@std@@PAX@2@PAU32@@Z 100ad080 f i MessageManager.obj
 0002:000560e0       ?_Max@?$_Tree_val@U?$_Tree_simple_types@U?$pair@$$CBV?$basic_string@DU?$char_traits@D@std@@V?$allocator@D@2@@std@@VCDelegate@UTIL@NMBASE@@@std@@@std@@@std@@SAPAU?$_Tree_node@U?$pair@$$CBV?$basic_string@DU?$char_traits@D@std@@V?$allocator@D@2@@std@@VCDelegate@UTIL@NMBASE@@@std@@PAX@2@PAU32@@Z 100ad0e0 f i MessageManager.obj
 0002:00056140       ?_Min@?$_Tree_val@U?$_Tree_simple_types@U?$pair@$$CBIVCDelegate@UTIL@NMBASE@@@std@@@std@@@std@@SAPAU?$_Tree_node@U?$pair@$$CBIVCDelegate@UTIL@NMBASE@@@std@@PAX@2@PAU32@@Z 100ad140 f i MessageManager.obj
 0002:00056190       ?_Min@?$_Tree_val@U?$_Tree_simple_types@U?$pair@$$CBV?$basic_string@DU?$char_traits@D@std@@V?$allocator@D@2@@std@@VCDelegate@UTIL@NMBASE@@@std@@@std@@@std@@SAPAU?$_Tree_node@U?$pair@$$CBV?$basic_string@DU?$char_traits@D@std@@V?$allocator@D@2@@std@@VCDelegate@UTIL@NMBASE@@@std@@PAX@2@PAU32@@Z 100ad190 f i MessageManager.obj
 0002:000561e0       ?_Move_alloc@?$_String_alloc@U?$_String_base_types@DV?$allocator@D@std@@@std@@@std@@QAEXAAV?$allocator@D@2@@Z 100ad1e0 f i MessageManager.obj
 0002:000562c0       ?_Myend@?$_Vector_alloc@U?$_Vec_base_types@V?$basic_string@DU?$char_traits@D@std@@V?$allocator@D@2@@std@@V?$allocator@V?$basic_string@DU?$char_traits@D@std@@V?$allocator@D@2@@std@@@2@@std@@@std@@QAEAAPAV?$basic_string@DU?$char_traits@D@std@@V?$allocator@D@2@@2@XZ 100ad2c0 f i MessageManager.obj
 0002:00056320       ?_Myend@?$_Vector_alloc@U?$_Vec_base_types@V?$basic_string@DU?$char_traits@D@std@@V?$allocator@D@2@@std@@V?$allocator@V?$basic_string@DU?$char_traits@D@std@@V?$allocator@D@2@@std@@@2@@std@@@std@@QBEABQAV?$basic_string@DU?$char_traits@D@std@@V?$allocator@D@2@@2@XZ 100ad320 f i MessageManager.obj
 0002:00056380       ?_Myfirst@?$_Vector_alloc@U?$_Vec_base_types@V?$basic_string@DU?$char_traits@D@std@@V?$allocator@D@2@@std@@V?$allocator@V?$basic_string@DU?$char_traits@D@std@@V?$allocator@D@2@@std@@@2@@std@@@std@@QAEAAPAV?$basic_string@DU?$char_traits@D@std@@V?$allocator@D@2@@2@XZ 100ad380 f i MessageManager.obj
 0002:000563e0       ?_Myfirst@?$_Vector_alloc@U?$_Vec_base_types@V?$basic_string@DU?$char_traits@D@std@@V?$allocator@D@2@@std@@V?$allocator@V?$basic_string@DU?$char_traits@D@std@@V?$allocator@D@2@@std@@@2@@std@@@std@@QBEABQAV?$basic_string@DU?$char_traits@D@std@@V?$allocator@D@2@@2@XZ 100ad3e0 f i MessageManager.obj
 0002:00056440       ?_Myhead@?$_List_alloc@U?$_List_base_types@PAUIComponent@@V?$allocator@PAUIComponent@@@std@@@std@@@std@@QAEAAPAU?$_List_node@PAUIComponent@@PAX@2@XZ 100ad440 f i MessageManager.obj
 0002:000564a0       ?_Myhead@?$_List_alloc@U?$_List_base_types@PAUIComponent@@V?$allocator@PAUIComponent@@@std@@@std@@@std@@QBEABQAU?$_List_node@PAUIComponent@@PAX@2@XZ 100ad4a0 f i MessageManager.obj
 0002:00056500       ?_Mylast@?$_Vector_alloc@U?$_Vec_base_types@V?$basic_string@DU?$char_traits@D@std@@V?$allocator@D@2@@std@@V?$allocator@V?$basic_string@DU?$char_traits@D@std@@V?$allocator@D@2@@std@@@2@@std@@@std@@QAEAAPAV?$basic_string@DU?$char_traits@D@std@@V?$allocator@D@2@@2@XZ 100ad500 f i MessageManager.obj
 0002:00056560       ?_Myoff@?$_Deque_alloc@U?$_Deque_base_types@UPOSTMSG@CMessageManager@UTIL@NMBASE@@V?$allocator@UPOSTMSG@CMessageManager@UTIL@NMBASE@@@std@@@std@@@std@@QAEAAIXZ 100ad560 f i MessageManager.obj
 0002:000565c0       ?_Myoff@?$_Deque_alloc@U?$_Deque_base_types@UPOSTMSG@CMessageManager@UTIL@NMBASE@@V?$allocator@UPOSTMSG@CMessageManager@UTIL@NMBASE@@@std@@@std@@@std@@QBEABIXZ 100ad5c0 f i MessageManager.obj
 0002:00056620       ?_Myproxy@?$_Deque_alloc@U?$_Deque_base_types@UPOSTMSG@CMessageManager@UTIL@NMBASE@@V?$allocator@UPOSTMSG@CMessageManager@UTIL@NMBASE@@@std@@@std@@@std@@QAEAAPAU_Container_proxy@2@XZ 100ad620 f i MessageManager.obj
 0002:00056670       ?_Myproxy@?$_List_alloc@U?$_List_base_types@PAUIComponent@@V?$allocator@PAUIComponent@@@std@@@std@@@std@@QAEAAPAU_Container_proxy@2@XZ 100ad670 f i MessageManager.obj
 0002:000566c0       ?_Myproxy@?$_Tree_comp_alloc@V?$_Tmap_traits@IVCDelegate@UTIL@NMBASE@@U?$less@I@std@@V?$allocator@U?$pair@$$CBIVCDelegate@UTIL@NMBASE@@@std@@@5@$0A@@std@@@std@@QAEAAPAU_Container_proxy@2@XZ 100ad6c0 f i MessageManager.obj
 0002:00056710       ?_Myproxy@?$_Tree_comp_alloc@V?$_Tmap_traits@V?$basic_string@DU?$char_traits@D@std@@V?$allocator@D@2@@std@@VCDelegate@UTIL@NMBASE@@U?$less@V?$basic_string@DU?$char_traits@D@std@@V?$allocator@D@2@@std@@@2@V?$allocator@U?$pair@$$CBV?$basic_string@DU?$char_traits@D@std@@V?$allocator@D@2@@std@@VCDelegate@UTIL@NMBASE@@@std@@@2@$0A@@std@@@std@@QAEAAPAU_Container_proxy@2@XZ 100ad710 f i MessageManager.obj
 0002:00056760       ?_Myproxy@?$_Vector_alloc@U?$_Vec_base_types@V?$basic_string@DU?$char_traits@D@std@@V?$allocator@D@2@@std@@V?$allocator@V?$basic_string@DU?$char_traits@D@std@@V?$allocator@D@2@@std@@@2@@std@@@std@@QAEAAPAU_Container_proxy@2@XZ 100ad760 f i MessageManager.obj
 0002:000567b0       ?_Mysize@?$_Deque_alloc@U?$_Deque_base_types@UPOSTMSG@CMessageManager@UTIL@NMBASE@@V?$allocator@UPOSTMSG@CMessageManager@UTIL@NMBASE@@@std@@@std@@@std@@QAEAAIXZ 100ad7b0 f i MessageManager.obj
 0002:00056810       ?_Mysize@?$_Deque_alloc@U?$_Deque_base_types@UPOSTMSG@CMessageManager@UTIL@NMBASE@@V?$allocator@UPOSTMSG@CMessageManager@UTIL@NMBASE@@@std@@@std@@@std@@QBEABIXZ 100ad810 f i MessageManager.obj
 0002:00056870       ?_Mysize@?$_List_alloc@U?$_List_base_types@PAUIComponent@@V?$allocator@PAUIComponent@@@std@@@std@@@std@@QAEAAIXZ 100ad870 f i MessageManager.obj
 0002:000568d0       ?_Mysize@?$_List_alloc@U?$_List_base_types@PAUIComponent@@V?$allocator@PAUIComponent@@@std@@@std@@@std@@QBEABIXZ 100ad8d0 f i MessageManager.obj
 0002:00056930       ?_Orphan_all@?$_Deque_alloc@U?$_Deque_base_types@UPOSTMSG@CMessageManager@UTIL@NMBASE@@V?$allocator@UPOSTMSG@CMessageManager@UTIL@NMBASE@@@std@@@std@@@std@@QAEXXZ 100ad930 f i MessageManager.obj
 0002:00056990       ?_Orphan_all@?$_List_alloc@U?$_List_base_types@PAUIComponent@@V?$allocator@PAUIComponent@@@std@@@std@@@std@@QAEXXZ 100ad990 f i MessageManager.obj
 0002:000569f0       ?_Orphan_all@?$_Tree_comp_alloc@V?$_Tmap_traits@IVCDelegate@UTIL@NMBASE@@U?$less@I@std@@V?$allocator@U?$pair@$$CBIVCDelegate@UTIL@NMBASE@@@std@@@5@$0A@@std@@@std@@QAEXXZ 100ad9f0 f i MessageManager.obj
 0002:00056a50       ?_Orphan_all@?$_Tree_comp_alloc@V?$_Tmap_traits@V?$basic_string@DU?$char_traits@D@std@@V?$allocator@D@2@@std@@VCDelegate@UTIL@NMBASE@@U?$less@V?$basic_string@DU?$char_traits@D@std@@V?$allocator@D@2@@std@@@2@V?$allocator@U?$pair@$$CBV?$basic_string@DU?$char_traits@D@std@@V?$allocator@D@2@@std@@VCDelegate@UTIL@NMBASE@@@std@@@2@$0A@@std@@@std@@QAEXXZ 100ada50 f i MessageManager.obj
 0002:00056ab0       ?_Orphan_all@?$_Vector_alloc@U?$_Vec_base_types@V?$basic_string@DU?$char_traits@D@std@@V?$allocator@D@2@@std@@V?$allocator@V?$basic_string@DU?$char_traits@D@std@@V?$allocator@D@2@@std@@@2@@std@@@std@@QAEXXZ 100adab0 f i MessageManager.obj
 0002:00056b10       ?_Orphan_off@?$deque@UPOSTMSG@CMessageManager@UTIL@NMBASE@@V?$allocator@UPOSTMSG@CMessageManager@UTIL@NMBASE@@@std@@@std@@IBEXI@Z 100adb10 f i MessageManager.obj
 0002:00056cf0       ?_Orphan_ptr@?$_Tree@V?$_Tmap_traits@IVCDelegate@UTIL@NMBASE@@U?$less@I@std@@V?$allocator@U?$pair@$$CBIVCDelegate@UTIL@NMBASE@@@std@@@5@$0A@@std@@@std@@IAEXPAU?$_Tree_node@U?$pair@$$CBIVCDelegate@UTIL@NMBASE@@@std@@PAX@2@@Z 100adcf0 f i MessageManager.obj
 0002:00056e70       ?_Orphan_ptr@?$_Tree@V?$_Tmap_traits@V?$basic_string@DU?$char_traits@D@std@@V?$allocator@D@2@@std@@VCDelegate@UTIL@NMBASE@@U?$less@V?$basic_string@DU?$char_traits@D@std@@V?$allocator@D@2@@std@@@2@V?$allocator@U?$pair@$$CBV?$basic_string@DU?$char_traits@D@std@@V?$allocator@D@2@@std@@VCDelegate@UTIL@NMBASE@@@std@@@2@$0A@@std@@@std@@IAEXPAU?$_Tree_node@U?$pair@$$CBV?$basic_string@DU?$char_traits@D@std@@V?$allocator@D@2@@std@@VCDelegate@UTIL@NMBASE@@@std@@PAX@2@@Z 100ade70 f i MessageManager.obj
 0002:00056ff0       ?_Orphan_ptr@?$list@PAUIComponent@@V?$allocator@PAUIComponent@@@std@@@std@@QAEXPAU?$_List_node@PAUIComponent@@PAX@2@@Z 100adff0 f i MessageManager.obj
 0002:00057170       ?_Release@?$_Uninitialized_backout_al@PAV?$basic_string@DU?$char_traits@D@std@@V?$allocator@D@2@@std@@V?$allocator@V?$basic_string@DU?$char_traits@D@std@@V?$allocator@D@2@@std@@@2@@std@@QAEPAV?$basic_string@DU?$char_traits@D@std@@V?$allocator@D@2@@2@XZ 100ae170 f i MessageManager.obj
 0002:000571c0       ?_Rmost@?$_Tree_val@U?$_Tree_simple_types@U?$pair@$$CBIVCDelegate@UTIL@NMBASE@@@std@@@std@@@std@@QBEAAPAU?$_Tree_node@U?$pair@$$CBIVCDelegate@UTIL@NMBASE@@@std@@PAX@2@XZ 100ae1c0 f i MessageManager.obj
 0002:00057200       ?_Rmost@?$_Tree_val@U?$_Tree_simple_types@U?$pair@$$CBV?$basic_string@DU?$char_traits@D@std@@V?$allocator@D@2@@std@@VCDelegate@UTIL@NMBASE@@@std@@@std@@@std@@QBEAAPAU?$_Tree_node@U?$pair@$$CBV?$basic_string@DU?$char_traits@D@std@@V?$allocator@D@2@@std@@VCDelegate@UTIL@NMBASE@@@std@@PAX@2@XZ 100ae200 f i MessageManager.obj
 0002:00057240       ?_Root@?$_Tree_val@U?$_Tree_simple_types@U?$pair@$$CBIVCDelegate@UTIL@NMBASE@@@std@@@std@@@std@@QBEAAPAU?$_Tree_node@U?$pair@$$CBIVCDelegate@UTIL@NMBASE@@@std@@PAX@2@XZ 100ae240 f i MessageManager.obj
 0002:00057280       ?_Root@?$_Tree_val@U?$_Tree_simple_types@U?$pair@$$CBV?$basic_string@DU?$char_traits@D@std@@V?$allocator@D@2@@std@@VCDelegate@UTIL@NMBASE@@@std@@@std@@@std@@QBEAAPAU?$_Tree_node@U?$pair@$$CBV?$basic_string@DU?$char_traits@D@std@@V?$allocator@D@2@@std@@VCDelegate@UTIL@NMBASE@@@std@@PAX@2@XZ 100ae280 f i MessageManager.obj
 0002:000572c0       ?_Rrotate@?$_Tree_val@U?$_Tree_simple_types@U?$pair@$$CBIVCDelegate@UTIL@NMBASE@@@std@@@std@@@std@@QAEXPAU?$_Tree_node@U?$pair@$$CBIVCDelegate@UTIL@NMBASE@@@std@@PAX@2@@Z 100ae2c0 f i MessageManager.obj
 0002:000573b0       ?_Rrotate@?$_Tree_val@U?$_Tree_simple_types@U?$pair@$$CBV?$basic_string@DU?$char_traits@D@std@@V?$allocator@D@2@@std@@VCDelegate@UTIL@NMBASE@@@std@@@std@@@std@@QAEXPAU?$_Tree_node@U?$pair@$$CBV?$basic_string@DU?$char_traits@D@std@@V?$allocator@D@2@@std@@VCDelegate@UTIL@NMBASE@@@std@@PAX@2@@Z 100ae3b0 f i MessageManager.obj
 0002:000574a0       ?_Seek_to@?$_Deque_const_iterator@V?$_Deque_val@U?$_Deque_simple_types@UPOSTMSG@CMessageManager@UTIL@NMBASE@@@std@@@std@@@std@@QAEXABV?$_Deque_unchecked_const_iterator@V?$_Deque_val@U?$_Deque_simple_types@UPOSTMSG@CMessageManager@UTIL@NMBASE@@@std@@@std@@@2@@Z 100ae4a0 f i MessageManager.obj
 0002:000574f0       ?_Seek_to@?$_List_const_iterator@V?$_List_val@U?$_List_simple_types@PAUIComponent@@@std@@@std@@@std@@QAEXV?$_List_unchecked_const_iterator@V?$_List_val@U?$_List_simple_types@PAUIComponent@@@std@@@std@@U_Iterator_base0@2@@2@@Z 100ae4f0 f i MessageManager.obj
 0002:00057540       ?_Setcont@?$_Deque_const_iterator@V?$_Deque_val@U?$_Deque_simple_types@UPOSTMSG@CMessageManager@UTIL@NMBASE@@@std@@@std@@@std@@QAEXPBV?$_Deque_val@U?$_Deque_simple_types@UPOSTMSG@CMessageManager@UTIL@NMBASE@@@std@@@2@@Z 100ae540 f i MessageManager.obj
 0002:000575a0       ?_Swap_all@?$_String_alloc@U?$_String_base_types@DV?$allocator@D@std@@@std@@@std@@QAEXAAV12@@Z 100ae5a0 f i MessageManager.obj
 0002:00057610       ?_Swap_data@?$basic_string@DU?$char_traits@D@std@@V?$allocator@D@2@@std@@QAEXAAV12@U?$integral_constant@_N$00@2@@Z 100ae610 f i MessageManager.obj
 0002:00057730       ?_Tidy@?$_Tree@V?$_Tmap_traits@IVCDelegate@UTIL@NMBASE@@U?$less@I@std@@V?$allocator@U?$pair@$$CBIVCDelegate@UTIL@NMBASE@@@std@@@5@$0A@@std@@@std@@IAEXXZ 100ae730 f i MessageManager.obj
 0002:000578a0       ?_Tidy@?$_Tree@V?$_Tmap_traits@V?$basic_string@DU?$char_traits@D@std@@V?$allocator@D@2@@std@@VCDelegate@UTIL@NMBASE@@U?$less@V?$basic_string@DU?$char_traits@D@std@@V?$allocator@D@2@@std@@@2@V?$allocator@U?$pair@$$CBV?$basic_string@DU?$char_traits@D@std@@V?$allocator@D@2@@std@@VCDelegate@UTIL@NMBASE@@@std@@@2@$0A@@std@@@std@@IAEXXZ 100ae8a0 f i MessageManager.obj
 0002:00057a10       ?_Tidy@?$deque@UPOSTMSG@CMessageManager@UTIL@NMBASE@@V?$allocator@UPOSTMSG@CMessageManager@UTIL@NMBASE@@@std@@@std@@IAEXXZ 100aea10 f i MessageManager.obj
 0002:00057bc0       ?_Tidy@?$list@PAUIComponent@@V?$allocator@PAUIComponent@@@std@@@std@@QAEXXZ 100aebc0 f i MessageManager.obj
 0002:00057c10       ?_Tidy@?$vector@V?$basic_string@DU?$char_traits@D@std@@V?$allocator@D@2@@std@@V?$allocator@V?$basic_string@DU?$char_traits@D@std@@V?$allocator@D@2@@std@@@2@@std@@AAEXXZ 100aec10 f i MessageManager.obj
 0002:00057d00       ?_Udefault@?$vector@V?$basic_string@DU?$char_traits@D@std@@V?$allocator@D@2@@std@@V?$allocator@V?$basic_string@DU?$char_traits@D@std@@V?$allocator@D@2@@std@@@2@@std@@AAEPAV?$basic_string@DU?$char_traits@D@std@@V?$allocator@D@2@@2@PAV32@I@Z 100aed00 f i MessageManager.obj
 0002:00057d70       ?_Unchecked_end@?$list@PAUIComponent@@V?$allocator@PAUIComponent@@@std@@@std@@QAE?AV?$_List_unchecked_iterator@V?$_List_val@U?$_List_simple_types@PAUIComponent@@@std@@@std@@@2@XZ 100aed70 f i MessageManager.obj
 0002:00057de0       ?_Unlinknode@?$list@PAUIComponent@@V?$allocator@PAUIComponent@@@std@@@std@@QAEPAU?$_List_node@PAUIComponent@@PAX@2@V?$_List_const_iterator@V?$_List_val@U?$_List_simple_types@PAUIComponent@@@std@@@std@@@2@@Z 100aede0 f i MessageManager.obj
 0002:00057fa0       ?_Unwrapped@?$_Deque_const_iterator@V?$_Deque_val@U?$_Deque_simple_types@UPOSTMSG@CMessageManager@UTIL@NMBASE@@@std@@@std@@@std@@QBE?AV?$_Deque_unchecked_const_iterator@V?$_Deque_val@U?$_Deque_simple_types@UPOSTMSG@CMessageManager@UTIL@NMBASE@@@std@@@std@@@2@XZ 100aefa0 f i MessageManager.obj
 0002:00058030       ?_Unwrapped@?$_Deque_iterator@V?$_Deque_val@U?$_Deque_simple_types@UPOSTMSG@CMessageManager@UTIL@NMBASE@@@std@@@std@@@std@@QBE?AV?$_Deque_unchecked_iterator@V?$_Deque_val@U?$_Deque_simple_types@UPOSTMSG@CMessageManager@UTIL@NMBASE@@@std@@@std@@@2@XZ 100af030 f i MessageManager.obj
 0002:000580c0       ?_Unwrapped@?$_List_iterator@V?$_List_val@U?$_List_simple_types@PAUIComponent@@@std@@@std@@@std@@QBE?AV?$_List_unchecked_iterator@V?$_List_val@U?$_List_simple_types@PAUIComponent@@@std@@@std@@@2@XZ 100af0c0 f i MessageManager.obj
 0002:00058130       ?_Unwrapped@?$_Vector_iterator@V?$_Vector_val@U?$_Simple_types@V?$basic_string@DU?$char_traits@D@std@@V?$allocator@D@2@@std@@@std@@@std@@@std@@QBEPAV?$basic_string@DU?$char_traits@D@std@@V?$allocator@D@2@@2@XZ 100af130 f i MessageManager.obj
 0002:00058170       ?_Verify_offset@?$_Deque_const_iterator@V?$_Deque_val@U?$_Deque_simple_types@UPOSTMSG@CMessageManager@UTIL@NMBASE@@@std@@@std@@@std@@QBEXH@Z 100af170 f i MessageManager.obj
 0002:00058310       ?_Verify_range@std@@YAXABV?$_Deque_const_iterator@V?$_Deque_val@U?$_Deque_simple_types@UPOSTMSG@CMessageManager@UTIL@NMBASE@@@std@@@std@@@1@0@Z 100af310 f i MessageManager.obj
 0002:000583e0       ?_Verify_range@std@@YAXABV?$_List_const_iterator@V?$_List_val@U?$_List_simple_types@PAUIComponent@@@std@@@std@@@1@0@Z 100af3e0 f i MessageManager.obj
 0002:000584c0       ?_Verify_range@std@@YAXABV?$_Vector_const_iterator@V?$_Vector_val@U?$_Simple_types@V?$basic_string@DU?$char_traits@D@std@@V?$allocator@D@2@@std@@@std@@@std@@@1@0@Z 100af4c0 f i MessageManager.obj
 0002:00058620       ?_Xlen@?$deque@UPOSTMSG@CMessageManager@UTIL@NMBASE@@V?$allocator@UPOSTMSG@CMessageManager@UTIL@NMBASE@@@std@@@std@@IBEXXZ 100af620 f i MessageManager.obj
 0002:00058680       ?_Xlength@?$vector@V?$basic_string@DU?$char_traits@D@std@@V?$allocator@D@2@@std@@V?$allocator@V?$basic_string@DU?$char_traits@D@std@@V?$allocator@D@2@@std@@@2@@std@@CAXXZ 100af680 f i MessageManager.obj
 0002:000586d0       ?allocate@?$allocator@PAUPOSTMSG@CMessageManager@UTIL@NMBASE@@@std@@QAEPAPAUPOSTMSG@CMessageManager@UTIL@NMBASE@@I@Z 100af6d0 f i MessageManager.obj
 0002:00058740       ?allocate@?$allocator@U?$_List_node@PAUIComponent@@PAX@std@@@std@@QAEPAU?$_List_node@PAUIComponent@@PAX@2@I@Z 100af740 f i MessageManager.obj
 0002:000587b0       ?allocate@?$allocator@U?$_Tree_node@U?$pair@$$CBIVCDelegate@UTIL@NMBASE@@@std@@PAX@std@@@std@@QAEPAU?$_Tree_node@U?$pair@$$CBIVCDelegate@UTIL@NMBASE@@@std@@PAX@2@I@Z 100af7b0 f i MessageManager.obj
 0002:00058820       ?allocate@?$allocator@U?$_Tree_node@U?$pair@$$CBV?$basic_string@DU?$char_traits@D@std@@V?$allocator@D@2@@std@@VCDelegate@UTIL@NMBASE@@@std@@PAX@std@@@std@@QAEPAU?$_Tree_node@U?$pair@$$CBV?$basic_string@DU?$char_traits@D@std@@V?$allocator@D@2@@std@@VCDelegate@UTIL@NMBASE@@@std@@PAX@2@I@Z 100af820 f i MessageManager.obj
 0002:00058890       ?allocate@?$allocator@UPOSTMSG@CMessageManager@UTIL@NMBASE@@@std@@QAEPAUPOSTMSG@CMessageManager@UTIL@NMBASE@@I@Z 100af890 f i MessageManager.obj
 0002:00058900       ?allocate@?$allocator@V?$basic_string@DU?$char_traits@D@std@@V?$allocator@D@2@@std@@@std@@QAEPAV?$basic_string@DU?$char_traits@D@std@@V?$allocator@D@2@@2@I@Z 100af900 f i MessageManager.obj
 0002:00058970       ?begin@?$_Tree@V?$_Tmap_traits@IVCDelegate@UTIL@NMBASE@@U?$less@I@std@@V?$allocator@U?$pair@$$CBIVCDelegate@UTIL@NMBASE@@@std@@@5@$0A@@std@@@std@@QAE?AV?$_Tree_iterator@V?$_Tree_val@U?$_Tree_simple_types@U?$pair@$$CBIVCDelegate@UTIL@NMBASE@@@std@@@std@@@std@@@2@XZ 100af970 f i MessageManager.obj
 0002:00058a30       ?begin@?$_Tree@V?$_Tmap_traits@V?$basic_string@DU?$char_traits@D@std@@V?$allocator@D@2@@std@@VCDelegate@UTIL@NMBASE@@U?$less@V?$basic_string@DU?$char_traits@D@std@@V?$allocator@D@2@@std@@@2@V?$allocator@U?$pair@$$CBV?$basic_string@DU?$char_traits@D@std@@V?$allocator@D@2@@std@@VCDelegate@UTIL@NMBASE@@@std@@@2@$0A@@std@@@std@@QAE?AV?$_Tree_iterator@V?$_Tree_val@U?$_Tree_simple_types@U?$pair@$$CBV?$basic_string@DU?$char_traits@D@std@@V?$allocator@D@2@@std@@VCDelegate@UTIL@NMBASE@@@std@@@std@@@std@@@2@XZ 100afa30 f i MessageManager.obj
 0002:00058af0       ?begin@?$deque@UPOSTMSG@CMessageManager@UTIL@NMBASE@@V?$allocator@UPOSTMSG@CMessageManager@UTIL@NMBASE@@@std@@@std@@QAE?AV?$_Deque_iterator@V?$_Deque_val@U?$_Deque_simple_types@UPOSTMSG@CMessageManager@UTIL@NMBASE@@@std@@@std@@@2@XZ 100afaf0 f i MessageManager.obj
 0002:00058ba0       ?begin@?$deque@UPOSTMSG@CMessageManager@UTIL@NMBASE@@V?$allocator@UPOSTMSG@CMessageManager@UTIL@NMBASE@@@std@@@std@@QBE?AV?$_Deque_const_iterator@V?$_Deque_val@U?$_Deque_simple_types@UPOSTMSG@CMessageManager@UTIL@NMBASE@@@std@@@std@@@2@XZ 100afba0 f i MessageManager.obj
 0002:00058c50       ?begin@?$list@PAUIComponent@@V?$allocator@PAUIComponent@@@std@@@std@@QAE?AV?$_List_iterator@V?$_List_val@U?$_List_simple_types@PAUIComponent@@@std@@@std@@@2@XZ 100afc50 f i MessageManager.obj
 0002:00058d00       ?begin@?$list@PAUIComponent@@V?$allocator@PAUIComponent@@@std@@@std@@QBE?AV?$_List_const_iterator@V?$_List_val@U?$_List_simple_types@PAUIComponent@@@std@@@std@@@2@XZ 100afd00 f i MessageManager.obj
 0002:00058db0       ?begin@?$vector@V?$basic_string@DU?$char_traits@D@std@@V?$allocator@D@2@@std@@V?$allocator@V?$basic_string@DU?$char_traits@D@std@@V?$allocator@D@2@@std@@@2@@std@@QAE?AV?$_Vector_iterator@V?$_Vector_val@U?$_Simple_types@V?$basic_string@DU?$char_traits@D@std@@V?$allocator@D@2@@std@@@std@@@std@@@2@XZ 100afdb0 f i MessageManager.obj
 0002:00058e60       ?capacity@?$vector@V?$basic_string@DU?$char_traits@D@std@@V?$allocator@D@2@@std@@V?$allocator@V?$basic_string@DU?$char_traits@D@std@@V?$allocator@D@2@@std@@@2@@std@@QBEIXZ 100afe60 f i MessageManager.obj
 0002:00058ed0       ?clear@?$_Tree@V?$_Tmap_traits@IVCDelegate@UTIL@NMBASE@@U?$less@I@std@@V?$allocator@U?$pair@$$CBIVCDelegate@UTIL@NMBASE@@@std@@@5@$0A@@std@@@std@@QAEXXZ 100afed0 f i MessageManager.obj
 0002:00058fd0       ?clear@?$_Tree@V?$_Tmap_traits@V?$basic_string@DU?$char_traits@D@std@@V?$allocator@D@2@@std@@VCDelegate@UTIL@NMBASE@@U?$less@V?$basic_string@DU?$char_traits@D@std@@V?$allocator@D@2@@std@@@2@V?$allocator@U?$pair@$$CBV?$basic_string@DU?$char_traits@D@std@@V?$allocator@D@2@@std@@VCDelegate@UTIL@NMBASE@@@std@@@2@$0A@@std@@@std@@QAEXXZ 100affd0 f i MessageManager.obj
 0002:000590d0       ?clear@?$deque@UPOSTMSG@CMessageManager@UTIL@NMBASE@@V?$allocator@UPOSTMSG@CMessageManager@UTIL@NMBASE@@@std@@@std@@QAEXXZ 100b00d0 f i MessageManager.obj
 0002:00059160       ?clear@?$list@PAUIComponent@@V?$allocator@PAUIComponent@@@std@@@std@@QAEXXZ 100b0160 f i MessageManager.obj
 0002:00059280       ?deallocate@?$_Default_allocator_traits@V?$allocator@U?$_List_node@PAUIComponent@@PAX@std@@@std@@@std@@SAXAAV?$allocator@U?$_List_node@PAUIComponent@@PAX@std@@@2@QAU?$_List_node@PAUIComponent@@PAX@2@I@Z 100b0280 f i MessageManager.obj
 0002:000592e0       ?deallocate@?$_Default_allocator_traits@V?$allocator@U?$_Tree_node@U?$pair@$$CBIVCDelegate@UTIL@NMBASE@@@std@@PAX@std@@@std@@@std@@SAXAAV?$allocator@U?$_Tree_node@U?$pair@$$CBIVCDelegate@UTIL@NMBASE@@@std@@PAX@std@@@2@QAU?$_Tree_node@U?$pair@$$CBIVCDelegate@UTIL@NMBASE@@@std@@PAX@2@I@Z 100b02e0 f i MessageManager.obj
 0002:00059340       ?deallocate@?$_Default_allocator_traits@V?$allocator@U?$_Tree_node@U?$pair@$$CBV?$basic_string@DU?$char_traits@D@std@@V?$allocator@D@2@@std@@VCDelegate@UTIL@NMBASE@@@std@@PAX@std@@@std@@@std@@SAXAAV?$allocator@U?$_Tree_node@U?$pair@$$CBV?$basic_string@DU?$char_traits@D@std@@V?$allocator@D@2@@std@@VCDelegate@UTIL@NMBASE@@@std@@PAX@std@@@2@QAU?$_Tree_node@U?$pair@$$CBV?$basic_string@DU?$char_traits@D@std@@V?$allocator@D@2@@std@@VCDelegate@UTIL@NMBASE@@@std@@PAX@2@I@Z 100b0340 f i MessageManager.obj
 0002:000593a0       ?deallocate@?$allocator@PAUPOSTMSG@CMessageManager@UTIL@NMBASE@@@std@@QAEXQAPAUPOSTMSG@CMessageManager@UTIL@NMBASE@@I@Z 100b03a0 f i MessageManager.obj
 0002:00059400       ?deallocate@?$allocator@U?$_List_node@PAUIComponent@@PAX@std@@@std@@QAEXQAU?$_List_node@PAUIComponent@@PAX@2@I@Z 100b0400 f i MessageManager.obj
 0002:00059460       ?deallocate@?$allocator@U?$_Tree_node@U?$pair@$$CBIVCDelegate@UTIL@NMBASE@@@std@@PAX@std@@@std@@QAEXQAU?$_Tree_node@U?$pair@$$CBIVCDelegate@UTIL@NMBASE@@@std@@PAX@2@I@Z 100b0460 f i MessageManager.obj
 0002:000594c0       ?deallocate@?$allocator@U?$_Tree_node@U?$pair@$$CBV?$basic_string@DU?$char_traits@D@std@@V?$allocator@D@2@@std@@VCDelegate@UTIL@NMBASE@@@std@@PAX@std@@@std@@QAEXQAU?$_Tree_node@U?$pair@$$CBV?$basic_string@DU?$char_traits@D@std@@V?$allocator@D@2@@std@@VCDelegate@UTIL@NMBASE@@@std@@PAX@2@I@Z 100b04c0 f i MessageManager.obj
 0002:00059520       ?deallocate@?$allocator@UPOSTMSG@CMessageManager@UTIL@NMBASE@@@std@@QAEXQAUPOSTMSG@CMessageManager@UTIL@NMBASE@@I@Z 100b0520 f i MessageManager.obj
 0002:00059580       ?deallocate@?$allocator@V?$basic_string@DU?$char_traits@D@std@@V?$allocator@D@2@@std@@@std@@QAEXQAV?$basic_string@DU?$char_traits@D@std@@V?$allocator@D@2@@2@I@Z 100b0580 f i MessageManager.obj
 0002:000595e0       ?empty@?$deque@UPOSTMSG@CMessageManager@UTIL@NMBASE@@V?$allocator@UPOSTMSG@CMessageManager@UTIL@NMBASE@@@std@@@std@@QBE_NXZ 100b05e0 f i MessageManager.obj
 0002:00059660       ?empty@?$list@PAUIComponent@@V?$allocator@PAUIComponent@@@std@@@std@@QBE_NXZ 100b0660 f i MessageManager.obj
 0002:000596e0       ?end@?$_Tree@V?$_Tmap_traits@IVCDelegate@UTIL@NMBASE@@U?$less@I@std@@V?$allocator@U?$pair@$$CBIVCDelegate@UTIL@NMBASE@@@std@@@5@$0A@@std@@@std@@QAE?AV?$_Tree_iterator@V?$_Tree_val@U?$_Tree_simple_types@U?$pair@$$CBIVCDelegate@UTIL@NMBASE@@@std@@@std@@@std@@@2@XZ 100b06e0 f i MessageManager.obj
 0002:00059790       ?end@?$_Tree@V?$_Tmap_traits@V?$basic_string@DU?$char_traits@D@std@@V?$allocator@D@2@@std@@VCDelegate@UTIL@NMBASE@@U?$less@V?$basic_string@DU?$char_traits@D@std@@V?$allocator@D@2@@std@@@2@V?$allocator@U?$pair@$$CBV?$basic_string@DU?$char_traits@D@std@@V?$allocator@D@2@@std@@VCDelegate@UTIL@NMBASE@@@std@@@2@$0A@@std@@@std@@QAE?AV?$_Tree_iterator@V?$_Tree_val@U?$_Tree_simple_types@U?$pair@$$CBV?$basic_string@DU?$char_traits@D@std@@V?$allocator@D@2@@std@@VCDelegate@UTIL@NMBASE@@@std@@@std@@@std@@@2@XZ 100b0790 f i MessageManager.obj
 0002:00059840       ?end@?$deque@UPOSTMSG@CMessageManager@UTIL@NMBASE@@V?$allocator@UPOSTMSG@CMessageManager@UTIL@NMBASE@@@std@@@std@@QAE?AV?$_Deque_iterator@V?$_Deque_val@U?$_Deque_simple_types@UPOSTMSG@CMessageManager@UTIL@NMBASE@@@std@@@std@@@2@XZ 100b0840 f i MessageManager.obj
 0002:00059900       ?end@?$deque@UPOSTMSG@CMessageManager@UTIL@NMBASE@@V?$allocator@UPOSTMSG@CMessageManager@UTIL@NMBASE@@@std@@@std@@QBE?AV?$_Deque_const_iterator@V?$_Deque_val@U?$_Deque_simple_types@UPOSTMSG@CMessageManager@UTIL@NMBASE@@@std@@@std@@@2@XZ 100b0900 f i MessageManager.obj
 0002:000599c0       ?end@?$list@PAUIComponent@@V?$allocator@PAUIComponent@@@std@@@std@@QAE?AV?$_List_iterator@V?$_List_val@U?$_List_simple_types@PAUIComponent@@@std@@@std@@@2@XZ 100b09c0 f i MessageManager.obj
 0002:00059a70       ?end@?$list@PAUIComponent@@V?$allocator@PAUIComponent@@@std@@@std@@QBE?AV?$_List_const_iterator@V?$_List_val@U?$_List_simple_types@PAUIComponent@@@std@@@std@@@2@XZ 100b0a70 f i MessageManager.obj
 0002:00059b20       ?end@?$vector@V?$basic_string@DU?$char_traits@D@std@@V?$allocator@D@2@@std@@V?$allocator@V?$basic_string@DU?$char_traits@D@std@@V?$allocator@D@2@@std@@@2@@std@@QAE?AV?$_Vector_iterator@V?$_Vector_val@U?$_Simple_types@V?$basic_string@DU?$char_traits@D@std@@V?$allocator@D@2@@std@@@std@@@std@@@2@XZ 100b0b20 f i MessageManager.obj
 0002:00059bd0       ?erase@?$_Tree@V?$_Tmap_traits@IVCDelegate@UTIL@NMBASE@@U?$less@I@std@@V?$allocator@U?$pair@$$CBIVCDelegate@UTIL@NMBASE@@@std@@@5@$0A@@std@@@std@@QAE?AV?$_Tree_iterator@V?$_Tree_val@U?$_Tree_simple_types@U?$pair@$$CBIVCDelegate@UTIL@NMBASE@@@std@@@std@@@std@@@2@V?$_Tree_const_iterator@V?$_Tree_val@U?$_Tree_simple_types@U?$pair@$$CBIVCDelegate@UTIL@NMBASE@@@std@@@std@@@std@@@2@0@Z 100b0bd0 f i MessageManager.obj
 0002:00059ef0       ?erase@?$_Tree@V?$_Tmap_traits@IVCDelegate@UTIL@NMBASE@@U?$less@I@std@@V?$allocator@U?$pair@$$CBIVCDelegate@UTIL@NMBASE@@@std@@@5@$0A@@std@@@std@@QAE?AV?$_Tree_iterator@V?$_Tree_val@U?$_Tree_simple_types@U?$pair@$$CBIVCDelegate@UTIL@NMBASE@@@std@@@std@@@std@@@2@V?$_Tree_const_iterator@V?$_Tree_val@U?$_Tree_simple_types@U?$pair@$$CBIVCDelegate@UTIL@NMBASE@@@std@@@std@@@std@@@2@@Z 100b0ef0 f i MessageManager.obj
 0002:0005a180       ?erase@?$_Tree@V?$_Tmap_traits@V?$basic_string@DU?$char_traits@D@std@@V?$allocator@D@2@@std@@VCDelegate@UTIL@NMBASE@@U?$less@V?$basic_string@DU?$char_traits@D@std@@V?$allocator@D@2@@std@@@2@V?$allocator@U?$pair@$$CBV?$basic_string@DU?$char_traits@D@std@@V?$allocator@D@2@@std@@VCDelegate@UTIL@NMBASE@@@std@@@2@$0A@@std@@@std@@QAE?AV?$_Tree_iterator@V?$_Tree_val@U?$_Tree_simple_types@U?$pair@$$CBV?$basic_string@DU?$char_traits@D@std@@V?$allocator@D@2@@std@@VCDelegate@UTIL@NMBASE@@@std@@@std@@@std@@@2@V?$_Tree_const_iterator@V?$_Tree_val@U?$_Tree_simple_types@U?$pair@$$CBV?$basic_string@DU?$char_traits@D@std@@V?$allocator@D@2@@std@@VCDelegate@UTIL@NMBASE@@@std@@@std@@@std@@@2@0@Z 100b1180 f i MessageManager.obj
 0002:0005a4a0       ?erase@?$_Tree@V?$_Tmap_traits@V?$basic_string@DU?$char_traits@D@std@@V?$allocator@D@2@@std@@VCDelegate@UTIL@NMBASE@@U?$less@V?$basic_string@DU?$char_traits@D@std@@V?$allocator@D@2@@std@@@2@V?$allocator@U?$pair@$$CBV?$basic_string@DU?$char_traits@D@std@@V?$allocator@D@2@@std@@VCDelegate@UTIL@NMBASE@@@std@@@2@$0A@@std@@@std@@QAE?AV?$_Tree_iterator@V?$_Tree_val@U?$_Tree_simple_types@U?$pair@$$CBV?$basic_string@DU?$char_traits@D@std@@V?$allocator@D@2@@std@@VCDelegate@UTIL@NMBASE@@@std@@@std@@@std@@@2@V?$_Tree_const_iterator@V?$_Tree_val@U?$_Tree_simple_types@U?$pair@$$CBV?$basic_string@DU?$char_traits@D@std@@V?$allocator@D@2@@std@@VCDelegate@UTIL@NMBASE@@@std@@@std@@@std@@@2@@Z 100b14a0 f i MessageManager.obj
 0002:0005a730       ?erase@?$deque@UPOSTMSG@CMessageManager@UTIL@NMBASE@@V?$allocator@UPOSTMSG@CMessageManager@UTIL@NMBASE@@@std@@@std@@QAE?AV?$_Deque_iterator@V?$_Deque_val@U?$_Deque_simple_types@UPOSTMSG@CMessageManager@UTIL@NMBASE@@@std@@@std@@@2@V?$_Deque_const_iterator@V?$_Deque_val@U?$_Deque_simple_types@UPOSTMSG@CMessageManager@UTIL@NMBASE@@@std@@@std@@@2@0@Z 100b1730 f i MessageManager.obj
 0002:0005adb0       ?erase@?$list@PAUIComponent@@V?$allocator@PAUIComponent@@@std@@@std@@QAE?AV?$_List_iterator@V?$_List_val@U?$_List_simple_types@PAUIComponent@@@std@@@std@@@2@V?$_List_const_iterator@V?$_List_val@U?$_List_simple_types@PAUIComponent@@@std@@@std@@@2@0@Z 100b1db0 f i MessageManager.obj
 0002:0005b100       ?erase@?$list@PAUIComponent@@V?$allocator@PAUIComponent@@@std@@@std@@QAE?AV?$_List_iterator@V?$_List_val@U?$_List_simple_types@PAUIComponent@@@std@@@std@@@2@V?$_List_const_iterator@V?$_List_val@U?$_List_simple_types@PAUIComponent@@@std@@@std@@@2@@Z 100b2100 f i MessageManager.obj
 0002:0005b240       ?find@?$_Tree@V?$_Tmap_traits@IVCDelegate@UTIL@NMBASE@@U?$less@I@std@@V?$allocator@U?$pair@$$CBIVCDelegate@UTIL@NMBASE@@@std@@@5@$0A@@std@@@std@@QAE?AV?$_Tree_iterator@V?$_Tree_val@U?$_Tree_simple_types@U?$pair@$$CBIVCDelegate@UTIL@NMBASE@@@std@@@std@@@std@@@2@ABI@Z 100b2240 f i MessageManager.obj
 0002:0005b4f0       ?find@?$_Tree@V?$_Tmap_traits@V?$basic_string@DU?$char_traits@D@std@@V?$allocator@D@2@@std@@VCDelegate@UTIL@NMBASE@@U?$less@V?$basic_string@DU?$char_traits@D@std@@V?$allocator@D@2@@std@@@2@V?$allocator@U?$pair@$$CBV?$basic_string@DU?$char_traits@D@std@@V?$allocator@D@2@@std@@VCDelegate@UTIL@NMBASE@@@std@@@2@$0A@@std@@@std@@QAE?AV?$_Tree_iterator@V?$_Tree_val@U?$_Tree_simple_types@U?$pair@$$CBV?$basic_string@DU?$char_traits@D@std@@V?$allocator@D@2@@std@@VCDelegate@UTIL@NMBASE@@@std@@@std@@@std@@@2@ABV?$basic_string@DU?$char_traits@D@std@@V?$allocator@D@2@@2@@Z 100b24f0 f i MessageManager.obj
 0002:0005b7a0       ?front@?$deque@UPOSTMSG@CMessageManager@UTIL@NMBASE@@V?$allocator@UPOSTMSG@CMessageManager@UTIL@NMBASE@@@std@@@std@@QAEAAUPOSTMSG@CMessageManager@UTIL@NMBASE@@XZ 100b27a0 f i MessageManager.obj
 0002:0005b880       ?lower_bound@?$_Tree@V?$_Tmap_traits@IVCDelegate@UTIL@NMBASE@@U?$less@I@std@@V?$allocator@U?$pair@$$CBIVCDelegate@UTIL@NMBASE@@@std@@@5@$0A@@std@@@std@@QAE?AV?$_Tree_iterator@V?$_Tree_val@U?$_Tree_simple_types@U?$pair@$$CBIVCDelegate@UTIL@NMBASE@@@std@@@std@@@std@@@2@ABI@Z 100b2880 f i MessageManager.obj
 0002:0005b920       ?lower_bound@?$_Tree@V?$_Tmap_traits@V?$basic_string@DU?$char_traits@D@std@@V?$allocator@D@2@@std@@VCDelegate@UTIL@NMBASE@@U?$less@V?$basic_string@DU?$char_traits@D@std@@V?$allocator@D@2@@std@@@2@V?$allocator@U?$pair@$$CBV?$basic_string@DU?$char_traits@D@std@@V?$allocator@D@2@@std@@VCDelegate@UTIL@NMBASE@@@std@@@2@$0A@@std@@@std@@QAE?AV?$_Tree_iterator@V?$_Tree_val@U?$_Tree_simple_types@U?$pair@$$CBV?$basic_string@DU?$char_traits@D@std@@V?$allocator@D@2@@std@@VCDelegate@UTIL@NMBASE@@@std@@@std@@@std@@@2@ABV?$basic_string@DU?$char_traits@D@std@@V?$allocator@D@2@@2@@Z 100b2920 f i MessageManager.obj
 0002:0005b9c0       ?max_size@?$_Default_allocator_traits@V?$allocator@U?$_List_node@PAUIComponent@@PAX@std@@@std@@@std@@SAIABV?$allocator@U?$_List_node@PAUIComponent@@PAX@std@@@2@@Z 100b29c0 f i MessageManager.obj
 0002:0005ba00       ?max_size@?$_Default_allocator_traits@V?$allocator@U?$_Tree_node@U?$pair@$$CBIVCDelegate@UTIL@NMBASE@@@std@@PAX@std@@@std@@@std@@SAIABV?$allocator@U?$_Tree_node@U?$pair@$$CBIVCDelegate@UTIL@NMBASE@@@std@@PAX@std@@@2@@Z 100b2a00 f i MessageManager.obj
 0002:0005ba40       ?max_size@?$_Default_allocator_traits@V?$allocator@U?$_Tree_node@U?$pair@$$CBV?$basic_string@DU?$char_traits@D@std@@V?$allocator@D@2@@std@@VCDelegate@UTIL@NMBASE@@@std@@PAX@std@@@std@@@std@@SAIABV?$allocator@U?$_Tree_node@U?$pair@$$CBV?$basic_string@DU?$char_traits@D@std@@V?$allocator@D@2@@std@@VCDelegate@UTIL@NMBASE@@@std@@PAX@std@@@2@@Z 100b2a40 f i MessageManager.obj
 0002:0005ba80       ?max_size@?$_Default_allocator_traits@V?$allocator@UPOSTMSG@CMessageManager@UTIL@NMBASE@@@std@@@std@@SAIABV?$allocator@UPOSTMSG@CMessageManager@UTIL@NMBASE@@@2@@Z 100b2a80 f i MessageManager.obj
 0002:0005bac0       ?max_size@?$_Default_allocator_traits@V?$allocator@V?$basic_string@DU?$char_traits@D@std@@V?$allocator@D@2@@std@@@std@@@std@@SAIABV?$allocator@V?$basic_string@DU?$char_traits@D@std@@V?$allocator@D@2@@std@@@2@@Z 100b2ac0 f i MessageManager.obj
 0002:0005bb00       ?max_size@?$_Tree@V?$_Tmap_traits@IVCDelegate@UTIL@NMBASE@@U?$less@I@std@@V?$allocator@U?$pair@$$CBIVCDelegate@UTIL@NMBASE@@@std@@@5@$0A@@std@@@std@@QBEIXZ 100b2b00 f i MessageManager.obj
 0002:0005bb60       ?max_size@?$_Tree@V?$_Tmap_traits@V?$basic_string@DU?$char_traits@D@std@@V?$allocator@D@2@@std@@VCDelegate@UTIL@NMBASE@@U?$less@V?$basic_string@DU?$char_traits@D@std@@V?$allocator@D@2@@std@@@2@V?$allocator@U?$pair@$$CBV?$basic_string@DU?$char_traits@D@std@@V?$allocator@D@2@@std@@VCDelegate@UTIL@NMBASE@@@std@@@2@$0A@@std@@@std@@QBEIXZ 100b2b60 f i MessageManager.obj
 0002:0005bbc0       ?max_size@?$deque@UPOSTMSG@CMessageManager@UTIL@NMBASE@@V?$allocator@UPOSTMSG@CMessageManager@UTIL@NMBASE@@@std@@@std@@QBEIXZ 100b2bc0 f i MessageManager.obj
 0002:0005bc20       ?max_size@?$list@PAUIComponent@@V?$allocator@PAUIComponent@@@std@@@std@@QBEIXZ 100b2c20 f i MessageManager.obj
 0002:0005bc80       ?max_size@?$vector@V?$basic_string@DU?$char_traits@D@std@@V?$allocator@D@2@@std@@V?$allocator@V?$basic_string@DU?$char_traits@D@std@@V?$allocator@D@2@@std@@@2@@std@@QBEIXZ 100b2c80 f i MessageManager.obj
 0002:0005bd10       ?pointer_to@?$pointer_traits@PAU?$pair@$$CBIVCDelegate@UTIL@NMBASE@@@std@@@std@@SAPAU?$pair@$$CBIVCDelegate@UTIL@NMBASE@@@2@AAU32@@Z 100b2d10 f i MessageManager.obj
 0002:0005bd60       ?pointer_to@?$pointer_traits@PAU?$pair@$$CBV?$basic_string@DU?$char_traits@D@std@@V?$allocator@D@2@@std@@VCDelegate@UTIL@NMBASE@@@std@@@std@@SAPAU?$pair@$$CBV?$basic_string@DU?$char_traits@D@std@@V?$allocator@D@2@@std@@VCDelegate@UTIL@NMBASE@@@2@AAU32@@Z 100b2d60 f i MessageManager.obj
 0002:0005bdb0       ?pop_back@?$deque@UPOSTMSG@CMessageManager@UTIL@NMBASE@@V?$allocator@UPOSTMSG@CMessageManager@UTIL@NMBASE@@@std@@@std@@QAEXXZ 100b2db0 f i MessageManager.obj
 0002:0005bf60       ?pop_front@?$deque@UPOSTMSG@CMessageManager@UTIL@NMBASE@@V?$allocator@UPOSTMSG@CMessageManager@UTIL@NMBASE@@@std@@@std@@QAEXXZ 100b2f60 f i MessageManager.obj
 0002:0005c130       ?push_back@?$deque@UPOSTMSG@CMessageManager@UTIL@NMBASE@@V?$allocator@UPOSTMSG@CMessageManager@UTIL@NMBASE@@@std@@@std@@QAEXABUPOSTMSG@CMessageManager@UTIL@NMBASE@@@Z 100b3130 f i MessageManager.obj
 0002:0005c300       ?push_back@?$list@PAUIComponent@@V?$allocator@PAUIComponent@@@std@@@std@@QAEXABQAUIComponent@@@Z 100b3300 f i MessageManager.obj
 0002:0005c380       ?push_front@?$deque@UPOSTMSG@CMessageManager@UTIL@NMBASE@@V?$allocator@UPOSTMSG@CMessageManager@UTIL@NMBASE@@@std@@@std@@QAEXABUPOSTMSG@CMessageManager@UTIL@NMBASE@@@Z 100b3380 f i MessageManager.obj
 0002:0005c580       ?size@?$_Tree@V?$_Tmap_traits@IVCDelegate@UTIL@NMBASE@@U?$less@I@std@@V?$allocator@U?$pair@$$CBIVCDelegate@UTIL@NMBASE@@@std@@@5@$0A@@std@@@std@@QBEIXZ 100b3580 f i MessageManager.obj
 0002:0005c5e0       ?size@?$_Tree@V?$_Tmap_traits@V?$basic_string@DU?$char_traits@D@std@@V?$allocator@D@2@@std@@VCDelegate@UTIL@NMBASE@@U?$less@V?$basic_string@DU?$char_traits@D@std@@V?$allocator@D@2@@std@@@2@V?$allocator@U?$pair@$$CBV?$basic_string@DU?$char_traits@D@std@@V?$allocator@D@2@@std@@VCDelegate@UTIL@NMBASE@@@std@@@2@$0A@@std@@@std@@QBEIXZ 100b35e0 f i MessageManager.obj
 0002:0005c640       ?size@?$deque@UPOSTMSG@CMessageManager@UTIL@NMBASE@@V?$allocator@UPOSTMSG@CMessageManager@UTIL@NMBASE@@@std@@@std@@QBEIXZ 100b3640 f i MessageManager.obj
 0002:0005c6a0       ?swap@?$basic_string@DU?$char_traits@D@std@@V?$allocator@D@2@@std@@QAEXAAV12@@Z 100b36a0 f i MessageManager.obj
 0002:0005c800       __vfprintf_l               100b3800 f i MessageManager.obj
 0002:0005c880       _printf                    100b3880 f i MessageManager.obj
 0002:0005c910       ??0CDesktopIconMan@UTIL@NMBASE@@QAE@ABV012@@Z 100b3910 f i DesktopIconMan.obj
 0002:0005c970       ??0CDesktopIconMan@UTIL@NMBASE@@QAE@XZ 100b3970 f   DesktopIconMan.obj
 0002:0005c9c0       ??0CRegKey@ATL@@QAE@PAVCAtlTransactionManager@1@@Z 100b39c0 f i DesktopIconMan.obj
 0002:0005ca20       ??1CDesktopIconMan@UTIL@NMBASE@@UAE@XZ 100b3a20 f   DesktopIconMan.obj
 0002:0005ca60       ??1CRegKey@ATL@@QAE@XZ     100b3a60 f i DesktopIconMan.obj
 0002:0005cab0       ??4?$basic_string@DU?$char_traits@D@std@@V?$allocator@D@2@@std@@QAEAAV01@QBD@Z 100b3ab0 f i DesktopIconMan.obj
 0002:0005cb10       ??4CDesktopIconMan@UTIL@NMBASE@@QAEAAV012@ABV012@@Z 100b3b10 f i DesktopIconMan.obj
 0002:0005cb60       ??_ECDesktopIconMan@UTIL@NMBASE@@UAEPAXI@Z 100b3b60 f i DesktopIconMan.obj
 0002:0005cc70       ??_GCDesktopIconMan@UTIL@NMBASE@@UAEPAXI@Z 100b3c70 f i DesktopIconMan.obj
 0002:0005cce0       ?CheckSetVersion@CDesktopIconMan@UTIL@NMBASE@@QAEHPBDH@Z 100b3ce0 f   DesktopIconMan.obj
 0002:0005d110       ?Close@CRegKey@ATL@@QAEJXZ 100b4110 f i DesktopIconMan.obj
 0002:0005d1b0       ?Copy@CDesktopIconMan@UTIL@NMBASE@@IAEXPBD00@Z 100b41b0 f   DesktopIconMan.obj
 0002:0005d760       ?MakeIcon@CDesktopIconMan@UTIL@NMBASE@@QAEHV?$CStringT@DV?$StrTraitMFC_DLL@DV?$ChTraitsCRT@D@ATL@@@@@ATL@@00PBDH@Z 100b4760 f   DesktopIconMan.obj
 0002:0005daf0       ?MakeIconFile@CDesktopIconMan@UTIL@NMBASE@@IAEXW4ENUM_SCUT_SITE@23@@Z 100b4af0 f   DesktopIconMan.obj
 0002:0005dc70       ?Open@CRegKey@ATL@@QAEJPAUHKEY__@@PBDK@Z 100b4c70 f i DesktopIconMan.obj
 0002:0005de40       ?QueryStringValue@CRegKey@ATL@@QAEJPBDPADPAK@Z 100b4e40 f i DesktopIconMan.obj
 0002:0005e050       ?RegOpenKeyExA@CAtlTransactionManager@ATL@@QAEJPAUHKEY__@@PBDKKPAPAU3@@Z 100b5050 f i DesktopIconMan.obj
 0002:0005e1c0       ?SetStringValue@CRegKey@ATL@@QAEJPBD0K@Z 100b51c0 f i DesktopIconMan.obj
 0002:0005e380       _fprintf                   100b5380 f i DesktopIconMan.obj
 0002:0005e400       ??0CDesktopIconManEx@UTIL@NMBASE@@QAE@ABV012@@Z 100b5400 f i DesktopIconManEx.obj
 0002:0005e470       ??0CDesktopIconManEx@UTIL@NMBASE@@QAE@XZ 100b5470 f   DesktopIconManEx.obj
 0002:0005e4d0       ??1CDesktopIconManEx@UTIL@NMBASE@@UAE@XZ 100b54d0 f   DesktopIconManEx.obj
 0002:0005e530       ??4CDesktopIconManEx@UTIL@NMBASE@@QAEAAV012@ABV012@@Z 100b5530 f i DesktopIconManEx.obj
 0002:0005e590       ??_ECDesktopIconManEx@UTIL@NMBASE@@UAEPAXI@Z 100b5590 f i DesktopIconManEx.obj
 0002:0005e6a0       ??_GCDesktopIconManEx@UTIL@NMBASE@@UAEPAXI@Z 100b56a0 f i DesktopIconManEx.obj
 0002:0005e710       ?ClearChampDesktopIcon@CDesktopIconManEx@UTIL@NMBASE@@QAEXV?$CStringT@DV?$StrTraitMFC_DLL@DV?$ChTraitsCRT@D@ATL@@@@@ATL@@@Z 100b5710 f   DesktopIconManEx.obj
 0002:0005e940       ??0CDialogCtrlReposition@UTIL@NMBASE@@QAE@ABV012@@Z 100b5940 f i DialogCtrlReposition.obj
 0002:0005ea00       ??0CDialogCtrlReposition@UTIL@NMBASE@@QAE@XZ 100b5a00 f   DialogCtrlReposition.obj
 0002:0005ead0       ??0CRect@@QAE@HHHH@Z       100b5ad0 f i DialogCtrlReposition.obj
 0002:0005eb40       ??0CRect@@QAE@XZ           100b5b40 f i DialogCtrlReposition.obj
 0002:0005ebb0       ??1CDialogCtrlReposition@UTIL@NMBASE@@UAE@XZ 100b5bb0 f   DialogCtrlReposition.obj
 0002:0005ebf0       ??4CDialogCtrlReposition@UTIL@NMBASE@@QAEAAV012@ABV012@@Z 100b5bf0 f i DialogCtrlReposition.obj
 0002:0005eca0       ??BCRect@@QAEPAUtagRECT@@XZ 100b5ca0 f i DialogCtrlReposition.obj
 0002:0005ece0       ??_ECDialogCtrlReposition@UTIL@NMBASE@@UAEPAXI@Z 100b5ce0 f i DialogCtrlReposition.obj
 0002:0005ede0       ??_GCDialogCtrlReposition@UTIL@NMBASE@@UAEPAXI@Z 100b5de0 f i DialogCtrlReposition.obj
 0002:0005ee50       ?CtrlPos@CDialogCtrlReposition@UTIL@NMBASE@@QAEXPAUHWND__@@AAVCRect@@@Z 100b5e50 f   DialogCtrlReposition.obj
 0002:0005ef40       ?EnumChildProc@CDialogCtrlReposition@UTIL@NMBASE@@SGHPAUHWND__@@J@Z 100b5f40 f   DialogCtrlReposition.obj
 0002:0005f110       ?GetRect@CDialogCtrlReposition@UTIL@NMBASE@@QAE?AVCRect@@AAV4@@Z 100b6110 f   DialogCtrlReposition.obj
 0002:0005f250       ?Height@CRect@@QBEHXZ      100b6250 f i DialogCtrlReposition.obj
 0002:0005f2a0       ?Reposition@CDialogCtrlReposition@UTIL@NMBASE@@QAEXPAUHWND__@@H@Z 100b62a0 f   DialogCtrlReposition.obj
 0002:0005f5a0       ?SetBaseRect@CDialogCtrlReposition@UTIL@NMBASE@@QAEXAAVCRect@@0@Z 100b65a0 f   DialogCtrlReposition.obj
 0002:0005f630       ?SetRate@CDialogCtrlReposition@UTIL@NMBASE@@QAEXAAVCRect@@0@Z 100b6630 f   DialogCtrlReposition.obj
 0002:0005f860       ?SetRect@CRect@@QAEXHHHH@Z 100b6860 f i DialogCtrlReposition.obj
 0002:0005f8e0       ?SetRect@CRect@@QAEXUtagPOINT@@0@Z 100b68e0 f i DialogCtrlReposition.obj
 0002:0005f960       ?Width@CRect@@QBEHXZ       100b6960 f i DialogCtrlReposition.obj
 0002:0005f9b0       ??0CFontBag@UTIL@NMBASE@@AAE@XZ 100b69b0 f   FontBag.obj
 0002:0005fa80       ??1CFontBag@UTIL@NMBASE@@UAE@XZ 100b6a80 f   FontBag.obj
 0002:0005fb20       ??_ECFontBag@UTIL@NMBASE@@UAEPAXI@Z 100b6b20 f i FontBag.obj
 0002:0005fc30       ??_GCFontBag@UTIL@NMBASE@@UAEPAXI@Z 100b6c30 f i FontBag.obj
 0002:0005fcb0       ?GetFont@CFontBag@UTIL@NMBASE@@QAEAAVCFont@@W4STD_FONT@23@@Z 100b6cb0 f   FontBag.obj
 0002:0005fd20       ?GetFontBag@UTIL@NMBASE@@YAAAVCFontBag@12@XZ 100b6d20 f   FontBag.obj
 0002:0005fd70       ?GetInstance@CFontBag@UTIL@NMBASE@@SAAAV123@XZ 100b6d70 f   FontBag.obj
 0002:0005fe70       ?GetMyFont@UTIL@NMBASE@@YAAAVCFont@@W4STD_FONT@12@@Z 100b6e70 f   FontBag.obj
 0002:0005fed0       ?Init@CFontBag@UTIL@NMBASE@@QAEXXZ 100b6ed0 f   FontBag.obj
 0002:000606c0       ??0CGameDirectGo@UTIL@NMBASE@@QAE@ABV012@@Z 100b76c0 f i GameDirectGo.obj
 0002:000607f0       ??0CGameDirectGo@UTIL@NMBASE@@QAE@XZ 100b77f0 f   GameDirectGo.obj
 0002:00060900       ??0CNMNMRunParam@UTIL@NMBASE@@QAE@ABV012@@Z 100b7900 f i GameDirectGo.obj
 0002:00060960       ??0CNMSSOWEBURLString@UTIL@NMBASE@@QAE@ABV012@@Z 100b7960 f i GameDirectGo.obj
 0002:000609c0       ??0CNMSSOWebBrowser@UTIL@NMBASE@@QAE@ABV012@@Z 100b79c0 f i GameDirectGo.obj
 0002:00060a20       ??1CGameDirectGo@UTIL@NMBASE@@UAE@XZ 100b7a20 f   GameDirectGo.obj
 0002:00060ac0       ??4CGameDirectGo@UTIL@NMBASE@@QAEAAV012@ABV012@@Z 100b7ac0 f i GameDirectGo.obj
 0002:00060ba0       ??4CNMNMRunParam@UTIL@NMBASE@@QAEAAV012@ABV012@@Z 100b7ba0 f i GameDirectGo.obj
 0002:00060bf0       ??4CNMSSOWEBURLString@UTIL@NMBASE@@QAEAAV012@ABV012@@Z 100b7bf0 f i GameDirectGo.obj
 0002:00060c40       ??4CNMSSOWebBrowser@UTIL@NMBASE@@QAEAAV012@ABV012@@Z 100b7c40 f i GameDirectGo.obj
 0002:00060c90       ??_ECGameDirectGo@UTIL@NMBASE@@UAEPAXI@Z 100b7c90 f i GameDirectGo.obj
 0002:00060d90       ??_ECNMNMRunParam@UTIL@NMBASE@@UAEPAXI@Z 100b7d90 f i GameDirectGo.obj
 0002:00060ea0       ??_ECNMSSOWEBURLString@UTIL@NMBASE@@UAEPAXI@Z 100b7ea0 f i GameDirectGo.obj
 0002:00060fb0       ??_ECNMSSOWebBrowser@UTIL@NMBASE@@UAEPAXI@Z 100b7fb0 f i GameDirectGo.obj
 0002:000610c0       ??_FCNMSSOWEBURLString@UTIL@NMBASE@@QAEXXZ 100b80c0 f i GameDirectGo.obj
 0002:00061120       ??_GCGameDirectGo@UTIL@NMBASE@@UAEPAXI@Z 100b8120 f i GameDirectGo.obj
 0002:00061190       ??_GCNMNMRunParam@UTIL@NMBASE@@UAEPAXI@Z 100b8190 f i GameDirectGo.obj
 0002:00061200       ??_GCNMSSOWEBURLString@UTIL@NMBASE@@UAEPAXI@Z 100b8200 f i GameDirectGo.obj
 0002:00061270       ??_GCNMSSOWebBrowser@UTIL@NMBASE@@UAEPAXI@Z 100b8270 f i GameDirectGo.obj
 0002:000612e0       ?CheckHTMLData@CGameDirectGo@UTIL@NMBASE@@IAE?AW4ERROR_GAMEDIRECTGO@23@PBD@Z 100b82e0 f   GameDirectGo.obj
 0002:000618b0       ?ExistExcuteFile@CGameDirectGo@UTIL@NMBASE@@IAE?AW4ERROR_GAMEDIRECTGO@23@XZ 100b88b0 f   GameDirectGo.obj
 0002:000619d0       ?GetExcuteFile@CGameDirectGo@UTIL@NMBASE@@IAE?AW4ERROR_GAMEDIRECTGO@23@AAV?$CStringT@DV?$StrTraitMFC_DLL@DV?$ChTraitsCRT@D@ATL@@@@@ATL@@@Z 100b89d0 f   GameDirectGo.obj
 0002:00061b40       ?GetSSOCookie@CGameDirectGo@UTIL@NMBASE@@IAE?AW4ERROR_GAMEDIRECTGO@23@AAV?$CStringT@DV?$StrTraitMFC_DLL@DV?$ChTraitsCRT@D@ATL@@@@@ATL@@00@Z 100b8b40 f   GameDirectGo.obj
 0002:00061c90       ?Init@CGameDirectGo@UTIL@NMBASE@@QAE?AW4ERROR_GAMEDIRECTGO@23@PBD0PAPAX@Z 100b8c90 f   GameDirectGo.obj
 0002:00061d90       ?IsInit@CGameDirectGo@UTIL@NMBASE@@QAEHXZ 100b8d90 f   GameDirectGo.obj
 0002:00061e40       ?NMGoGameDirect_Init@UTIL@NMBASE@@YA?AW4ERROR_GAMEDIRECTGO@12@PAPAXPBD1@Z 100b8e40 f   GameDirectGo.obj
 0002:00061eb0       ?NMGoGameDirect_OnExitGame@UTIL@NMBASE@@YA?AW4ERROR_GAMEDIRECTGO@12@K@Z 100b8eb0 f   GameDirectGo.obj
 0002:00061f00       ?NMGoGameDirect_SetDestination@UTIL@NMBASE@@YA?AW4ERROR_GAMEDIRECTGO@12@PBDAAV?$CStringT@DV?$StrTraitMFC_DLL@DV?$ChTraitsCRT@D@ATL@@@@@ATL@@@Z 100b8f00 f   GameDirectGo.obj
 0002:00062060       ?OnGameExit@CGameDirectGo@UTIL@NMBASE@@QAE?AW4ERROR_GAMEDIRECTGO@23@K@Z 100b9060 f   GameDirectGo.obj
 0002:00062540       ?SetGameCodeDestination@CGameDirectGo@UTIL@NMBASE@@QAE?AW4ERROR_GAMEDIRECTGO@23@PBD@Z 100b9540 f   GameDirectGo.obj
 0002:00062790       ?SetSSOCookie@CGameDirectGo@UTIL@NMBASE@@IAE?AW4ERROR_GAMEDIRECTGO@23@PAVCHttpFile@@PBD@Z 100b9790 f   GameDirectGo.obj
 0002:00062bd0       __tcsnicmp                 100b9bd0 f i GameDirectGo.obj
 0002:00062c40       ??$?0$$V@?$_Compressed_pair@V?$allocator@U?$_Tree_node@U?$pair@$$CBHUNMSITEINFO@UTIL@NMBASE@@@std@@PAX@std@@@std@@V?$_Tree_val@U?$_Tree_simple_types@U?$pair@$$CBHUNMSITEINFO@UTIL@NMBASE@@@std@@@std@@@2@$00@std@@QAE@U_Zero_then_variadic_args_t@1@@Z 100b9c40 f i GFUtil.obj
 0002:00062ca0       ??$?0AAV?$_Tree_iterator@V?$_Tree_val@U?$_Tree_simple_types@U?$pair@$$CBHUNMSITEINFO@UTIL@NMBASE@@@std@@@std@@@std@@@std@@_N$0A@@?$pair@V?$_Tree_iterator@V?$_Tree_val@U?$_Tree_simple_types@U?$pair@$$CBHUNMSITEINFO@UTIL@NMBASE@@@std@@@std@@@std@@@std@@_N@std@@QAE@AAV?$_Tree_iterator@V?$_Tree_val@U?$_Tree_simple_types@U?$pair@$$CBHUNMSITEINFO@UTIL@NMBASE@@@std@@@std@@@std@@@1@$$QA_N@Z 100b9ca0 f i GFUtil.obj
 0002:00062d20       ??$?0ABU?$less@H@std@@U_Zero_then_variadic_args_t@1@@?$_Compressed_pair@U?$less@H@std@@V?$_Compressed_pair@V?$allocator@U?$_Tree_node@U?$pair@$$CBHUNMSITEINFO@UTIL@NMBASE@@@std@@PAX@std@@@std@@V?$_Tree_val@U?$_Tree_simple_types@U?$pair@$$CBHUNMSITEINFO@UTIL@NMBASE@@@std@@@std@@@2@$00@2@$00@std@@QAE@U_One_then_variadic_args_t@1@ABU?$less@H@1@$$QAU_Zero_then_variadic_args_t@1@@Z 100b9d20 f i GFUtil.obj
 0002:00062da0       ??$?0HUNMSITEINFO@UTIL@NMBASE@@$0A@@?$pair@$$CBHUNMSITEINFO@UTIL@NMBASE@@@std@@QAE@$$QAU?$pair@HUNMSITEINFO@UTIL@NMBASE@@@1@@Z 100b9da0 f i GFUtil.obj
 0002:00062e30       ??$?0U?$_Tree_node@U?$pair@$$CBHUNMSITEINFO@UTIL@NMBASE@@@std@@PAX@std@@@?$allocator@U_Container_proxy@std@@@std@@QAE@ABV?$allocator@U?$_Tree_node@U?$pair@$$CBHUNMSITEINFO@UTIL@NMBASE@@@std@@PAX@std@@@1@@Z 100b9e30 f i GFUtil.obj
 0002:00062e70       ??$?0V?$_Tree_iterator@V?$_Tree_val@U?$_Tree_simple_types@U?$pair@$$CBHUNMSITEINFO@UTIL@NMBASE@@@std@@@std@@@std@@@std@@_N$0A@@?$pair@V?$_Tree_iterator@V?$_Tree_val@U?$_Tree_simple_types@U?$pair@$$CBHUNMSITEINFO@UTIL@NMBASE@@@std@@@std@@@std@@@std@@_N@std@@QAE@$$QAV?$_Tree_iterator@V?$_Tree_val@U?$_Tree_simple_types@U?$pair@$$CBHUNMSITEINFO@UTIL@NMBASE@@@std@@@std@@@std@@@1@$$QA_N@Z 100b9e70 f i GFUtil.obj
 0002:00062ef0       ??$?0W4ENUM_SITENO@UTIL@NMBASE@@AAUNMSITEINFO@12@$0A@@?$pair@HUNMSITEINFO@UTIL@NMBASE@@@std@@QAE@$$QAW4ENUM_SITENO@UTIL@NMBASE@@AAUNMSITEINFO@34@@Z 100b9ef0 f i GFUtil.obj
 0002:00062f80       ??$_Buy_if_not_node@AAU?$pair@$$CBHUNMSITEINFO@UTIL@NMBASE@@@std@@@?$_Tree@V?$_Tmap_traits@HUNMSITEINFO@UTIL@NMBASE@@U?$less@H@std@@V?$allocator@U?$pair@$$CBHUNMSITEINFO@UTIL@NMBASE@@@std@@@5@$0A@@std@@@std@@IAEPAU?$_Tree_node@U?$pair@$$CBHUNMSITEINFO@UTIL@NMBASE@@@std@@PAX@1@PAU21@AAU?$pair@$$CBHUNMSITEINFO@UTIL@NMBASE@@@1@@Z 100b9f80 f i GFUtil.obj
 0002:00062fc0       ??$_Buynode@U?$pair@HUNMSITEINFO@UTIL@NMBASE@@@std@@@?$_Tree_comp_alloc@V?$_Tmap_traits@HUNMSITEINFO@UTIL@NMBASE@@U?$less@H@std@@V?$allocator@U?$pair@$$CBHUNMSITEINFO@UTIL@NMBASE@@@std@@@5@$0A@@std@@@std@@QAEPAU?$_Tree_node@U?$pair@$$CBHUNMSITEINFO@UTIL@NMBASE@@@std@@PAX@1@$$QAU?$pair@HUNMSITEINFO@UTIL@NMBASE@@@1@@Z 100b9fc0 f i GFUtil.obj
 0002:000630e0       ??$_Debug_lt_pred@AAU?$less@H@std@@ABHABH@std@@YA_NAAU?$less@H@0@ABH1@Z 100ba0e0 f i GFUtil.obj
 0002:000631e0       ??$_Debug_lt_pred@ABU?$less@H@std@@ABHABH@std@@YA_NABU?$less@H@0@ABH1@Z 100ba1e0 f i GFUtil.obj
 0002:000632e0       ??$_Freenode0@V?$allocator@U?$_Tree_node@U?$pair@$$CBHUNMSITEINFO@UTIL@NMBASE@@@std@@PAX@std@@@std@@@?$_Tree_node@U?$pair@$$CBHUNMSITEINFO@UTIL@NMBASE@@@std@@PAX@std@@SAXAAV?$allocator@U?$_Tree_node@U?$pair@$$CBHUNMSITEINFO@UTIL@NMBASE@@@std@@PAX@std@@@1@PAU01@@Z 100ba2e0 f i GFUtil.obj
 0002:00063410       ??$_Get_size_of_n@$0DJM@@std@@YAII@Z 100ba410 f i GFUtil.obj
 0002:00063470       ??$_Insert_at@AAU?$pair@$$CBHUNMSITEINFO@UTIL@NMBASE@@@std@@PAU?$_Tree_node@U?$pair@$$CBHUNMSITEINFO@UTIL@NMBASE@@@std@@PAX@2@@?$_Tree@V?$_Tmap_traits@HUNMSITEINFO@UTIL@NMBASE@@U?$less@H@std@@V?$allocator@U?$pair@$$CBHUNMSITEINFO@UTIL@NMBASE@@@std@@@5@$0A@@std@@@std@@IAE?AV?$_Tree_iterator@V?$_Tree_val@U?$_Tree_simple_types@U?$pair@$$CBHUNMSITEINFO@UTIL@NMBASE@@@std@@@std@@@std@@@1@_NPAU?$_Tree_node@U?$pair@$$CBHUNMSITEINFO@UTIL@NMBASE@@@std@@PAX@1@AAU?$pair@$$CBHUNMSITEINFO@UTIL@NMBASE@@@1@1@Z 100ba470 f i GFUtil.obj
 0002:000637f0       ??$_Insert_nohint@AAU?$pair@$$CBHUNMSITEINFO@UTIL@NMBASE@@@std@@PAU?$_Tree_node@U?$pair@$$CBHUNMSITEINFO@UTIL@NMBASE@@@std@@PAX@2@@?$_Tree@V?$_Tmap_traits@HUNMSITEINFO@UTIL@NMBASE@@U?$less@H@std@@V?$allocator@U?$pair@$$CBHUNMSITEINFO@UTIL@NMBASE@@@std@@@5@$0A@@std@@@std@@IAE?AU?$pair@V?$_Tree_iterator@V?$_Tree_val@U?$_Tree_simple_types@U?$pair@$$CBHUNMSITEINFO@UTIL@NMBASE@@@std@@@std@@@std@@@std@@_N@1@_NAAU?$pair@$$CBHUNMSITEINFO@UTIL@NMBASE@@@1@PAU?$_Tree_node@U?$pair@$$CBHUNMSITEINFO@UTIL@NMBASE@@@std@@PAX@1@@Z 100ba7f0 f i GFUtil.obj
 0002:00063dd0       ??$_Kfn@$$CBHUNMSITEINFO@UTIL@NMBASE@@@?$_Tmap_traits@HUNMSITEINFO@UTIL@NMBASE@@U?$less@H@std@@V?$allocator@U?$pair@$$CBHUNMSITEINFO@UTIL@NMBASE@@@std@@@5@$0A@@std@@SAABHABU?$pair@$$CBHUNMSITEINFO@UTIL@NMBASE@@@1@@Z 100badd0 f i GFUtil.obj
 0002:00063e10       ??$_Lbound@H@?$_Tree@V?$_Tmap_traits@HUNMSITEINFO@UTIL@NMBASE@@U?$less@H@std@@V?$allocator@U?$pair@$$CBHUNMSITEINFO@UTIL@NMBASE@@@std@@@5@$0A@@std@@@std@@IBEPAU?$_Tree_node@U?$pair@$$CBHUNMSITEINFO@UTIL@NMBASE@@@std@@PAX@1@ABH@Z 100bae10 f i GFUtil.obj
 0002:00063ed0       ??$addressof@PAU?$_Tree_node@U?$pair@$$CBHUNMSITEINFO@UTIL@NMBASE@@@std@@PAX@std@@@std@@YAPAPAU?$_Tree_node@U?$pair@$$CBHUNMSITEINFO@UTIL@NMBASE@@@std@@PAX@0@AAPAU10@@Z 100baed0 f i GFUtil.obj
 0002:00063f10       ??$addressof@U?$pair@$$CBHUNMSITEINFO@UTIL@NMBASE@@@std@@@std@@YAPAU?$pair@$$CBHUNMSITEINFO@UTIL@NMBASE@@@0@AAU10@@Z 100baf10 f i GFUtil.obj
 0002:00063f50       ??$addressof@V?$_Tree_val@U?$_Tree_simple_types@U?$pair@$$CBHUNMSITEINFO@UTIL@NMBASE@@@std@@@std@@@std@@@std@@YAPAV?$_Tree_val@U?$_Tree_simple_types@U?$pair@$$CBHUNMSITEINFO@UTIL@NMBASE@@@std@@@std@@@0@AAV10@@Z 100baf50 f i GFUtil.obj
 0002:00063f90       ??$construct@PAU?$_Tree_node@U?$pair@$$CBHUNMSITEINFO@UTIL@NMBASE@@@std@@PAX@std@@AAPAU12@@?$_Default_allocator_traits@V?$allocator@U?$_Tree_node@U?$pair@$$CBHUNMSITEINFO@UTIL@NMBASE@@@std@@PAX@std@@@std@@@std@@SAXAAV?$allocator@U?$_Tree_node@U?$pair@$$CBHUNMSITEINFO@UTIL@NMBASE@@@std@@PAX@std@@@1@QAPAU?$_Tree_node@U?$pair@$$CBHUNMSITEINFO@UTIL@NMBASE@@@std@@PAX@1@AAPAU31@@Z 100baf90 f i GFUtil.obj
 0002:00064010       ??$construct@U?$pair@$$CBHUNMSITEINFO@UTIL@NMBASE@@@std@@U?$pair@HUNMSITEINFO@UTIL@NMBASE@@@2@@?$_Default_allocator_traits@V?$allocator@U?$_Tree_node@U?$pair@$$CBHUNMSITEINFO@UTIL@NMBASE@@@std@@PAX@std@@@std@@@std@@SAXAAV?$allocator@U?$_Tree_node@U?$pair@$$CBHUNMSITEINFO@UTIL@NMBASE@@@std@@PAX@std@@@1@QAU?$pair@$$CBHUNMSITEINFO@UTIL@NMBASE@@@1@$$QAU?$pair@HUNMSITEINFO@UTIL@NMBASE@@@1@@Z 100bb010 f i GFUtil.obj
 0002:00064090       ??$destroy@PAU?$_Tree_node@U?$pair@$$CBHUNMSITEINFO@UTIL@NMBASE@@@std@@PAX@std@@@?$_Default_allocator_traits@V?$allocator@U?$_Tree_node@U?$pair@$$CBHUNMSITEINFO@UTIL@NMBASE@@@std@@PAX@std@@@std@@@std@@SAXAAV?$allocator@U?$_Tree_node@U?$pair@$$CBHUNMSITEINFO@UTIL@NMBASE@@@std@@PAX@std@@@1@QAPAU?$_Tree_node@U?$pair@$$CBHUNMSITEINFO@UTIL@NMBASE@@@std@@PAX@1@@Z 100bb090 f i GFUtil.obj
 0002:000640c0       ??$destroy@U?$pair@$$CBHUNMSITEINFO@UTIL@NMBASE@@@std@@@?$_Default_allocator_traits@V?$allocator@U?$_Tree_node@U?$pair@$$CBHUNMSITEINFO@UTIL@NMBASE@@@std@@PAX@std@@@std@@@std@@SAXAAV?$allocator@U?$_Tree_node@U?$pair@$$CBHUNMSITEINFO@UTIL@NMBASE@@@std@@PAX@std@@@1@QAU?$pair@$$CBHUNMSITEINFO@UTIL@NMBASE@@@1@@Z 100bb0c0 f i GFUtil.obj
 0002:000640f0       ??$emplace@U?$pair@HUNMSITEINFO@UTIL@NMBASE@@@std@@@?$_Tree@V?$_Tmap_traits@HUNMSITEINFO@UTIL@NMBASE@@U?$less@H@std@@V?$allocator@U?$pair@$$CBHUNMSITEINFO@UTIL@NMBASE@@@std@@@5@$0A@@std@@@std@@QAE?AU?$pair@V?$_Tree_iterator@V?$_Tree_val@U?$_Tree_simple_types@U?$pair@$$CBHUNMSITEINFO@UTIL@NMBASE@@@std@@@std@@@std@@@std@@_N@1@$$QAU?$pair@HUNMSITEINFO@UTIL@NMBASE@@@1@@Z 100bb0f0 f i GFUtil.obj
 0002:000641a0       ??$forward@AAPAU?$_Tree_node@U?$pair@$$CBHUNMSITEINFO@UTIL@NMBASE@@@std@@PAX@std@@@std@@YAAAPAU?$_Tree_node@U?$pair@$$CBHUNMSITEINFO@UTIL@NMBASE@@@std@@PAX@0@AAPAU10@@Z 100bb1a0 f i GFUtil.obj
 0002:000641e0       ??$forward@AAU?$pair@$$CBHUNMSITEINFO@UTIL@NMBASE@@@std@@@std@@YAAAU?$pair@$$CBHUNMSITEINFO@UTIL@NMBASE@@@0@AAU10@@Z 100bb1e0 f i GFUtil.obj
 0002:00064220       ??$forward@AAUNMSITEINFO@UTIL@NMBASE@@@std@@YAAAUNMSITEINFO@UTIL@NMBASE@@AAU123@@Z 100bb220 f i GFUtil.obj
 0002:00064260       ??$forward@AAV?$_Tree_iterator@V?$_Tree_val@U?$_Tree_simple_types@U?$pair@$$CBHUNMSITEINFO@UTIL@NMBASE@@@std@@@std@@@std@@@std@@@std@@YAAAV?$_Tree_iterator@V?$_Tree_val@U?$_Tree_simple_types@U?$pair@$$CBHUNMSITEINFO@UTIL@NMBASE@@@std@@@std@@@std@@@0@AAV10@@Z 100bb260 f i GFUtil.obj
 0002:000642a0       ??$forward@ABU?$less@H@std@@@std@@YAABU?$less@H@0@ABU10@@Z 100bb2a0 f i GFUtil.obj
 0002:000642e0       ??$forward@H@std@@YA$$QAHAAH@Z 100bb2e0 f i GFUtil.obj
 0002:00064320       ??$forward@U?$pair@HUNMSITEINFO@UTIL@NMBASE@@@std@@@std@@YA$$QAU?$pair@HUNMSITEINFO@UTIL@NMBASE@@@0@AAU10@@Z 100bb320 f i GFUtil.obj
 0002:00064360       ??$forward@UNMSITEINFO@UTIL@NMBASE@@@std@@YA$$QAUNMSITEINFO@UTIL@NMBASE@@AAU123@@Z 100bb360 f i GFUtil.obj
 0002:000643a0       ??$forward@V?$_Tree_iterator@V?$_Tree_val@U?$_Tree_simple_types@U?$pair@$$CBHUNMSITEINFO@UTIL@NMBASE@@@std@@@std@@@std@@@std@@@std@@YA$$QAV?$_Tree_iterator@V?$_Tree_val@U?$_Tree_simple_types@U?$pair@$$CBHUNMSITEINFO@UTIL@NMBASE@@@std@@@std@@@std@@@0@AAV10@@Z 100bb3a0 f i GFUtil.obj
 0002:000643e0       ??$forward@W4ENUM_SITENO@UTIL@NMBASE@@@std@@YA$$QAW4ENUM_SITENO@UTIL@NMBASE@@AAW4123@@Z 100bb3e0 f i GFUtil.obj
 0002:00064420       ??$insert@U?$pair@HUNMSITEINFO@UTIL@NMBASE@@@std@@X@?$map@HUNMSITEINFO@UTIL@NMBASE@@U?$less@H@std@@V?$allocator@U?$pair@$$CBHUNMSITEINFO@UTIL@NMBASE@@@std@@@5@@std@@QAE?AU?$pair@V?$_Tree_iterator@V?$_Tree_val@U?$_Tree_simple_types@U?$pair@$$CBHUNMSITEINFO@UTIL@NMBASE@@@std@@@std@@@std@@@std@@_N@1@$$QAU?$pair@HUNMSITEINFO@UTIL@NMBASE@@@1@@Z 100bb420 f i GFUtil.obj
 0002:000644b0       ??0?$_Tree@V?$_Tmap_traits@HUNMSITEINFO@UTIL@NMBASE@@U?$less@H@std@@V?$allocator@U?$pair@$$CBHUNMSITEINFO@UTIL@NMBASE@@@std@@@5@$0A@@std@@@std@@QAE@ABU?$less@H@1@@Z 100bb4b0 f i GFUtil.obj
 0002:00064510       ??0?$_Tree_comp_alloc@V?$_Tmap_traits@HUNMSITEINFO@UTIL@NMBASE@@U?$less@H@std@@V?$allocator@U?$pair@$$CBHUNMSITEINFO@UTIL@NMBASE@@@std@@@5@$0A@@std@@@std@@QAE@ABU?$less@H@1@@Z 100bb510 f i GFUtil.obj
 0002:00064590       ??0?$_Tree_const_iterator@V?$_Tree_val@U?$_Tree_simple_types@U?$pair@$$CBHUNMSITEINFO@UTIL@NMBASE@@@std@@@std@@@std@@@std@@QAE@$$QAV01@@Z 100bb590 f i GFUtil.obj
 0002:000645f0       ??0?$_Tree_const_iterator@V?$_Tree_val@U?$_Tree_simple_types@U?$pair@$$CBHUNMSITEINFO@UTIL@NMBASE@@@std@@@std@@@std@@@std@@QAE@ABV01@@Z 100bb5f0 f i GFUtil.obj
 0002:00064650       ??0?$_Tree_const_iterator@V?$_Tree_val@U?$_Tree_simple_types@U?$pair@$$CBHUNMSITEINFO@UTIL@NMBASE@@@std@@@std@@@std@@@std@@QAE@PAU?$_Tree_node@U?$pair@$$CBHUNMSITEINFO@UTIL@NMBASE@@@std@@PAX@1@PBV?$_Tree_val@U?$_Tree_simple_types@U?$pair@$$CBHUNMSITEINFO@UTIL@NMBASE@@@std@@@std@@@1@@Z 100bb650 f i GFUtil.obj
 0002:000646b0       ??0?$_Tree_iterator@V?$_Tree_val@U?$_Tree_simple_types@U?$pair@$$CBHUNMSITEINFO@UTIL@NMBASE@@@std@@@std@@@std@@@std@@QAE@$$QAV01@@Z 100bb6b0 f i GFUtil.obj
 0002:00064710       ??0?$_Tree_iterator@V?$_Tree_val@U?$_Tree_simple_types@U?$pair@$$CBHUNMSITEINFO@UTIL@NMBASE@@@std@@@std@@@std@@@std@@QAE@ABV01@@Z 100bb710 f i GFUtil.obj
 0002:00064770       ??0?$_Tree_iterator@V?$_Tree_val@U?$_Tree_simple_types@U?$pair@$$CBHUNMSITEINFO@UTIL@NMBASE@@@std@@@std@@@std@@@std@@QAE@PAU?$_Tree_node@U?$pair@$$CBHUNMSITEINFO@UTIL@NMBASE@@@std@@PAX@1@PBV?$_Tree_val@U?$_Tree_simple_types@U?$pair@$$CBHUNMSITEINFO@UTIL@NMBASE@@@std@@@std@@@1@@Z 100bb770 f i GFUtil.obj
 0002:000647d0       ??0?$_Tree_unchecked_const_iterator@V?$_Tree_val@U?$_Tree_simple_types@U?$pair@$$CBHUNMSITEINFO@UTIL@NMBASE@@@std@@@std@@@std@@U_Iterator_base12@2@@std@@QAE@$$QAV01@@Z 100bb7d0 f i GFUtil.obj
 0002:00064840       ??0?$_Tree_unchecked_const_iterator@V?$_Tree_val@U?$_Tree_simple_types@U?$pair@$$CBHUNMSITEINFO@UTIL@NMBASE@@@std@@@std@@@std@@U_Iterator_base12@2@@std@@QAE@ABV01@@Z 100bb840 f i GFUtil.obj
 0002:000648b0       ??0?$_Tree_unchecked_const_iterator@V?$_Tree_val@U?$_Tree_simple_types@U?$pair@$$CBHUNMSITEINFO@UTIL@NMBASE@@@std@@@std@@@std@@U_Iterator_base12@2@@std@@QAE@PAU?$_Tree_node@U?$pair@$$CBHUNMSITEINFO@UTIL@NMBASE@@@std@@PAX@1@PBV?$_Tree_val@U?$_Tree_simple_types@U?$pair@$$CBHUNMSITEINFO@UTIL@NMBASE@@@std@@@std@@@1@@Z 100bb8b0 f i GFUtil.obj
 0002:00064920       ??0?$_Tree_val@U?$_Tree_simple_types@U?$pair@$$CBHUNMSITEINFO@UTIL@NMBASE@@@std@@@std@@@std@@QAE@XZ 100bb920 f i GFUtil.obj
 0002:00064990       ??0?$allocator@U?$_Tree_node@U?$pair@$$CBHUNMSITEINFO@UTIL@NMBASE@@@std@@PAX@std@@@std@@QAE@XZ 100bb990 f i GFUtil.obj
 0002:000649d0       ??0?$map@HUNMSITEINFO@UTIL@NMBASE@@U?$less@H@std@@V?$allocator@U?$pair@$$CBHUNMSITEINFO@UTIL@NMBASE@@@std@@@5@@std@@QAE@XZ 100bb9d0 f i GFUtil.obj
 0002:00064a30       ??1?$_Tree@V?$_Tmap_traits@HUNMSITEINFO@UTIL@NMBASE@@U?$less@H@std@@V?$allocator@U?$pair@$$CBHUNMSITEINFO@UTIL@NMBASE@@@std@@@5@$0A@@std@@@std@@QAE@XZ 100bba30 f i GFUtil.obj
 0002:00064ac0       ??1?$_Tree_comp_alloc@V?$_Tmap_traits@HUNMSITEINFO@UTIL@NMBASE@@U?$less@H@std@@V?$allocator@U?$pair@$$CBHUNMSITEINFO@UTIL@NMBASE@@@std@@@5@$0A@@std@@@std@@QAE@XZ 100bbac0 f i GFUtil.obj
 0002:00064b60       ??1?$_Tree_const_iterator@V?$_Tree_val@U?$_Tree_simple_types@U?$pair@$$CBHUNMSITEINFO@UTIL@NMBASE@@@std@@@std@@@std@@@std@@QAE@XZ 100bbb60 f i GFUtil.obj
 0002:00064bb0       ??1?$_Tree_iterator@V?$_Tree_val@U?$_Tree_simple_types@U?$pair@$$CBHUNMSITEINFO@UTIL@NMBASE@@@std@@@std@@@std@@@std@@QAE@XZ 100bbbb0 f i GFUtil.obj
 0002:00064c00       ??1?$_Tree_unchecked_const_iterator@V?$_Tree_val@U?$_Tree_simple_types@U?$pair@$$CBHUNMSITEINFO@UTIL@NMBASE@@@std@@@std@@@std@@U_Iterator_base12@2@@std@@QAE@XZ 100bbc00 f i GFUtil.obj
 0002:00064c50       ??1?$map@HUNMSITEINFO@UTIL@NMBASE@@U?$less@H@std@@V?$allocator@U?$pair@$$CBHUNMSITEINFO@UTIL@NMBASE@@@std@@@5@@std@@QAE@XZ 100bbc50 f i GFUtil.obj
 0002:00064ca0       ??1?$pair@V?$_Tree_iterator@V?$_Tree_val@U?$_Tree_simple_types@U?$pair@$$CBHUNMSITEINFO@UTIL@NMBASE@@@std@@@std@@@std@@@std@@_N@std@@QAE@XZ 100bbca0 f i GFUtil.obj
 0002:00064cf0       ??8?$_Tree_const_iterator@V?$_Tree_val@U?$_Tree_simple_types@U?$pair@$$CBHUNMSITEINFO@UTIL@NMBASE@@@std@@@std@@@std@@@std@@QBE_NABV01@@Z 100bbcf0 f i GFUtil.obj
 0002:00064e10       ??8ATL@@YA_NABV?$CStringT@DV?$StrTraitMFC_DLL@DV?$ChTraitsCRT@D@ATL@@@@@0@PBD@Z 100bbe10 f i GFUtil.obj
 0002:00064ea0       ??9?$_Tree_const_iterator@V?$_Tree_val@U?$_Tree_simple_types@U?$pair@$$CBHUNMSITEINFO@UTIL@NMBASE@@@std@@@std@@@std@@@std@@QBE_NABV01@@Z 100bbea0 f i GFUtil.obj
 0002:00064f30       ??C?$_Tree_iterator@V?$_Tree_val@U?$_Tree_simple_types@U?$pair@$$CBHUNMSITEINFO@UTIL@NMBASE@@@std@@@std@@@std@@@std@@QBEPAU?$pair@$$CBHUNMSITEINFO@UTIL@NMBASE@@@1@XZ 100bbf30 f i GFUtil.obj
 0002:00064f90       ??D?$_Tree_const_iterator@V?$_Tree_val@U?$_Tree_simple_types@U?$pair@$$CBHUNMSITEINFO@UTIL@NMBASE@@@std@@@std@@@std@@@std@@QBEABU?$pair@$$CBHUNMSITEINFO@UTIL@NMBASE@@@1@XZ 100bbf90 f i GFUtil.obj
 0002:00065100       ??D?$_Tree_iterator@V?$_Tree_val@U?$_Tree_simple_types@U?$pair@$$CBHUNMSITEINFO@UTIL@NMBASE@@@std@@@std@@@std@@@std@@QBEAAU?$pair@$$CBHUNMSITEINFO@UTIL@NMBASE@@@1@XZ 100bc100 f i GFUtil.obj
 0002:00065150       ??E?$_Tree_const_iterator@V?$_Tree_val@U?$_Tree_simple_types@U?$pair@$$CBHUNMSITEINFO@UTIL@NMBASE@@@std@@@std@@@std@@@std@@QAE?AV01@H@Z 100bc150 f i GFUtil.obj
 0002:00065270       ??E?$_Tree_const_iterator@V?$_Tree_val@U?$_Tree_simple_types@U?$pair@$$CBHUNMSITEINFO@UTIL@NMBASE@@@std@@@std@@@std@@@std@@QAEAAV01@XZ 100bc270 f i GFUtil.obj
 0002:000653e0       ??E?$_Tree_iterator@V?$_Tree_val@U?$_Tree_simple_types@U?$pair@$$CBHUNMSITEINFO@UTIL@NMBASE@@@std@@@std@@@std@@@std@@QAE?AV01@H@Z 100bc3e0 f i GFUtil.obj
 0002:00065500       ??E?$_Tree_iterator@V?$_Tree_val@U?$_Tree_simple_types@U?$pair@$$CBHUNMSITEINFO@UTIL@NMBASE@@@std@@@std@@@std@@@std@@QAEAAV01@XZ 100bc500 f i GFUtil.obj
 0002:00065560       ??E?$_Tree_unchecked_const_iterator@V?$_Tree_val@U?$_Tree_simple_types@U?$pair@$$CBHUNMSITEINFO@UTIL@NMBASE@@@std@@@std@@@std@@U_Iterator_base12@2@@std@@QAEAAV01@XZ 100bc560 f i GFUtil.obj
 0002:00065630       ??F?$_Tree_const_iterator@V?$_Tree_val@U?$_Tree_simple_types@U?$pair@$$CBHUNMSITEINFO@UTIL@NMBASE@@@std@@@std@@@std@@@std@@QAEAAV01@XZ 100bc630 f i GFUtil.obj
 0002:000657a0       ??F?$_Tree_iterator@V?$_Tree_val@U?$_Tree_simple_types@U?$pair@$$CBHUNMSITEINFO@UTIL@NMBASE@@@std@@@std@@@std@@@std@@QAEAAV01@XZ 100bc7a0 f i GFUtil.obj
 0002:00065800       ??F?$_Tree_unchecked_const_iterator@V?$_Tree_val@U?$_Tree_simple_types@U?$pair@$$CBHUNMSITEINFO@UTIL@NMBASE@@@std@@@std@@@std@@U_Iterator_base12@2@@std@@QAEAAV01@XZ 100bc800 f i GFUtil.obj
 0002:00065900       ??R?$less@H@std@@QBE_NABH0@Z 100bc900 f i GFUtil.obj
 0002:00065970       ?AddSitePrefix@UTIL@NMBASE@@YAHW4ENUM_SITENO@12@PAD1H@Z 100bc970 f   GFUtil.obj
 0002:00065be0       ?GetCurHSiteName@UTIL@NMBASE@@YAPADXZ 100bcbe0 f   GFUtil.obj
 0002:00065e20       ?GetCurHelpURL@UTIL@NMBASE@@YAPADXZ 100bce20 f   GFUtil.obj
 0002:00066060       ?GetCurHomeURL@UTIL@NMBASE@@YAPADXZ 100bd060 f   GFUtil.obj
 0002:000662a0       ?GetCurRankingURL@UTIL@NMBASE@@YAPADXZ 100bd2a0 f   GFUtil.obj
 0002:000664e0       ?GetCurSiteName@UTIL@NMBASE@@YAPADXZ 100bd4e0 f   GFUtil.obj
 0002:00066720       ?GetCurSiteNo@UTIL@NMBASE@@YA?AW4ENUM_SITENO@12@XZ 100bd720 f   GFUtil.obj
 0002:000667a0       ?GetCurSitePrefix@UTIL@NMBASE@@YAPADXZ 100bd7a0 f   GFUtil.obj
 0002:000669e0       ?GetExclusiveKey@UTIL@NMBASE@@YAPBDXZ 100bd9e0 f   GFUtil.obj
 0002:00066a20       ?GetGroupNo_BySpareParam@UTIL@NMBASE@@YAHPBD@Z 100bda20 f   GFUtil.obj
 0002:00066b20       ?GetHSiteName@UTIL@NMBASE@@YAPADW4ENUM_SITENO@12@@Z 100bdb20 f   GFUtil.obj
 0002:00066d60       ?GetSiteNoFromID@UTIL@NMBASE@@YA?AW4ENUM_SITENO@12@PBD@Z 100bdd60 f   GFUtil.obj
 0002:00067030       ?GetTokenValue@UTIL@NMBASE@@YAHPBD0PAD@Z 100be030 f   GFUtil.obj
 0002:00067240       ?Get_BySpareParam@UTIL@NMBASE@@YAHPBD0@Z 100be240 f   GFUtil.obj
 0002:00067340       ?InitGFUtil@UTIL@NMBASE@@YAXXZ 100be340 f   GFUtil.obj
 0002:00067a70       ?RemoveSitePrefix@UTIL@NMBASE@@YAPADPBD@Z 100bea70 f   GFUtil.obj
 0002:00067c80       ?SetCurSiteNo@UTIL@NMBASE@@YAXH@Z 100bec80 f   GFUtil.obj
 0002:00067cc0       ?SetCurSiteNo_ByCPParam@UTIL@NMBASE@@YAHPBD@Z 100becc0 f   GFUtil.obj
 0002:00067f60       ?SetCurSiteNo_ByID@UTIL@NMBASE@@YAXPAD@Z 100bef60 f   GFUtil.obj
 0002:00067fc0       ?SetCurSiteNo_BySpareParam@UTIL@NMBASE@@YAHPBD@Z 100befc0 f   GFUtil.obj
 0002:00068320       ?_Alloc_proxy@?$_Tree_comp_alloc@V?$_Tmap_traits@HUNMSITEINFO@UTIL@NMBASE@@U?$less@H@std@@V?$allocator@U?$pair@$$CBHUNMSITEINFO@UTIL@NMBASE@@@std@@@5@$0A@@std@@@std@@QAEXXZ 100bf320 f i GFUtil.obj
 0002:00068440       ?_Buyheadnode@?$_Tree_comp_alloc@V?$_Tmap_traits@HUNMSITEINFO@UTIL@NMBASE@@U?$less@H@std@@V?$allocator@U?$pair@$$CBHUNMSITEINFO@UTIL@NMBASE@@@std@@@5@$0A@@std@@@std@@QAEPAU?$_Tree_node@U?$pair@$$CBHUNMSITEINFO@UTIL@NMBASE@@@std@@PAX@2@XZ 100bf440 f i GFUtil.obj
 0002:000685f0       ?_Buynode0@?$_Tree_comp_alloc@V?$_Tmap_traits@HUNMSITEINFO@UTIL@NMBASE@@U?$less@H@std@@V?$allocator@U?$pair@$$CBHUNMSITEINFO@UTIL@NMBASE@@@std@@@5@$0A@@std@@@std@@QAEPAU?$_Tree_node@U?$pair@$$CBHUNMSITEINFO@UTIL@NMBASE@@@std@@PAX@2@XZ 100bf5f0 f i GFUtil.obj
 0002:00068760       ?_Compare@?$_Tree@V?$_Tmap_traits@HUNMSITEINFO@UTIL@NMBASE@@U?$less@H@std@@V?$allocator@U?$pair@$$CBHUNMSITEINFO@UTIL@NMBASE@@@std@@@5@$0A@@std@@@std@@IBE_NABH0@Z 100bf760 f i GFUtil.obj
 0002:000687d0       ?_Construct@?$_Tree_comp_alloc@V?$_Tmap_traits@HUNMSITEINFO@UTIL@NMBASE@@U?$less@H@std@@V?$allocator@U?$pair@$$CBHUNMSITEINFO@UTIL@NMBASE@@@std@@@5@$0A@@std@@@std@@QAEXXZ 100bf7d0 f i GFUtil.obj
 0002:000688c0       ?_Destroy_if_node@?$_Tree@V?$_Tmap_traits@HUNMSITEINFO@UTIL@NMBASE@@U?$less@H@std@@V?$allocator@U?$pair@$$CBHUNMSITEINFO@UTIL@NMBASE@@@std@@@5@$0A@@std@@@std@@IAEXPAU?$_Tree_node@U?$pair@$$CBHUNMSITEINFO@UTIL@NMBASE@@@std@@PAX@2@@Z 100bf8c0 f i GFUtil.obj
 0002:00068950       ?_Erase@?$_Tree@V?$_Tmap_traits@HUNMSITEINFO@UTIL@NMBASE@@U?$less@H@std@@V?$allocator@U?$pair@$$CBHUNMSITEINFO@UTIL@NMBASE@@@std@@@5@$0A@@std@@@std@@IAEXPAU?$_Tree_node@U?$pair@$$CBHUNMSITEINFO@UTIL@NMBASE@@@std@@PAX@2@@Z 100bf950 f i GFUtil.obj
 0002:00068a20       ?_Extract@?$_Tree_val@U?$_Tree_simple_types@U?$pair@$$CBHUNMSITEINFO@UTIL@NMBASE@@@std@@@std@@@std@@QAEPAU?$_Tree_node@U?$pair@$$CBHUNMSITEINFO@UTIL@NMBASE@@@std@@PAX@2@V?$_Tree_const_iterator@V?$_Tree_val@U?$_Tree_simple_types@U?$pair@$$CBHUNMSITEINFO@UTIL@NMBASE@@@std@@@std@@@std@@@2@@Z 100bfa20 f i GFUtil.obj
 0002:000690b0       ?_Free_proxy@?$_Tree_comp_alloc@V?$_Tmap_traits@HUNMSITEINFO@UTIL@NMBASE@@U?$less@H@std@@V?$allocator@U?$pair@$$CBHUNMSITEINFO@UTIL@NMBASE@@@std@@@5@$0A@@std@@@std@@QAEXXZ 100c00b0 f i GFUtil.obj
 0002:000691b0       ?_Freeheadnode@?$_Tree_comp_alloc@V?$_Tmap_traits@HUNMSITEINFO@UTIL@NMBASE@@U?$less@H@std@@V?$allocator@U?$pair@$$CBHUNMSITEINFO@UTIL@NMBASE@@@std@@@5@$0A@@std@@@std@@QAEXPAU?$_Tree_node@U?$pair@$$CBHUNMSITEINFO@UTIL@NMBASE@@@std@@PAX@2@@Z 100c01b0 f i GFUtil.obj
 0002:00069220       ?_Freenode0@?$_Tree_comp_alloc@V?$_Tmap_traits@HUNMSITEINFO@UTIL@NMBASE@@U?$less@H@std@@V?$allocator@U?$pair@$$CBHUNMSITEINFO@UTIL@NMBASE@@@std@@@5@$0A@@std@@@std@@QAEXPAU?$_Tree_node@U?$pair@$$CBHUNMSITEINFO@UTIL@NMBASE@@@std@@PAX@2@@Z 100c0220 f i GFUtil.obj
 0002:00069290       ?_Get_data@?$_Tree_comp_alloc@V?$_Tmap_traits@HUNMSITEINFO@UTIL@NMBASE@@U?$less@H@std@@V?$allocator@U?$pair@$$CBHUNMSITEINFO@UTIL@NMBASE@@@std@@@5@$0A@@std@@@std@@QAEAAV?$_Tree_val@U?$_Tree_simple_types@U?$pair@$$CBHUNMSITEINFO@UTIL@NMBASE@@@std@@@std@@@2@XZ 100c0290 f i GFUtil.obj
 0002:000692f0       ?_Get_data@?$_Tree_comp_alloc@V?$_Tmap_traits@HUNMSITEINFO@UTIL@NMBASE@@U?$less@H@std@@V?$allocator@U?$pair@$$CBHUNMSITEINFO@UTIL@NMBASE@@@std@@@5@$0A@@std@@@std@@QBEABV?$_Tree_val@U?$_Tree_simple_types@U?$pair@$$CBHUNMSITEINFO@UTIL@NMBASE@@@std@@@std@@@2@XZ 100c02f0 f i GFUtil.obj
 0002:00069350       ?_Get_first@?$_Compressed_pair@U?$less@H@std@@V?$_Compressed_pair@V?$allocator@U?$_Tree_node@U?$pair@$$CBHUNMSITEINFO@UTIL@NMBASE@@@std@@PAX@std@@@std@@V?$_Tree_val@U?$_Tree_simple_types@U?$pair@$$CBHUNMSITEINFO@UTIL@NMBASE@@@std@@@std@@@2@$00@2@$00@std@@QAEAAU?$less@H@2@XZ 100c0350 f i GFUtil.obj
 0002:00069390       ?_Get_first@?$_Compressed_pair@U?$less@H@std@@V?$_Compressed_pair@V?$allocator@U?$_Tree_node@U?$pair@$$CBHUNMSITEINFO@UTIL@NMBASE@@@std@@PAX@std@@@std@@V?$_Tree_val@U?$_Tree_simple_types@U?$pair@$$CBHUNMSITEINFO@UTIL@NMBASE@@@std@@@std@@@2@$00@2@$00@std@@QBEABU?$less@H@2@XZ 100c0390 f i GFUtil.obj
 0002:000693d0       ?_Get_first@?$_Compressed_pair@V?$allocator@U?$_Tree_node@U?$pair@$$CBHUNMSITEINFO@UTIL@NMBASE@@@std@@PAX@std@@@std@@V?$_Tree_val@U?$_Tree_simple_types@U?$pair@$$CBHUNMSITEINFO@UTIL@NMBASE@@@std@@@std@@@2@$00@std@@QAEAAV?$allocator@U?$_Tree_node@U?$pair@$$CBHUNMSITEINFO@UTIL@NMBASE@@@std@@PAX@std@@@2@XZ 100c03d0 f i GFUtil.obj
 0002:00069410       ?_Get_first@?$_Compressed_pair@V?$allocator@U?$_Tree_node@U?$pair@$$CBHUNMSITEINFO@UTIL@NMBASE@@@std@@PAX@std@@@std@@V?$_Tree_val@U?$_Tree_simple_types@U?$pair@$$CBHUNMSITEINFO@UTIL@NMBASE@@@std@@@std@@@2@$00@std@@QBEABV?$allocator@U?$_Tree_node@U?$pair@$$CBHUNMSITEINFO@UTIL@NMBASE@@@std@@PAX@std@@@2@XZ 100c0410 f i GFUtil.obj
 0002:00069450       ?_Get_second@?$_Compressed_pair@U?$less@H@std@@V?$_Compressed_pair@V?$allocator@U?$_Tree_node@U?$pair@$$CBHUNMSITEINFO@UTIL@NMBASE@@@std@@PAX@std@@@std@@V?$_Tree_val@U?$_Tree_simple_types@U?$pair@$$CBHUNMSITEINFO@UTIL@NMBASE@@@std@@@std@@@2@$00@2@$00@std@@QAEAAV?$_Compressed_pair@V?$allocator@U?$_Tree_node@U?$pair@$$CBHUNMSITEINFO@UTIL@NMBASE@@@std@@PAX@std@@@std@@V?$_Tree_val@U?$_Tree_simple_types@U?$pair@$$CBHUNMSITEINFO@UTIL@NMBASE@@@std@@@std@@@2@$00@2@XZ 100c0450 f i GFUtil.obj
 0002:00069490       ?_Get_second@?$_Compressed_pair@U?$less@H@std@@V?$_Compressed_pair@V?$allocator@U?$_Tree_node@U?$pair@$$CBHUNMSITEINFO@UTIL@NMBASE@@@std@@PAX@std@@@std@@V?$_Tree_val@U?$_Tree_simple_types@U?$pair@$$CBHUNMSITEINFO@UTIL@NMBASE@@@std@@@std@@@2@$00@2@$00@std@@QBEABV?$_Compressed_pair@V?$allocator@U?$_Tree_node@U?$pair@$$CBHUNMSITEINFO@UTIL@NMBASE@@@std@@PAX@std@@@std@@V?$_Tree_val@U?$_Tree_simple_types@U?$pair@$$CBHUNMSITEINFO@UTIL@NMBASE@@@std@@@std@@@2@$00@2@XZ 100c0490 f i GFUtil.obj
 0002:000694d0       ?_Get_second@?$_Compressed_pair@V?$allocator@U?$_Tree_node@U?$pair@$$CBHUNMSITEINFO@UTIL@NMBASE@@@std@@PAX@std@@@std@@V?$_Tree_val@U?$_Tree_simple_types@U?$pair@$$CBHUNMSITEINFO@UTIL@NMBASE@@@std@@@std@@@2@$00@std@@QAEAAV?$_Tree_val@U?$_Tree_simple_types@U?$pair@$$CBHUNMSITEINFO@UTIL@NMBASE@@@std@@@std@@@2@XZ 100c04d0 f i GFUtil.obj
 0002:00069510       ?_Get_second@?$_Compressed_pair@V?$allocator@U?$_Tree_node@U?$pair@$$CBHUNMSITEINFO@UTIL@NMBASE@@@std@@PAX@std@@@std@@V?$_Tree_val@U?$_Tree_simple_types@U?$pair@$$CBHUNMSITEINFO@UTIL@NMBASE@@@std@@@std@@@2@$00@std@@QBEABV?$_Tree_val@U?$_Tree_simple_types@U?$pair@$$CBHUNMSITEINFO@UTIL@NMBASE@@@std@@@std@@@2@XZ 100c0510 f i GFUtil.obj
 0002:00069550       ?_Getal@?$_Tree_comp_alloc@V?$_Tmap_traits@HUNMSITEINFO@UTIL@NMBASE@@U?$less@H@std@@V?$allocator@U?$pair@$$CBHUNMSITEINFO@UTIL@NMBASE@@@std@@@5@$0A@@std@@@std@@QAEAAV?$allocator@U?$_Tree_node@U?$pair@$$CBHUNMSITEINFO@UTIL@NMBASE@@@std@@PAX@std@@@2@XZ 100c0550 f i GFUtil.obj
 0002:000695b0       ?_Getal@?$_Tree_comp_alloc@V?$_Tmap_traits@HUNMSITEINFO@UTIL@NMBASE@@U?$less@H@std@@V?$allocator@U?$pair@$$CBHUNMSITEINFO@UTIL@NMBASE@@@std@@@5@$0A@@std@@@std@@QBEABV?$allocator@U?$_Tree_node@U?$pair@$$CBHUNMSITEINFO@UTIL@NMBASE@@@std@@PAX@std@@@2@XZ 100c05b0 f i GFUtil.obj
 0002:00069610       ?_Getcomp@?$_Tree_comp_alloc@V?$_Tmap_traits@HUNMSITEINFO@UTIL@NMBASE@@U?$less@H@std@@V?$allocator@U?$pair@$$CBHUNMSITEINFO@UTIL@NMBASE@@@std@@@5@$0A@@std@@@std@@QAEAAU?$less@H@2@XZ 100c0610 f i GFUtil.obj
 0002:00069660       ?_Getcomp@?$_Tree_comp_alloc@V?$_Tmap_traits@HUNMSITEINFO@UTIL@NMBASE@@U?$less@H@std@@V?$allocator@U?$pair@$$CBHUNMSITEINFO@UTIL@NMBASE@@@std@@@5@$0A@@std@@@std@@QBEABU?$less@H@2@XZ 100c0660 f i GFUtil.obj
 0002:000696b0       ?_Getpfirst@?$_Tree_comp_alloc@V?$_Tmap_traits@HUNMSITEINFO@UTIL@NMBASE@@U?$less@H@std@@V?$allocator@U?$pair@$$CBHUNMSITEINFO@UTIL@NMBASE@@@std@@@5@$0A@@std@@@std@@QBEPAPAU_Iterator_base12@2@XZ 100c06b0 f i GFUtil.obj
 0002:00069710       ?_Key@?$_Tree@V?$_Tmap_traits@HUNMSITEINFO@UTIL@NMBASE@@U?$less@H@std@@V?$allocator@U?$pair@$$CBHUNMSITEINFO@UTIL@NMBASE@@@std@@@5@$0A@@std@@@std@@IBEABHPAU?$_Tree_node@U?$pair@$$CBHUNMSITEINFO@UTIL@NMBASE@@@std@@PAX@2@@Z 100c0710 f i GFUtil.obj
 0002:00069770       ?_Kfn@?$_Tree@V?$_Tmap_traits@HUNMSITEINFO@UTIL@NMBASE@@U?$less@H@std@@V?$allocator@U?$pair@$$CBHUNMSITEINFO@UTIL@NMBASE@@@std@@@5@$0A@@std@@@std@@IBEABHABU?$pair@$$CBHUNMSITEINFO@UTIL@NMBASE@@@2@@Z 100c0770 f i GFUtil.obj
 0002:000697d0       ?_Lmost@?$_Tree_val@U?$_Tree_simple_types@U?$pair@$$CBHUNMSITEINFO@UTIL@NMBASE@@@std@@@std@@@std@@QBEAAPAU?$_Tree_node@U?$pair@$$CBHUNMSITEINFO@UTIL@NMBASE@@@std@@PAX@2@XZ 100c07d0 f i GFUtil.obj
 0002:00069810       ?_Lrotate@?$_Tree_val@U?$_Tree_simple_types@U?$pair@$$CBHUNMSITEINFO@UTIL@NMBASE@@@std@@@std@@@std@@QAEXPAU?$_Tree_node@U?$pair@$$CBHUNMSITEINFO@UTIL@NMBASE@@@std@@PAX@2@@Z 100c0810 f i GFUtil.obj
 0002:00069900       ?_Max@?$_Tree_val@U?$_Tree_simple_types@U?$pair@$$CBHUNMSITEINFO@UTIL@NMBASE@@@std@@@std@@@std@@SAPAU?$_Tree_node@U?$pair@$$CBHUNMSITEINFO@UTIL@NMBASE@@@std@@PAX@2@PAU32@@Z 100c0900 f i GFUtil.obj
 0002:00069960       ?_Min@?$_Tree_val@U?$_Tree_simple_types@U?$pair@$$CBHUNMSITEINFO@UTIL@NMBASE@@@std@@@std@@@std@@SAPAU?$_Tree_node@U?$pair@$$CBHUNMSITEINFO@UTIL@NMBASE@@@std@@PAX@2@PAU32@@Z 100c0960 f i GFUtil.obj
 0002:000699b0       ?_Myproxy@?$_Tree_comp_alloc@V?$_Tmap_traits@HUNMSITEINFO@UTIL@NMBASE@@U?$less@H@std@@V?$allocator@U?$pair@$$CBHUNMSITEINFO@UTIL@NMBASE@@@std@@@5@$0A@@std@@@std@@QAEAAPAU_Container_proxy@2@XZ 100c09b0 f i GFUtil.obj
 0002:00069a00       ?_Orphan_all@?$_Tree_comp_alloc@V?$_Tmap_traits@HUNMSITEINFO@UTIL@NMBASE@@U?$less@H@std@@V?$allocator@U?$pair@$$CBHUNMSITEINFO@UTIL@NMBASE@@@std@@@5@$0A@@std@@@std@@QAEXXZ 100c0a00 f i GFUtil.obj
 0002:00069a60       ?_Orphan_ptr@?$_Tree@V?$_Tmap_traits@HUNMSITEINFO@UTIL@NMBASE@@U?$less@H@std@@V?$allocator@U?$pair@$$CBHUNMSITEINFO@UTIL@NMBASE@@@std@@@5@$0A@@std@@@std@@IAEXPAU?$_Tree_node@U?$pair@$$CBHUNMSITEINFO@UTIL@NMBASE@@@std@@PAX@2@@Z 100c0a60 f i GFUtil.obj
 0002:00069be0       ?_Rmost@?$_Tree_val@U?$_Tree_simple_types@U?$pair@$$CBHUNMSITEINFO@UTIL@NMBASE@@@std@@@std@@@std@@QBEAAPAU?$_Tree_node@U?$pair@$$CBHUNMSITEINFO@UTIL@NMBASE@@@std@@PAX@2@XZ 100c0be0 f i GFUtil.obj
 0002:00069c20       ?_Root@?$_Tree_val@U?$_Tree_simple_types@U?$pair@$$CBHUNMSITEINFO@UTIL@NMBASE@@@std@@@std@@@std@@QBEAAPAU?$_Tree_node@U?$pair@$$CBHUNMSITEINFO@UTIL@NMBASE@@@std@@PAX@2@XZ 100c0c20 f i GFUtil.obj
 0002:00069c60       ?_Rrotate@?$_Tree_val@U?$_Tree_simple_types@U?$pair@$$CBHUNMSITEINFO@UTIL@NMBASE@@@std@@@std@@@std@@QAEXPAU?$_Tree_node@U?$pair@$$CBHUNMSITEINFO@UTIL@NMBASE@@@std@@PAX@2@@Z 100c0c60 f i GFUtil.obj
 0002:00069d50       ?_Tidy@?$_Tree@V?$_Tmap_traits@HUNMSITEINFO@UTIL@NMBASE@@U?$less@H@std@@V?$allocator@U?$pair@$$CBHUNMSITEINFO@UTIL@NMBASE@@@std@@@5@$0A@@std@@@std@@IAEXXZ 100c0d50 f i GFUtil.obj
 0002:00069ec0       ?allocate@?$allocator@U?$_Tree_node@U?$pair@$$CBHUNMSITEINFO@UTIL@NMBASE@@@std@@PAX@std@@@std@@QAEPAU?$_Tree_node@U?$pair@$$CBHUNMSITEINFO@UTIL@NMBASE@@@std@@PAX@2@I@Z 100c0ec0 f i GFUtil.obj
 0002:00069f30       ?begin@?$_Tree@V?$_Tmap_traits@HUNMSITEINFO@UTIL@NMBASE@@U?$less@H@std@@V?$allocator@U?$pair@$$CBHUNMSITEINFO@UTIL@NMBASE@@@std@@@5@$0A@@std@@@std@@QAE?AV?$_Tree_iterator@V?$_Tree_val@U?$_Tree_simple_types@U?$pair@$$CBHUNMSITEINFO@UTIL@NMBASE@@@std@@@std@@@std@@@2@XZ 100c0f30 f i GFUtil.obj
 0002:00069ff0       ?clear@?$_Tree@V?$_Tmap_traits@HUNMSITEINFO@UTIL@NMBASE@@U?$less@H@std@@V?$allocator@U?$pair@$$CBHUNMSITEINFO@UTIL@NMBASE@@@std@@@5@$0A@@std@@@std@@QAEXXZ 100c0ff0 f i GFUtil.obj
 0002:0006a0f0       ?deallocate@?$_Default_allocator_traits@V?$allocator@U?$_Tree_node@U?$pair@$$CBHUNMSITEINFO@UTIL@NMBASE@@@std@@PAX@std@@@std@@@std@@SAXAAV?$allocator@U?$_Tree_node@U?$pair@$$CBHUNMSITEINFO@UTIL@NMBASE@@@std@@PAX@std@@@2@QAU?$_Tree_node@U?$pair@$$CBHUNMSITEINFO@UTIL@NMBASE@@@std@@PAX@2@I@Z 100c10f0 f i GFUtil.obj
 0002:0006a150       ?deallocate@?$allocator@U?$_Tree_node@U?$pair@$$CBHUNMSITEINFO@UTIL@NMBASE@@@std@@PAX@std@@@std@@QAEXQAU?$_Tree_node@U?$pair@$$CBHUNMSITEINFO@UTIL@NMBASE@@@std@@PAX@2@I@Z 100c1150 f i GFUtil.obj
 0002:0006a1b0       ?end@?$_Tree@V?$_Tmap_traits@HUNMSITEINFO@UTIL@NMBASE@@U?$less@H@std@@V?$allocator@U?$pair@$$CBHUNMSITEINFO@UTIL@NMBASE@@@std@@@5@$0A@@std@@@std@@QAE?AV?$_Tree_iterator@V?$_Tree_val@U?$_Tree_simple_types@U?$pair@$$CBHUNMSITEINFO@UTIL@NMBASE@@@std@@@std@@@std@@@2@XZ 100c11b0 f i GFUtil.obj
 0002:0006a260       ?erase@?$_Tree@V?$_Tmap_traits@HUNMSITEINFO@UTIL@NMBASE@@U?$less@H@std@@V?$allocator@U?$pair@$$CBHUNMSITEINFO@UTIL@NMBASE@@@std@@@5@$0A@@std@@@std@@QAE?AV?$_Tree_iterator@V?$_Tree_val@U?$_Tree_simple_types@U?$pair@$$CBHUNMSITEINFO@UTIL@NMBASE@@@std@@@std@@@std@@@2@V?$_Tree_const_iterator@V?$_Tree_val@U?$_Tree_simple_types@U?$pair@$$CBHUNMSITEINFO@UTIL@NMBASE@@@std@@@std@@@std@@@2@0@Z 100c1260 f i GFUtil.obj
 0002:0006a580       ?erase@?$_Tree@V?$_Tmap_traits@HUNMSITEINFO@UTIL@NMBASE@@U?$less@H@std@@V?$allocator@U?$pair@$$CBHUNMSITEINFO@UTIL@NMBASE@@@std@@@5@$0A@@std@@@std@@QAE?AV?$_Tree_iterator@V?$_Tree_val@U?$_Tree_simple_types@U?$pair@$$CBHUNMSITEINFO@UTIL@NMBASE@@@std@@@std@@@std@@@2@V?$_Tree_const_iterator@V?$_Tree_val@U?$_Tree_simple_types@U?$pair@$$CBHUNMSITEINFO@UTIL@NMBASE@@@std@@@std@@@std@@@2@@Z 100c1580 f i GFUtil.obj
 0002:0006a810       ?find@?$_Tree@V?$_Tmap_traits@HUNMSITEINFO@UTIL@NMBASE@@U?$less@H@std@@V?$allocator@U?$pair@$$CBHUNMSITEINFO@UTIL@NMBASE@@@std@@@5@$0A@@std@@@std@@QAE?AV?$_Tree_iterator@V?$_Tree_val@U?$_Tree_simple_types@U?$pair@$$CBHUNMSITEINFO@UTIL@NMBASE@@@std@@@std@@@std@@@2@ABH@Z 100c1810 f i GFUtil.obj
 0002:0006aac0       ?lower_bound@?$_Tree@V?$_Tmap_traits@HUNMSITEINFO@UTIL@NMBASE@@U?$less@H@std@@V?$allocator@U?$pair@$$CBHUNMSITEINFO@UTIL@NMBASE@@@std@@@5@$0A@@std@@@std@@QAE?AV?$_Tree_iterator@V?$_Tree_val@U?$_Tree_simple_types@U?$pair@$$CBHUNMSITEINFO@UTIL@NMBASE@@@std@@@std@@@std@@@2@ABH@Z 100c1ac0 f i GFUtil.obj
 0002:0006ab60       ?max_size@?$_Default_allocator_traits@V?$allocator@U?$_Tree_node@U?$pair@$$CBHUNMSITEINFO@UTIL@NMBASE@@@std@@PAX@std@@@std@@@std@@SAIABV?$allocator@U?$_Tree_node@U?$pair@$$CBHUNMSITEINFO@UTIL@NMBASE@@@std@@PAX@std@@@2@@Z 100c1b60 f i GFUtil.obj
 0002:0006aba0       ?max_size@?$_Tree@V?$_Tmap_traits@HUNMSITEINFO@UTIL@NMBASE@@U?$less@H@std@@V?$allocator@U?$pair@$$CBHUNMSITEINFO@UTIL@NMBASE@@@std@@@5@$0A@@std@@@std@@QBEIXZ 100c1ba0 f i GFUtil.obj
 0002:0006ac00       ?pointer_to@?$pointer_traits@PAU?$pair@$$CBHUNMSITEINFO@UTIL@NMBASE@@@std@@@std@@SAPAU?$pair@$$CBHUNMSITEINFO@UTIL@NMBASE@@@2@AAU32@@Z 100c1c00 f i GFUtil.obj
 0002:0006ac50       ??1CComBSTR@ATL@@QAE@XZ    100c1c50 f i IPAdapterInfo.obj
 0002:0006acb0       ??1stringdispid@CComTypeInfoHolder@ATL@@QAE@XZ 100c1cb0 f i IPAdapterInfo.obj
 0002:0006ad00       ??_Estringdispid@CComTypeInfoHolder@ATL@@QAEPAXI@Z 100c1d00 f i IPAdapterInfo.obj
 0002:0006ae00       ?GetGateway@UTIL@NMBASE@@YAPBDXZ 100c1e00 f   IPAdapterInfo.obj
 0002:0006b100       ?GetMACAddress@UTIL@NMBASE@@YAPBDXZ 100c2100 f   IPAdapterInfo.obj
 0002:0006b710       ?GetMacUsingIPHLP@UTIL@NMBASE@@YA_NPBD@Z 100c2710 f   IPAdapterInfo.obj
 0002:0006b990       ??0CMacRetriever@UTIL@NMBASE@@QAE@XZ 100c2990 f   MacRetriever.obj
 0002:0006ba90       ??1CMacRetriever@UTIL@NMBASE@@QAE@XZ 100c2a90 f   MacRetriever.obj
 0002:0006bb30       ?CopyAddressToString@CMacRetriever@UTIL@NMBASE@@SAXQAEPAD@Z 100c2b30 f   MacRetriever.obj
 0002:0006bc00       ?GetMacUsingGuid@CMacRetriever@UTIL@NMBASE@@QAE_NPADH@Z 100c2c00 f   MacRetriever.obj
 0002:0006bd70       ?GetMacUsingNetBIOS@CMacRetriever@UTIL@NMBASE@@QAE_NPADH@Z 100c2d70 f   MacRetriever.obj
 0002:0006bfe0       ?GetMacUsingSNMP@CMacRetriever@UTIL@NMBASE@@QAE_NPADH@Z 100c2fe0 f   MacRetriever.obj
 0002:0006c3d0       ?InitializeGuid@CMacRetriever@UTIL@NMBASE@@QAE_NXZ 100c33d0 f   MacRetriever.obj
 0002:0006c530       ?InitializeNetBIOS@CMacRetriever@UTIL@NMBASE@@QAE_NXZ 100c3530 f   MacRetriever.obj
 0002:0006c660       ?InitializeSNMP@CMacRetriever@UTIL@NMBASE@@QAE_NXZ 100c3660 f   MacRetriever.obj
 0002:0006cae0       ?UnInitializeGuid@CMacRetriever@UTIL@NMBASE@@QAEXXZ 100c3ae0 f   MacRetriever.obj
 0002:0006cb60       ?UnInitializeNetBIOS@CMacRetriever@UTIL@NMBASE@@QAEXXZ 100c3b60 f   MacRetriever.obj
 0002:0006cbe0       ?UnInitializeSNMP@CMacRetriever@UTIL@NMBASE@@QAEXXZ 100c3be0 f   MacRetriever.obj
 0002:0006cd00       __vsnprintf_l              100c3d00 f i MacRetriever.obj
 0002:0006cdb0       __vsprintf_l               100c3db0 f i MacRetriever.obj
 0002:0006ce10       _sprintf                   100c3e10 f i MacRetriever.obj
 0002:0006ce90       ??$?0$$V@?$_Compressed_pair@V?$allocator@U_tagCONTEGODATA@@@std@@V?$_Deque_val@U?$_Deque_simple_types@U_tagCONTEGODATA@@@std@@@2@$00@std@@QAE@U_Zero_then_variadic_args_t@1@@Z 100c3e90 f i ContegoThread.obj
 0002:0006cef0       ??$?0U_tagCONTEGODATA@@@?$allocator@PAU_tagCONTEGODATA@@@std@@QAE@ABV?$allocator@U_tagCONTEGODATA@@@1@@Z 100c3ef0 f i ContegoThread.obj
 0002:0006cf30       ??$?0U_tagCONTEGODATA@@@?$allocator@U_Container_proxy@std@@@std@@QAE@ABV?$allocator@U_tagCONTEGODATA@@@1@@Z 100c3f30 f i ContegoThread.obj
 0002:0006cf70       ??$_Copy_memmove@PAPAU_tagCONTEGODATA@@PAPAU1@@std@@YAPAPAU_tagCONTEGODATA@@PAPAU1@00@Z 100c3f70 f i ContegoThread.obj
 0002:0006cff0       ??$_Destroy_range1@V?$allocator@PAU_tagCONTEGODATA@@@std@@@std@@YAXPAPAU_tagCONTEGODATA@@0AAV?$allocator@PAU_tagCONTEGODATA@@@0@U?$integral_constant@_N$00@0@@Z 100c3ff0 f i ContegoThread.obj
 0002:0006d020       ??$_Destroy_range@V?$allocator@PAU_tagCONTEGODATA@@@std@@@std@@YAXPAPAU_tagCONTEGODATA@@0AAV?$allocator@PAU_tagCONTEGODATA@@@0@@Z 100c4020 f i ContegoThread.obj
 0002:0006d090       ??$_Get_size_of_n@$0BAI@@std@@YAII@Z 100c4090 f i ContegoThread.obj
 0002:0006d0f0       ??$_Get_unwrapped@PAU_tagCONTEGODATA@@@std@@YAPAPAU_tagCONTEGODATA@@QAPAU1@@Z 100c40f0 f i ContegoThread.obj
 0002:0006d130       ??$_Get_unwrapped_n@PAU_tagCONTEGODATA@@H$0A@@std@@YAPAPAU_tagCONTEGODATA@@QAPAU1@H@Z 100c4130 f i ContegoThread.obj
 0002:0006d170       ??$_Idl_distance1@PAPAU_tagCONTEGODATA@@PAPAU1@@std@@YAHABQAPAU_tagCONTEGODATA@@0Urandom_access_iterator_tag@0@@Z 100c4170 f i ContegoThread.obj
 0002:0006d1b0       ??$_Idl_distance@PAPAU_tagCONTEGODATA@@PAPAU1@@std@@YA@ABQAPAU_tagCONTEGODATA@@0@Z 100c41b0 f i ContegoThread.obj
 0002:0006d210       ??$_Ptr_copy_cat@PAU_tagCONTEGODATA@@PAU1@@std@@YA?AU_Really_trivial_ptr_iterator_tag@0@ABQAPAU_tagCONTEGODATA@@0@Z 100c4210 f i ContegoThread.obj
 0002:0006d250       ??$_Seek_wrapped@PAU_tagCONTEGODATA@@@std@@YAXAAPAPAU_tagCONTEGODATA@@QAPAU1@@Z 100c4250 f i ContegoThread.obj
 0002:0006d290       ??$_Unfancy@U_tagCONTEGODATA@@@std@@YAPAU_tagCONTEGODATA@@PAU1@@Z 100c4290 f i ContegoThread.obj
 0002:0006d2d0       ??$_Uninitialized_copy@PAPAU_tagCONTEGODATA@@PAPAU1@V?$allocator@PAU_tagCONTEGODATA@@@std@@@std@@YAPAPAU_tagCONTEGODATA@@QAPAU1@0PAPAU1@AAV?$allocator@PAU_tagCONTEGODATA@@@0@@Z 100c42d0 f i ContegoThread.obj
 0002:0006d430       ??$_Uninitialized_copy_al_unchecked@PAU_tagCONTEGODATA@@PAU1@V?$allocator@PAU_tagCONTEGODATA@@@std@@@std@@YAPAPAU_tagCONTEGODATA@@QAPAU1@00AAV?$allocator@PAU_tagCONTEGODATA@@@0@U_Really_trivial_ptr_iterator_tag@0@U?$integral_constant@_N$00@0@@Z 100c4430 f i ContegoThread.obj
 0002:0006d490       ??$_Uninitialized_value_construct_n1@PAPAU_tagCONTEGODATA@@IV?$allocator@PAU_tagCONTEGODATA@@@std@@@std@@YAPAPAU_tagCONTEGODATA@@PAPAU1@IAAV?$allocator@PAU_tagCONTEGODATA@@@0@U?$integral_constant@_N$00@0@@Z 100c4490 f i ContegoThread.obj
 0002:0006d4f0       ??$_Uninitialized_value_construct_n@PAPAU_tagCONTEGODATA@@IV?$allocator@PAU_tagCONTEGODATA@@@std@@@std@@YAPAPAU_tagCONTEGODATA@@PAPAU1@IAAV?$allocator@PAU_tagCONTEGODATA@@@0@@Z 100c44f0 f i ContegoThread.obj
 0002:0006d560       ??$_Zero_range@PAPAU_tagCONTEGODATA@@@std@@YAPAPAU_tagCONTEGODATA@@QAPAU1@0@Z 100c4560 f i ContegoThread.obj
 0002:0006d5d0       ??$addressof@PAU_tagCONTEGODATA@@@std@@YAPAPAU_tagCONTEGODATA@@AAPAU1@@Z 100c45d0 f i ContegoThread.obj
 0002:0006d610       ??$addressof@V?$_Deque_val@U?$_Deque_simple_types@U_tagCONTEGODATA@@@std@@@std@@@std@@YAPAV?$_Deque_val@U?$_Deque_simple_types@U_tagCONTEGODATA@@@std@@@0@AAV10@@Z 100c4610 f i ContegoThread.obj
 0002:0006d650       ??$construct@U_tagCONTEGODATA@@ABU1@@?$_Default_allocator_traits@V?$allocator@U_tagCONTEGODATA@@@std@@@std@@SAXAAV?$allocator@U_tagCONTEGODATA@@@1@QAU_tagCONTEGODATA@@ABU3@@Z 100c4650 f i ContegoThread.obj
 0002:0006d6d0       ??$destroy@PAU_tagCONTEGODATA@@@?$_Default_allocator_traits@V?$allocator@PAU_tagCONTEGODATA@@@std@@@std@@SAXAAV?$allocator@PAU_tagCONTEGODATA@@@1@QAPAU_tagCONTEGODATA@@@Z 100c46d0 f i ContegoThread.obj
 0002:0006d700       ??$destroy@U_tagCONTEGODATA@@@?$_Default_allocator_traits@V?$allocator@U_tagCONTEGODATA@@@std@@@std@@SAXAAV?$allocator@U_tagCONTEGODATA@@@1@QAU_tagCONTEGODATA@@@Z 100c4700 f i ContegoThread.obj
 0002:0006d730       ??$forward@ABU_tagCONTEGODATA@@@std@@YAABU_tagCONTEGODATA@@ABU1@@Z 100c4730 f i ContegoThread.obj
 0002:0006d770       ??0?$CThreadQueue@U_tagCONTEGODATA@@@UTIL@NMBASE@@QAE@XZ 100c4770 f i ContegoThread.obj
 0002:0006d7f0       ??0?$_Deque_alloc@U?$_Deque_base_types@U_tagCONTEGODATA@@V?$allocator@U_tagCONTEGODATA@@@std@@@std@@@std@@QAE@XZ 100c47f0 f i ContegoThread.obj
 0002:0006d860       ??0?$_Deque_const_iterator@V?$_Deque_val@U?$_Deque_simple_types@U_tagCONTEGODATA@@@std@@@std@@@std@@QAE@IPBU_Container_base12@1@@Z 100c4860 f i ContegoThread.obj
 0002:0006d920       ??0?$_Deque_iterator@V?$_Deque_val@U?$_Deque_simple_types@U_tagCONTEGODATA@@@std@@@std@@@std@@QAE@IPBU_Container_base12@1@@Z 100c4920 f i ContegoThread.obj
 0002:0006d980       ??0?$_Deque_val@U?$_Deque_simple_types@U_tagCONTEGODATA@@@std@@@std@@QAE@XZ 100c4980 f i ContegoThread.obj
 0002:0006da10       ??0?$allocator@U_tagCONTEGODATA@@@std@@QAE@XZ 100c4a10 f i ContegoThread.obj
 0002:0006da50       ??0?$deque@U_tagCONTEGODATA@@V?$allocator@U_tagCONTEGODATA@@@std@@@std@@QAE@XZ 100c4a50 f i ContegoThread.obj
 0002:0006dab0       ??0?$queue@U_tagCONTEGODATA@@V?$deque@U_tagCONTEGODATA@@V?$allocator@U_tagCONTEGODATA@@@std@@@std@@@std@@QAE@XZ 100c4ab0 f i ContegoThread.obj
 0002:0006db10       ??0CContegoThread@@QAE@XZ  100c4b10 f   ContegoThread.obj
 0002:0006dcf0       ??0COleDateTime@ATL@@QAE@_J@Z 100c4cf0 f i ContegoThread.obj
 0002:0006dd70       ??0CTime@ATL@@QAE@_J@Z     100c4d70 f i ContegoThread.obj
 0002:0006ddc0       ??1?$CThreadQueue@U_tagCONTEGODATA@@@UTIL@NMBASE@@UAE@XZ 100c4dc0 f i ContegoThread.obj
 0002:0006de40       ??1?$_Deque_alloc@U?$_Deque_base_types@U_tagCONTEGODATA@@V?$allocator@U_tagCONTEGODATA@@@std@@@std@@@std@@QAE@XZ 100c4e40 f i ContegoThread.obj
 0002:0006ded0       ??1?$_Deque_const_iterator@V?$_Deque_val@U?$_Deque_simple_types@U_tagCONTEGODATA@@@std@@@std@@@std@@QAE@XZ 100c4ed0 f i ContegoThread.obj
 0002:0006df20       ??1?$_Deque_iterator@V?$_Deque_val@U?$_Deque_simple_types@U_tagCONTEGODATA@@@std@@@std@@@std@@QAE@XZ 100c4f20 f i ContegoThread.obj
 0002:0006df70       ??1?$deque@U_tagCONTEGODATA@@V?$allocator@U_tagCONTEGODATA@@@std@@@std@@QAE@XZ 100c4f70 f i ContegoThread.obj
 0002:0006e000       ??1?$queue@U_tagCONTEGODATA@@V?$deque@U_tagCONTEGODATA@@V?$allocator@U_tagCONTEGODATA@@@std@@@std@@@std@@QAE@XZ 100c5000 f i ContegoThread.obj
 0002:0006e050       ??1CContegoThread@@UAE@XZ  100c5050 f   ContegoThread.obj
 0002:0006e140       ??4COleDateTime@ATL@@QAEAAV01@AB_J@Z 100c5140 f i ContegoThread.obj
 0002:0006e260       ??B?$CTraceCategoryEx@$0CAAA@$0A@@ATL@@QAEIXZ 100c5260 f i ContegoThread.obj
 0002:0006e2a0       ??D?$_Deque_const_iterator@V?$_Deque_val@U?$_Deque_simple_types@U_tagCONTEGODATA@@@std@@@std@@@std@@QBEABU_tagCONTEGODATA@@XZ 100c52a0 f i ContegoThread.obj
 0002:0006e470       ??D?$_Deque_iterator@V?$_Deque_val@U?$_Deque_simple_types@U_tagCONTEGODATA@@@std@@@std@@@std@@QBEAAU_tagCONTEGODATA@@XZ 100c5470 f i ContegoThread.obj
 0002:0006e4c0       ??_G?$CThreadQueue@U_tagCONTEGODATA@@@UTIL@NMBASE@@UAEPAXI@Z 100c54c0 f i ContegoThread.obj
 0002:0006e4c0       ??_E?$CThreadQueue@U_tagCONTEGODATA@@@UTIL@NMBASE@@UAEPAXI@Z 100c54c0 f i ContegoThread.obj
 0002:0006e530       ??_ECContegoThread@@UAEPAXI@Z 100c5530 f i ContegoThread.obj
 0002:0006e530       ??_GCContegoThread@@UAEPAXI@Z 100c5530 f i ContegoThread.obj
 0002:0006e5b0       ?AddContegoData@CContegoThread@@QAEXPAU_tagCONTEGODATA@@@Z 100c55b0 f   ContegoThread.obj
 0002:0006e620       ?AddToBack@?$CThreadQueue@U_tagCONTEGODATA@@@UTIL@NMBASE@@QAEXU_tagCONTEGODATA@@@Z 100c5620 f i ContegoThread.obj
 0002:0006e6c0       ?AtlConvertSystemTimeToVariantTime@ATL@@YAHABU_SYSTEMTIME@@PAN@Z 100c56c0 f i ContegoThread.obj
 0002:0006e920       ?AtlThrowImpl@ATL@@YGXJ@Z  100c5920 f i ContegoThread.obj
 0002:0006e9d0       ?BeginManager@CContegoThread@@AAE_NXZ 100c59d0 f   ContegoThread.obj
 0002:0006ea90       ?ContegoThreadStartProc@@YGKPAX@Z 100c5a90 f   ContegoThread.obj
 0002:0006eaf0       ?ConvertSystemTimeToVariantTime@COleDateTime@ATL@@IAEHABU_SYSTEMTIME@@@Z 100c5af0 f i ContegoThread.obj
 0002:0006eb50       ?Destroy@CContegoThread@@QAEXXZ 100c5b50 f   ContegoThread.obj
 0002:0006ebf0       ?Format@COleDateTime@ATL@@QBE?AV?$CStringT@DV?$StrTraitMFC_DLL@DV?$ChTraitsCRT@D@ATL@@@@@2@PBD@Z 100c5bf0 f i ContegoThread.obj
 0002:0006f190       ?GetAsSystemTime@CTime@ATL@@QBE_NAAU_SYSTEMTIME@@@Z 100c6190 f i ContegoThread.obj
 0002:0006f2e0       ?GetInstance@CContegoThread@@SAAAV1@XZ 100c62e0 f   ContegoThread.obj
 0002:0006f3e0       ?GetLocalTm@CTime@ATL@@QBEPAUtm@@PAU3@@Z 100c63e0 f i ContegoThread.obj
 0002:0006f570       ?GetQueueCount@?$CThreadQueue@U_tagCONTEGODATA@@@UTIL@NMBASE@@QAEHXZ 100c6570 f i ContegoThread.obj
 0002:0006f610       ?GetStatus@COleDateTime@ATL@@QBE?AW4DateTimeStatus@12@XZ 100c6610 f i ContegoThread.obj
 0002:0006f650       ?GetTickCount@COleDateTime@ATL@@SG?AV12@XZ 100c6650 f i ContegoThread.obj
 0002:0006f6c0       ?Initilize@CContegoThread@@QAEXHPAD00@Z 100c66c0 f   ContegoThread.obj
 0002:0006f770       ?LoaderThread_Entry@CContegoThread@@QAEXXZ 100c6770 f   ContegoThread.obj
 0002:0006f880       ?RecvSecurityKey@CContegoThread@@AAEXPAX@Z 100c6880 f   ContegoThread.obj
 0002:0006fa30       ?RemoveFromFront@?$CThreadQueue@U_tagCONTEGODATA@@@UTIL@NMBASE@@QAE_NAAU_tagCONTEGODATA@@@Z 100c6a30 f i ContegoThread.obj
 0002:0006fb80       ?SendContegoData@CContegoThread@@AAEHPAU_tagCONTEGODATA@@@Z 100c6b80 f   ContegoThread.obj
 0002:000700b0       ?URLEncode1@@YA?AV?$CStringT@DV?$StrTraitMFC_DLL@DV?$ChTraitsCRT@D@ATL@@@@@ATL@@V12@@Z 100c70b0 f   ContegoThread.obj
 0002:00070440       ?_Alloc_proxy@?$_Deque_alloc@U?$_Deque_base_types@U_tagCONTEGODATA@@V?$allocator@U_tagCONTEGODATA@@@std@@@std@@@std@@QAEXXZ 100c7440 f i ContegoThread.obj
 0002:00070560       ?_Free_proxy@?$_Deque_alloc@U?$_Deque_base_types@U_tagCONTEGODATA@@V?$allocator@U_tagCONTEGODATA@@@std@@@std@@@std@@QAEXXZ 100c7560 f i ContegoThread.obj
 0002:00070660       ?_Get_data@?$_Deque_alloc@U?$_Deque_base_types@U_tagCONTEGODATA@@V?$allocator@U_tagCONTEGODATA@@@std@@@std@@@std@@QAEAAV?$_Deque_val@U?$_Deque_simple_types@U_tagCONTEGODATA@@@std@@@2@XZ 100c7660 f i ContegoThread.obj
 0002:000706b0       ?_Get_data@?$_Deque_alloc@U?$_Deque_base_types@U_tagCONTEGODATA@@V?$allocator@U_tagCONTEGODATA@@@std@@@std@@@std@@QBEABV?$_Deque_val@U?$_Deque_simple_types@U_tagCONTEGODATA@@@std@@@2@XZ 100c76b0 f i ContegoThread.obj
 0002:00070700       ?_Get_first@?$_Compressed_pair@V?$allocator@U_tagCONTEGODATA@@@std@@V?$_Deque_val@U?$_Deque_simple_types@U_tagCONTEGODATA@@@std@@@2@$00@std@@QAEAAV?$allocator@U_tagCONTEGODATA@@@2@XZ 100c7700 f i ContegoThread.obj
 0002:00070740       ?_Get_first@?$_Compressed_pair@V?$allocator@U_tagCONTEGODATA@@@std@@V?$_Deque_val@U?$_Deque_simple_types@U_tagCONTEGODATA@@@std@@@2@$00@std@@QBEABV?$allocator@U_tagCONTEGODATA@@@2@XZ 100c7740 f i ContegoThread.obj
 0002:00070780       ?_Get_second@?$_Compressed_pair@V?$allocator@U_tagCONTEGODATA@@@std@@V?$_Deque_val@U?$_Deque_simple_types@U_tagCONTEGODATA@@@std@@@2@$00@std@@QAEAAV?$_Deque_val@U?$_Deque_simple_types@U_tagCONTEGODATA@@@std@@@2@XZ 100c7780 f i ContegoThread.obj
 0002:000707c0       ?_Get_second@?$_Compressed_pair@V?$allocator@U_tagCONTEGODATA@@@std@@V?$_Deque_val@U?$_Deque_simple_types@U_tagCONTEGODATA@@@std@@@2@$00@std@@QBEABV?$_Deque_val@U?$_Deque_simple_types@U_tagCONTEGODATA@@@std@@@2@XZ 100c77c0 f i ContegoThread.obj
 0002:00070800       ?_Getal@?$_Deque_alloc@U?$_Deque_base_types@U_tagCONTEGODATA@@V?$allocator@U_tagCONTEGODATA@@@std@@@std@@@std@@QAEAAV?$allocator@U_tagCONTEGODATA@@@2@XZ 100c7800 f i ContegoThread.obj
 0002:00070850       ?_Getal@?$_Deque_alloc@U?$_Deque_base_types@U_tagCONTEGODATA@@V?$allocator@U_tagCONTEGODATA@@@std@@@std@@@std@@QBEABV?$allocator@U_tagCONTEGODATA@@@2@XZ 100c7850 f i ContegoThread.obj
 0002:000708a0       ?_Getblock@?$_Deque_alloc@U?$_Deque_base_types@U_tagCONTEGODATA@@V?$allocator@U_tagCONTEGODATA@@@std@@@std@@@std@@QBEII@Z 100c78a0 f i ContegoThread.obj
 0002:00070900       ?_Getblock@?$_Deque_val@U?$_Deque_simple_types@U_tagCONTEGODATA@@@std@@@std@@QBEII@Z 100c7900 f i ContegoThread.obj
 0002:00070950       ?_Getpfirst@?$_Deque_alloc@U?$_Deque_base_types@U_tagCONTEGODATA@@V?$allocator@U_tagCONTEGODATA@@@std@@@std@@@std@@QBEPAPAU_Iterator_base12@2@XZ 100c7950 f i ContegoThread.obj
 0002:000709b0       ?_Growmap@?$deque@U_tagCONTEGODATA@@V?$allocator@U_tagCONTEGODATA@@@std@@@std@@IAEXI@Z 100c79b0 f i ContegoThread.obj
 0002:00070d30       ?_Map@?$_Deque_alloc@U?$_Deque_base_types@U_tagCONTEGODATA@@V?$allocator@U_tagCONTEGODATA@@@std@@@std@@@std@@QAEAAPAPAU_tagCONTEGODATA@@XZ 100c7d30 f i ContegoThread.obj
 0002:00070d90       ?_Mapsize@?$_Deque_alloc@U?$_Deque_base_types@U_tagCONTEGODATA@@V?$allocator@U_tagCONTEGODATA@@@std@@@std@@@std@@QAEAAIXZ 100c7d90 f i ContegoThread.obj
 0002:00070df0       ?_Myoff@?$_Deque_alloc@U?$_Deque_base_types@U_tagCONTEGODATA@@V?$allocator@U_tagCONTEGODATA@@@std@@@std@@@std@@QAEAAIXZ 100c7df0 f i ContegoThread.obj
 0002:00070e50       ?_Myoff@?$_Deque_alloc@U?$_Deque_base_types@U_tagCONTEGODATA@@V?$allocator@U_tagCONTEGODATA@@@std@@@std@@@std@@QBEABIXZ 100c7e50 f i ContegoThread.obj
 0002:00070eb0       ?_Myproxy@?$_Deque_alloc@U?$_Deque_base_types@U_tagCONTEGODATA@@V?$allocator@U_tagCONTEGODATA@@@std@@@std@@@std@@QAEAAPAU_Container_proxy@2@XZ 100c7eb0 f i ContegoThread.obj
 0002:00070f00       ?_Mysize@?$_Deque_alloc@U?$_Deque_base_types@U_tagCONTEGODATA@@V?$allocator@U_tagCONTEGODATA@@@std@@@std@@@std@@QAEAAIXZ 100c7f00 f i ContegoThread.obj
 0002:00070f60       ?_Mysize@?$_Deque_alloc@U?$_Deque_base_types@U_tagCONTEGODATA@@V?$allocator@U_tagCONTEGODATA@@@std@@@std@@@std@@QBEABIXZ 100c7f60 f i ContegoThread.obj
 0002:00070fc0       ?_Orphan_all@?$_Deque_alloc@U?$_Deque_base_types@U_tagCONTEGODATA@@V?$allocator@U_tagCONTEGODATA@@@std@@@std@@@std@@QAEXXZ 100c7fc0 f i ContegoThread.obj
 0002:00071020       ?_Orphan_off@?$deque@U_tagCONTEGODATA@@V?$allocator@U_tagCONTEGODATA@@@std@@@std@@IBEXI@Z 100c8020 f i ContegoThread.obj
 0002:00071200       ?_Setcont@?$_Deque_const_iterator@V?$_Deque_val@U?$_Deque_simple_types@U_tagCONTEGODATA@@@std@@@std@@@std@@QAEXPBV?$_Deque_val@U?$_Deque_simple_types@U_tagCONTEGODATA@@@std@@@2@@Z 100c8200 f i ContegoThread.obj
 0002:00071260       ?_Tidy@?$deque@U_tagCONTEGODATA@@V?$allocator@U_tagCONTEGODATA@@@std@@@std@@IAEXXZ 100c8260 f i ContegoThread.obj
 0002:00071410       ?_Xlen@?$deque@U_tagCONTEGODATA@@V?$allocator@U_tagCONTEGODATA@@@std@@@std@@IBEXXZ 100c8410 f i ContegoThread.obj
 0002:00071470       ?allocate@?$allocator@PAU_tagCONTEGODATA@@@std@@QAEPAPAU_tagCONTEGODATA@@I@Z 100c8470 f i ContegoThread.obj
 0002:000714e0       ?allocate@?$allocator@U_tagCONTEGODATA@@@std@@QAEPAU_tagCONTEGODATA@@I@Z 100c84e0 f i ContegoThread.obj
 0002:00071550       ?begin@?$deque@U_tagCONTEGODATA@@V?$allocator@U_tagCONTEGODATA@@@std@@@std@@QAE?AV?$_Deque_iterator@V?$_Deque_val@U?$_Deque_simple_types@U_tagCONTEGODATA@@@std@@@std@@@2@XZ 100c8550 f i ContegoThread.obj
 0002:00071600       ?deallocate@?$allocator@PAU_tagCONTEGODATA@@@std@@QAEXQAPAU_tagCONTEGODATA@@I@Z 100c8600 f i ContegoThread.obj
 0002:00071660       ?deallocate@?$allocator@U_tagCONTEGODATA@@@std@@QAEXQAU_tagCONTEGODATA@@I@Z 100c8660 f i ContegoThread.obj
 0002:000716c0       ?empty@?$deque@U_tagCONTEGODATA@@V?$allocator@U_tagCONTEGODATA@@@std@@@std@@QBE_NXZ 100c86c0 f i ContegoThread.obj
 0002:00071740       ?front@?$deque@U_tagCONTEGODATA@@V?$allocator@U_tagCONTEGODATA@@@std@@@std@@QAEAAU_tagCONTEGODATA@@XZ 100c8740 f i ContegoThread.obj
 0002:00071820       ?front@?$queue@U_tagCONTEGODATA@@V?$deque@U_tagCONTEGODATA@@V?$allocator@U_tagCONTEGODATA@@@std@@@std@@@std@@QAEAAU_tagCONTEGODATA@@XZ 100c8820 f i ContegoThread.obj
 0002:00071870       ?gContegoThread@@YAAAVCContegoThread@@XZ 100c8870 f   ContegoThread.obj
 0002:000718c0       ?max_size@?$_Default_allocator_traits@V?$allocator@U_tagCONTEGODATA@@@std@@@std@@SAIABV?$allocator@U_tagCONTEGODATA@@@2@@Z 100c88c0 f i ContegoThread.obj
 0002:00071900       ?max_size@?$deque@U_tagCONTEGODATA@@V?$allocator@U_tagCONTEGODATA@@@std@@@std@@QBEIXZ 100c8900 f i ContegoThread.obj
 0002:00071960       ?pop@?$queue@U_tagCONTEGODATA@@V?$deque@U_tagCONTEGODATA@@V?$allocator@U_tagCONTEGODATA@@@std@@@std@@@std@@QAEXXZ 100c8960 f i ContegoThread.obj
 0002:000719b0       ?pop_back@?$deque@U_tagCONTEGODATA@@V?$allocator@U_tagCONTEGODATA@@@std@@@std@@QAEXXZ 100c89b0 f i ContegoThread.obj
 0002:00071b60       ?pop_front@?$deque@U_tagCONTEGODATA@@V?$allocator@U_tagCONTEGODATA@@@std@@@std@@QAEXXZ 100c8b60 f i ContegoThread.obj
 0002:00071d30       ?push@?$queue@U_tagCONTEGODATA@@V?$deque@U_tagCONTEGODATA@@V?$allocator@U_tagCONTEGODATA@@@std@@@std@@@std@@QAEXABU_tagCONTEGODATA@@@Z 100c8d30 f i ContegoThread.obj
 0002:00071d90       ?push_back@?$deque@U_tagCONTEGODATA@@V?$allocator@U_tagCONTEGODATA@@@std@@@std@@QAEXABU_tagCONTEGODATA@@@Z 100c8d90 f i ContegoThread.obj
 0002:00071f70       ?size@?$deque@U_tagCONTEGODATA@@V?$allocator@U_tagCONTEGODATA@@@std@@@std@@QBEIXZ 100c8f70 f i ContegoThread.obj
 0002:00071fd0       ?size@?$queue@U_tagCONTEGODATA@@V?$deque@U_tagCONTEGODATA@@V?$allocator@U_tagCONTEGODATA@@@std@@@std@@@std@@QBEIXZ 100c8fd0 f i ContegoThread.obj
 0002:00072020       ?toHex@@YAEABE@Z           100c9020 f i ContegoThread.obj
 0002:00072090       ??0CNMContegoManager@@QAE@ABV0@@Z 100c9090 f i NMContegoManager.obj
 0002:00072240       ??0CNMContegoManager@@QAE@XZ 100c9240 f   NMContegoManager.obj
 0002:00072370       ??1CNMContegoManager@@UAE@XZ 100c9370 f   NMContegoManager.obj
 0002:00072400       ??4CNMContegoManager@@QAEAAV0@ABV0@@Z 100c9400 f i NMContegoManager.obj
 0002:00072560       ??_ECNMContegoManager@@UAEPAXI@Z 100c9560 f i NMContegoManager.obj
 0002:00072670       ??_GCNMContegoManager@@UAEPAXI@Z 100c9670 f i NMContegoManager.obj
 0002:000726e0       ?BindLibraryFunction@CNMContegoManager@@QAE_NXZ 100c96e0 f   NMContegoManager.obj
 0002:00072a10       ?CheckRandomLoad@CNMContegoManager@@QAE_NK@Z 100c9a10 f   NMContegoManager.obj
 0002:00072a90       ?CtgModuleInitialize@CNMContegoManager@@QAE_NXZ 100c9a90 f   NMContegoManager.obj
 0002:00072b50       ?GetInstance@CNMContegoManager@@SAAAV1@XZ 100c9b50 f   NMContegoManager.obj
 0002:00072c50       ?HideProcess@CNMContegoManager@@QAE_NPAD0@Z 100c9c50 f   NMContegoManager.obj
 0002:00072d20       ?InitHostInfo@CNMContegoManager@@QAE_NXZ 100c9d20 f   NMContegoManager.obj
 0002:00072f20       ?InitLibrary@CNMContegoManager@@QAE_NXZ 100c9f20 f   NMContegoManager.obj
 0002:00073340       ?NMCtgDetectNotifyProc@CNMContegoManager@@SGXKPBD@Z 100ca340 f   NMContegoManager.obj
 0002:000733d0       ?NMCtgInitialize@CNMContegoManager@@QAE_NHPAD0@Z 100ca3d0 f   NMContegoManager.obj
 0002:00073a40       ?NMCtgInputNotifyProc@CNMContegoManager@@SGXW4_tagInputType@@K@Z 100caa40 f   NMContegoManager.obj
 0002:00073ac0       ?NMCtgRelease@CNMContegoManager@@QAEXXZ 100caac0 f   NMContegoManager.obj
 0002:00073ba0       ?ProtectAutoKey@CNMContegoManager@@QAE_NXZ 100caba0 f   NMContegoManager.obj
 0002:00073c70       ?ProtectAutoMouse@CNMContegoManager@@QAE_NXZ 100cac70 f   NMContegoManager.obj
 0002:00073d40       ?ProtectInput@CNMContegoManager@@QAE_NXZ 100cad40 f   NMContegoManager.obj
 0002:00073e00       ?ProtectMemory@CNMContegoManager@@QAE_NXZ 100cae00 f   NMContegoManager.obj
 0002:00073ec0       ?ProtectScreenCaptureGlobal@CNMContegoManager@@QAE_NXZ 100caec0 f   NMContegoManager.obj
 0002:00073f80       ?ProtectScreenCaptureLocal@CNMContegoManager@@QAE_NXZ 100caf80 f   NMContegoManager.obj
 0002:00074040       ?ThrowError@CNMContegoManager@@SAXKKPBD@Z 100cb040 f   NMContegoManager.obj
 0002:00074250       ?UnProtectScreenCaptureLocal@CNMContegoManager@@QAE_NXZ 100cb250 f   NMContegoManager.obj
 0002:00074310       ?gNMContegoMan@@YAAAVCNMContegoManager@@XZ 100cb310 f   NMContegoManager.obj
 0002:00074360       ??0CNMNMRunParam@UTIL@NMBASE@@QAE@XZ 100cb360 f   NMRunParam.obj
 0002:00074470       ??1CNMNMRunParam@UTIL@NMBASE@@UAE@XZ 100cb470 f   NMRunParam.obj
 0002:00074540       ?ConvertRetCode2String@NMNMRUNPARAMAPIFUNC@UTIL@NMBASE@@YAPBDK@Z 100cb540 f   NMRunParam.obj
 0002:00074590       ?Create@NMNMRUNPARAMAPIFUNC_RUNPARAMKEY@UTIL@NMBASE@@YAKPADK@Z 100cb590 f   NMRunParam.obj
 0002:000745f0       ?ExistsParam@CNMNMRunParam@UTIL@NMBASE@@QAE_NPBD@Z 100cb5f0 f   NMRunParam.obj
 0002:00074650       ?GetArg@NMNMRUNPARAMAPIFUNC_CMDARG@UTIL@NMBASE@@YAKGPADK@Z 100cb650 f   NMRunParam.obj
 0002:000746b0       ?GetArgLength@NMNMRUNPARAMAPIFUNC_CMDARG@UTIL@NMBASE@@YAKG@Z 100cb6b0 f   NMRunParam.obj
 0002:00074700       ?GetCommonPath@NMNMRUNPARAMAPIFUNC_ENVVAR@UTIL@NMBASE@@YAPBDXZ 100cb700 f   NMRunParam.obj
 0002:00074750       ?GetCount@NMNMRUNPARAMAPIFUNC_CMDARG@UTIL@NMBASE@@YAKXZ 100cb750 f   NMRunParam.obj
 0002:000747a0       ?GetEnvName@NMNMRUNPARAMAPIFUNC_ENVVAR@UTIL@NMBASE@@YAPBDW4ENVVARNAME@NMRUNPARAMAPIFUNC_ENVVAR@@@Z 100cb7a0 f   NMRunParam.obj
 0002:000747f0       ?GetEnvVar@NMNMRUNPARAMAPIFUNC_ENVVAR@UTIL@NMBASE@@YAKPBDPADK@Z 100cb7f0 f   NMRunParam.obj
 0002:00074850       ?GetEnvVar@NMNMRUNPARAMAPIFUNC_ENVVAR@UTIL@NMBASE@@YAKW4ENVVARNAME@NMRUNPARAMAPIFUNC_ENVVAR@@PADK@Z 100cb850 f   NMRunParam.obj
 0002:000748b0       ?GetEnvVarLength@NMNMRUNPARAMAPIFUNC_ENVVAR@UTIL@NMBASE@@YAKPBD@Z 100cb8b0 f   NMRunParam.obj
 0002:00074900       ?GetEnvVarLength@NMNMRUNPARAMAPIFUNC_ENVVAR@UTIL@NMBASE@@YAKW4ENVVARNAME@NMRUNPARAMAPIFUNC_ENVVAR@@@Z 100cb900 f   NMRunParam.obj
 0002:00074950       ?GetParam@CNMNMRunParam@UTIL@NMBASE@@QAEPBDPBD@Z 100cb950 f   NMRunParam.obj
 0002:000749b0       ?GetParamCount@CNMNMRunParam@UTIL@NMBASE@@QAEKXZ 100cb9b0 f   NMRunParam.obj
 0002:00074a10       ?GetParamName@CNMNMRunParam@UTIL@NMBASE@@QAEPBDK@Z 100cba10 f   NMRunParam.obj
 0002:00074a70       ?GetRunFilePath@NMNMRUNPARAMAPIFUNC_CMDARG@UTIL@NMBASE@@YAPBDXZ 100cba70 f   NMRunParam.obj
 0002:00074ac0       ?GetRunParamKey@NMNMRUNPARAMAPIFUNC_CMDARG@UTIL@NMBASE@@YAPBDXZ 100cbac0 f   NMRunParam.obj
 0002:00074b10       ?GetSiteName@NMNMRUNPARAMAPIFUNC_ENVVAR@UTIL@NMBASE@@YAPBDXZ 100cbb10 f   NMRunParam.obj
 0002:00074b60       ?Load@CNMNMRunParam@UTIL@NMBASE@@QAEKPBD_N@Z 100cbb60 f   NMRunParam.obj
 0002:00074bc0       ?RemoveParam@CNMNMRunParam@UTIL@NMBASE@@QAEKPBD@Z 100cbbc0 f   NMRunParam.obj
 0002:00074c20       ?RunProgram@CNMNMRunParam@UTIL@NMBASE@@QAEKPBDPAI0@Z 100cbc20 f   NMRunParam.obj
 0002:00074c90       ?Save@CNMNMRunParam@UTIL@NMBASE@@QAEKPBD@Z 100cbc90 f   NMRunParam.obj
 0002:00074cf0       ?SetCommonPath@NMNMRUNPARAMAPIFUNC_ENVVAR@UTIL@NMBASE@@YAKPBD@Z 100cbcf0 f   NMRunParam.obj
 0002:00074d40       ?SetCurPathToRunFilePath@NMNMRUNPARAMAPIFUNC_CMDARG@UTIL@NMBASE@@YAKXZ 100cbd40 f   NMRunParam.obj
 0002:00074d90       ?SetDLLFileName@NMNMRUNPARAMAPIFUNC@UTIL@NMBASE@@YAKPBD@Z 100cbd90 f   NMRunParam.obj
 0002:00074de0       ?SetEnvVar@NMNMRUNPARAMAPIFUNC_ENVVAR@UTIL@NMBASE@@YAKPBD0@Z 100cbde0 f   NMRunParam.obj
 0002:00074e40       ?SetEnvVar@NMNMRUNPARAMAPIFUNC_ENVVAR@UTIL@NMBASE@@YAKW4ENVVARNAME@NMRUNPARAMAPIFUNC_ENVVAR@@PBD@Z 100cbe40 f   NMRunParam.obj
 0002:00074ea0       ?SetParam@CNMNMRunParam@UTIL@NMBASE@@QAEKPBD0@Z 100cbea0 f   NMRunParam.obj
 0002:00074f00       ?SetSiteName@NMNMRUNPARAMAPIFUNC_ENVVAR@UTIL@NMBASE@@YAKPBD@Z 100cbf00 f   NMRunParam.obj
 0002:00074f50       ??$?0$$V@?$_Compressed_pair@V?$allocator@K@std@@V?$_Vector_val@U?$_Simple_types@K@std@@@2@$00@std@@QAE@U_Zero_then_variadic_args_t@1@@Z 100cbf50 f i NoChat.obj
 0002:00074fb0       ??$?0$$V@?$_Compressed_pair@V?$allocator@M@std@@V?$_Vector_val@U?$_Simple_types@M@std@@@2@$00@std@@QAE@U_Zero_then_variadic_args_t@1@@Z 100cbfb0 f i NoChat.obj
 0002:00075010       ??$?0$$V@?$_Compressed_pair@V?$allocator@V?$CStringT@DV?$StrTraitMFC_DLL@DV?$ChTraitsCRT@D@ATL@@@@@ATL@@@std@@V?$_Vector_val@U?$_Simple_types@V?$CStringT@DV?$StrTraitMFC_DLL@DV?$ChTraitsCRT@D@ATL@@@@@ATL@@@std@@@2@$00@std@@QAE@U_Zero_then_variadic_args_t@1@@Z 100cc010 f i NoChat.obj
 0002:00075070       ??$?0K@?$allocator@U_Container_proxy@std@@@std@@QAE@ABV?$allocator@K@1@@Z 100cc070 f i NoChat.obj
 0002:000750b0       ??$?0M@?$allocator@U_Container_proxy@std@@@std@@QAE@ABV?$allocator@M@1@@Z 100cc0b0 f i NoChat.obj
 0002:000750f0       ??$?0U?$integral_constant@_N$00@std@@@_Unused_parameter@std@@QAE@$$QAU?$integral_constant@_N$00@1@@Z 100cc0f0 f i NoChat.obj
 0002:00075130       ??$?0V?$CStringT@DV?$StrTraitMFC_DLL@DV?$ChTraitsCRT@D@ATL@@@@@ATL@@@?$allocator@U_Container_proxy@std@@@std@@QAE@ABV?$allocator@V?$CStringT@DV?$StrTraitMFC_DLL@DV?$ChTraitsCRT@D@ATL@@@@@ATL@@@1@@Z 100cc130 f i NoChat.obj
 0002:00075170       ??$_Copy_memmove@PAKPAK@std@@YAPAKPAK00@Z 100cc170 f i NoChat.obj
 0002:000751f0       ??$_Copy_memmove@PAMPAM@std@@YAPAMPAM00@Z 100cc1f0 f i NoChat.obj
 0002:00075270       ??$_Destroy_range1@V?$allocator@K@std@@@std@@YAXPAK0AAV?$allocator@K@0@U?$integral_constant@_N$00@0@@Z 100cc270 f i NoChat.obj
 0002:000752a0       ??$_Destroy_range1@V?$allocator@M@std@@@std@@YAXPAM0AAV?$allocator@M@0@U?$integral_constant@_N$00@0@@Z 100cc2a0 f i NoChat.obj
 0002:000752d0       ??$_Destroy_range1@V?$allocator@V?$CStringT@DV?$StrTraitMFC_DLL@DV?$ChTraitsCRT@D@ATL@@@@@ATL@@@std@@@std@@YAXPAV?$CStringT@DV?$StrTraitMFC_DLL@DV?$ChTraitsCRT@D@ATL@@@@@ATL@@0AAV?$allocator@V?$CStringT@DV?$StrTraitMFC_DLL@DV?$ChTraitsCRT@D@ATL@@@@@ATL@@@0@U?$integral_constant@_N$0A@@0@@Z 100cc2d0 f i NoChat.obj
 0002:00075350       ??$_Destroy_range@V?$allocator@K@std@@@std@@YAXPAK0AAV?$allocator@K@0@@Z 100cc350 f i NoChat.obj
 0002:000753c0       ??$_Destroy_range@V?$allocator@M@std@@@std@@YAXPAM0AAV?$allocator@M@0@@Z 100cc3c0 f i NoChat.obj
 0002:00075430       ??$_Destroy_range@V?$allocator@V?$CStringT@DV?$StrTraitMFC_DLL@DV?$ChTraitsCRT@D@ATL@@@@@ATL@@@std@@@std@@YAXPAV?$CStringT@DV?$StrTraitMFC_DLL@DV?$ChTraitsCRT@D@ATL@@@@@ATL@@0AAV?$allocator@V?$CStringT@DV?$StrTraitMFC_DLL@DV?$ChTraitsCRT@D@ATL@@@@@ATL@@@0@@Z 100cc430 f i NoChat.obj
 0002:000754a0       ??$_Emplace_back@AAV?$CStringT@DV?$StrTraitMFC_DLL@DV?$ChTraitsCRT@D@ATL@@@@@ATL@@@?$_Uninitialized_backout_al@PAV?$CStringT@DV?$StrTraitMFC_DLL@DV?$ChTraitsCRT@D@ATL@@@@@ATL@@V?$allocator@V?$CStringT@DV?$StrTraitMFC_DLL@DV?$ChTraitsCRT@D@ATL@@@@@ATL@@@std@@@std@@QAEXAAV?$CStringT@DV?$StrTraitMFC_DLL@DV?$ChTraitsCRT@D@ATL@@@@@ATL@@@Z 100cc4a0 f i NoChat.obj
 0002:00075540       ??$_Emplace_back@V?$CStringT@DV?$StrTraitMFC_DLL@DV?$ChTraitsCRT@D@ATL@@@@@ATL@@@?$_Uninitialized_backout_al@PAV?$CStringT@DV?$StrTraitMFC_DLL@DV?$ChTraitsCRT@D@ATL@@@@@ATL@@V?$allocator@V?$CStringT@DV?$StrTraitMFC_DLL@DV?$ChTraitsCRT@D@ATL@@@@@ATL@@@std@@@std@@QAEX$$QAV?$CStringT@DV?$StrTraitMFC_DLL@DV?$ChTraitsCRT@D@ATL@@@@@ATL@@@Z 100cc540 f i NoChat.obj
 0002:000755e0       ??$_Emplace_back_with_unused_capacity@ABK@?$vector@KV?$allocator@K@std@@@std@@AAE@ABK@Z 100cc5e0 f i NoChat.obj
 0002:000756d0       ??$_Emplace_back_with_unused_capacity@ABV?$CStringT@DV?$StrTraitMFC_DLL@DV?$ChTraitsCRT@D@ATL@@@@@ATL@@@?$vector@V?$CStringT@DV?$StrTraitMFC_DLL@DV?$ChTraitsCRT@D@ATL@@@@@ATL@@V?$allocator@V?$CStringT@DV?$StrTraitMFC_DLL@DV?$ChTraitsCRT@D@ATL@@@@@ATL@@@std@@@std@@AAE@ABV?$CStringT@DV?$StrTraitMFC_DLL@DV?$ChTraitsCRT@D@ATL@@@@@ATL@@@Z 100cc6d0 f i NoChat.obj
 0002:000757c0       ??$_Emplace_back_with_unused_capacity@M@?$vector@MV?$allocator@M@std@@@std@@AAE@$$QAM@Z 100cc7c0 f i NoChat.obj
 0002:000758b0       ??$_Emplace_reallocate@ABK@?$vector@KV?$allocator@K@std@@@std@@QAEPAKQAKABK@Z 100cc8b0 f i NoChat.obj
 0002:00075b40       ??$_Emplace_reallocate@ABV?$CStringT@DV?$StrTraitMFC_DLL@DV?$ChTraitsCRT@D@ATL@@@@@ATL@@@?$vector@V?$CStringT@DV?$StrTraitMFC_DLL@DV?$ChTraitsCRT@D@ATL@@@@@ATL@@V?$allocator@V?$CStringT@DV?$StrTraitMFC_DLL@DV?$ChTraitsCRT@D@ATL@@@@@ATL@@@std@@@std@@QAEPAV?$CStringT@DV?$StrTraitMFC_DLL@DV?$ChTraitsCRT@D@ATL@@@@@ATL@@QAV23@ABV23@@Z 100ccb40 f i NoChat.obj
 0002:00075dd0       ??$_Emplace_reallocate@M@?$vector@MV?$allocator@M@std@@@std@@QAEPAMQAM$$QAM@Z 100ccdd0 f i NoChat.obj
 0002:00076060       ??$_Get_unwrapped@K@std@@YAPAKQAK@Z 100cd060 f i NoChat.obj
 0002:000760a0       ??$_Get_unwrapped@M@std@@YAPAMQAM@Z 100cd0a0 f i NoChat.obj
 0002:000760e0       ??$_Get_unwrapped@V?$CStringT@DV?$StrTraitMFC_DLL@DV?$ChTraitsCRT@D@ATL@@@@@ATL@@@std@@YAPAV?$CStringT@DV?$StrTraitMFC_DLL@DV?$ChTraitsCRT@D@ATL@@@@@ATL@@QAV12@@Z 100cd0e0 f i NoChat.obj
 0002:00076120       ??$_Get_unwrapped_n@KH$0A@@std@@YAPAKQAKH@Z 100cd120 f i NoChat.obj
 0002:00076160       ??$_Get_unwrapped_n@MH$0A@@std@@YAPAMQAMH@Z 100cd160 f i NoChat.obj
 0002:000761a0       ??$_Get_unwrapped_n@V?$CStringT@DV?$StrTraitMFC_DLL@DV?$ChTraitsCRT@D@ATL@@@@@ATL@@H$0A@@std@@YAPAV?$CStringT@DV?$StrTraitMFC_DLL@DV?$ChTraitsCRT@D@ATL@@@@@ATL@@QAV12@H@Z 100cd1a0 f i NoChat.obj
 0002:000761e0       ??$_Idl_distance1@PAKPAK@std@@YAHABQAK0Urandom_access_iterator_tag@0@@Z 100cd1e0 f i NoChat.obj
 0002:00076220       ??$_Idl_distance1@PAMPAM@std@@YAHABQAM0Urandom_access_iterator_tag@0@@Z 100cd220 f i NoChat.obj
 0002:00076260       ??$_Idl_distance1@PAV?$CStringT@DV?$StrTraitMFC_DLL@DV?$ChTraitsCRT@D@ATL@@@@@ATL@@PAV12@@std@@YAHABQAV?$CStringT@DV?$StrTraitMFC_DLL@DV?$ChTraitsCRT@D@ATL@@@@@ATL@@0Urandom_access_iterator_tag@0@@Z 100cd260 f i NoChat.obj
 0002:000762a0       ??$_Idl_distance@PAKPAK@std@@YA@ABQAK0@Z 100cd2a0 f i NoChat.obj
 0002:00076300       ??$_Idl_distance@PAMPAM@std@@YA@ABQAM0@Z 100cd300 f i NoChat.obj
 0002:00076360       ??$_Idl_distance@PAV?$CStringT@DV?$StrTraitMFC_DLL@DV?$ChTraitsCRT@D@ATL@@@@@ATL@@PAV12@@std@@YA@ABQAV?$CStringT@DV?$StrTraitMFC_DLL@DV?$ChTraitsCRT@D@ATL@@@@@ATL@@0@Z 100cd360 f i NoChat.obj
 0002:000763c0       ??$_Ptr_copy_cat@V?$CStringT@DV?$StrTraitMFC_DLL@DV?$ChTraitsCRT@D@ATL@@@@@ATL@@V12@@std@@YA?AU_General_ptr_iterator_tag@0@ABQAV?$CStringT@DV?$StrTraitMFC_DLL@DV?$ChTraitsCRT@D@ATL@@@@@ATL@@0@Z 100cd3c0 f i NoChat.obj
 0002:00076400       ??$_Ptr_move_cat@KK@std@@YA?AU_Really_trivial_ptr_iterator_tag@0@ABQAK0@Z 100cd400 f i NoChat.obj
 0002:00076440       ??$_Ptr_move_cat@MM@std@@YA?AU_Really_trivial_ptr_iterator_tag@0@ABQAM0@Z 100cd440 f i NoChat.obj
 0002:00076480       ??$_Ptr_move_cat@V?$CStringT@DV?$StrTraitMFC_DLL@DV?$ChTraitsCRT@D@ATL@@@@@ATL@@V12@@std@@YA?AU_General_ptr_iterator_tag@0@ABQAV?$CStringT@DV?$StrTraitMFC_DLL@DV?$ChTraitsCRT@D@ATL@@@@@ATL@@0@Z 100cd480 f i NoChat.obj
 0002:000764c0       ??$_Seek_wrapped@K@std@@YAXAAPAKQAK@Z 100cd4c0 f i NoChat.obj
 0002:00076500       ??$_Seek_wrapped@M@std@@YAXAAPAMQAM@Z 100cd500 f i NoChat.obj
 0002:00076540       ??$_Seek_wrapped@V?$CStringT@DV?$StrTraitMFC_DLL@DV?$ChTraitsCRT@D@ATL@@@@@ATL@@@std@@YAXAAPAV?$CStringT@DV?$StrTraitMFC_DLL@DV?$ChTraitsCRT@D@ATL@@@@@ATL@@QAV12@@Z 100cd540 f i NoChat.obj
 0002:00076580       ??$_Unfancy@K@std@@YAPAKPAK@Z 100cd580 f i NoChat.obj
 0002:000765c0       ??$_Unfancy@M@std@@YAPAMPAM@Z 100cd5c0 f i NoChat.obj
 0002:00076600       ??$_Unfancy@V?$CStringT@DV?$StrTraitMFC_DLL@DV?$ChTraitsCRT@D@ATL@@@@@ATL@@@std@@YAPAV?$CStringT@DV?$StrTraitMFC_DLL@DV?$ChTraitsCRT@D@ATL@@@@@ATL@@PAV12@@Z 100cd600 f i NoChat.obj
 0002:00076640       ??$_Uninitialized_copy@PAV?$CStringT@DV?$StrTraitMFC_DLL@DV?$ChTraitsCRT@D@ATL@@@@@ATL@@PAV12@V?$allocator@V?$CStringT@DV?$StrTraitMFC_DLL@DV?$ChTraitsCRT@D@ATL@@@@@ATL@@@std@@@std@@YAPAV?$CStringT@DV?$StrTraitMFC_DLL@DV?$ChTraitsCRT@D@ATL@@@@@ATL@@QAV12@0PAV12@AAV?$allocator@V?$CStringT@DV?$StrTraitMFC_DLL@DV?$ChTraitsCRT@D@ATL@@@@@ATL@@@0@@Z 100cd640 f i NoChat.obj
 0002:000767a0       ??$_Uninitialized_copy_al_unchecked@PAV?$CStringT@DV?$StrTraitMFC_DLL@DV?$ChTraitsCRT@D@ATL@@@@@ATL@@PAV12@V?$allocator@V?$CStringT@DV?$StrTraitMFC_DLL@DV?$ChTraitsCRT@D@ATL@@@@@ATL@@@std@@@std@@YAPAV?$CStringT@DV?$StrTraitMFC_DLL@DV?$ChTraitsCRT@D@ATL@@@@@ATL@@PAV12@QAV12@1AAV?$allocator@V?$CStringT@DV?$StrTraitMFC_DLL@DV?$ChTraitsCRT@D@ATL@@@@@ATL@@@0@U_General_ptr_iterator_tag@0@U_Unused_parameter@0@@Z 100cd7a0 f i NoChat.obj
 0002:000768c0       ??$_Uninitialized_move@PAKPAKV?$allocator@K@std@@@std@@YAPAKQAK0PAKAAV?$allocator@K@0@@Z 100cd8c0 f i NoChat.obj
 0002:00076a20       ??$_Uninitialized_move@PAMPAMV?$allocator@M@std@@@std@@YAPAMQAM0PAMAAV?$allocator@M@0@@Z 100cda20 f i NoChat.obj
 0002:00076b80       ??$_Uninitialized_move@PAV?$CStringT@DV?$StrTraitMFC_DLL@DV?$ChTraitsCRT@D@ATL@@@@@ATL@@PAV12@V?$allocator@V?$CStringT@DV?$StrTraitMFC_DLL@DV?$ChTraitsCRT@D@ATL@@@@@ATL@@@std@@@std@@YAPAV?$CStringT@DV?$StrTraitMFC_DLL@DV?$ChTraitsCRT@D@ATL@@@@@ATL@@QAV12@0PAV12@AAV?$allocator@V?$CStringT@DV?$StrTraitMFC_DLL@DV?$ChTraitsCRT@D@ATL@@@@@ATL@@@0@@Z 100cdb80 f i NoChat.obj
 0002:00076ce0       ??$_Uninitialized_move_al_unchecked@KKV?$allocator@K@std@@@std@@YAPAKQAK00AAV?$allocator@K@0@U_Really_trivial_ptr_iterator_tag@0@U?$integral_constant@_N$00@0@@Z 100cdce0 f i NoChat.obj
 0002:00076d40       ??$_Uninitialized_move_al_unchecked@MMV?$allocator@M@std@@@std@@YAPAMQAM00AAV?$allocator@M@0@U_Really_trivial_ptr_iterator_tag@0@U?$integral_constant@_N$00@0@@Z 100cdd40 f i NoChat.obj
 0002:00076da0       ??$_Uninitialized_move_al_unchecked@PAV?$CStringT@DV?$StrTraitMFC_DLL@DV?$ChTraitsCRT@D@ATL@@@@@ATL@@PAV12@V?$allocator@V?$CStringT@DV?$StrTraitMFC_DLL@DV?$ChTraitsCRT@D@ATL@@@@@ATL@@@std@@@std@@YAPAV?$CStringT@DV?$StrTraitMFC_DLL@DV?$ChTraitsCRT@D@ATL@@@@@ATL@@PAV12@QAV12@1AAV?$allocator@V?$CStringT@DV?$StrTraitMFC_DLL@DV?$ChTraitsCRT@D@ATL@@@@@ATL@@@0@U_General_ptr_iterator_tag@0@U_Unused_parameter@0@@Z 100cdda0 f i NoChat.obj
 0002:00076ed0       ??$addressof@V?$_Vector_val@U?$_Simple_types@K@std@@@std@@@std@@YAPAV?$_Vector_val@U?$_Simple_types@K@std@@@0@AAV10@@Z 100cded0 f i NoChat.obj
 0002:00076f10       ??$addressof@V?$_Vector_val@U?$_Simple_types@M@std@@@std@@@std@@YAPAV?$_Vector_val@U?$_Simple_types@M@std@@@0@AAV10@@Z 100cdf10 f i NoChat.obj
 0002:00076f50       ??$addressof@V?$_Vector_val@U?$_Simple_types@V?$CStringT@DV?$StrTraitMFC_DLL@DV?$ChTraitsCRT@D@ATL@@@@@ATL@@@std@@@std@@@std@@YAPAV?$_Vector_val@U?$_Simple_types@V?$CStringT@DV?$StrTraitMFC_DLL@DV?$ChTraitsCRT@D@ATL@@@@@ATL@@@std@@@0@AAV10@@Z 100cdf50 f i NoChat.obj
 0002:00076f90       ??$construct@KABK@?$_Default_allocator_traits@V?$allocator@K@std@@@std@@SAXAAV?$allocator@K@1@QAKABK@Z 100cdf90 f i NoChat.obj
 0002:00077010       ??$construct@MM@?$_Default_allocator_traits@V?$allocator@M@std@@@std@@SAXAAV?$allocator@M@1@QAM$$QAM@Z 100ce010 f i NoChat.obj
 0002:00077090       ??$construct@V?$CStringT@DV?$StrTraitMFC_DLL@DV?$ChTraitsCRT@D@ATL@@@@@ATL@@AAV12@@?$_Default_allocator_traits@V?$allocator@V?$CStringT@DV?$StrTraitMFC_DLL@DV?$ChTraitsCRT@D@ATL@@@@@ATL@@@std@@@std@@SAXAAV?$allocator@V?$CStringT@DV?$StrTraitMFC_DLL@DV?$ChTraitsCRT@D@ATL@@@@@ATL@@@1@QAV?$CStringT@DV?$StrTraitMFC_DLL@DV?$ChTraitsCRT@D@ATL@@@@@ATL@@AAV34@@Z 100ce090 f i NoChat.obj
 0002:00077120       ??$construct@V?$CStringT@DV?$StrTraitMFC_DLL@DV?$ChTraitsCRT@D@ATL@@@@@ATL@@ABV12@@?$_Default_allocator_traits@V?$allocator@V?$CStringT@DV?$StrTraitMFC_DLL@DV?$ChTraitsCRT@D@ATL@@@@@ATL@@@std@@@std@@SAXAAV?$allocator@V?$CStringT@DV?$StrTraitMFC_DLL@DV?$ChTraitsCRT@D@ATL@@@@@ATL@@@1@QAV?$CStringT@DV?$StrTraitMFC_DLL@DV?$ChTraitsCRT@D@ATL@@@@@ATL@@ABV34@@Z 100ce120 f i NoChat.obj
 0002:000771b0       ??$construct@V?$CStringT@DV?$StrTraitMFC_DLL@DV?$ChTraitsCRT@D@ATL@@@@@ATL@@V12@@?$_Default_allocator_traits@V?$allocator@V?$CStringT@DV?$StrTraitMFC_DLL@DV?$ChTraitsCRT@D@ATL@@@@@ATL@@@std@@@std@@SAXAAV?$allocator@V?$CStringT@DV?$StrTraitMFC_DLL@DV?$ChTraitsCRT@D@ATL@@@@@ATL@@@1@QAV?$CStringT@DV?$StrTraitMFC_DLL@DV?$ChTraitsCRT@D@ATL@@@@@ATL@@$$QAV34@@Z 100ce1b0 f i NoChat.obj
 0002:00077240       ??$destroy@V?$CStringT@DV?$StrTraitMFC_DLL@DV?$ChTraitsCRT@D@ATL@@@@@ATL@@@?$_Default_allocator_traits@V?$allocator@V?$CStringT@DV?$StrTraitMFC_DLL@DV?$ChTraitsCRT@D@ATL@@@@@ATL@@@std@@@std@@SAXAAV?$allocator@V?$CStringT@DV?$StrTraitMFC_DLL@DV?$ChTraitsCRT@D@ATL@@@@@ATL@@@1@QAV?$CStringT@DV?$StrTraitMFC_DLL@DV?$ChTraitsCRT@D@ATL@@@@@ATL@@@Z 100ce240 f i NoChat.obj
 0002:00077290       ??$emplace_back@ABK@?$vector@KV?$allocator@K@std@@@std@@QAE@ABK@Z 100ce290 f i NoChat.obj
 0002:00077340       ??$emplace_back@ABV?$CStringT@DV?$StrTraitMFC_DLL@DV?$ChTraitsCRT@D@ATL@@@@@ATL@@@?$vector@V?$CStringT@DV?$StrTraitMFC_DLL@DV?$ChTraitsCRT@D@ATL@@@@@ATL@@V?$allocator@V?$CStringT@DV?$StrTraitMFC_DLL@DV?$ChTraitsCRT@D@ATL@@@@@ATL@@@std@@@std@@QAE@ABV?$CStringT@DV?$StrTraitMFC_DLL@DV?$ChTraitsCRT@D@ATL@@@@@ATL@@@Z 100ce340 f i NoChat.obj
 0002:000773f0       ??$emplace_back@M@?$vector@MV?$allocator@M@std@@@std@@QAE@$$QAM@Z 100ce3f0 f i NoChat.obj
 0002:000774a0       ??$forward@AAV?$CStringT@DV?$StrTraitMFC_DLL@DV?$ChTraitsCRT@D@ATL@@@@@ATL@@@std@@YAAAV?$CStringT@DV?$StrTraitMFC_DLL@DV?$ChTraitsCRT@D@ATL@@@@@ATL@@AAV12@@Z 100ce4a0 f i NoChat.obj
 0002:000774e0       ??$forward@ABK@std@@YAABKABK@Z 100ce4e0 f i NoChat.obj
 0002:00077520       ??$forward@M@std@@YA$$QAMAAM@Z 100ce520 f i NoChat.obj
 0002:00077560       ??$forward@V?$CStringT@DV?$StrTraitMFC_DLL@DV?$ChTraitsCRT@D@ATL@@@@@ATL@@@std@@YA$$QAV?$CStringT@DV?$StrTraitMFC_DLL@DV?$ChTraitsCRT@D@ATL@@@@@ATL@@AAV12@@Z 100ce560 f i NoChat.obj
 0002:000775a0       ??$move@AAM@std@@YA$$QAMAAM@Z 100ce5a0 f i NoChat.obj
 0002:000775e0       ??$move@AAV?$CStringT@DV?$StrTraitMFC_DLL@DV?$ChTraitsCRT@D@ATL@@@@@ATL@@@std@@YA$$QAV?$CStringT@DV?$StrTraitMFC_DLL@DV?$ChTraitsCRT@D@ATL@@@@@ATL@@AAV12@@Z 100ce5e0 f i NoChat.obj
 0002:00077620       ??0?$_Uninitialized_backout_al@PAV?$CStringT@DV?$StrTraitMFC_DLL@DV?$ChTraitsCRT@D@ATL@@@@@ATL@@V?$allocator@V?$CStringT@DV?$StrTraitMFC_DLL@DV?$ChTraitsCRT@D@ATL@@@@@ATL@@@std@@@std@@QAE@PAV?$CStringT@DV?$StrTraitMFC_DLL@DV?$ChTraitsCRT@D@ATL@@@@@ATL@@AAV?$allocator@V?$CStringT@DV?$StrTraitMFC_DLL@DV?$ChTraitsCRT@D@ATL@@@@@ATL@@@1@@Z 100ce620 f i NoChat.obj
 0002:00077680       ??0?$_Vector_alloc@U?$_Vec_base_types@KV?$allocator@K@std@@@std@@@std@@QAE@XZ 100ce680 f i NoChat.obj
 0002:000776f0       ??0?$_Vector_alloc@U?$_Vec_base_types@MV?$allocator@M@std@@@std@@@std@@QAE@XZ 100ce6f0 f i NoChat.obj
 0002:00077760       ??0?$_Vector_alloc@U?$_Vec_base_types@V?$CStringT@DV?$StrTraitMFC_DLL@DV?$ChTraitsCRT@D@ATL@@@@@ATL@@V?$allocator@V?$CStringT@DV?$StrTraitMFC_DLL@DV?$ChTraitsCRT@D@ATL@@@@@ATL@@@std@@@std@@@std@@QAE@XZ 100ce760 f i NoChat.obj
 0002:000777d0       ??0?$_Vector_val@U?$_Simple_types@K@std@@@std@@QAE@XZ 100ce7d0 f i NoChat.obj
 0002:00077850       ??0?$_Vector_val@U?$_Simple_types@M@std@@@std@@QAE@XZ 100ce850 f i NoChat.obj
 0002:000778d0       ??0?$_Vector_val@U?$_Simple_types@V?$CStringT@DV?$StrTraitMFC_DLL@DV?$ChTraitsCRT@D@ATL@@@@@ATL@@@std@@@std@@QAE@XZ 100ce8d0 f i NoChat.obj
 0002:00077950       ??0?$allocator@K@std@@QAE@XZ 100ce950 f i NoChat.obj
 0002:00077990       ??0?$allocator@M@std@@QAE@XZ 100ce990 f i NoChat.obj
 0002:000779d0       ??0?$allocator@V?$CStringT@DV?$StrTraitMFC_DLL@DV?$ChTraitsCRT@D@ATL@@@@@ATL@@@std@@QAE@XZ 100ce9d0 f i NoChat.obj
 0002:00077a10       ??0?$vector@KV?$allocator@K@std@@@std@@QAE@XZ 100cea10 f i NoChat.obj
 0002:00077aa0       ??0?$vector@MV?$allocator@M@std@@@std@@QAE@XZ 100ceaa0 f i NoChat.obj
 0002:00077b30       ??0?$vector@V?$CStringT@DV?$StrTraitMFC_DLL@DV?$ChTraitsCRT@D@ATL@@@@@ATL@@V?$allocator@V?$CStringT@DV?$StrTraitMFC_DLL@DV?$ChTraitsCRT@D@ATL@@@@@ATL@@@std@@@std@@QAE@XZ 100ceb30 f i NoChat.obj
 0002:00077bc0       ??0CNoChat@UTIL@NMBASE@@QAE@ABV012@@Z 100cebc0 f i NoChat.obj
 0002:00077c90       ??0CNoChat@UTIL@NMBASE@@QAE@XZ 100cec90 f   NoChat.obj
 0002:00077d20       ??1?$_Uninitialized_backout_al@PAV?$CStringT@DV?$StrTraitMFC_DLL@DV?$ChTraitsCRT@D@ATL@@@@@ATL@@V?$allocator@V?$CStringT@DV?$StrTraitMFC_DLL@DV?$ChTraitsCRT@D@ATL@@@@@ATL@@@std@@@std@@QAE@XZ 100ced20 f i NoChat.obj
 0002:00077dc0       ??1?$_Vector_alloc@U?$_Vec_base_types@KV?$allocator@K@std@@@std@@@std@@QAE@XZ 100cedc0 f i NoChat.obj
 0002:00077e50       ??1?$_Vector_alloc@U?$_Vec_base_types@MV?$allocator@M@std@@@std@@@std@@QAE@XZ 100cee50 f i NoChat.obj
 0002:00077ee0       ??1?$_Vector_alloc@U?$_Vec_base_types@V?$CStringT@DV?$StrTraitMFC_DLL@DV?$ChTraitsCRT@D@ATL@@@@@ATL@@V?$allocator@V?$CStringT@DV?$StrTraitMFC_DLL@DV?$ChTraitsCRT@D@ATL@@@@@ATL@@@std@@@std@@@std@@QAE@XZ 100ceee0 f i NoChat.obj
 0002:00077f70       ??1?$vector@KV?$allocator@K@std@@@std@@QAE@XZ 100cef70 f i NoChat.obj
 0002:00078000       ??1?$vector@MV?$allocator@M@std@@@std@@QAE@XZ 100cf000 f i NoChat.obj
 0002:00078090       ??1?$vector@V?$CStringT@DV?$StrTraitMFC_DLL@DV?$ChTraitsCRT@D@ATL@@@@@ATL@@V?$allocator@V?$CStringT@DV?$StrTraitMFC_DLL@DV?$ChTraitsCRT@D@ATL@@@@@ATL@@@std@@@std@@QAE@XZ 100cf090 f i NoChat.obj
 0002:00078120       ??1CNoChat@UTIL@NMBASE@@UAE@XZ 100cf120 f   NoChat.obj
 0002:000781c0       ??4CNoChat@UTIL@NMBASE@@QAEAAV012@ABV012@@Z 100cf1c0 f i NoChat.obj
 0002:000782c0       ??A?$vector@KV?$allocator@K@std@@@std@@QAEAAKI@Z 100cf2c0 f i NoChat.obj
 0002:000783b0       ??A?$vector@MV?$allocator@M@std@@@std@@QAEAAMI@Z 100cf3b0 f i NoChat.obj
 0002:000784a0       ??A?$vector@V?$CStringT@DV?$StrTraitMFC_DLL@DV?$ChTraitsCRT@D@ATL@@@@@ATL@@V?$allocator@V?$CStringT@DV?$StrTraitMFC_DLL@DV?$ChTraitsCRT@D@ATL@@@@@ATL@@@std@@@std@@QAEAAV?$CStringT@DV?$StrTraitMFC_DLL@DV?$ChTraitsCRT@D@ATL@@@@@ATL@@I@Z 100cf4a0 f i NoChat.obj
 0002:00078590       ??_ECNoChat@UTIL@NMBASE@@UAEPAXI@Z 100cf590 f i NoChat.obj
 0002:00078690       ??_GCNoChat@UTIL@NMBASE@@UAEPAXI@Z 100cf690 f i NoChat.obj
 0002:00078700       ?AddChat@CNoChat@UTIL@NMBASE@@QAEXPBD@Z 100cf700 f   NoChat.obj
 0002:00078810       ?ChatClac@CNoChat@UTIL@NMBASE@@QAEHV?$CStringT@DV?$StrTraitMFC_DLL@DV?$ChTraitsCRT@D@ATL@@@@@ATL@@0@Z 100cf810 f   NoChat.obj
 0002:00078b90       ?CheckNoChat2@CNoChat@UTIL@NMBASE@@QAEHXZ 100cfb90 f   NoChat.obj
 0002:00078f30       ?CheckNoChat@CNoChat@UTIL@NMBASE@@QAEHAAV?$CStringT@DV?$StrTraitMFC_DLL@DV?$ChTraitsCRT@D@ATL@@@@@ATL@@@Z 100cff30 f   NoChat.obj
 0002:00078fa0       ?CheckNoChat@CNoChat@UTIL@NMBASE@@QAEHPBD@Z 100cffa0 f   NoChat.obj
 0002:00079260       ?_Alloc_proxy@?$_Vector_alloc@U?$_Vec_base_types@KV?$allocator@K@std@@@std@@@std@@QAEXXZ 100d0260 f i NoChat.obj
 0002:00079380       ?_Alloc_proxy@?$_Vector_alloc@U?$_Vec_base_types@MV?$allocator@M@std@@@std@@@std@@QAEXXZ 100d0380 f i NoChat.obj
 0002:000794a0       ?_Alloc_proxy@?$_Vector_alloc@U?$_Vec_base_types@V?$CStringT@DV?$StrTraitMFC_DLL@DV?$ChTraitsCRT@D@ATL@@@@@ATL@@V?$allocator@V?$CStringT@DV?$StrTraitMFC_DLL@DV?$ChTraitsCRT@D@ATL@@@@@ATL@@@std@@@std@@@std@@QAEXXZ 100d04a0 f i NoChat.obj
 0002:000795c0       ?_Calculate_growth@?$vector@KV?$allocator@K@std@@@std@@ABEII@Z 100d05c0 f i NoChat.obj
 0002:00079660       ?_Calculate_growth@?$vector@MV?$allocator@M@std@@@std@@ABEII@Z 100d0660 f i NoChat.obj
 0002:00079700       ?_Calculate_growth@?$vector@V?$CStringT@DV?$StrTraitMFC_DLL@DV?$ChTraitsCRT@D@ATL@@@@@ATL@@V?$allocator@V?$CStringT@DV?$StrTraitMFC_DLL@DV?$ChTraitsCRT@D@ATL@@@@@ATL@@@std@@@std@@ABEII@Z 100d0700 f i NoChat.obj
 0002:000797a0       ?_Change_array@?$vector@KV?$allocator@K@std@@@std@@AAEXQAKII@Z 100d07a0 f i NoChat.obj
 0002:000798a0       ?_Change_array@?$vector@MV?$allocator@M@std@@@std@@AAEXQAMII@Z 100d08a0 f i NoChat.obj
 0002:000799a0       ?_Change_array@?$vector@V?$CStringT@DV?$StrTraitMFC_DLL@DV?$ChTraitsCRT@D@ATL@@@@@ATL@@V?$allocator@V?$CStringT@DV?$StrTraitMFC_DLL@DV?$ChTraitsCRT@D@ATL@@@@@ATL@@@std@@@std@@AAEXQAV?$CStringT@DV?$StrTraitMFC_DLL@DV?$ChTraitsCRT@D@ATL@@@@@ATL@@II@Z 100d09a0 f i NoChat.obj
 0002:00079aa0       ?_Destroy@?$vector@KV?$allocator@K@std@@@std@@AAEXPAK0@Z 100d0aa0 f i NoChat.obj
 0002:00079b10       ?_Destroy@?$vector@MV?$allocator@M@std@@@std@@AAEXPAM0@Z 100d0b10 f i NoChat.obj
 0002:00079b80       ?_Destroy@?$vector@V?$CStringT@DV?$StrTraitMFC_DLL@DV?$ChTraitsCRT@D@ATL@@@@@ATL@@V?$allocator@V?$CStringT@DV?$StrTraitMFC_DLL@DV?$ChTraitsCRT@D@ATL@@@@@ATL@@@std@@@std@@AAEXPAV?$CStringT@DV?$StrTraitMFC_DLL@DV?$ChTraitsCRT@D@ATL@@@@@ATL@@0@Z 100d0b80 f i NoChat.obj
 0002:00079bf0       ?_Free_proxy@?$_Vector_alloc@U?$_Vec_base_types@KV?$allocator@K@std@@@std@@@std@@QAEXXZ 100d0bf0 f i NoChat.obj
 0002:00079cf0       ?_Free_proxy@?$_Vector_alloc@U?$_Vec_base_types@MV?$allocator@M@std@@@std@@@std@@QAEXXZ 100d0cf0 f i NoChat.obj
